ARM GAS  C:\Users\JAMESS~1\AppData\Local\Temp\ccSFa4Kp.s 			page 1


   1              		.syntax unified
   2              		.cpu cortex-m0
   3              		.fpu softvfp
   4              		.eabi_attribute 20, 1
   5              		.eabi_attribute 21, 1
   6              		.eabi_attribute 23, 3
   7              		.eabi_attribute 24, 1
   8              		.eabi_attribute 25, 1
   9              		.eabi_attribute 26, 1
  10              		.eabi_attribute 30, 1
  11              		.eabi_attribute 34, 0
  12              		.eabi_attribute 18, 4
  13              		.thumb
  14              		.syntax unified
  15              		.file	"StripLights.c"
  16              		.text
  17              	.Ltext0:
  18              		.cfi_sections	.debug_frame
  19              		.section	.text.StripLights_FISR,"ax",%progbits
  20              		.align	2
  21              		.global	StripLights_FISR
  22              		.code	16
  23              		.thumb_func
  24              		.type	StripLights_FISR, %function
  25              	StripLights_FISR:
  26              	.LFB41:
  27              		.file 1 "Generated_Source\\PSoC4\\StripLights.c"
   1:Generated_Source\PSoC4/StripLights.c **** /* =========================================================
   2:Generated_Source\PSoC4/StripLights.c ****  *
   3:Generated_Source\PSoC4/StripLights.c ****  * Strip Light Controller
   4:Generated_Source\PSoC4/StripLights.c ****  * By Mark Hastings
   5:Generated_Source\PSoC4/StripLights.c ****  *
   6:Generated_Source\PSoC4/StripLights.c ****  * 10/28/2015 MEH Added support for SF2812RGBW
   7:Generated_Source\PSoC4/StripLights.c ****  *                Allow for a more flexible bus clock selection
   8:Generated_Source\PSoC4/StripLights.c ****  * 12/12/2015 MEH Fixed a bug that may cause the interface
   9:Generated_Source\PSoC4/StripLights.c ****  *                to hang when many other ISRs are running.
  10:Generated_Source\PSoC4/StripLights.c ****  *
  11:Generated_Source\PSoC4/StripLights.c ****  * This file contains the functions required to control each
  12:Generated_Source\PSoC4/StripLights.c ****  * lighting control channel.
  13:Generated_Source\PSoC4/StripLights.c ****  *
  14:Generated_Source\PSoC4/StripLights.c ****  * =========================================================
  15:Generated_Source\PSoC4/StripLights.c **** */
  16:Generated_Source\PSoC4/StripLights.c **** 
  17:Generated_Source\PSoC4/StripLights.c **** #include <project.h>
  18:Generated_Source\PSoC4/StripLights.c **** #include "cytypes.h"
  19:Generated_Source\PSoC4/StripLights.c **** #include "stdlib.h"
  20:Generated_Source\PSoC4/StripLights.c **** #include "cyfitter.h"
  21:Generated_Source\PSoC4/StripLights.c **** #include "StripLights.h"
  22:Generated_Source\PSoC4/StripLights.c **** #include "StripLights_fonts.h"
  23:Generated_Source\PSoC4/StripLights.c **** 
  24:Generated_Source\PSoC4/StripLights.c **** 
  25:Generated_Source\PSoC4/StripLights.c **** void   (*StripLights_EnterCritical)() = (funcPtr)0;
  26:Generated_Source\PSoC4/StripLights.c **** void   (*StripLights_ExitCritical)() = (funcPtr)0;
  27:Generated_Source\PSoC4/StripLights.c **** 
  28:Generated_Source\PSoC4/StripLights.c **** 
  29:Generated_Source\PSoC4/StripLights.c **** uint8  StripLights_initvar = 0;
  30:Generated_Source\PSoC4/StripLights.c **** 
ARM GAS  C:\Users\JAMESS~1\AppData\Local\Temp\ccSFa4Kp.s 			page 2


  31:Generated_Source\PSoC4/StripLights.c **** #if(StripLights_MEMORY_TYPE == StripLights_MEMORY_RGB)
  32:Generated_Source\PSoC4/StripLights.c **** uint32  StripLights_ledArray[StripLights_ARRAY_ROWS][StripLights_ARRAY_COLS];
  33:Generated_Source\PSoC4/StripLights.c **** #else
  34:Generated_Source\PSoC4/StripLights.c **** uint8   StripLights_ledArray[StripLights_ARRAY_ROWS][StripLights_ARRAY_COLS];
  35:Generated_Source\PSoC4/StripLights.c **** #endif
  36:Generated_Source\PSoC4/StripLights.c **** 
  37:Generated_Source\PSoC4/StripLights.c **** uint32  StripLights_ledIndex = 0;  
  38:Generated_Source\PSoC4/StripLights.c **** uint32  StripLights_row = 0;
  39:Generated_Source\PSoC4/StripLights.c **** uint32  StripLights_refreshComplete;
  40:Generated_Source\PSoC4/StripLights.c **** 
  41:Generated_Source\PSoC4/StripLights.c **** uint32  StripLights_DimMask;
  42:Generated_Source\PSoC4/StripLights.c **** uint32  StripLights_DimShift;
  43:Generated_Source\PSoC4/StripLights.c **** 
  44:Generated_Source\PSoC4/StripLights.c **** #if( StripLights_GAMMA_CORRECTION == StripLights_GAMMA_ON )
  45:Generated_Source\PSoC4/StripLights.c **** const uint8 StripLights_gamma[] = {
  46:Generated_Source\PSoC4/StripLights.c ****     0,  0,  0,  0,  0,  0,  0,  0,  0,  0,  0,  0,  0,  0,  0,  0,
  47:Generated_Source\PSoC4/StripLights.c ****     0,  0,  0,  0,  0,  0,  0,  0,  0,  0,  0,  0,  1,  1,  1,  1,
  48:Generated_Source\PSoC4/StripLights.c ****     1,  1,  1,  1,  1,  1,  1,  1,  1,  2,  2,  2,  2,  2,  2,  2,
  49:Generated_Source\PSoC4/StripLights.c ****     2,  3,  3,  3,  3,  3,  3,  3,  4,  4,  4,  4,  4,  5,  5,  5,
  50:Generated_Source\PSoC4/StripLights.c ****     5,  6,  6,  6,  6,  7,  7,  7,  7,  8,  8,  8,  9,  9,  9, 10,
  51:Generated_Source\PSoC4/StripLights.c ****    10, 10, 11, 11, 11, 12, 12, 13, 13, 13, 14, 14, 15, 15, 16, 16,
  52:Generated_Source\PSoC4/StripLights.c ****    17, 17, 18, 18, 19, 19, 20, 20, 21, 21, 22, 22, 23, 24, 24, 25,
  53:Generated_Source\PSoC4/StripLights.c ****    25, 26, 27, 27, 28, 29, 29, 30, 31, 32, 32, 33, 34, 35, 35, 36,
  54:Generated_Source\PSoC4/StripLights.c ****    37, 38, 39, 39, 40, 41, 42, 43, 44, 45, 46, 47, 48, 49, 50, 50,
  55:Generated_Source\PSoC4/StripLights.c ****    51, 52, 54, 55, 56, 57, 58, 59, 60, 61, 62, 63, 64, 66, 67, 68,
  56:Generated_Source\PSoC4/StripLights.c ****    69, 70, 72, 73, 74, 75, 77, 78, 79, 81, 82, 83, 85, 86, 87, 89,
  57:Generated_Source\PSoC4/StripLights.c ****    90, 92, 93, 95, 96, 98, 99,101,102,104,105,107,109,110,112,114,
  58:Generated_Source\PSoC4/StripLights.c ****   115,117,119,120,122,124,126,127,129,131,133,135,137,138,140,142,
  59:Generated_Source\PSoC4/StripLights.c ****   144,146,148,150,152,154,156,158,160,162,164,167,169,171,173,175,
  60:Generated_Source\PSoC4/StripLights.c ****   177,180,182,184,186,189,191,193,196,198,200,203,205,208,210,213,
  61:Generated_Source\PSoC4/StripLights.c ****   215,218,220,223,225,228,231,233,236,239,241,244,247,249,252,255 };
  62:Generated_Source\PSoC4/StripLights.c **** 
  63:Generated_Source\PSoC4/StripLights.c **** #endif
  64:Generated_Source\PSoC4/StripLights.c **** 
  65:Generated_Source\PSoC4/StripLights.c **** #if (StripLights_LED_LAYOUT == StripLights_LED_LAYOUT_GRID16X16)
  66:Generated_Source\PSoC4/StripLights.c ****  uint8 const StripLights_cTrans[16][16] =  {
  67:Generated_Source\PSoC4/StripLights.c **** 	/*  0  */  {  0,  1,  2,  3,  4,  5,  6,  7,  8,  9, 10, 11, 12, 13, 14, 15},
  68:Generated_Source\PSoC4/StripLights.c ****     /*  1  */  { 31, 30, 29, 28, 27, 26, 25, 24, 23, 22, 21, 20, 19, 18, 17, 16},
  69:Generated_Source\PSoC4/StripLights.c **** 	/*  2  */  { 32, 33, 34, 35, 36, 37, 38, 39, 40, 41, 42, 43, 44, 45, 46, 47},
  70:Generated_Source\PSoC4/StripLights.c **** 	/*  3  */  { 63, 62, 61, 60, 59, 58, 57, 56, 55, 54, 53, 52, 51, 50, 49, 48}, 
  71:Generated_Source\PSoC4/StripLights.c **** 	/*  4  */  { 64, 65, 66, 67, 68, 69, 70, 71, 72, 73, 74, 75, 76, 77, 78, 79},
  72:Generated_Source\PSoC4/StripLights.c **** 	/*  5  */  { 95, 94, 93, 92, 91, 90, 89, 88, 87, 86, 85, 84, 83, 82, 81, 80},
  73:Generated_Source\PSoC4/StripLights.c **** 	/*  6  */  { 96, 97, 98, 99,100,101,102,103,104,105,106,107,108,109,110,111},
  74:Generated_Source\PSoC4/StripLights.c **** 	/*  7  */  {127,126,125,124,123,122,121,120,119,118,117,116,115,114,113,112},
  75:Generated_Source\PSoC4/StripLights.c **** 	/*  8  */  {128,129,130,131,132,133,134,135,136,137,138,139,140,141,142,143},
  76:Generated_Source\PSoC4/StripLights.c **** 	/*  9  */  {159,158,157,156,155,154,153,152,151,150,149,148,147,146,145,144},
  77:Generated_Source\PSoC4/StripLights.c **** 	/* 10  */  {160,161,162,163,164,165,166,167,168,169,170,171,172,173,174,175},
  78:Generated_Source\PSoC4/StripLights.c **** 	/* 11  */  {191,190,189,188,187,186,185,184,183,182,181,180,179,178,177,176},
  79:Generated_Source\PSoC4/StripLights.c **** 	/* 12  */  {192,193,194,195,196,197,198,199,200,201,202,203,204,205,206,207},
  80:Generated_Source\PSoC4/StripLights.c **** 	/* 13  */  {223,222,221,220,219,218,217,216,215,214,213,212,211,210,209,208},
  81:Generated_Source\PSoC4/StripLights.c **** 	/* 14  */  {224,225,226,227,228,229,230,231,232,233,234,235,236,237,238,239},
  82:Generated_Source\PSoC4/StripLights.c **** 	/* 15  */  {255,254,253,252,251,250,249,248,247,246,245,244,243,242,241,240}};   
  83:Generated_Source\PSoC4/StripLights.c **** #endif
  84:Generated_Source\PSoC4/StripLights.c **** 
  85:Generated_Source\PSoC4/StripLights.c **** 
  86:Generated_Source\PSoC4/StripLights.c **** #if((StripLights_CHIP == StripLights_CHIP_WS2812) || (StripLights_CHIP == StripLights_CHIP_SF2812RG
  87:Generated_Source\PSoC4/StripLights.c **** const uint32 StripLights_CLUT[ ] = {
ARM GAS  C:\Users\JAMESS~1\AppData\Local\Temp\ccSFa4Kp.s 			page 3


  88:Generated_Source\PSoC4/StripLights.c **** //xxBBRRGG (WS2812)
  89:Generated_Source\PSoC4/StripLights.c **** //     (24)   [ Index = 0 ]
  90:Generated_Source\PSoC4/StripLights.c **** 0x0000FFFF,  // 0 Yellow
  91:Generated_Source\PSoC4/StripLights.c **** 0x0000CCFF,
  92:Generated_Source\PSoC4/StripLights.c **** 0x000099FF,
  93:Generated_Source\PSoC4/StripLights.c **** 0x000033FF,
  94:Generated_Source\PSoC4/StripLights.c **** 0x000000FF,  // 5  Green
  95:Generated_Source\PSoC4/StripLights.c **** 0x006600B3,
  96:Generated_Source\PSoC4/StripLights.c **** 0x00990099, 
  97:Generated_Source\PSoC4/StripLights.c **** 0x00B30066, 
  98:Generated_Source\PSoC4/StripLights.c **** 0x00CC0033,  // 9 Blue
  99:Generated_Source\PSoC4/StripLights.c **** 0x00B31919, 
 100:Generated_Source\PSoC4/StripLights.c **** 0x00993300, 
 101:Generated_Source\PSoC4/StripLights.c **** 0x00994000, 
 102:Generated_Source\PSoC4/StripLights.c **** 0x00996600, 
 103:Generated_Source\PSoC4/StripLights.c **** 0x00999900, 
 104:Generated_Source\PSoC4/StripLights.c **** 0x0099CC00, 
 105:Generated_Source\PSoC4/StripLights.c **** 0x0066E600, 
 106:Generated_Source\PSoC4/StripLights.c **** 0x0000FF00, // Red
 107:Generated_Source\PSoC4/StripLights.c **** 0x0000FF33, 
 108:Generated_Source\PSoC4/StripLights.c **** 0x0000FF66, 
 109:Generated_Source\PSoC4/StripLights.c **** 0x0000FF80, 
 110:Generated_Source\PSoC4/StripLights.c **** 0x0000FF99,  // 20 Orange
 111:Generated_Source\PSoC4/StripLights.c **** 0x0000FFB2, 
 112:Generated_Source\PSoC4/StripLights.c **** 0x0000FFCC, 
 113:Generated_Source\PSoC4/StripLights.c **** 0x0000FFE5,
 114:Generated_Source\PSoC4/StripLights.c **** // #24
 115:Generated_Source\PSoC4/StripLights.c **** 
 116:Generated_Source\PSoC4/StripLights.c **** //xxBBRRGG  (64)  [ Index = 24 ]
 117:Generated_Source\PSoC4/StripLights.c **** 0x00000000, 0x00550000, 0x00AA0000, 0x00FF0000,  // 0, Black,  LtBlue, MBlue, Blue
 118:Generated_Source\PSoC4/StripLights.c **** 0x00000055, 0x00550055, 0x00AA0055, 0x00FF0055,  // 4, LtGreen
 119:Generated_Source\PSoC4/StripLights.c **** 0x000000AA, 0x005500AA, 0x00AA00AA, 0x00FF00AA,  // 8, MGreen
 120:Generated_Source\PSoC4/StripLights.c **** 0x000000FF, 0x005500FF, 0x00AA00FF, 0x00FF00FF,  // 12 Green
 121:Generated_Source\PSoC4/StripLights.c **** 
 122:Generated_Source\PSoC4/StripLights.c **** 0x00005500, 0x00555500, 0x00AA5500, 0x00FF5500,  // 16, LtRed
 123:Generated_Source\PSoC4/StripLights.c **** 0x00005555, 0x00555555, 0x00AA5555, 0x00FF5555,  // 20, LtYellow
 124:Generated_Source\PSoC4/StripLights.c **** 0x000055AA, 0x005555AA, 0x00AA55AA, 0x00FF55AA,  // 24, 
 125:Generated_Source\PSoC4/StripLights.c **** 0x000055FF, 0x005555FF, 0x00AA55FF, 0x00FF55FF,  // 28,
 126:Generated_Source\PSoC4/StripLights.c **** 
 127:Generated_Source\PSoC4/StripLights.c **** 0x0000AA00, 0x0055AA00, 0x00AAAA00, 0x00FFAA00,  // 32, MRed
 128:Generated_Source\PSoC4/StripLights.c **** 0x0000AA55, 0x0055AA55, 0x00AAAA55, 0x00FFAA55,  // 36, 
 129:Generated_Source\PSoC4/StripLights.c **** 0x0000AAAA, 0x0055AAAA, 0x00AAAAAA, 0x00FFAAAA,  // 55, 
 130:Generated_Source\PSoC4/StripLights.c **** 0x0000AAFF, 0x0055AAFF, 0x00AAAAFF, 0x00FFAAFF,  // 44, 
 131:Generated_Source\PSoC4/StripLights.c **** 
 132:Generated_Source\PSoC4/StripLights.c **** 0x0000FF00, 0x0055FF00, 0x00AAFF00, 0x00FFFF00,  // 48, Red, ??, ??, Magenta
 133:Generated_Source\PSoC4/StripLights.c **** 0x0000FF55, 0x0055FF55, 0x00AAFF55, 0x00FFFF55,  // 52,
 134:Generated_Source\PSoC4/StripLights.c **** 0x0000FFAA, 0x0055FFAA, 0x00AAFFAA, 0x00FFFFAA,  // 56,
 135:Generated_Source\PSoC4/StripLights.c **** 0x0000FFFF, 0x0055FFFF, 0x00AAFFFF, 0x00FFFFFF,  // 60, Yellow,??, ??, White
 136:Generated_Source\PSoC4/StripLights.c **** 
 137:Generated_Source\PSoC4/StripLights.c **** // Misc ( 16 )  [ Index = 88 ]
 138:Generated_Source\PSoC4/StripLights.c **** 0x000080FF,  // SPRING_GREEN
 139:Generated_Source\PSoC4/StripLights.c **** 0x008000FF,  // TURQUOSE
 140:Generated_Source\PSoC4/StripLights.c **** 0x00FF00FF,  // CYAN
 141:Generated_Source\PSoC4/StripLights.c **** 0x00FF0080,  // OCEAN
 142:Generated_Source\PSoC4/StripLights.c **** 0x00FF8000,  // VIOLET
 143:Generated_Source\PSoC4/StripLights.c **** 0x0080FF00,  // RASPBERRY
 144:Generated_Source\PSoC4/StripLights.c **** 0x000000FF,  // GREEN
ARM GAS  C:\Users\JAMESS~1\AppData\Local\Temp\ccSFa4Kp.s 			page 4


 145:Generated_Source\PSoC4/StripLights.c **** 0x00202020,  // DIM WHITE
 146:Generated_Source\PSoC4/StripLights.c **** 0x00200000,  // DIM BLUE
 147:Generated_Source\PSoC4/StripLights.c **** 0x10000000,  // INVISIBLE
 148:Generated_Source\PSoC4/StripLights.c **** 0x0000FF00,  // Fire_Dark
 149:Generated_Source\PSoC4/StripLights.c **** 0x0000FF30,  // Fire_Light  // 00FF80
 150:Generated_Source\PSoC4/StripLights.c **** 0xFFFFFFFF,  // Full White
 151:Generated_Source\PSoC4/StripLights.c **** 0xFF000000,  // LED_WHITE
 152:Generated_Source\PSoC4/StripLights.c **** 0xFF808080,  // WHITE_RGB50
 153:Generated_Source\PSoC4/StripLights.c **** 0xFF404040,  // WHITE_RGB25
 154:Generated_Source\PSoC4/StripLights.c **** 
 155:Generated_Source\PSoC4/StripLights.c **** // Temperture Color Blue to Red (16) [ Index = 104 ]
 156:Generated_Source\PSoC4/StripLights.c **** 0x00FF0000, 0x00F01000, 0x00E02000, 0x00D03000,
 157:Generated_Source\PSoC4/StripLights.c **** 0x00C04000, 0x00B05000, 0x00A06000, 0x00907000,
 158:Generated_Source\PSoC4/StripLights.c **** 0x00808000, 0x00709000, 0x0060A000, 0x0050B000,
 159:Generated_Source\PSoC4/StripLights.c **** 0x0040C000, 0x0030D000, 0x0020E000, 0x0000FF00
 160:Generated_Source\PSoC4/StripLights.c **** };
 161:Generated_Source\PSoC4/StripLights.c **** #else  //xxBBGGRR (WS2811)
 162:Generated_Source\PSoC4/StripLights.c **** const uint32 StripLights_CLUT[ ] = {
 163:Generated_Source\PSoC4/StripLights.c **** //     (24)   [ Index = 0 ]
 164:Generated_Source\PSoC4/StripLights.c **** 0x0000FFFF,  // 0 Yellow
 165:Generated_Source\PSoC4/StripLights.c **** 0x0000FFCC,
 166:Generated_Source\PSoC4/StripLights.c **** 0x0000FF99,
 167:Generated_Source\PSoC4/StripLights.c **** 0x0000FF33,
 168:Generated_Source\PSoC4/StripLights.c **** 0x0000FF00,  // 5  Green
 169:Generated_Source\PSoC4/StripLights.c **** 0x0066B300,
 170:Generated_Source\PSoC4/StripLights.c **** 0x00999900, 
 171:Generated_Source\PSoC4/StripLights.c **** 0x00B36600, 
 172:Generated_Source\PSoC4/StripLights.c **** 0x00CC3300,  // 9 Blue
 173:Generated_Source\PSoC4/StripLights.c **** 0x00B31919, 
 174:Generated_Source\PSoC4/StripLights.c **** 0x00990033, 
 175:Generated_Source\PSoC4/StripLights.c **** 0x00990040, 
 176:Generated_Source\PSoC4/StripLights.c **** 0x00990066, 
 177:Generated_Source\PSoC4/StripLights.c **** 0x00990099, 
 178:Generated_Source\PSoC4/StripLights.c **** 0x009900CC, 
 179:Generated_Source\PSoC4/StripLights.c **** 0x006600E6, 
 180:Generated_Source\PSoC4/StripLights.c **** 0x000000FF, 
 181:Generated_Source\PSoC4/StripLights.c **** 0x000033FF, 
 182:Generated_Source\PSoC4/StripLights.c **** 0x000066FF, 
 183:Generated_Source\PSoC4/StripLights.c **** 0x000080FF, 
 184:Generated_Source\PSoC4/StripLights.c **** 0x000080FF,  // 20 Orange
 185:Generated_Source\PSoC4/StripLights.c **** 0x0000B2FF, 
 186:Generated_Source\PSoC4/StripLights.c **** 0x0000CCFF, 
 187:Generated_Source\PSoC4/StripLights.c **** 0x0000E5FF,
 188:Generated_Source\PSoC4/StripLights.c **** // #24
 189:Generated_Source\PSoC4/StripLights.c **** 
 190:Generated_Source\PSoC4/StripLights.c **** //xxBBGGRR  (64)  [ Index = 24 ]
 191:Generated_Source\PSoC4/StripLights.c **** 0x00000000, 0x00550000, 0x00AA0000, 0x00FF0000,  // 0, Black,  LtBlue, MBlue, Blue
 192:Generated_Source\PSoC4/StripLights.c **** 0x00005500, 0x00555500, 0x00AA5500, 0x00FF5500,  // 4, LtGreen
 193:Generated_Source\PSoC4/StripLights.c **** 0x0000AA00, 0x0055AA00, 0x00AAAA00, 0x00FFAA00,  // 8, MGreen
 194:Generated_Source\PSoC4/StripLights.c **** 0x0000FF00, 0x0055FF00, 0x00AAFF00, 0x00FFFF00,  // 12 Green
 195:Generated_Source\PSoC4/StripLights.c **** 
 196:Generated_Source\PSoC4/StripLights.c **** 0x00000055, 0x00550055, 0x00AA0055, 0x00FF0055,  // 16, LtRed
 197:Generated_Source\PSoC4/StripLights.c **** 0x00005555, 0x00555555, 0x00AA5555, 0x00FF5555,  // 20, LtYellow
 198:Generated_Source\PSoC4/StripLights.c **** 0x0000AA55, 0x0055AA55, 0x00AAAA55, 0x00FFAA55,  // 24, 
 199:Generated_Source\PSoC4/StripLights.c **** 0x0000FF55, 0x0055FF55, 0x00AAFF55, 0x00FFFF55,  // 28,
 200:Generated_Source\PSoC4/StripLights.c **** 
 201:Generated_Source\PSoC4/StripLights.c **** 0x000000AA, 0x005500AA, 0x00AA00AA, 0x00FF00AA,  // 32, MRed
ARM GAS  C:\Users\JAMESS~1\AppData\Local\Temp\ccSFa4Kp.s 			page 5


 202:Generated_Source\PSoC4/StripLights.c **** 0x000055AA, 0x005555AA, 0x00AA55AA, 0x00FF55AA,  // 36, 
 203:Generated_Source\PSoC4/StripLights.c **** 0x0000AAAA, 0x0055AAAA, 0x00AAAAAA, 0x00FFAAAA,  // 55, 
 204:Generated_Source\PSoC4/StripLights.c **** 0x0000FFAA, 0x0055FFAA, 0x00AAFFAA, 0x00FFFFAA,  // 44, 
 205:Generated_Source\PSoC4/StripLights.c **** 
 206:Generated_Source\PSoC4/StripLights.c **** 0x000000FF, 0x005500FF, 0x00AA00FF, 0x00F00FFF,  // 48, Red, ??, ??, Magenta
 207:Generated_Source\PSoC4/StripLights.c **** 0x000055FF, 0x005555FF, 0x00AA55FF, 0x00FF55FF,  // 52,
 208:Generated_Source\PSoC4/StripLights.c **** 0x0000AAFF, 0x0055AAFF, 0x00AAAAFF, 0x00FFAAFF,  // 56,
 209:Generated_Source\PSoC4/StripLights.c **** 0x0000FFFF, 0x0055FFFF, 0x00AAFFFF, 0x00FFFFFF,  // 60, Yellow,??, ??, White
 210:Generated_Source\PSoC4/StripLights.c **** 
 211:Generated_Source\PSoC4/StripLights.c **** // Misc ( 16 )  [ Index = 88 ]   //xxBBGGRR
 212:Generated_Source\PSoC4/StripLights.c **** 0x0000FF80,  // SPRING_GREEN
 213:Generated_Source\PSoC4/StripLights.c **** 0x0080FF00,  // TURQUOSE
 214:Generated_Source\PSoC4/StripLights.c **** 0x00FFFF00,  // CYAN
 215:Generated_Source\PSoC4/StripLights.c **** 0x00FF8000,  // OCEAN
 216:Generated_Source\PSoC4/StripLights.c **** 0x00FF0080,  // VIOLET
 217:Generated_Source\PSoC4/StripLights.c **** 0x008000FF,  // RASPBERRY
 218:Generated_Source\PSoC4/StripLights.c **** 0x0000FF00,  // GREEN
 219:Generated_Source\PSoC4/StripLights.c **** 0x00202020,  // DIM WHITE
 220:Generated_Source\PSoC4/StripLights.c **** 0x00200000,  // DIM BLUE
 221:Generated_Source\PSoC4/StripLights.c **** 0x10000000,  // INVISIBLE
 222:Generated_Source\PSoC4/StripLights.c **** 0x000000FF,  // Fire_Dark
 223:Generated_Source\PSoC4/StripLights.c **** 0x000030FF,  // Fire_Light  // 0080FF
 224:Generated_Source\PSoC4/StripLights.c **** 0xFFFFFFFF,  // Full White
 225:Generated_Source\PSoC4/StripLights.c **** 0xFF000000,  // White_LED
 226:Generated_Source\PSoC4/StripLights.c **** 0xFF808080,  // WHITE_RGB50
 227:Generated_Source\PSoC4/StripLights.c **** 0xFF404040,  // WHITE_RGB25
 228:Generated_Source\PSoC4/StripLights.c **** 
 229:Generated_Source\PSoC4/StripLights.c **** // Temperture Color Blue to Red (16) [ Index = 104 ]
 230:Generated_Source\PSoC4/StripLights.c **** 0x00FF0000, 0x00F00010, 0x00E00020, 0x00D00030,
 231:Generated_Source\PSoC4/StripLights.c **** 0x00C00040, 0x00B00050, 0x00A00060, 0x00900070,
 232:Generated_Source\PSoC4/StripLights.c **** 0x00800080, 0x00700090, 0x006000A0, 0x005000B0,
 233:Generated_Source\PSoC4/StripLights.c **** 0x004000C0, 0x003000D0, 0x002000E0, 0x000000FF
 234:Generated_Source\PSoC4/StripLights.c **** };
 235:Generated_Source\PSoC4/StripLights.c **** #endif
 236:Generated_Source\PSoC4/StripLights.c **** 
 237:Generated_Source\PSoC4/StripLights.c **** 
 238:Generated_Source\PSoC4/StripLights.c **** 
 239:Generated_Source\PSoC4/StripLights.c **** /*******************************************************************************
 240:Generated_Source\PSoC4/StripLights.c **** * Function Name: StripLights_Start
 241:Generated_Source\PSoC4/StripLights.c **** ********************************************************************************
 242:Generated_Source\PSoC4/StripLights.c **** * Summary:
 243:Generated_Source\PSoC4/StripLights.c **** *  Initialize the hardware. 
 244:Generated_Source\PSoC4/StripLights.c **** *
 245:Generated_Source\PSoC4/StripLights.c **** * Parameters:  
 246:Generated_Source\PSoC4/StripLights.c **** *  void  
 247:Generated_Source\PSoC4/StripLights.c **** *
 248:Generated_Source\PSoC4/StripLights.c **** * Return: 
 249:Generated_Source\PSoC4/StripLights.c **** *  void
 250:Generated_Source\PSoC4/StripLights.c **** *
 251:Generated_Source\PSoC4/StripLights.c **** *******************************************************************************/
 252:Generated_Source\PSoC4/StripLights.c **** void StripLights_Start()
 253:Generated_Source\PSoC4/StripLights.c **** {
 254:Generated_Source\PSoC4/StripLights.c ****     extern uint8 StripLights_initvar;
 255:Generated_Source\PSoC4/StripLights.c ****     extern uint32 StripLights_refreshComplete;
 256:Generated_Source\PSoC4/StripLights.c **** 
 257:Generated_Source\PSoC4/StripLights.c ****     #if (CY_PSOC3 || CY_PSOC5LP)
 258:Generated_Source\PSoC4/StripLights.c ****         int32   StripLights_realClock; 
ARM GAS  C:\Users\JAMESS~1\AppData\Local\Temp\ccSFa4Kp.s 			page 6


 259:Generated_Source\PSoC4/StripLights.c ****         int16   StripLights_period;
 260:Generated_Source\PSoC4/StripLights.c ****         int16   StripLights_dataZero;
 261:Generated_Source\PSoC4/StripLights.c ****         int16   StripLights_dataOne;
 262:Generated_Source\PSoC4/StripLights.c ****     #endif /* CY_PSOC5A */
 263:Generated_Source\PSoC4/StripLights.c **** 
 264:Generated_Source\PSoC4/StripLights.c ****     StripLights_ACTL0_REG = StripLights_DISABLE_FIFO;
 265:Generated_Source\PSoC4/StripLights.c **** 
 266:Generated_Source\PSoC4/StripLights.c ****     #if (CY_PSOC3 || CY_PSOC5LP)
 267:Generated_Source\PSoC4/StripLights.c ****         StripLights_realClock = (int32)StripLights_INPUT_CLOCK / (int32)(StripLights_Clock_DIV_LSB 
 268:Generated_Source\PSoC4/StripLights.c ****         StripLights_period    = (int16)(StripLights_realClock/StripLights_WS281X_CLOCK );
 269:Generated_Source\PSoC4/StripLights.c ****         
 270:Generated_Source\PSoC4/StripLights.c ****         StripLights_dataZero  = ((StripLights_period * StripLights_TIME_T0H)/StripLights_TIME_TL_TH
 271:Generated_Source\PSoC4/StripLights.c ****         StripLights_dataOne   = ((StripLights_period * StripLights_TIME_T1H)/StripLights_TIME_TL_TH
 272:Generated_Source\PSoC4/StripLights.c ****         
 273:Generated_Source\PSoC4/StripLights.c ****         StripLights_Period    = (uint8)(StripLights_period - 1);
 274:Generated_Source\PSoC4/StripLights.c ****         StripLights_Compare0  = (uint8)(StripLights_period - StripLights_dataZero);
 275:Generated_Source\PSoC4/StripLights.c ****         StripLights_Compare1  = (uint8)(StripLights_period - StripLights_dataOne);
 276:Generated_Source\PSoC4/StripLights.c **** 
 277:Generated_Source\PSoC4/StripLights.c ****     #elif (CY_PSOC4)
 278:Generated_Source\PSoC4/StripLights.c ****  
 279:Generated_Source\PSoC4/StripLights.c ****         StripLights_Period   = (uint8)StripLights_PERIOD-1;
 280:Generated_Source\PSoC4/StripLights.c ****         StripLights_Compare0 = (uint8)StripLights_COMPARE_ZERO;
 281:Generated_Source\PSoC4/StripLights.c ****         StripLights_Compare1 = (uint8)StripLights_COMPARE_ONE;        
 282:Generated_Source\PSoC4/StripLights.c ****     #endif /* CY_PSOC5A */
 283:Generated_Source\PSoC4/StripLights.c **** 
 284:Generated_Source\PSoC4/StripLights.c ****     
 285:Generated_Source\PSoC4/StripLights.c ****     StripLights_CONTROL = StripLights_ENABLE;
 286:Generated_Source\PSoC4/StripLights.c ****     StripLights_MemClear(StripLights_OFF);
 287:Generated_Source\PSoC4/StripLights.c ****     StripLights_CONTROL = StripLights_DISABLE;
 288:Generated_Source\PSoC4/StripLights.c ****     
 289:Generated_Source\PSoC4/StripLights.c ****     StripLights_SetFont( StripLights_FONT_5X7);
 290:Generated_Source\PSoC4/StripLights.c ****     
 291:Generated_Source\PSoC4/StripLights.c ****     /* Set no dimming, full brightness */
 292:Generated_Source\PSoC4/StripLights.c ****     StripLights_Dim(0); 
 293:Generated_Source\PSoC4/StripLights.c **** 
 294:Generated_Source\PSoC4/StripLights.c ****     if(StripLights_initvar == 0)
 295:Generated_Source\PSoC4/StripLights.c ****     {
 296:Generated_Source\PSoC4/StripLights.c **** 
 297:Generated_Source\PSoC4/StripLights.c ****         StripLights_initvar = 1;
 298:Generated_Source\PSoC4/StripLights.c ****  
 299:Generated_Source\PSoC4/StripLights.c ****          /* Start and set interrupt vector */
 300:Generated_Source\PSoC4/StripLights.c **** 
 301:Generated_Source\PSoC4/StripLights.c **** #if(StripLights_TRANSFER == StripLights_TRANSFER_ISR)
 302:Generated_Source\PSoC4/StripLights.c ****        {
 303:Generated_Source\PSoC4/StripLights.c ****            StripLights_cisr_StartEx(StripLights_CISR);
 304:Generated_Source\PSoC4/StripLights.c **** 		   StripLights_fisr_StartEx(StripLights_FISR);
 305:Generated_Source\PSoC4/StripLights.c ****         
 306:Generated_Source\PSoC4/StripLights.c ****            /* Set the ISRs to the highest priority */
 307:Generated_Source\PSoC4/StripLights.c ****            StripLights_cisr_SetPriority(1u);
 308:Generated_Source\PSoC4/StripLights.c ****            StripLights_fisr_SetPriority(0u);
 309:Generated_Source\PSoC4/StripLights.c ****        }
 310:Generated_Source\PSoC4/StripLights.c **** #endif       
 311:Generated_Source\PSoC4/StripLights.c ****        if(StripLights_TRANSFER == StripLights_TRANSFER_FIRMWARE)
 312:Generated_Source\PSoC4/StripLights.c ****        {
 313:Generated_Source\PSoC4/StripLights.c ****            StripLights_CONTROL = StripLights_ENABLE;    
 314:Generated_Source\PSoC4/StripLights.c ****        }
 315:Generated_Source\PSoC4/StripLights.c ****     }
ARM GAS  C:\Users\JAMESS~1\AppData\Local\Temp\ccSFa4Kp.s 			page 7


 316:Generated_Source\PSoC4/StripLights.c ****     StripLights_refreshComplete = 1;
 317:Generated_Source\PSoC4/StripLights.c **** }
 318:Generated_Source\PSoC4/StripLights.c **** 
 319:Generated_Source\PSoC4/StripLights.c **** /*******************************************************************************
 320:Generated_Source\PSoC4/StripLights.c **** * Function Name: StripLights_SetCriticalFuncs
 321:Generated_Source\PSoC4/StripLights.c **** ********************************************************************************
 322:Generated_Source\PSoC4/StripLights.c **** * Summary:
 323:Generated_Source\PSoC4/StripLights.c **** *   Set the enter and exit critical functions
 324:Generated_Source\PSoC4/StripLights.c **** *
 325:Generated_Source\PSoC4/StripLights.c **** * Parameters:  
 326:Generated_Source\PSoC4/StripLights.c **** *  void  
 327:Generated_Source\PSoC4/StripLights.c **** *
 328:Generated_Source\PSoC4/StripLights.c **** * Return: 
 329:Generated_Source\PSoC4/StripLights.c **** *  void
 330:Generated_Source\PSoC4/StripLights.c **** *
 331:Generated_Source\PSoC4/StripLights.c **** *******************************************************************************/
 332:Generated_Source\PSoC4/StripLights.c **** void StripLights_SetCriticalFuncs(funcPtr EnCriticalFunc, funcPtr ExCriticalFunc)
 333:Generated_Source\PSoC4/StripLights.c **** {
 334:Generated_Source\PSoC4/StripLights.c ****     StripLights_EnterCritical = EnCriticalFunc;
 335:Generated_Source\PSoC4/StripLights.c ****     StripLights_ExitCritical  = ExCriticalFunc;   
 336:Generated_Source\PSoC4/StripLights.c **** }
 337:Generated_Source\PSoC4/StripLights.c **** 
 338:Generated_Source\PSoC4/StripLights.c **** /*******************************************************************************
 339:Generated_Source\PSoC4/StripLights.c **** * Function Name: StripLights_TriggerWaitDelay
 340:Generated_Source\PSoC4/StripLights.c **** ********************************************************************************
 341:Generated_Source\PSoC4/StripLights.c **** * Summary:
 342:Generated_Source\PSoC4/StripLights.c **** *   Update the LEDs then wait for completion.
 343:Generated_Source\PSoC4/StripLights.c **** *
 344:Generated_Source\PSoC4/StripLights.c **** * Parameters:  
 345:Generated_Source\PSoC4/StripLights.c **** *  void  
 346:Generated_Source\PSoC4/StripLights.c **** *
 347:Generated_Source\PSoC4/StripLights.c **** * Return: 
 348:Generated_Source\PSoC4/StripLights.c **** *  void
 349:Generated_Source\PSoC4/StripLights.c **** *
 350:Generated_Source\PSoC4/StripLights.c **** *******************************************************************************/
 351:Generated_Source\PSoC4/StripLights.c **** void StripLights_TriggerWaitDelay(uint32 delay)
 352:Generated_Source\PSoC4/StripLights.c **** {
 353:Generated_Source\PSoC4/StripLights.c **** 
 354:Generated_Source\PSoC4/StripLights.c ****     uint32 toCount = 0;
 355:Generated_Source\PSoC4/StripLights.c ****     
 356:Generated_Source\PSoC4/StripLights.c ****     // Call Critical section function here
 357:Generated_Source\PSoC4/StripLights.c ****     if(StripLights_EnterCritical != (funcPtr)0)
 358:Generated_Source\PSoC4/StripLights.c ****     {
 359:Generated_Source\PSoC4/StripLights.c ****         StripLights_EnterCritical();    
 360:Generated_Source\PSoC4/StripLights.c ****     }
 361:Generated_Source\PSoC4/StripLights.c ****     
 362:Generated_Source\PSoC4/StripLights.c ****     StripLights_Trigger(1);           // Trigger the LED update
 363:Generated_Source\PSoC4/StripLights.c ****     
 364:Generated_Source\PSoC4/StripLights.c ****     while( StripLights_Ready() == 0)
 365:Generated_Source\PSoC4/StripLights.c ****     {
 366:Generated_Source\PSoC4/StripLights.c ****         if(toCount > (StripLights_READY_TIMEOUT  * 10)) break; 
 367:Generated_Source\PSoC4/StripLights.c ****         CyDelayUs(100);  
 368:Generated_Source\PSoC4/StripLights.c ****         toCount++;
 369:Generated_Source\PSoC4/StripLights.c ****     }
 370:Generated_Source\PSoC4/StripLights.c ****     
 371:Generated_Source\PSoC4/StripLights.c ****     while(toCount < (delay*10)) 
 372:Generated_Source\PSoC4/StripLights.c ****     {
ARM GAS  C:\Users\JAMESS~1\AppData\Local\Temp\ccSFa4Kp.s 			page 8


 373:Generated_Source\PSoC4/StripLights.c ****         toCount++;
 374:Generated_Source\PSoC4/StripLights.c ****         CyDelayUs(100); 
 375:Generated_Source\PSoC4/StripLights.c ****     }
 376:Generated_Source\PSoC4/StripLights.c ****     
 377:Generated_Source\PSoC4/StripLights.c ****     
 378:Generated_Source\PSoC4/StripLights.c ****     // Call undo critical function here
 379:Generated_Source\PSoC4/StripLights.c ****       if(StripLights_ExitCritical != (funcPtr)0)
 380:Generated_Source\PSoC4/StripLights.c ****     {
 381:Generated_Source\PSoC4/StripLights.c ****         StripLights_ExitCritical();    
 382:Generated_Source\PSoC4/StripLights.c ****     }
 383:Generated_Source\PSoC4/StripLights.c ****     
 384:Generated_Source\PSoC4/StripLights.c ****     
 385:Generated_Source\PSoC4/StripLights.c **** }
 386:Generated_Source\PSoC4/StripLights.c **** 
 387:Generated_Source\PSoC4/StripLights.c **** /*******************************************************************************
 388:Generated_Source\PSoC4/StripLights.c **** * Function Name: StripLights_TriggerWait
 389:Generated_Source\PSoC4/StripLights.c **** ********************************************************************************
 390:Generated_Source\PSoC4/StripLights.c **** * Summary:
 391:Generated_Source\PSoC4/StripLights.c **** *   Update the LEDs then waits for completion.
 392:Generated_Source\PSoC4/StripLights.c **** *
 393:Generated_Source\PSoC4/StripLights.c **** * Parameters:  
 394:Generated_Source\PSoC4/StripLights.c ****   rst: Resets the row and column parameters.    
 395:Generated_Source\PSoC4/StripLights.c **** *
 396:Generated_Source\PSoC4/StripLights.c **** * Return: 
 397:Generated_Source\PSoC4/StripLights.c **** *  void
 398:Generated_Source\PSoC4/StripLights.c **** *
 399:Generated_Source\PSoC4/StripLights.c **** *******************************************************************************/
 400:Generated_Source\PSoC4/StripLights.c **** void StripLights_TriggerWait(uint32 rst)
 401:Generated_Source\PSoC4/StripLights.c **** {
 402:Generated_Source\PSoC4/StripLights.c **** 
 403:Generated_Source\PSoC4/StripLights.c ****     
 404:Generated_Source\PSoC4/StripLights.c ****     // Call Critical section function here
 405:Generated_Source\PSoC4/StripLights.c ****     if(StripLights_EnterCritical != (funcPtr)0)
 406:Generated_Source\PSoC4/StripLights.c ****     {
 407:Generated_Source\PSoC4/StripLights.c ****         StripLights_EnterCritical();    
 408:Generated_Source\PSoC4/StripLights.c ****     }
 409:Generated_Source\PSoC4/StripLights.c ****     
 410:Generated_Source\PSoC4/StripLights.c ****     StripLights_Trigger(rst);
 411:Generated_Source\PSoC4/StripLights.c ****     
 412:Generated_Source\PSoC4/StripLights.c ****     while( StripLights_Ready() == 0);
 413:Generated_Source\PSoC4/StripLights.c ****     
 414:Generated_Source\PSoC4/StripLights.c ****     
 415:Generated_Source\PSoC4/StripLights.c ****     // Call undo critical function here
 416:Generated_Source\PSoC4/StripLights.c ****       if(StripLights_ExitCritical != (funcPtr)0)
 417:Generated_Source\PSoC4/StripLights.c ****     {
 418:Generated_Source\PSoC4/StripLights.c ****         StripLights_ExitCritical();    
 419:Generated_Source\PSoC4/StripLights.c ****     }
 420:Generated_Source\PSoC4/StripLights.c ****     
 421:Generated_Source\PSoC4/StripLights.c ****     
 422:Generated_Source\PSoC4/StripLights.c **** }
 423:Generated_Source\PSoC4/StripLights.c **** 
 424:Generated_Source\PSoC4/StripLights.c **** 
 425:Generated_Source\PSoC4/StripLights.c **** /*******************************************************************************
 426:Generated_Source\PSoC4/StripLights.c **** * Function Name: StripLights_Trigger
 427:Generated_Source\PSoC4/StripLights.c **** ********************************************************************************
 428:Generated_Source\PSoC4/StripLights.c **** * Summary:
 429:Generated_Source\PSoC4/StripLights.c **** *   Update the LEDs with graphics memory.
ARM GAS  C:\Users\JAMESS~1\AppData\Local\Temp\ccSFa4Kp.s 			page 9


 430:Generated_Source\PSoC4/StripLights.c **** *
 431:Generated_Source\PSoC4/StripLights.c **** * Parameters:  
 432:Generated_Source\PSoC4/StripLights.c **** *  rst: Resets the row and column parameters.  
 433:Generated_Source\PSoC4/StripLights.c **** *
 434:Generated_Source\PSoC4/StripLights.c **** * Return: 
 435:Generated_Source\PSoC4/StripLights.c **** *  void
 436:Generated_Source\PSoC4/StripLights.c **** *
 437:Generated_Source\PSoC4/StripLights.c **** *******************************************************************************/
 438:Generated_Source\PSoC4/StripLights.c **** void StripLights_Trigger(uint32 rst)
 439:Generated_Source\PSoC4/StripLights.c **** {
 440:Generated_Source\PSoC4/StripLights.c ****     uint32 color;
 441:Generated_Source\PSoC4/StripLights.c ****     
 442:Generated_Source\PSoC4/StripLights.c ****     if(rst) 
 443:Generated_Source\PSoC4/StripLights.c ****     {
 444:Generated_Source\PSoC4/StripLights.c ****         StripLights_row = 0;  /* Reset the row */
 445:Generated_Source\PSoC4/StripLights.c ****         StripLights_Channel = 0;
 446:Generated_Source\PSoC4/StripLights.c ****     }
 447:Generated_Source\PSoC4/StripLights.c ****     
 448:Generated_Source\PSoC4/StripLights.c ****     #if(StripLights_MEMORY_TYPE == StripLights_MEMORY_RGB)
 449:Generated_Source\PSoC4/StripLights.c ****        color = StripLights_ledArray[StripLights_row][0];
 450:Generated_Source\PSoC4/StripLights.c ****     #else  /* Else use lookup table */
 451:Generated_Source\PSoC4/StripLights.c ****        color = StripLights_CLUT[ (StripLights_ledArray[StripLights_row][0]) ];
 452:Generated_Source\PSoC4/StripLights.c ****     #endif
 453:Generated_Source\PSoC4/StripLights.c ****     
 454:Generated_Source\PSoC4/StripLights.c ****      color = (color >> StripLights_DimShift) & StripLights_DimMask;
 455:Generated_Source\PSoC4/StripLights.c ****      
 456:Generated_Source\PSoC4/StripLights.c ****     #if(StripLights_GAMMA_CORRECTION == StripLights_GAMMA_ON)
 457:Generated_Source\PSoC4/StripLights.c ****         StripLights_DATA = StripLights_gamma[color & 0x000000FF];  // Write Green
 458:Generated_Source\PSoC4/StripLights.c ****         color = color >> 8;
 459:Generated_Source\PSoC4/StripLights.c ****         StripLights_DATA = StripLights_gamma[color & 0x000000FF];  // Write Red
 460:Generated_Source\PSoC4/StripLights.c ****         color = color >> 8;
 461:Generated_Source\PSoC4/StripLights.c ****         StripLights_DATA = StripLights_gamma[color & 0x000000FF];  // Write Blue
 462:Generated_Source\PSoC4/StripLights.c ****         #if(StripLights_CHIP == StripLights_CHIP_SF2812RGBW)
 463:Generated_Source\PSoC4/StripLights.c ****             color = color >> 8;
 464:Generated_Source\PSoC4/StripLights.c ****             StripLights_DATA = StripLights_gamma[color & 0x000000FF];  // Write White
 465:Generated_Source\PSoC4/StripLights.c ****         #endif
 466:Generated_Source\PSoC4/StripLights.c ****     #else
 467:Generated_Source\PSoC4/StripLights.c ****         StripLights_DATA = (uint8)(color & 0x000000FF);  // Write Green
 468:Generated_Source\PSoC4/StripLights.c ****         color = color >> 8;
 469:Generated_Source\PSoC4/StripLights.c ****         StripLights_DATA = (uint8)(color & 0x000000FF);  // Write Red
 470:Generated_Source\PSoC4/StripLights.c ****         color = color >> 8;
 471:Generated_Source\PSoC4/StripLights.c ****         StripLights_DATA = (uint8)(color & 0x000000FF);  // Write Blue  
 472:Generated_Source\PSoC4/StripLights.c ****         #if(StripLights_CHIP == StripLights_CHIP_SF2812RGBW)
 473:Generated_Source\PSoC4/StripLights.c ****             color = color >> 8;
 474:Generated_Source\PSoC4/StripLights.c ****         StripLights_DATA = (uint8)(color & 0x000000FF);  // Write White 
 475:Generated_Source\PSoC4/StripLights.c ****         #endif
 476:Generated_Source\PSoC4/StripLights.c ****     #endif
 477:Generated_Source\PSoC4/StripLights.c ****   
 478:Generated_Source\PSoC4/StripLights.c ****     StripLights_ledIndex = 1;
 479:Generated_Source\PSoC4/StripLights.c **** 	
 480:Generated_Source\PSoC4/StripLights.c **** 	StripLights_CONTROL = StripLights_ENABLE | StripLights_XFRCMPT_IRQ_EN | StripLights_FIFO_IRQ_EN; 
 481:Generated_Source\PSoC4/StripLights.c ****     StripLights_refreshComplete = 0;
 482:Generated_Source\PSoC4/StripLights.c **** }
 483:Generated_Source\PSoC4/StripLights.c **** 
 484:Generated_Source\PSoC4/StripLights.c **** /*******************************************************************************
 485:Generated_Source\PSoC4/StripLights.c **** * Function Name: StripLights_Ready
 486:Generated_Source\PSoC4/StripLights.c **** ********************************************************************************
ARM GAS  C:\Users\JAMESS~1\AppData\Local\Temp\ccSFa4Kp.s 			page 10


 487:Generated_Source\PSoC4/StripLights.c **** * Summary:
 488:Generated_Source\PSoC4/StripLights.c **** *  Checks to see if transfer is complete.
 489:Generated_Source\PSoC4/StripLights.c **** *
 490:Generated_Source\PSoC4/StripLights.c **** * Parameters:  
 491:Generated_Source\PSoC4/StripLights.c **** *  none  
 492:Generated_Source\PSoC4/StripLights.c **** *
 493:Generated_Source\PSoC4/StripLights.c **** * Return: 
 494:Generated_Source\PSoC4/StripLights.c **** *  Zero if not complete, non-zero if transfer complete.
 495:Generated_Source\PSoC4/StripLights.c **** *
 496:Generated_Source\PSoC4/StripLights.c **** *******************************************************************************/
 497:Generated_Source\PSoC4/StripLights.c **** uint32 StripLights_Ready(void)
 498:Generated_Source\PSoC4/StripLights.c **** {
 499:Generated_Source\PSoC4/StripLights.c ****     if(StripLights_refreshComplete )
 500:Generated_Source\PSoC4/StripLights.c ****     {
 501:Generated_Source\PSoC4/StripLights.c ****         StripLights_CONTROL = StripLights_DISABLE;
 502:Generated_Source\PSoC4/StripLights.c ****         return((uint32)1);
 503:Generated_Source\PSoC4/StripLights.c ****     }
 504:Generated_Source\PSoC4/StripLights.c ****     else
 505:Generated_Source\PSoC4/StripLights.c ****     {
 506:Generated_Source\PSoC4/StripLights.c ****          return((uint32)0);
 507:Generated_Source\PSoC4/StripLights.c ****     }
 508:Generated_Source\PSoC4/StripLights.c **** }
 509:Generated_Source\PSoC4/StripLights.c **** 
 510:Generated_Source\PSoC4/StripLights.c **** 
 511:Generated_Source\PSoC4/StripLights.c **** /*******************************************************************************
 512:Generated_Source\PSoC4/StripLights.c **** * Function Name: StripLights_Stop
 513:Generated_Source\PSoC4/StripLights.c **** ********************************************************************************
 514:Generated_Source\PSoC4/StripLights.c **** * Summary:
 515:Generated_Source\PSoC4/StripLights.c **** *  Stop all transfers.
 516:Generated_Source\PSoC4/StripLights.c **** *
 517:Generated_Source\PSoC4/StripLights.c **** * Parameters:  
 518:Generated_Source\PSoC4/StripLights.c **** *  None 
 519:Generated_Source\PSoC4/StripLights.c **** *
 520:Generated_Source\PSoC4/StripLights.c **** * Return: 
 521:Generated_Source\PSoC4/StripLights.c **** *  void
 522:Generated_Source\PSoC4/StripLights.c **** *
 523:Generated_Source\PSoC4/StripLights.c **** *******************************************************************************/
 524:Generated_Source\PSoC4/StripLights.c **** void StripLights_Stop()
 525:Generated_Source\PSoC4/StripLights.c **** {
 526:Generated_Source\PSoC4/StripLights.c ****     StripLights_CONTROL = StripLights_DISABLE;
 527:Generated_Source\PSoC4/StripLights.c **** }
 528:Generated_Source\PSoC4/StripLights.c **** 
 529:Generated_Source\PSoC4/StripLights.c **** uint32 StripLights_getColor( uint32 color)
 530:Generated_Source\PSoC4/StripLights.c **** {
 531:Generated_Source\PSoC4/StripLights.c ****     #if(StripLights_MEMORY_TYPE == StripLights_MEMORY_RGB)
 532:Generated_Source\PSoC4/StripLights.c ****     color = StripLights_CLUT[color];
 533:Generated_Source\PSoC4/StripLights.c ****     #endif
 534:Generated_Source\PSoC4/StripLights.c **** 
 535:Generated_Source\PSoC4/StripLights.c ****     return(color);
 536:Generated_Source\PSoC4/StripLights.c **** }
 537:Generated_Source\PSoC4/StripLights.c **** 
 538:Generated_Source\PSoC4/StripLights.c **** /*******************************************************************************
 539:Generated_Source\PSoC4/StripLights.c **** * Function Name: StripLights_ColorInc
 540:Generated_Source\PSoC4/StripLights.c **** ********************************************************************************
 541:Generated_Source\PSoC4/StripLights.c **** * Summary:
 542:Generated_Source\PSoC4/StripLights.c **** *  Increment color throught the color lookup table.
 543:Generated_Source\PSoC4/StripLights.c **** *
ARM GAS  C:\Users\JAMESS~1\AppData\Local\Temp\ccSFa4Kp.s 			page 11


 544:Generated_Source\PSoC4/StripLights.c **** * Parameters:  
 545:Generated_Source\PSoC4/StripLights.c **** *  uint32 incValue: Increment through color table by incValue. 
 546:Generated_Source\PSoC4/StripLights.c **** *
 547:Generated_Source\PSoC4/StripLights.c **** * Return: Color at next location.
 548:Generated_Source\PSoC4/StripLights.c **** *  
 549:Generated_Source\PSoC4/StripLights.c **** *
 550:Generated_Source\PSoC4/StripLights.c **** *******************************************************************************/
 551:Generated_Source\PSoC4/StripLights.c **** uint32 StripLights_ColorInc(uint32 incValue)
 552:Generated_Source\PSoC4/StripLights.c **** {
 553:Generated_Source\PSoC4/StripLights.c ****     uint32 color;
 554:Generated_Source\PSoC4/StripLights.c ****     extern const uint32 StripLights_CLUT[];
 555:Generated_Source\PSoC4/StripLights.c ****     static uint32 colorIndex = 0;
 556:Generated_Source\PSoC4/StripLights.c ****     
 557:Generated_Source\PSoC4/StripLights.c ****     colorIndex += incValue;
 558:Generated_Source\PSoC4/StripLights.c ****     colorIndex = colorIndex % StripLights_COLOR_WHEEL_SIZE;
 559:Generated_Source\PSoC4/StripLights.c **** 
 560:Generated_Source\PSoC4/StripLights.c ****     #if(StripLights_MEMORY_TYPE == StripLights_MEMORY_RGB)
 561:Generated_Source\PSoC4/StripLights.c ****        color = StripLights_CLUT[ colorIndex ];
 562:Generated_Source\PSoC4/StripLights.c ****     #else
 563:Generated_Source\PSoC4/StripLights.c ****         color = colorIndex;
 564:Generated_Source\PSoC4/StripLights.c ****     #endif
 565:Generated_Source\PSoC4/StripLights.c ****     return(color);
 566:Generated_Source\PSoC4/StripLights.c **** }
 567:Generated_Source\PSoC4/StripLights.c **** /*****************************************************************************
 568:Generated_Source\PSoC4/StripLights.c **** * Function Name: StripLights_FISR
 569:Generated_Source\PSoC4/StripLights.c **** ******************************************************************************
 570:Generated_Source\PSoC4/StripLights.c **** *
 571:Generated_Source\PSoC4/StripLights.c **** * Summary:
 572:Generated_Source\PSoC4/StripLights.c **** *  Interrupt service handler for data transfer for each LED 
 573:Generated_Source\PSoC4/StripLights.c **** *
 574:Generated_Source\PSoC4/StripLights.c **** * Parameters:  
 575:Generated_Source\PSoC4/StripLights.c **** *  void
 576:Generated_Source\PSoC4/StripLights.c **** *
 577:Generated_Source\PSoC4/StripLights.c **** * Return: 
 578:Generated_Source\PSoC4/StripLights.c **** *  void 
 579:Generated_Source\PSoC4/StripLights.c **** *
 580:Generated_Source\PSoC4/StripLights.c **** * Reentrant: 
 581:Generated_Source\PSoC4/StripLights.c **** *  No
 582:Generated_Source\PSoC4/StripLights.c **** *
 583:Generated_Source\PSoC4/StripLights.c **** *****************************************************************************/
 584:Generated_Source\PSoC4/StripLights.c **** CY_ISR( StripLights_FISR)
 585:Generated_Source\PSoC4/StripLights.c **** {
  28              		.loc 1 585 0
  29              		.cfi_startproc
  30              		@ args = 0, pretend = 0, frame = 0
  31              		@ frame_needed = 0, uses_anonymous_args = 0
  32 0000 70B5     		push	{r4, r5, r6, lr}
  33              		.cfi_def_cfa_offset 16
  34              		.cfi_offset 4, -16
  35              		.cfi_offset 5, -12
  36              		.cfi_offset 6, -8
  37              		.cfi_offset 14, -4
 586:Generated_Source\PSoC4/StripLights.c ****     extern uint32  StripLights_DimMask;
 587:Generated_Source\PSoC4/StripLights.c ****     extern uint32  StripLights_DimShift;
 588:Generated_Source\PSoC4/StripLights.c ****     uint32 static color;
 589:Generated_Source\PSoC4/StripLights.c ****    
 590:Generated_Source\PSoC4/StripLights.c ****     #if(StripLights_MEMORY_TYPE == StripLights_MEMORY_RGB)
ARM GAS  C:\Users\JAMESS~1\AppData\Local\Temp\ccSFa4Kp.s 			page 12


 591:Generated_Source\PSoC4/StripLights.c ****         color = StripLights_ledArray[StripLights_row][StripLights_ledIndex];
  38              		.loc 1 591 0
  39 0002 1449     		ldr	r1, .L3
  40 0004 0A68     		ldr	r2, [r1]
  41 0006 D300     		lsls	r3, r2, #3
  42 0008 9B1A     		subs	r3, r3, r2
  43 000a 5B00     		lsls	r3, r3, #1
  44 000c 4A68     		ldr	r2, [r1, #4]
  45 000e 9B18     		adds	r3, r3, r2
  46 0010 9B00     		lsls	r3, r3, #2
  47 0012 1148     		ldr	r0, .L3+4
  48 0014 1B58     		ldr	r3, [r3, r0]
 592:Generated_Source\PSoC4/StripLights.c ****     #else  /* Else use lookup table */
 593:Generated_Source\PSoC4/StripLights.c ****         color = StripLights_CLUT[ (StripLights_ledArray[StripLights_row][StripLights_ledIndex]) ];
 594:Generated_Source\PSoC4/StripLights.c ****     #endif
 595:Generated_Source\PSoC4/StripLights.c **** 
 596:Generated_Source\PSoC4/StripLights.c ****     color = (color >> StripLights_DimShift) & StripLights_DimMask;  
  49              		.loc 1 596 0
  50 0016 1148     		ldr	r0, .L3+8
  51 0018 0068     		ldr	r0, [r0]
  52 001a C340     		lsrs	r3, r3, r0
  53 001c 1048     		ldr	r0, .L3+12
  54 001e 0068     		ldr	r0, [r0]
  55 0020 0340     		ands	r3, r0
 597:Generated_Source\PSoC4/StripLights.c **** 
 598:Generated_Source\PSoC4/StripLights.c ****     #if(StripLights_GAMMA_CORRECTION == StripLights_GAMMA_ON)
 599:Generated_Source\PSoC4/StripLights.c **** 
 600:Generated_Source\PSoC4/StripLights.c ****         StripLights_DATA = StripLights_gamma[color & 0x000000FF];  // Write Green
  56              		.loc 1 600 0
  57 0022 FF25     		movs	r5, #255
  58 0024 2800     		movs	r0, r5
  59 0026 1840     		ands	r0, r3
  60 0028 0E4C     		ldr	r4, .L3+16
  61 002a 265C     		ldrb	r6, [r4, r0]
  62 002c 0E48     		ldr	r0, .L3+20
  63 002e 0670     		strb	r6, [r0]
 601:Generated_Source\PSoC4/StripLights.c ****         color = color >> 8;
  64              		.loc 1 601 0
  65 0030 1E0A     		lsrs	r6, r3, #8
 602:Generated_Source\PSoC4/StripLights.c ****         StripLights_DATA = StripLights_gamma[color & 0x000000FF];  // Write Red
  66              		.loc 1 602 0
  67 0032 2E40     		ands	r6, r5
  68 0034 A65D     		ldrb	r6, [r4, r6]
  69 0036 0670     		strb	r6, [r0]
 603:Generated_Source\PSoC4/StripLights.c ****         color = color >> 8;
  70              		.loc 1 603 0
  71 0038 1B0C     		lsrs	r3, r3, #16
  72 003a 8B60     		str	r3, [r1, #8]
 604:Generated_Source\PSoC4/StripLights.c ****         StripLights_DATA = StripLights_gamma[color & 0x000000FF];  // Write Blue
  73              		.loc 1 604 0
  74 003c 2B40     		ands	r3, r5
  75 003e E35C     		ldrb	r3, [r4, r3]
  76 0040 0370     		strb	r3, [r0]
 605:Generated_Source\PSoC4/StripLights.c ****         #if(StripLights_CHIP == StripLights_CHIP_SF2812RGBW)
 606:Generated_Source\PSoC4/StripLights.c ****             color = color >> 8;
 607:Generated_Source\PSoC4/StripLights.c ****             StripLights_DATA = StripLights_gamma[color & 0x000000FF];  // Write White 
 608:Generated_Source\PSoC4/StripLights.c ****         #endif
ARM GAS  C:\Users\JAMESS~1\AppData\Local\Temp\ccSFa4Kp.s 			page 13


 609:Generated_Source\PSoC4/StripLights.c ****     #else
 610:Generated_Source\PSoC4/StripLights.c **** 
 611:Generated_Source\PSoC4/StripLights.c ****         StripLights_DATA = (uint8)(color & 0x000000FF);  // Write Green
 612:Generated_Source\PSoC4/StripLights.c ****         color = color >> 8;
 613:Generated_Source\PSoC4/StripLights.c ****         StripLights_DATA = (uint8)(color & 0x000000FF);  // Write Red
 614:Generated_Source\PSoC4/StripLights.c ****         color = color >> 8;
 615:Generated_Source\PSoC4/StripLights.c ****         StripLights_DATA = (uint8)(color & 0x000000FF);  // Write Blue    
 616:Generated_Source\PSoC4/StripLights.c ****          #if(StripLights_CHIP == StripLights_CHIP_SF2812RGBW)
 617:Generated_Source\PSoC4/StripLights.c ****             color = color >> 8;
 618:Generated_Source\PSoC4/StripLights.c ****             StripLights_DATA = (uint8)(color & 0x000000FF);  // Write White 
 619:Generated_Source\PSoC4/StripLights.c ****         #endif 
 620:Generated_Source\PSoC4/StripLights.c ****     #endif
 621:Generated_Source\PSoC4/StripLights.c ****     
 622:Generated_Source\PSoC4/StripLights.c ****     StripLights_ledIndex++;
  77              		.loc 1 622 0
  78 0042 0132     		adds	r2, r2, #1
  79 0044 4A60     		str	r2, [r1, #4]
 623:Generated_Source\PSoC4/StripLights.c ****     if(StripLights_ledIndex >= StripLights_ARRAY_COLS)
  80              		.loc 1 623 0
  81 0046 0D2A     		cmp	r2, #13
  82 0048 02D9     		bls	.L1
 624:Generated_Source\PSoC4/StripLights.c ****     {
 625:Generated_Source\PSoC4/StripLights.c ****         StripLights_CONTROL = StripLights_ENABLE | StripLights_XFRCMPT_IRQ_EN; 
  83              		.loc 1 625 0
  84 004a 1122     		movs	r2, #17
  85 004c 074B     		ldr	r3, .L3+24
  86 004e 1A70     		strb	r2, [r3]
  87              	.L1:
 626:Generated_Source\PSoC4/StripLights.c ****     }
 627:Generated_Source\PSoC4/StripLights.c **** }
  88              		.loc 1 627 0
  89              		@ sp needed
  90 0050 70BD     		pop	{r4, r5, r6, pc}
  91              	.L4:
  92 0052 C046     		.align	2
  93              	.L3:
  94 0054 00000000 		.word	.LANCHOR0
  95 0058 00000000 		.word	StripLights_ledArray
  96 005c 00000000 		.word	StripLights_DimShift
  97 0060 00000000 		.word	StripLights_DimMask
  98 0064 00000000 		.word	.LANCHOR1
  99 0068 42000F40 		.word	1074724930
 100 006c 72000F40 		.word	1074724978
 101              		.cfi_endproc
 102              	.LFE41:
 103              		.size	StripLights_FISR, .-StripLights_FISR
 104              		.section	.text.StripLights_CISR,"ax",%progbits
 105              		.align	2
 106              		.global	StripLights_CISR
 107              		.code	16
 108              		.thumb_func
 109              		.type	StripLights_CISR, %function
 110              	StripLights_CISR:
 111              	.LFB42:
 628:Generated_Source\PSoC4/StripLights.c **** 
 629:Generated_Source\PSoC4/StripLights.c **** /*****************************************************************************
 630:Generated_Source\PSoC4/StripLights.c **** * Function Name: StripLights_CISR
ARM GAS  C:\Users\JAMESS~1\AppData\Local\Temp\ccSFa4Kp.s 			page 14


 631:Generated_Source\PSoC4/StripLights.c **** ******************************************************************************
 632:Generated_Source\PSoC4/StripLights.c **** *
 633:Generated_Source\PSoC4/StripLights.c **** * Summary:
 634:Generated_Source\PSoC4/StripLights.c **** *  Interrupt service handler after each row is complete.
 635:Generated_Source\PSoC4/StripLights.c **** *
 636:Generated_Source\PSoC4/StripLights.c **** * Parameters:  
 637:Generated_Source\PSoC4/StripLights.c **** *  void
 638:Generated_Source\PSoC4/StripLights.c **** *
 639:Generated_Source\PSoC4/StripLights.c **** * Return: 
 640:Generated_Source\PSoC4/StripLights.c **** *  void 
 641:Generated_Source\PSoC4/StripLights.c **** *
 642:Generated_Source\PSoC4/StripLights.c **** * Reentrant: 
 643:Generated_Source\PSoC4/StripLights.c **** *  No
 644:Generated_Source\PSoC4/StripLights.c **** *
 645:Generated_Source\PSoC4/StripLights.c **** *****************************************************************************/
 646:Generated_Source\PSoC4/StripLights.c **** CY_ISR( StripLights_CISR)
 647:Generated_Source\PSoC4/StripLights.c **** {
 112              		.loc 1 647 0
 113              		.cfi_startproc
 114              		@ args = 0, pretend = 0, frame = 0
 115              		@ frame_needed = 0, uses_anonymous_args = 0
 116 0000 30B5     		push	{r4, r5, lr}
 117              		.cfi_def_cfa_offset 12
 118              		.cfi_offset 4, -12
 119              		.cfi_offset 5, -8
 120              		.cfi_offset 14, -4
 648:Generated_Source\PSoC4/StripLights.c ****     extern uint32  StripLights_DimMask;
 649:Generated_Source\PSoC4/StripLights.c ****     extern uint32  StripLights_DimShift;
 650:Generated_Source\PSoC4/StripLights.c ****     uint32 static color;
 651:Generated_Source\PSoC4/StripLights.c ****     extern uint32 StripLights_refreshComplete;
 652:Generated_Source\PSoC4/StripLights.c **** 
 653:Generated_Source\PSoC4/StripLights.c **** 	StripLights_CONTROL = StripLights_ENABLE |StripLights_NEXT_ROW;
 121              		.loc 1 653 0
 122 0002 2122     		movs	r2, #33
 123 0004 184B     		ldr	r3, .L8
 124 0006 1A70     		strb	r2, [r3]
 654:Generated_Source\PSoC4/StripLights.c ****     StripLights_row++;
 125              		.loc 1 654 0
 126 0008 184A     		ldr	r2, .L8+4
 127 000a 1368     		ldr	r3, [r2]
 128 000c 0133     		adds	r3, r3, #1
 129 000e 1360     		str	r3, [r2]
 655:Generated_Source\PSoC4/StripLights.c ****     if( StripLights_row < StripLights_ARRAY_ROWS)  /* More Rows to do  */
 130              		.loc 1 655 0
 131 0010 002B     		cmp	r3, #0
 132 0012 25D1     		bne	.L6
 656:Generated_Source\PSoC4/StripLights.c ****     {
 657:Generated_Source\PSoC4/StripLights.c ****         StripLights_Channel = StripLights_row;  
 133              		.loc 1 657 0
 134 0014 DBB2     		uxtb	r3, r3
 135 0016 164A     		ldr	r2, .L8+8
 136 0018 1370     		strb	r3, [r2]
 658:Generated_Source\PSoC4/StripLights.c **** 
 659:Generated_Source\PSoC4/StripLights.c **** 		#if(StripLights_MEMORY_TYPE == StripLights_MEMORY_RGB)
 660:Generated_Source\PSoC4/StripLights.c ****              color = StripLights_ledArray[StripLights_row][0];
 137              		.loc 1 660 0
 138 001a 144A     		ldr	r2, .L8+4
ARM GAS  C:\Users\JAMESS~1\AppData\Local\Temp\ccSFa4Kp.s 			page 15


 139 001c 1168     		ldr	r1, [r2]
 140 001e CB00     		lsls	r3, r1, #3
 141 0020 5B1A     		subs	r3, r3, r1
 142 0022 DB00     		lsls	r3, r3, #3
 143 0024 1349     		ldr	r1, .L8+12
 144 0026 5B58     		ldr	r3, [r3, r1]
 661:Generated_Source\PSoC4/StripLights.c ****         #else  /* Else use lookup table */
 662:Generated_Source\PSoC4/StripLights.c ****              color = StripLights_CLUT[ (StripLights_ledArray[StripLights_row][0]) ];
 663:Generated_Source\PSoC4/StripLights.c ****         #endif
 664:Generated_Source\PSoC4/StripLights.c **** 
 665:Generated_Source\PSoC4/StripLights.c ****         color = (color >> StripLights_DimShift) & StripLights_DimMask;
 145              		.loc 1 665 0
 146 0028 1349     		ldr	r1, .L8+16
 147 002a 0968     		ldr	r1, [r1]
 148 002c CB40     		lsrs	r3, r3, r1
 149 002e 1349     		ldr	r1, .L8+20
 150 0030 0968     		ldr	r1, [r1]
 151 0032 0B40     		ands	r3, r1
 666:Generated_Source\PSoC4/StripLights.c ****  
 667:Generated_Source\PSoC4/StripLights.c ****         #if(StripLights_GAMMA_CORRECTION == StripLights_GAMMA_ON)
 668:Generated_Source\PSoC4/StripLights.c ****             StripLights_DATA = StripLights_gamma[color & 0x000000FF];  // Write Green
 152              		.loc 1 668 0
 153 0034 FF24     		movs	r4, #255
 154 0036 2100     		movs	r1, r4
 155 0038 1940     		ands	r1, r3
 156 003a 1148     		ldr	r0, .L8+24
 157 003c 455C     		ldrb	r5, [r0, r1]
 158 003e 1149     		ldr	r1, .L8+28
 159 0040 0D70     		strb	r5, [r1]
 669:Generated_Source\PSoC4/StripLights.c ****             color = color >> 8;
 160              		.loc 1 669 0
 161 0042 1D0A     		lsrs	r5, r3, #8
 670:Generated_Source\PSoC4/StripLights.c ****             StripLights_DATA = StripLights_gamma[color & 0x000000FF];  // Write Red
 162              		.loc 1 670 0
 163 0044 2540     		ands	r5, r4
 164 0046 455D     		ldrb	r5, [r0, r5]
 165 0048 0D70     		strb	r5, [r1]
 671:Generated_Source\PSoC4/StripLights.c ****             color = color >> 8;
 166              		.loc 1 671 0
 167 004a 1B0C     		lsrs	r3, r3, #16
 168 004c D360     		str	r3, [r2, #12]
 672:Generated_Source\PSoC4/StripLights.c ****             StripLights_DATA = StripLights_gamma[color & 0x000000FF];  // Write Blue
 169              		.loc 1 672 0
 170 004e 2340     		ands	r3, r4
 171 0050 C35C     		ldrb	r3, [r0, r3]
 172 0052 0B70     		strb	r3, [r1]
 673:Generated_Source\PSoC4/StripLights.c ****              #if(StripLights_CHIP == StripLights_CHIP_SF2812RGBW)
 674:Generated_Source\PSoC4/StripLights.c ****                 color = color >> 8;
 675:Generated_Source\PSoC4/StripLights.c ****                 StripLights_DATA = StripLights_gamma[color & 0x000000FF];  // Write White 
 676:Generated_Source\PSoC4/StripLights.c ****             #endif 
 677:Generated_Source\PSoC4/StripLights.c ****         #else
 678:Generated_Source\PSoC4/StripLights.c ****             StripLights_DATA = (uint8)(color & 0x000000FF);  // Write Green
 679:Generated_Source\PSoC4/StripLights.c ****             color = color >> 8;
 680:Generated_Source\PSoC4/StripLights.c ****             StripLights_DATA = (uint8)(color & 0x000000FF);  // Write Red
 681:Generated_Source\PSoC4/StripLights.c ****             color = color >> 8;
 682:Generated_Source\PSoC4/StripLights.c ****             StripLights_DATA = (uint8)(color & 0x000000FF);  // Write Blue  
 683:Generated_Source\PSoC4/StripLights.c ****             #if(StripLights_CHIP == StripLights_CHIP_SF2812RGBW)
ARM GAS  C:\Users\JAMESS~1\AppData\Local\Temp\ccSFa4Kp.s 			page 16


 684:Generated_Source\PSoC4/StripLights.c ****                 color = color >> 8;
 685:Generated_Source\PSoC4/StripLights.c ****                 StripLights_DATA = (uint8)(color & 0x000000FF);  // Write White 
 686:Generated_Source\PSoC4/StripLights.c ****             #endif  
 687:Generated_Source\PSoC4/StripLights.c ****         #endif
 688:Generated_Source\PSoC4/StripLights.c ****        
 689:Generated_Source\PSoC4/StripLights.c ****         StripLights_ledIndex = 1;
 173              		.loc 1 689 0
 174 0054 0123     		movs	r3, #1
 175 0056 5360     		str	r3, [r2, #4]
 690:Generated_Source\PSoC4/StripLights.c **** 		StripLights_CONTROL = StripLights_ENABLE | StripLights_XFRCMPT_IRQ_EN | StripLights_FIFO_IRQ_EN; 
 176              		.loc 1 690 0
 177 0058 1922     		movs	r2, #25
 178 005a 034B     		ldr	r3, .L8
 179 005c 1A70     		strb	r2, [r3]
 180 005e 02E0     		b	.L5
 181              	.L6:
 691:Generated_Source\PSoC4/StripLights.c ****     }
 692:Generated_Source\PSoC4/StripLights.c ****     else
 693:Generated_Source\PSoC4/StripLights.c ****     {
 694:Generated_Source\PSoC4/StripLights.c ****         StripLights_refreshComplete = 1u;
 182              		.loc 1 694 0
 183 0060 0122     		movs	r2, #1
 184 0062 094B     		ldr	r3, .L8+32
 185 0064 1A60     		str	r2, [r3]
 186              	.L5:
 695:Generated_Source\PSoC4/StripLights.c ****     }
 696:Generated_Source\PSoC4/StripLights.c **** }
 187              		.loc 1 696 0
 188              		@ sp needed
 189 0066 30BD     		pop	{r4, r5, pc}
 190              	.L9:
 191              		.align	2
 192              	.L8:
 193 0068 72000F40 		.word	1074724978
 194 006c 00000000 		.word	.LANCHOR0
 195 0070 70000F40 		.word	1074724976
 196 0074 00000000 		.word	StripLights_ledArray
 197 0078 00000000 		.word	StripLights_DimShift
 198 007c 00000000 		.word	StripLights_DimMask
 199 0080 00000000 		.word	.LANCHOR1
 200 0084 42000F40 		.word	1074724930
 201 0088 00000000 		.word	StripLights_refreshComplete
 202              		.cfi_endproc
 203              	.LFE42:
 204              		.size	StripLights_CISR, .-StripLights_CISR
 205              		.section	.text.StripLights_SetCriticalFuncs,"ax",%progbits
 206              		.align	2
 207              		.global	StripLights_SetCriticalFuncs
 208              		.code	16
 209              		.thumb_func
 210              		.type	StripLights_SetCriticalFuncs, %function
 211              	StripLights_SetCriticalFuncs:
 212              	.LFB33:
 333:Generated_Source\PSoC4/StripLights.c ****     StripLights_EnterCritical = EnCriticalFunc;
 213              		.loc 1 333 0
 214              		.cfi_startproc
 215              		@ args = 0, pretend = 0, frame = 0
ARM GAS  C:\Users\JAMESS~1\AppData\Local\Temp\ccSFa4Kp.s 			page 17


 216              		@ frame_needed = 0, uses_anonymous_args = 0
 217              		@ link register save eliminated.
 218              	.LVL0:
 334:Generated_Source\PSoC4/StripLights.c ****     StripLights_ExitCritical  = ExCriticalFunc;   
 219              		.loc 1 334 0
 220 0000 014B     		ldr	r3, .L11
 221 0002 1861     		str	r0, [r3, #16]
 335:Generated_Source\PSoC4/StripLights.c **** }
 222              		.loc 1 335 0
 223 0004 5961     		str	r1, [r3, #20]
 336:Generated_Source\PSoC4/StripLights.c **** 
 224              		.loc 1 336 0
 225              		@ sp needed
 226 0006 7047     		bx	lr
 227              	.L12:
 228              		.align	2
 229              	.L11:
 230 0008 00000000 		.word	.LANCHOR0
 231              		.cfi_endproc
 232              	.LFE33:
 233              		.size	StripLights_SetCriticalFuncs, .-StripLights_SetCriticalFuncs
 234              		.section	.text.StripLights_Trigger,"ax",%progbits
 235              		.align	2
 236              		.global	StripLights_Trigger
 237              		.code	16
 238              		.thumb_func
 239              		.type	StripLights_Trigger, %function
 240              	StripLights_Trigger:
 241              	.LFB36:
 439:Generated_Source\PSoC4/StripLights.c ****     uint32 color;
 242              		.loc 1 439 0
 243              		.cfi_startproc
 244              		@ args = 0, pretend = 0, frame = 0
 245              		@ frame_needed = 0, uses_anonymous_args = 0
 246              	.LVL1:
 247 0000 30B5     		push	{r4, r5, lr}
 248              		.cfi_def_cfa_offset 12
 249              		.cfi_offset 4, -12
 250              		.cfi_offset 5, -8
 251              		.cfi_offset 14, -4
 442:Generated_Source\PSoC4/StripLights.c ****     {
 252              		.loc 1 442 0
 253 0002 0028     		cmp	r0, #0
 254 0004 04D0     		beq	.L14
 444:Generated_Source\PSoC4/StripLights.c ****         StripLights_Channel = 0;
 255              		.loc 1 444 0
 256 0006 0023     		movs	r3, #0
 257 0008 144A     		ldr	r2, .L15
 258 000a 1360     		str	r3, [r2]
 445:Generated_Source\PSoC4/StripLights.c ****     }
 259              		.loc 1 445 0
 260 000c 144A     		ldr	r2, .L15+4
 261 000e 1370     		strb	r3, [r2]
 262              	.L14:
 449:Generated_Source\PSoC4/StripLights.c ****     #else  /* Else use lookup table */
 263              		.loc 1 449 0
 264 0010 124D     		ldr	r5, .L15
ARM GAS  C:\Users\JAMESS~1\AppData\Local\Temp\ccSFa4Kp.s 			page 18


 265 0012 2A68     		ldr	r2, [r5]
 266 0014 D300     		lsls	r3, r2, #3
 267 0016 9B1A     		subs	r3, r3, r2
 268 0018 DA00     		lsls	r2, r3, #3
 269 001a 124B     		ldr	r3, .L15+8
 270 001c D358     		ldr	r3, [r2, r3]
 271              	.LVL2:
 454:Generated_Source\PSoC4/StripLights.c ****      
 272              		.loc 1 454 0
 273 001e 124A     		ldr	r2, .L15+12
 274 0020 1268     		ldr	r2, [r2]
 275 0022 D340     		lsrs	r3, r3, r2
 276              	.LVL3:
 277 0024 114A     		ldr	r2, .L15+16
 278 0026 1268     		ldr	r2, [r2]
 279 0028 1340     		ands	r3, r2
 280              	.LVL4:
 457:Generated_Source\PSoC4/StripLights.c ****         color = color >> 8;
 281              		.loc 1 457 0
 282 002a FF20     		movs	r0, #255
 283              	.LVL5:
 284 002c 0200     		movs	r2, r0
 285 002e 1A40     		ands	r2, r3
 286 0030 0F49     		ldr	r1, .L15+20
 287 0032 8C5C     		ldrb	r4, [r1, r2]
 288 0034 0F4A     		ldr	r2, .L15+24
 289 0036 1470     		strb	r4, [r2]
 458:Generated_Source\PSoC4/StripLights.c ****         StripLights_DATA = StripLights_gamma[color & 0x000000FF];  // Write Red
 290              		.loc 1 458 0
 291 0038 1C0A     		lsrs	r4, r3, #8
 292              	.LVL6:
 459:Generated_Source\PSoC4/StripLights.c ****         color = color >> 8;
 293              		.loc 1 459 0
 294 003a 0440     		ands	r4, r0
 295              	.LVL7:
 296 003c 0C5D     		ldrb	r4, [r1, r4]
 297 003e 1470     		strb	r4, [r2]
 460:Generated_Source\PSoC4/StripLights.c ****         StripLights_DATA = StripLights_gamma[color & 0x000000FF];  // Write Blue
 298              		.loc 1 460 0
 299 0040 1B0C     		lsrs	r3, r3, #16
 300              	.LVL8:
 461:Generated_Source\PSoC4/StripLights.c ****         #if(StripLights_CHIP == StripLights_CHIP_SF2812RGBW)
 301              		.loc 1 461 0
 302 0042 0340     		ands	r3, r0
 303              	.LVL9:
 304 0044 CB5C     		ldrb	r3, [r1, r3]
 305 0046 1370     		strb	r3, [r2]
 478:Generated_Source\PSoC4/StripLights.c **** 	
 306              		.loc 1 478 0
 307 0048 0123     		movs	r3, #1
 308 004a 6B60     		str	r3, [r5, #4]
 480:Generated_Source\PSoC4/StripLights.c ****     StripLights_refreshComplete = 0;
 309              		.loc 1 480 0
 310 004c 1922     		movs	r2, #25
 311 004e 0A4B     		ldr	r3, .L15+28
 312 0050 1A70     		strb	r2, [r3]
 481:Generated_Source\PSoC4/StripLights.c **** }
ARM GAS  C:\Users\JAMESS~1\AppData\Local\Temp\ccSFa4Kp.s 			page 19


 313              		.loc 1 481 0
 314 0052 0022     		movs	r2, #0
 315 0054 094B     		ldr	r3, .L15+32
 316 0056 1A60     		str	r2, [r3]
 482:Generated_Source\PSoC4/StripLights.c **** 
 317              		.loc 1 482 0
 318              		@ sp needed
 319 0058 30BD     		pop	{r4, r5, pc}
 320              	.L16:
 321 005a C046     		.align	2
 322              	.L15:
 323 005c 00000000 		.word	.LANCHOR0
 324 0060 70000F40 		.word	1074724976
 325 0064 00000000 		.word	StripLights_ledArray
 326 0068 00000000 		.word	StripLights_DimShift
 327 006c 00000000 		.word	StripLights_DimMask
 328 0070 00000000 		.word	.LANCHOR1
 329 0074 42000F40 		.word	1074724930
 330 0078 72000F40 		.word	1074724978
 331 007c 00000000 		.word	StripLights_refreshComplete
 332              		.cfi_endproc
 333              	.LFE36:
 334              		.size	StripLights_Trigger, .-StripLights_Trigger
 335              		.section	.text.StripLights_Ready,"ax",%progbits
 336              		.align	2
 337              		.global	StripLights_Ready
 338              		.code	16
 339              		.thumb_func
 340              		.type	StripLights_Ready, %function
 341              	StripLights_Ready:
 342              	.LFB37:
 498:Generated_Source\PSoC4/StripLights.c ****     if(StripLights_refreshComplete )
 343              		.loc 1 498 0
 344              		.cfi_startproc
 345              		@ args = 0, pretend = 0, frame = 0
 346              		@ frame_needed = 0, uses_anonymous_args = 0
 347              		@ link register save eliminated.
 499:Generated_Source\PSoC4/StripLights.c ****     {
 348              		.loc 1 499 0
 349 0000 044B     		ldr	r3, .L19
 350 0002 1868     		ldr	r0, [r3]
 351 0004 0028     		cmp	r0, #0
 352 0006 03D0     		beq	.L18
 501:Generated_Source\PSoC4/StripLights.c ****         return((uint32)1);
 353              		.loc 1 501 0
 354 0008 0022     		movs	r2, #0
 355 000a 034B     		ldr	r3, .L19+4
 356 000c 1A70     		strb	r2, [r3]
 502:Generated_Source\PSoC4/StripLights.c ****     }
 357              		.loc 1 502 0
 358 000e 0120     		movs	r0, #1
 359              	.L18:
 508:Generated_Source\PSoC4/StripLights.c **** 
 360              		.loc 1 508 0
 361              		@ sp needed
 362 0010 7047     		bx	lr
 363              	.L20:
ARM GAS  C:\Users\JAMESS~1\AppData\Local\Temp\ccSFa4Kp.s 			page 20


 364 0012 C046     		.align	2
 365              	.L19:
 366 0014 00000000 		.word	StripLights_refreshComplete
 367 0018 72000F40 		.word	1074724978
 368              		.cfi_endproc
 369              	.LFE37:
 370              		.size	StripLights_Ready, .-StripLights_Ready
 371              		.section	.text.StripLights_TriggerWaitDelay,"ax",%progbits
 372              		.align	2
 373              		.global	StripLights_TriggerWaitDelay
 374              		.code	16
 375              		.thumb_func
 376              		.type	StripLights_TriggerWaitDelay, %function
 377              	StripLights_TriggerWaitDelay:
 378              	.LFB34:
 352:Generated_Source\PSoC4/StripLights.c **** 
 379              		.loc 1 352 0
 380              		.cfi_startproc
 381              		@ args = 0, pretend = 0, frame = 0
 382              		@ frame_needed = 0, uses_anonymous_args = 0
 383              	.LVL10:
 384 0000 70B5     		push	{r4, r5, r6, lr}
 385              		.cfi_def_cfa_offset 16
 386              		.cfi_offset 4, -16
 387              		.cfi_offset 5, -12
 388              		.cfi_offset 6, -8
 389              		.cfi_offset 14, -4
 390 0002 0500     		movs	r5, r0
 391              	.LVL11:
 357:Generated_Source\PSoC4/StripLights.c ****     {
 392              		.loc 1 357 0
 393 0004 124B     		ldr	r3, .L28
 394 0006 1B69     		ldr	r3, [r3, #16]
 395 0008 002B     		cmp	r3, #0
 396 000a 00D0     		beq	.L22
 359:Generated_Source\PSoC4/StripLights.c ****     }
 397              		.loc 1 359 0
 398 000c 9847     		blx	r3
 399              	.LVL12:
 400              	.L22:
 362:Generated_Source\PSoC4/StripLights.c ****     
 401              		.loc 1 362 0
 402 000e 0120     		movs	r0, #1
 403 0010 FFF7FEFF 		bl	StripLights_Trigger
 404              	.LVL13:
 354:Generated_Source\PSoC4/StripLights.c ****     
 405              		.loc 1 354 0
 406 0014 0024     		movs	r4, #0
 364:Generated_Source\PSoC4/StripLights.c ****     {
 407              		.loc 1 364 0
 408 0016 07E0     		b	.L23
 409              	.LVL14:
 410              	.L25:
 366:Generated_Source\PSoC4/StripLights.c ****         CyDelayUs(100);  
 411              		.loc 1 366 0
 412 0018 FA23     		movs	r3, #250
 413 001a DB00     		lsls	r3, r3, #3
ARM GAS  C:\Users\JAMESS~1\AppData\Local\Temp\ccSFa4Kp.s 			page 21


 414 001c 9C42     		cmp	r4, r3
 415 001e 0CD8     		bhi	.L24
 367:Generated_Source\PSoC4/StripLights.c ****         toCount++;
 416              		.loc 1 367 0
 417 0020 6420     		movs	r0, #100
 418 0022 FFF7FEFF 		bl	CyDelayUs
 419              	.LVL15:
 368:Generated_Source\PSoC4/StripLights.c ****     }
 420              		.loc 1 368 0
 421 0026 0134     		adds	r4, r4, #1
 422              	.LVL16:
 423              	.L23:
 364:Generated_Source\PSoC4/StripLights.c ****     {
 424              		.loc 1 364 0
 425 0028 FFF7FEFF 		bl	StripLights_Ready
 426              	.LVL17:
 427 002c 0028     		cmp	r0, #0
 428 002e F3D0     		beq	.L25
 429 0030 03E0     		b	.L24
 430              	.L26:
 373:Generated_Source\PSoC4/StripLights.c ****         CyDelayUs(100); 
 431              		.loc 1 373 0
 432 0032 0134     		adds	r4, r4, #1
 433              	.LVL18:
 374:Generated_Source\PSoC4/StripLights.c ****     }
 434              		.loc 1 374 0
 435 0034 6420     		movs	r0, #100
 436 0036 FFF7FEFF 		bl	CyDelayUs
 437              	.LVL19:
 438              	.L24:
 371:Generated_Source\PSoC4/StripLights.c ****     {
 439              		.loc 1 371 0
 440 003a AB00     		lsls	r3, r5, #2
 441 003c 5B19     		adds	r3, r3, r5
 442 003e 5A00     		lsls	r2, r3, #1
 443 0040 9442     		cmp	r4, r2
 444 0042 F6D3     		bcc	.L26
 379:Generated_Source\PSoC4/StripLights.c ****     {
 445              		.loc 1 379 0
 446 0044 024B     		ldr	r3, .L28
 447 0046 5B69     		ldr	r3, [r3, #20]
 448 0048 002B     		cmp	r3, #0
 449 004a 00D0     		beq	.L21
 381:Generated_Source\PSoC4/StripLights.c ****     }
 450              		.loc 1 381 0
 451 004c 9847     		blx	r3
 452              	.LVL20:
 453              	.L21:
 385:Generated_Source\PSoC4/StripLights.c **** 
 454              		.loc 1 385 0
 455              		@ sp needed
 456              	.LVL21:
 457              	.LVL22:
 458 004e 70BD     		pop	{r4, r5, r6, pc}
 459              	.L29:
 460              		.align	2
 461              	.L28:
ARM GAS  C:\Users\JAMESS~1\AppData\Local\Temp\ccSFa4Kp.s 			page 22


 462 0050 00000000 		.word	.LANCHOR0
 463              		.cfi_endproc
 464              	.LFE34:
 465              		.size	StripLights_TriggerWaitDelay, .-StripLights_TriggerWaitDelay
 466              		.section	.text.StripLights_TriggerWait,"ax",%progbits
 467              		.align	2
 468              		.global	StripLights_TriggerWait
 469              		.code	16
 470              		.thumb_func
 471              		.type	StripLights_TriggerWait, %function
 472              	StripLights_TriggerWait:
 473              	.LFB35:
 401:Generated_Source\PSoC4/StripLights.c **** 
 474              		.loc 1 401 0
 475              		.cfi_startproc
 476              		@ args = 0, pretend = 0, frame = 0
 477              		@ frame_needed = 0, uses_anonymous_args = 0
 478              	.LVL23:
 479 0000 10B5     		push	{r4, lr}
 480              		.cfi_def_cfa_offset 8
 481              		.cfi_offset 4, -8
 482              		.cfi_offset 14, -4
 483 0002 0400     		movs	r4, r0
 405:Generated_Source\PSoC4/StripLights.c ****     {
 484              		.loc 1 405 0
 485 0004 084B     		ldr	r3, .L34
 486 0006 1B69     		ldr	r3, [r3, #16]
 487 0008 002B     		cmp	r3, #0
 488 000a 00D0     		beq	.L31
 407:Generated_Source\PSoC4/StripLights.c ****     }
 489              		.loc 1 407 0
 490 000c 9847     		blx	r3
 491              	.LVL24:
 492              	.L31:
 410:Generated_Source\PSoC4/StripLights.c ****     
 493              		.loc 1 410 0
 494 000e 2000     		movs	r0, r4
 495 0010 FFF7FEFF 		bl	StripLights_Trigger
 496              	.LVL25:
 497              	.L32:
 412:Generated_Source\PSoC4/StripLights.c ****     
 498              		.loc 1 412 0 discriminator 1
 499 0014 FFF7FEFF 		bl	StripLights_Ready
 500              	.LVL26:
 501 0018 0028     		cmp	r0, #0
 502 001a FBD0     		beq	.L32
 416:Generated_Source\PSoC4/StripLights.c ****     {
 503              		.loc 1 416 0
 504 001c 024B     		ldr	r3, .L34
 505 001e 5B69     		ldr	r3, [r3, #20]
 506 0020 002B     		cmp	r3, #0
 507 0022 00D0     		beq	.L30
 418:Generated_Source\PSoC4/StripLights.c ****     }
 508              		.loc 1 418 0
 509 0024 9847     		blx	r3
 510              	.LVL27:
 511              	.L30:
ARM GAS  C:\Users\JAMESS~1\AppData\Local\Temp\ccSFa4Kp.s 			page 23


 422:Generated_Source\PSoC4/StripLights.c **** 
 512              		.loc 1 422 0
 513              		@ sp needed
 514              	.LVL28:
 515 0026 10BD     		pop	{r4, pc}
 516              	.L35:
 517              		.align	2
 518              	.L34:
 519 0028 00000000 		.word	.LANCHOR0
 520              		.cfi_endproc
 521              	.LFE35:
 522              		.size	StripLights_TriggerWait, .-StripLights_TriggerWait
 523              		.section	.text.StripLights_Stop,"ax",%progbits
 524              		.align	2
 525              		.global	StripLights_Stop
 526              		.code	16
 527              		.thumb_func
 528              		.type	StripLights_Stop, %function
 529              	StripLights_Stop:
 530              	.LFB38:
 525:Generated_Source\PSoC4/StripLights.c ****     StripLights_CONTROL = StripLights_DISABLE;
 531              		.loc 1 525 0
 532              		.cfi_startproc
 533              		@ args = 0, pretend = 0, frame = 0
 534              		@ frame_needed = 0, uses_anonymous_args = 0
 535              		@ link register save eliminated.
 526:Generated_Source\PSoC4/StripLights.c **** }
 536              		.loc 1 526 0
 537 0000 0022     		movs	r2, #0
 538 0002 014B     		ldr	r3, .L37
 539 0004 1A70     		strb	r2, [r3]
 527:Generated_Source\PSoC4/StripLights.c **** 
 540              		.loc 1 527 0
 541              		@ sp needed
 542 0006 7047     		bx	lr
 543              	.L38:
 544              		.align	2
 545              	.L37:
 546 0008 72000F40 		.word	1074724978
 547              		.cfi_endproc
 548              	.LFE38:
 549              		.size	StripLights_Stop, .-StripLights_Stop
 550              		.section	.text.StripLights_getColor,"ax",%progbits
 551              		.align	2
 552              		.global	StripLights_getColor
 553              		.code	16
 554              		.thumb_func
 555              		.type	StripLights_getColor, %function
 556              	StripLights_getColor:
 557              	.LFB39:
 530:Generated_Source\PSoC4/StripLights.c ****     #if(StripLights_MEMORY_TYPE == StripLights_MEMORY_RGB)
 558              		.loc 1 530 0
 559              		.cfi_startproc
 560              		@ args = 0, pretend = 0, frame = 0
 561              		@ frame_needed = 0, uses_anonymous_args = 0
 562              		@ link register save eliminated.
 563              	.LVL29:
ARM GAS  C:\Users\JAMESS~1\AppData\Local\Temp\ccSFa4Kp.s 			page 24


 532:Generated_Source\PSoC4/StripLights.c ****     #endif
 564              		.loc 1 532 0
 565 0000 8000     		lsls	r0, r0, #2
 566              	.LVL30:
 567 0002 014B     		ldr	r3, .L40
 568 0004 C058     		ldr	r0, [r0, r3]
 569              	.LVL31:
 536:Generated_Source\PSoC4/StripLights.c **** 
 570              		.loc 1 536 0
 571              		@ sp needed
 572 0006 7047     		bx	lr
 573              	.L41:
 574              		.align	2
 575              	.L40:
 576 0008 00010000 		.word	.LANCHOR2
 577              		.cfi_endproc
 578              	.LFE39:
 579              		.size	StripLights_getColor, .-StripLights_getColor
 580              		.global	__aeabi_uidivmod
 581              		.section	.text.StripLights_ColorInc,"ax",%progbits
 582              		.align	2
 583              		.global	StripLights_ColorInc
 584              		.code	16
 585              		.thumb_func
 586              		.type	StripLights_ColorInc, %function
 587              	StripLights_ColorInc:
 588              	.LFB40:
 552:Generated_Source\PSoC4/StripLights.c ****     uint32 color;
 589              		.loc 1 552 0
 590              		.cfi_startproc
 591              		@ args = 0, pretend = 0, frame = 0
 592              		@ frame_needed = 0, uses_anonymous_args = 0
 593              	.LVL32:
 594 0000 10B5     		push	{r4, lr}
 595              		.cfi_def_cfa_offset 8
 596              		.cfi_offset 4, -8
 597              		.cfi_offset 14, -4
 557:Generated_Source\PSoC4/StripLights.c ****     colorIndex = colorIndex % StripLights_COLOR_WHEEL_SIZE;
 598              		.loc 1 557 0
 599 0002 064C     		ldr	r4, .L43
 600 0004 A369     		ldr	r3, [r4, #24]
 601 0006 9C46     		mov	ip, r3
 602 0008 6044     		add	r0, r0, ip
 603              	.LVL33:
 558:Generated_Source\PSoC4/StripLights.c **** 
 604              		.loc 1 558 0
 605 000a 1821     		movs	r1, #24
 606 000c FFF7FEFF 		bl	__aeabi_uidivmod
 607              	.LVL34:
 608 0010 A161     		str	r1, [r4, #24]
 561:Generated_Source\PSoC4/StripLights.c ****     #else
 609              		.loc 1 561 0
 610 0012 8900     		lsls	r1, r1, #2
 611 0014 024B     		ldr	r3, .L43+4
 612 0016 C858     		ldr	r0, [r1, r3]
 613              	.LVL35:
 566:Generated_Source\PSoC4/StripLights.c **** /*****************************************************************************
ARM GAS  C:\Users\JAMESS~1\AppData\Local\Temp\ccSFa4Kp.s 			page 25


 614              		.loc 1 566 0
 615              		@ sp needed
 616 0018 10BD     		pop	{r4, pc}
 617              	.L44:
 618 001a C046     		.align	2
 619              	.L43:
 620 001c 00000000 		.word	.LANCHOR0
 621 0020 00010000 		.word	.LANCHOR2
 622              		.cfi_endproc
 623              	.LFE40:
 624              		.size	StripLights_ColorInc, .-StripLights_ColorInc
 625              		.section	.text.StripLights_MemClear,"ax",%progbits
 626              		.align	2
 627              		.global	StripLights_MemClear
 628              		.code	16
 629              		.thumb_func
 630              		.type	StripLights_MemClear, %function
 631              	StripLights_MemClear:
 632              	.LFB44:
 697:Generated_Source\PSoC4/StripLights.c **** 
 698:Generated_Source\PSoC4/StripLights.c **** 
 699:Generated_Source\PSoC4/StripLights.c **** /*******************************************************************************
 700:Generated_Source\PSoC4/StripLights.c **** * Function Name: StripLights_DisplayClear
 701:Generated_Source\PSoC4/StripLights.c **** ********************************************************************************
 702:Generated_Source\PSoC4/StripLights.c **** * Summary:
 703:Generated_Source\PSoC4/StripLights.c **** *   Clear memory with a given value and update the display.
 704:Generated_Source\PSoC4/StripLights.c **** *
 705:Generated_Source\PSoC4/StripLights.c **** * Parameters:  
 706:Generated_Source\PSoC4/StripLights.c **** *  uint32 color: Color to clear display. 
 707:Generated_Source\PSoC4/StripLights.c **** *
 708:Generated_Source\PSoC4/StripLights.c **** * Return: 
 709:Generated_Source\PSoC4/StripLights.c **** *  void
 710:Generated_Source\PSoC4/StripLights.c **** *
 711:Generated_Source\PSoC4/StripLights.c **** *******************************************************************************/
 712:Generated_Source\PSoC4/StripLights.c **** void StripLights_DisplayClear(uint32 color)
 713:Generated_Source\PSoC4/StripLights.c **** {   
 714:Generated_Source\PSoC4/StripLights.c ****     StripLights_MemClear(color);
 715:Generated_Source\PSoC4/StripLights.c ****     StripLights_Trigger(1);
 716:Generated_Source\PSoC4/StripLights.c **** }
 717:Generated_Source\PSoC4/StripLights.c **** 
 718:Generated_Source\PSoC4/StripLights.c **** /*******************************************************************************
 719:Generated_Source\PSoC4/StripLights.c **** * Function Name: StripLights_MemClear
 720:Generated_Source\PSoC4/StripLights.c **** ********************************************************************************
 721:Generated_Source\PSoC4/StripLights.c **** * Summary:
 722:Generated_Source\PSoC4/StripLights.c **** *   Clear LED memory with given color, but do not update display.
 723:Generated_Source\PSoC4/StripLights.c **** *
 724:Generated_Source\PSoC4/StripLights.c **** * Parameters:  
 725:Generated_Source\PSoC4/StripLights.c **** *  uint32 color: Color to clear display.  
 726:Generated_Source\PSoC4/StripLights.c **** *
 727:Generated_Source\PSoC4/StripLights.c **** * Return: 
 728:Generated_Source\PSoC4/StripLights.c **** *  void
 729:Generated_Source\PSoC4/StripLights.c **** *
 730:Generated_Source\PSoC4/StripLights.c **** *******************************************************************************/
 731:Generated_Source\PSoC4/StripLights.c **** void StripLights_MemClear(uint32 color)
 732:Generated_Source\PSoC4/StripLights.c **** {
 633              		.loc 1 732 0
 634              		.cfi_startproc
ARM GAS  C:\Users\JAMESS~1\AppData\Local\Temp\ccSFa4Kp.s 			page 26


 635              		@ args = 0, pretend = 0, frame = 0
 636              		@ frame_needed = 0, uses_anonymous_args = 0
 637              	.LVL36:
 638 0000 10B5     		push	{r4, lr}
 639              		.cfi_def_cfa_offset 8
 640              		.cfi_offset 4, -8
 641              		.cfi_offset 14, -4
 642              	.LVL37:
 733:Generated_Source\PSoC4/StripLights.c ****     uint32  row, col;
 734:Generated_Source\PSoC4/StripLights.c ****     
 735:Generated_Source\PSoC4/StripLights.c ****     for(row=0; row < StripLights_ARRAY_ROWS; row++)
 643              		.loc 1 735 0
 644 0002 0024     		movs	r4, #0
 645 0004 0CE0     		b	.L46
 646              	.LVL38:
 647              	.L47:
 736:Generated_Source\PSoC4/StripLights.c ****     {
 737:Generated_Source\PSoC4/StripLights.c ****         for(col=0; col < StripLights_ARRAY_COLS; col++)
 738:Generated_Source\PSoC4/StripLights.c ****         {
 739:Generated_Source\PSoC4/StripLights.c ****             #if(StripLights_MEMORY_TYPE == StripLights_MEMORY_RGB)
 740:Generated_Source\PSoC4/StripLights.c ****                 StripLights_ledArray[row][col] = color;
 648              		.loc 1 740 0 discriminator 3
 649 0006 E200     		lsls	r2, r4, #3
 650 0008 121B     		subs	r2, r2, r4
 651 000a 5300     		lsls	r3, r2, #1
 652 000c 5B18     		adds	r3, r3, r1
 653 000e 9B00     		lsls	r3, r3, #2
 654 0010 054A     		ldr	r2, .L50
 655 0012 9850     		str	r0, [r3, r2]
 737:Generated_Source\PSoC4/StripLights.c ****         {
 656              		.loc 1 737 0 discriminator 3
 657 0014 0131     		adds	r1, r1, #1
 658              	.LVL39:
 659 0016 00E0     		b	.L48
 660              	.LVL40:
 661              	.L49:
 662 0018 0021     		movs	r1, #0
 663              	.L48:
 664              	.LVL41:
 737:Generated_Source\PSoC4/StripLights.c ****         {
 665              		.loc 1 737 0 is_stmt 0 discriminator 1
 666 001a 0D29     		cmp	r1, #13
 667 001c F3D9     		bls	.L47
 735:Generated_Source\PSoC4/StripLights.c ****     {
 668              		.loc 1 735 0 is_stmt 1 discriminator 2
 669 001e 0134     		adds	r4, r4, #1
 670              	.LVL42:
 671              	.L46:
 735:Generated_Source\PSoC4/StripLights.c ****     {
 672              		.loc 1 735 0 is_stmt 0 discriminator 1
 673 0020 002C     		cmp	r4, #0
 674 0022 F9D0     		beq	.L49
 741:Generated_Source\PSoC4/StripLights.c ****             #else  /* Else use lookup table */
 742:Generated_Source\PSoC4/StripLights.c ****                  StripLights_ledArray[row][col] = (uint8)color;
 743:Generated_Source\PSoC4/StripLights.c ****             #endif
 744:Generated_Source\PSoC4/StripLights.c ****         }
 745:Generated_Source\PSoC4/StripLights.c ****     }
ARM GAS  C:\Users\JAMESS~1\AppData\Local\Temp\ccSFa4Kp.s 			page 27


 746:Generated_Source\PSoC4/StripLights.c **** }
 675              		.loc 1 746 0 is_stmt 1
 676              		@ sp needed
 677              	.LVL43:
 678 0024 10BD     		pop	{r4, pc}
 679              	.L51:
 680 0026 C046     		.align	2
 681              	.L50:
 682 0028 00000000 		.word	StripLights_ledArray
 683              		.cfi_endproc
 684              	.LFE44:
 685              		.size	StripLights_MemClear, .-StripLights_MemClear
 686              		.section	.text.StripLights_DisplayClear,"ax",%progbits
 687              		.align	2
 688              		.global	StripLights_DisplayClear
 689              		.code	16
 690              		.thumb_func
 691              		.type	StripLights_DisplayClear, %function
 692              	StripLights_DisplayClear:
 693              	.LFB43:
 713:Generated_Source\PSoC4/StripLights.c ****     StripLights_MemClear(color);
 694              		.loc 1 713 0
 695              		.cfi_startproc
 696              		@ args = 0, pretend = 0, frame = 0
 697              		@ frame_needed = 0, uses_anonymous_args = 0
 698              	.LVL44:
 699 0000 10B5     		push	{r4, lr}
 700              		.cfi_def_cfa_offset 8
 701              		.cfi_offset 4, -8
 702              		.cfi_offset 14, -4
 714:Generated_Source\PSoC4/StripLights.c ****     StripLights_Trigger(1);
 703              		.loc 1 714 0
 704 0002 FFF7FEFF 		bl	StripLights_MemClear
 705              	.LVL45:
 715:Generated_Source\PSoC4/StripLights.c **** }
 706              		.loc 1 715 0
 707 0006 0120     		movs	r0, #1
 708 0008 FFF7FEFF 		bl	StripLights_Trigger
 709              	.LVL46:
 716:Generated_Source\PSoC4/StripLights.c **** 
 710              		.loc 1 716 0
 711              		@ sp needed
 712 000c 10BD     		pop	{r4, pc}
 713              		.cfi_endproc
 714              	.LFE43:
 715              		.size	StripLights_DisplayClear, .-StripLights_DisplayClear
 716 000e C046     		.section	.text.StripLights_WriteColor,"ax",%progbits
 717              		.align	2
 718              		.global	StripLights_WriteColor
 719              		.code	16
 720              		.thumb_func
 721              		.type	StripLights_WriteColor, %function
 722              	StripLights_WriteColor:
 723              	.LFB45:
 747:Generated_Source\PSoC4/StripLights.c **** 
 748:Generated_Source\PSoC4/StripLights.c **** 
 749:Generated_Source\PSoC4/StripLights.c **** 
ARM GAS  C:\Users\JAMESS~1\AppData\Local\Temp\ccSFa4Kp.s 			page 28


 750:Generated_Source\PSoC4/StripLights.c **** /*******************************************************************************
 751:Generated_Source\PSoC4/StripLights.c **** * Function Name: StripLights_WriteColor
 752:Generated_Source\PSoC4/StripLights.c **** ********************************************************************************
 753:Generated_Source\PSoC4/StripLights.c **** * Summary:
 754:Generated_Source\PSoC4/StripLights.c **** *   Write given color directly to output register.
 755:Generated_Source\PSoC4/StripLights.c **** *
 756:Generated_Source\PSoC4/StripLights.c **** * Parameters:  
 757:Generated_Source\PSoC4/StripLights.c **** *  uint32 color: Color to write to display. 
 758:Generated_Source\PSoC4/StripLights.c **** *
 759:Generated_Source\PSoC4/StripLights.c **** * Return: 
 760:Generated_Source\PSoC4/StripLights.c **** *  void
 761:Generated_Source\PSoC4/StripLights.c **** *
 762:Generated_Source\PSoC4/StripLights.c **** *******************************************************************************/
 763:Generated_Source\PSoC4/StripLights.c **** void StripLights_WriteColor(uint32 color)
 764:Generated_Source\PSoC4/StripLights.c **** {
 724              		.loc 1 764 0
 725              		.cfi_startproc
 726              		@ args = 0, pretend = 0, frame = 0
 727              		@ frame_needed = 0, uses_anonymous_args = 0
 728              		@ link register save eliminated.
 729              	.LVL47:
 730              	.L54:
 765:Generated_Source\PSoC4/StripLights.c ****     while( (StripLights_STATUS & StripLights_FIFO_EMPTY) == 0); 
 731              		.loc 1 765 0 discriminator 1
 732 0000 064B     		ldr	r3, .L55
 733 0002 1B78     		ldrb	r3, [r3]
 734 0004 DB07     		lsls	r3, r3, #31
 735 0006 FBD5     		bpl	.L54
 766:Generated_Source\PSoC4/StripLights.c **** 
 767:Generated_Source\PSoC4/StripLights.c ****     StripLights_DATA = (uint8)(color & 0x000000FF);  // Write Green
 736              		.loc 1 767 0
 737 0008 C2B2     		uxtb	r2, r0
 738 000a 054B     		ldr	r3, .L55+4
 739 000c 1A70     		strb	r2, [r3]
 768:Generated_Source\PSoC4/StripLights.c ****     color = color >> 8;
 740              		.loc 1 768 0
 741 000e 020A     		lsrs	r2, r0, #8
 742              	.LVL48:
 769:Generated_Source\PSoC4/StripLights.c ****     StripLights_DATA = (uint8)(color & 0x000000FF);  // Write Red
 743              		.loc 1 769 0
 744 0010 D2B2     		uxtb	r2, r2
 745              	.LVL49:
 746 0012 1A70     		strb	r2, [r3]
 770:Generated_Source\PSoC4/StripLights.c ****     color = color >> 8;
 747              		.loc 1 770 0
 748 0014 000C     		lsrs	r0, r0, #16
 749              	.LVL50:
 771:Generated_Source\PSoC4/StripLights.c ****     StripLights_DATA = (uint8)(color & 0x000000FF);  // Write Blue
 750              		.loc 1 771 0
 751 0016 C0B2     		uxtb	r0, r0
 752              	.LVL51:
 753 0018 1870     		strb	r0, [r3]
 772:Generated_Source\PSoC4/StripLights.c ****     
 773:Generated_Source\PSoC4/StripLights.c ****     #if(StripLights_CHIP == StripLights_CHIP_SF2812RGBW)
 774:Generated_Source\PSoC4/StripLights.c ****         color = color >> 8;
 775:Generated_Source\PSoC4/StripLights.c ****         StripLights_DATA = (uint8)(color & 0x000000FF);  // Write White 
 776:Generated_Source\PSoC4/StripLights.c ****     #endif 
ARM GAS  C:\Users\JAMESS~1\AppData\Local\Temp\ccSFa4Kp.s 			page 29


 777:Generated_Source\PSoC4/StripLights.c **** }
 754              		.loc 1 777 0
 755              		@ sp needed
 756 001a 7047     		bx	lr
 757              	.L56:
 758              		.align	2
 759              	.L55:
 760 001c 62000F40 		.word	1074724962
 761 0020 42000F40 		.word	1074724930
 762              		.cfi_endproc
 763              	.LFE45:
 764              		.size	StripLights_WriteColor, .-StripLights_WriteColor
 765              		.section	.text.StripLights_Pixel,"ax",%progbits
 766              		.align	2
 767              		.global	StripLights_Pixel
 768              		.code	16
 769              		.thumb_func
 770              		.type	StripLights_Pixel, %function
 771              	StripLights_Pixel:
 772              	.LFB46:
 778:Generated_Source\PSoC4/StripLights.c **** 
 779:Generated_Source\PSoC4/StripLights.c **** 
 780:Generated_Source\PSoC4/StripLights.c **** /*******************************************************************************
 781:Generated_Source\PSoC4/StripLights.c **** * Function Name: StripLights_Pixel
 782:Generated_Source\PSoC4/StripLights.c **** ********************************************************************************
 783:Generated_Source\PSoC4/StripLights.c **** *
 784:Generated_Source\PSoC4/StripLights.c **** * Summary:
 785:Generated_Source\PSoC4/StripLights.c **** *  Draw Pixel  
 786:Generated_Source\PSoC4/StripLights.c **** *
 787:Generated_Source\PSoC4/StripLights.c **** * Parameters:  
 788:Generated_Source\PSoC4/StripLights.c **** *  x,y:    Location to draw the pixel
 789:Generated_Source\PSoC4/StripLights.c **** *  color:  Color of the pixel
 790:Generated_Source\PSoC4/StripLights.c **** *
 791:Generated_Source\PSoC4/StripLights.c **** * Return: 
 792:Generated_Source\PSoC4/StripLights.c **** *  None 
 793:Generated_Source\PSoC4/StripLights.c **** *******************************************************************************/
 794:Generated_Source\PSoC4/StripLights.c **** void StripLights_Pixel(int32 x, int32 y, uint32 color)
 795:Generated_Source\PSoC4/StripLights.c **** {
 773              		.loc 1 795 0
 774              		.cfi_startproc
 775              		@ args = 0, pretend = 0, frame = 0
 776              		@ frame_needed = 0, uses_anonymous_args = 0
 777              		@ link register save eliminated.
 778              	.LVL52:
 796:Generated_Source\PSoC4/StripLights.c **** 
 797:Generated_Source\PSoC4/StripLights.c ****     // Swap X-Y Coordinates
 798:Generated_Source\PSoC4/StripLights.c ****     #if(StripLights_SWAP_XY_COORD == StripLights_XY_SWAPED)
 799:Generated_Source\PSoC4/StripLights.c ****         uint32 xyTmp;
 800:Generated_Source\PSoC4/StripLights.c ****         xyTmp = x;
 801:Generated_Source\PSoC4/StripLights.c ****         x = y;
 802:Generated_Source\PSoC4/StripLights.c ****         y = xyTmp;
 803:Generated_Source\PSoC4/StripLights.c ****     #endif
 804:Generated_Source\PSoC4/StripLights.c ****     
 805:Generated_Source\PSoC4/StripLights.c ****     // X-Wrap
 806:Generated_Source\PSoC4/StripLights.c ****     #if (StripLights_COORD_WRAP & StripLights_COORD_XAXIS )
 807:Generated_Source\PSoC4/StripLights.c ****         x = x % (StripLights_MAX_X+1);
 808:Generated_Source\PSoC4/StripLights.c ****     #endif
ARM GAS  C:\Users\JAMESS~1\AppData\Local\Temp\ccSFa4Kp.s 			page 30


 809:Generated_Source\PSoC4/StripLights.c ****     
 810:Generated_Source\PSoC4/StripLights.c ****     // Y-Wrap
 811:Generated_Source\PSoC4/StripLights.c ****     #if (StripLights_COORD_WRAP & StripLights_COORD_YAXIS )
 812:Generated_Source\PSoC4/StripLights.c ****         y = y % (StripLights_MAX_Y+1);
 813:Generated_Source\PSoC4/StripLights.c ****     #endif
 814:Generated_Source\PSoC4/StripLights.c ****     
 815:Generated_Source\PSoC4/StripLights.c ****     // Flip X-Axis
 816:Generated_Source\PSoC4/StripLights.c ****     #if (StripLights_FLIP_X_COORD == StripLights_FLIP_COORD )
 817:Generated_Source\PSoC4/StripLights.c ****         x = StripLights_MAX_X - x;
 818:Generated_Source\PSoC4/StripLights.c ****     #endif
 819:Generated_Source\PSoC4/StripLights.c ****     
 820:Generated_Source\PSoC4/StripLights.c ****     // Flip Y-Axis
 821:Generated_Source\PSoC4/StripLights.c ****     #if (StripLights_FLIP_Y_COORD == StripLights_FLIP_COORD )
 822:Generated_Source\PSoC4/StripLights.c ****         y = StripLights_MAX_Y - y;
 823:Generated_Source\PSoC4/StripLights.c ****     #endif
 824:Generated_Source\PSoC4/StripLights.c ****     
 825:Generated_Source\PSoC4/StripLights.c ****     // Make sure X-Y values are in range
 826:Generated_Source\PSoC4/StripLights.c ****    	if((x >= StripLights_MIN_X) && (y >= StripLights_MIN_Y) && (x <= StripLights_MAX_X) && (y <= St
 779              		.loc 1 826 0
 780 0000 0028     		cmp	r0, #0
 781 0002 0CDB     		blt	.L57
 782              		.loc 1 826 0 is_stmt 0 discriminator 1
 783 0004 0029     		cmp	r1, #0
 784 0006 0ADB     		blt	.L57
 785              		.loc 1 826 0 discriminator 2
 786 0008 0D28     		cmp	r0, #13
 787 000a 08DC     		bgt	.L57
 788              		.loc 1 826 0 discriminator 3
 789 000c 0029     		cmp	r1, #0
 790 000e 06DC     		bgt	.L57
 827:Generated_Source\PSoC4/StripLights.c ****     {
 828:Generated_Source\PSoC4/StripLights.c ****         
 829:Generated_Source\PSoC4/StripLights.c ****         #if (StripLights_LED_LAYOUT == StripLights_LED_LAYOUT_STANDARD)
 830:Generated_Source\PSoC4/StripLights.c ****              // Do nothing special   
 831:Generated_Source\PSoC4/StripLights.c ****         #elif (StripLights_LED_LAYOUT == StripLights_LED_LAYOUT_SPIRAL)
 832:Generated_Source\PSoC4/StripLights.c ****             x = x + (y * StripLights_COLUMNS);
 833:Generated_Source\PSoC4/StripLights.c ****             y = 0;
 834:Generated_Source\PSoC4/StripLights.c ****             
 835:Generated_Source\PSoC4/StripLights.c ****         #elif (StripLights_LED_LAYOUT == StripLights_LED_LAYOUT_GRID16X16)
 836:Generated_Source\PSoC4/StripLights.c ****             	x = (((x/(int32)16)*(int32)256) + (uint32)StripLights_cTrans[y % 16][x % 16]);
 837:Generated_Source\PSoC4/StripLights.c **** 		        y = (y/(int32)16);    
 838:Generated_Source\PSoC4/StripLights.c ****         #endif
 839:Generated_Source\PSoC4/StripLights.c ****          
 840:Generated_Source\PSoC4/StripLights.c ****         #if(StripLights_MEMORY_TYPE == StripLights_MEMORY_RGB)
 841:Generated_Source\PSoC4/StripLights.c ****             StripLights_ledArray[y][x] = color;
 791              		.loc 1 841 0 is_stmt 1
 792 0010 CB00     		lsls	r3, r1, #3
 793 0012 591A     		subs	r1, r3, r1
 794              	.LVL53:
 795 0014 4B00     		lsls	r3, r1, #1
 796 0016 1818     		adds	r0, r3, r0
 797              	.LVL54:
 798 0018 8000     		lsls	r0, r0, #2
 799 001a 014B     		ldr	r3, .L59
 800 001c C250     		str	r2, [r0, r3]
 801              	.L57:
 842:Generated_Source\PSoC4/StripLights.c ****         #else  /* Else use lookup table */
ARM GAS  C:\Users\JAMESS~1\AppData\Local\Temp\ccSFa4Kp.s 			page 31


 843:Generated_Source\PSoC4/StripLights.c ****             StripLights_ledArray[y][x] = (uint8)color;
 844:Generated_Source\PSoC4/StripLights.c ****         #endif    
 845:Generated_Source\PSoC4/StripLights.c ****             
 846:Generated_Source\PSoC4/StripLights.c **** 
 847:Generated_Source\PSoC4/StripLights.c ****     }
 848:Generated_Source\PSoC4/StripLights.c **** }
 802              		.loc 1 848 0
 803              		@ sp needed
 804 001e 7047     		bx	lr
 805              	.L60:
 806              		.align	2
 807              	.L59:
 808 0020 00000000 		.word	StripLights_ledArray
 809              		.cfi_endproc
 810              	.LFE46:
 811              		.size	StripLights_Pixel, .-StripLights_Pixel
 812              		.section	.text.StripLights_GetPixel,"ax",%progbits
 813              		.align	2
 814              		.global	StripLights_GetPixel
 815              		.code	16
 816              		.thumb_func
 817              		.type	StripLights_GetPixel, %function
 818              	StripLights_GetPixel:
 819              	.LFB47:
 849:Generated_Source\PSoC4/StripLights.c **** 
 850:Generated_Source\PSoC4/StripLights.c **** 
 851:Generated_Source\PSoC4/StripLights.c **** 
 852:Generated_Source\PSoC4/StripLights.c **** /*******************************************************************************
 853:Generated_Source\PSoC4/StripLights.c **** * Function Name: StripLights_GetPixel
 854:Generated_Source\PSoC4/StripLights.c **** ********************************************************************************
 855:Generated_Source\PSoC4/StripLights.c **** *
 856:Generated_Source\PSoC4/StripLights.c **** * Summary:
 857:Generated_Source\PSoC4/StripLights.c **** *  Get Pixel Color  
 858:Generated_Source\PSoC4/StripLights.c **** *
 859:Generated_Source\PSoC4/StripLights.c **** * Parameters:  
 860:Generated_Source\PSoC4/StripLights.c **** *  x,y:    Location to get pixel color
 861:Generated_Source\PSoC4/StripLights.c **** *
 862:Generated_Source\PSoC4/StripLights.c **** * Return: 
 863:Generated_Source\PSoC4/StripLights.c **** *  None 
 864:Generated_Source\PSoC4/StripLights.c **** *******************************************************************************/
 865:Generated_Source\PSoC4/StripLights.c **** uint32 StripLights_GetPixel(int32 x, int32 y)
 866:Generated_Source\PSoC4/StripLights.c **** {
 820              		.loc 1 866 0
 821              		.cfi_startproc
 822              		@ args = 0, pretend = 0, frame = 0
 823              		@ frame_needed = 0, uses_anonymous_args = 0
 824              		@ link register save eliminated.
 825              	.LVL55:
 867:Generated_Source\PSoC4/StripLights.c ****     uint32 color = 0;
 868:Generated_Source\PSoC4/StripLights.c ****     #if (StripLights_COORD_WRAP & StripLights_COORD_XAXIS )
 869:Generated_Source\PSoC4/StripLights.c ****         x = x % (StripLights_MAX_X+1);
 870:Generated_Source\PSoC4/StripLights.c ****     #endif
 871:Generated_Source\PSoC4/StripLights.c ****     #if (StripLights_COORD_WRAP & StripLights_COORD_YAXIS )
 872:Generated_Source\PSoC4/StripLights.c ****         y = y % (StripLights_MAX_Y+1);
 873:Generated_Source\PSoC4/StripLights.c ****     #endif
 874:Generated_Source\PSoC4/StripLights.c ****     
 875:Generated_Source\PSoC4/StripLights.c ****     if((x>=0) && (y>=0) && (x < StripLights_ARRAY_COLS) && (y < StripLights_ARRAY_ROWS))
ARM GAS  C:\Users\JAMESS~1\AppData\Local\Temp\ccSFa4Kp.s 			page 32


 826              		.loc 1 875 0
 827 0000 0028     		cmp	r0, #0
 828 0002 0DDB     		blt	.L63
 829              		.loc 1 875 0 is_stmt 0 discriminator 1
 830 0004 0029     		cmp	r1, #0
 831 0006 0DDB     		blt	.L64
 832              		.loc 1 875 0 discriminator 2
 833 0008 0D28     		cmp	r0, #13
 834 000a 0DDC     		bgt	.L65
 835              		.loc 1 875 0 discriminator 3
 836 000c 0029     		cmp	r1, #0
 837 000e 0DDC     		bgt	.L66
 876:Generated_Source\PSoC4/StripLights.c ****     {
 877:Generated_Source\PSoC4/StripLights.c ****                 
 878:Generated_Source\PSoC4/StripLights.c ****         #if (StripLights_LED_LAYOUT == StripLights_LED_LAYOUT_STANDARD)
 879:Generated_Source\PSoC4/StripLights.c ****             
 880:Generated_Source\PSoC4/StripLights.c ****         #elif (StripLights_LED_LAYOUT == StripLights_LED_LAYOUT_SPIRAL)
 881:Generated_Source\PSoC4/StripLights.c ****             x = x + (y * StripLights_COLUMNS);
 882:Generated_Source\PSoC4/StripLights.c ****             y = 0;
 883:Generated_Source\PSoC4/StripLights.c ****             
 884:Generated_Source\PSoC4/StripLights.c ****         #elif (StripLights_LED_LAYOUT == StripLights_LED_LAYOUT_GRID16X16)
 885:Generated_Source\PSoC4/StripLights.c ****             	x = (((x/(int32)16)*(int32)256) + (uint32)StripLights_cTrans[y % 16][x % 16]);
 886:Generated_Source\PSoC4/StripLights.c **** 		        y = (y/(int32)16);    
 887:Generated_Source\PSoC4/StripLights.c ****         #endif
 888:Generated_Source\PSoC4/StripLights.c ****     
 889:Generated_Source\PSoC4/StripLights.c ****         #if(StripLights_MEMORY_TYPE == StripLights_MEMORY_RGB)
 890:Generated_Source\PSoC4/StripLights.c ****             color = StripLights_ledArray[y][x];
 838              		.loc 1 890 0 is_stmt 1
 839 0010 CB00     		lsls	r3, r1, #3
 840 0012 591A     		subs	r1, r3, r1
 841              	.LVL56:
 842 0014 4B00     		lsls	r3, r1, #1
 843 0016 1818     		adds	r0, r3, r0
 844              	.LVL57:
 845 0018 8000     		lsls	r0, r0, #2
 846 001a 054B     		ldr	r3, .L67
 847 001c C058     		ldr	r0, [r0, r3]
 848              	.LVL58:
 849 001e 06E0     		b	.L62
 850              	.LVL59:
 851              	.L63:
 867:Generated_Source\PSoC4/StripLights.c ****     uint32 color = 0;
 852              		.loc 1 867 0
 853 0020 0020     		movs	r0, #0
 854              	.LVL60:
 855 0022 04E0     		b	.L62
 856              	.LVL61:
 857              	.L64:
 858 0024 0020     		movs	r0, #0
 859              	.LVL62:
 860 0026 02E0     		b	.L62
 861              	.LVL63:
 862              	.L65:
 863 0028 0020     		movs	r0, #0
 864              	.LVL64:
 865 002a 00E0     		b	.L62
 866              	.LVL65:
ARM GAS  C:\Users\JAMESS~1\AppData\Local\Temp\ccSFa4Kp.s 			page 33


 867              	.L66:
 868 002c 0020     		movs	r0, #0
 869              	.LVL66:
 870              	.L62:
 891:Generated_Source\PSoC4/StripLights.c ****         #else  /* Else use lookup table */
 892:Generated_Source\PSoC4/StripLights.c ****             color = (uint32)StripLights_ledArray[y][x];
 893:Generated_Source\PSoC4/StripLights.c ****         #endif
 894:Generated_Source\PSoC4/StripLights.c **** 
 895:Generated_Source\PSoC4/StripLights.c ****     }
 896:Generated_Source\PSoC4/StripLights.c ****     return(color);
 897:Generated_Source\PSoC4/StripLights.c **** }
 871              		.loc 1 897 0
 872              		@ sp needed
 873 002e 7047     		bx	lr
 874              	.L68:
 875              		.align	2
 876              	.L67:
 877 0030 00000000 		.word	StripLights_ledArray
 878              		.cfi_endproc
 879              	.LFE47:
 880              		.size	StripLights_GetPixel, .-StripLights_GetPixel
 881              		.section	.text.StripLights_DrawCircle,"ax",%progbits
 882              		.align	2
 883              		.global	StripLights_DrawCircle
 884              		.code	16
 885              		.thumb_func
 886              		.type	StripLights_DrawCircle, %function
 887              	StripLights_DrawCircle:
 888              	.LFB48:
 898:Generated_Source\PSoC4/StripLights.c **** 
 899:Generated_Source\PSoC4/StripLights.c **** /*******************************************************************************
 900:Generated_Source\PSoC4/StripLights.c **** * Function Name: StripLights_DrawCircle
 901:Generated_Source\PSoC4/StripLights.c **** ********************************************************************************
 902:Generated_Source\PSoC4/StripLights.c **** *
 903:Generated_Source\PSoC4/StripLights.c **** * Summary:
 904:Generated_Source\PSoC4/StripLights.c **** *  Draw a circle on the display given a start point and radius.  
 905:Generated_Source\PSoC4/StripLights.c **** *
 906:Generated_Source\PSoC4/StripLights.c **** *  This code uses Bresenham's Circle Algorithm. 
 907:Generated_Source\PSoC4/StripLights.c **** *
 908:Generated_Source\PSoC4/StripLights.c **** * Parameters:  
 909:Generated_Source\PSoC4/StripLights.c **** *  x0, y0: Center of circle
 910:Generated_Source\PSoC4/StripLights.c **** *  radius: Radius of circle
 911:Generated_Source\PSoC4/StripLights.c **** *  color:  Color of circle
 912:Generated_Source\PSoC4/StripLights.c **** *
 913:Generated_Source\PSoC4/StripLights.c **** * Return: 
 914:Generated_Source\PSoC4/StripLights.c **** *  None 
 915:Generated_Source\PSoC4/StripLights.c **** *  
 916:Generated_Source\PSoC4/StripLights.c **** *******************************************************************************/
 917:Generated_Source\PSoC4/StripLights.c **** void StripLights_DrawCircle (int32 x0, int32 y0, int32 radius, uint32 color)
 918:Generated_Source\PSoC4/StripLights.c **** {
 889              		.loc 1 918 0
 890              		.cfi_startproc
 891              		@ args = 0, pretend = 0, frame = 16
 892              		@ frame_needed = 0, uses_anonymous_args = 0
 893              	.LVL67:
 894 0000 F0B5     		push	{r4, r5, r6, r7, lr}
 895              		.cfi_def_cfa_offset 20
ARM GAS  C:\Users\JAMESS~1\AppData\Local\Temp\ccSFa4Kp.s 			page 34


 896              		.cfi_offset 4, -20
 897              		.cfi_offset 5, -16
 898              		.cfi_offset 6, -12
 899              		.cfi_offset 7, -8
 900              		.cfi_offset 14, -4
 901 0002 5F46     		mov	r7, fp
 902 0004 5646     		mov	r6, r10
 903 0006 4D46     		mov	r5, r9
 904 0008 4446     		mov	r4, r8
 905 000a F0B4     		push	{r4, r5, r6, r7}
 906              		.cfi_def_cfa_offset 36
 907              		.cfi_offset 8, -36
 908              		.cfi_offset 9, -32
 909              		.cfi_offset 10, -28
 910              		.cfi_offset 11, -24
 911 000c 85B0     		sub	sp, sp, #20
 912              		.cfi_def_cfa_offset 56
 913 000e 8346     		mov	fp, r0
 914 0010 8846     		mov	r8, r1
 915 0012 1400     		movs	r4, r2
 916 0014 1D00     		movs	r5, r3
 917 0016 0193     		str	r3, [sp, #4]
 919:Generated_Source\PSoC4/StripLights.c **** 	int32 f = 1 - radius;
 918              		.loc 1 919 0
 919 0018 0123     		movs	r3, #1
 920              	.LVL68:
 921 001a 9B1A     		subs	r3, r3, r2
 922 001c 9946     		mov	r9, r3
 923              	.LVL69:
 920:Generated_Source\PSoC4/StripLights.c **** 	int32 ddF_x = 0;
 921:Generated_Source\PSoC4/StripLights.c **** 	int32 ddF_y = -2 * radius;
 924              		.loc 1 921 0
 925 001e D307     		lsls	r3, r2, #31
 926              	.LVL70:
 927 0020 9B1A     		subs	r3, r3, r2
 928 0022 5A00     		lsls	r2, r3, #1
 929              	.LVL71:
 930 0024 9246     		mov	r10, r2
 931              	.LVL72:
 922:Generated_Source\PSoC4/StripLights.c **** 	int32 x = 0;
 923:Generated_Source\PSoC4/StripLights.c **** 	int32 y = radius;
 924:Generated_Source\PSoC4/StripLights.c **** 
 925:Generated_Source\PSoC4/StripLights.c **** 	StripLights_Pixel(x0, y0 + radius, color);
 932              		.loc 1 925 0
 933 0026 6118     		adds	r1, r4, r1
 934              	.LVL73:
 935 0028 2A00     		movs	r2, r5
 936              	.LVL74:
 937 002a FFF7FEFF 		bl	StripLights_Pixel
 938              	.LVL75:
 926:Generated_Source\PSoC4/StripLights.c **** 	StripLights_Pixel(x0, y0 - radius, color);
 939              		.loc 1 926 0
 940 002e 4346     		mov	r3, r8
 941 0030 191B     		subs	r1, r3, r4
 942 0032 2A00     		movs	r2, r5
 943 0034 5846     		mov	r0, fp
 944 0036 FFF7FEFF 		bl	StripLights_Pixel
ARM GAS  C:\Users\JAMESS~1\AppData\Local\Temp\ccSFa4Kp.s 			page 35


 945              	.LVL76:
 927:Generated_Source\PSoC4/StripLights.c **** 	StripLights_Pixel( x0 + radius, y0, color);
 946              		.loc 1 927 0
 947 003a 5B46     		mov	r3, fp
 948 003c E018     		adds	r0, r4, r3
 949 003e 2A00     		movs	r2, r5
 950 0040 4146     		mov	r1, r8
 951 0042 FFF7FEFF 		bl	StripLights_Pixel
 952              	.LVL77:
 928:Generated_Source\PSoC4/StripLights.c **** 	StripLights_Pixel( x0 - radius, y0, color);
 953              		.loc 1 928 0
 954 0046 5B46     		mov	r3, fp
 955 0048 181B     		subs	r0, r3, r4
 956 004a 2A00     		movs	r2, r5
 957 004c 4146     		mov	r1, r8
 958 004e FFF7FEFF 		bl	StripLights_Pixel
 959              	.LVL78:
 922:Generated_Source\PSoC4/StripLights.c **** 	int32 y = radius;
 960              		.loc 1 922 0
 961 0052 0026     		movs	r6, #0
 920:Generated_Source\PSoC4/StripLights.c **** 	int32 ddF_y = -2 * radius;
 962              		.loc 1 920 0
 963 0054 0023     		movs	r3, #0
 929:Generated_Source\PSoC4/StripLights.c **** 
 930:Generated_Source\PSoC4/StripLights.c **** 	while(x < y)
 964              		.loc 1 930 0
 965 0056 48E0     		b	.L70
 966              	.LVL79:
 967              	.L72:
 931:Generated_Source\PSoC4/StripLights.c **** 	{
 932:Generated_Source\PSoC4/StripLights.c **** 		if(f >= 0)
 968              		.loc 1 932 0
 969 0058 4A46     		mov	r2, r9
 970 005a 002A     		cmp	r2, #0
 971 005c 04DB     		blt	.L71
 972              	.LVL80:
 933:Generated_Source\PSoC4/StripLights.c **** 		{
 934:Generated_Source\PSoC4/StripLights.c **** 			y--;
 973              		.loc 1 934 0
 974 005e 013C     		subs	r4, r4, #1
 975              	.LVL81:
 935:Generated_Source\PSoC4/StripLights.c **** 			ddF_y += 2;
 976              		.loc 1 935 0
 977 0060 0222     		movs	r2, #2
 978              	.LVL82:
 979 0062 9446     		mov	ip, r2
 980 0064 E244     		add	r10, r10, ip
 981              	.LVL83:
 936:Generated_Source\PSoC4/StripLights.c **** 			f += ddF_y;
 982              		.loc 1 936 0
 983 0066 D144     		add	r9, r9, r10
 984              	.LVL84:
 985              	.L71:
 937:Generated_Source\PSoC4/StripLights.c **** 		}
 938:Generated_Source\PSoC4/StripLights.c **** 		x++;
 986              		.loc 1 938 0
 987 0068 0136     		adds	r6, r6, #1
ARM GAS  C:\Users\JAMESS~1\AppData\Local\Temp\ccSFa4Kp.s 			page 36


 988              	.LVL85:
 939:Generated_Source\PSoC4/StripLights.c **** 		ddF_x += 2;
 989              		.loc 1 939 0
 990 006a 9A1C     		adds	r2, r3, #2
 991 006c 0292     		str	r2, [sp, #8]
 992              	.LVL86:
 940:Generated_Source\PSoC4/StripLights.c **** 		f += ddF_x + 1;
 993              		.loc 1 940 0
 994 006e 0333     		adds	r3, r3, #3
 995 0070 9944     		add	r9, r9, r3
 996              	.LVL87:
 941:Generated_Source\PSoC4/StripLights.c **** 
 942:Generated_Source\PSoC4/StripLights.c **** 		StripLights_Pixel(x0 + x, y0 + y, color);
 997              		.loc 1 942 0
 998 0072 5946     		mov	r1, fp
 999 0074 8F19     		adds	r7, r1, r6
 1000 0076 4146     		mov	r1, r8
 1001 0078 6318     		adds	r3, r4, r1
 1002 007a 019A     		ldr	r2, [sp, #4]
 1003              	.LVL88:
 1004 007c 0393     		str	r3, [sp, #12]
 1005 007e 1900     		movs	r1, r3
 1006 0080 3800     		movs	r0, r7
 1007 0082 FFF7FEFF 		bl	StripLights_Pixel
 1008              	.LVL89:
 943:Generated_Source\PSoC4/StripLights.c **** 		StripLights_Pixel(x0 - x, y0 + y, color);
 1009              		.loc 1 943 0
 1010 0086 5846     		mov	r0, fp
 1011 0088 851B     		subs	r5, r0, r6
 1012 008a 019A     		ldr	r2, [sp, #4]
 1013 008c 0399     		ldr	r1, [sp, #12]
 1014 008e 2800     		movs	r0, r5
 1015 0090 FFF7FEFF 		bl	StripLights_Pixel
 1016              	.LVL90:
 944:Generated_Source\PSoC4/StripLights.c **** 		StripLights_Pixel( x0 + x, y0 - y, color);
 1017              		.loc 1 944 0
 1018 0094 4146     		mov	r1, r8
 1019 0096 0B1B     		subs	r3, r1, r4
 1020 0098 019A     		ldr	r2, [sp, #4]
 1021 009a 0393     		str	r3, [sp, #12]
 1022 009c 1900     		movs	r1, r3
 1023 009e 3800     		movs	r0, r7
 1024 00a0 FFF7FEFF 		bl	StripLights_Pixel
 1025              	.LVL91:
 945:Generated_Source\PSoC4/StripLights.c **** 		StripLights_Pixel( x0 - x, y0 - y, color);
 1026              		.loc 1 945 0
 1027 00a4 019A     		ldr	r2, [sp, #4]
 1028 00a6 0399     		ldr	r1, [sp, #12]
 1029 00a8 2800     		movs	r0, r5
 1030 00aa FFF7FEFF 		bl	StripLights_Pixel
 1031              	.LVL92:
 946:Generated_Source\PSoC4/StripLights.c **** 		StripLights_Pixel( x0 + y, y0 + x, color);
 1032              		.loc 1 946 0
 1033 00ae 5946     		mov	r1, fp
 1034 00b0 6718     		adds	r7, r4, r1
 1035 00b2 4146     		mov	r1, r8
 1036 00b4 8D19     		adds	r5, r1, r6
ARM GAS  C:\Users\JAMESS~1\AppData\Local\Temp\ccSFa4Kp.s 			page 37


 1037 00b6 019A     		ldr	r2, [sp, #4]
 1038 00b8 2900     		movs	r1, r5
 1039 00ba 3800     		movs	r0, r7
 1040 00bc FFF7FEFF 		bl	StripLights_Pixel
 1041              	.LVL93:
 947:Generated_Source\PSoC4/StripLights.c **** 		StripLights_Pixel( x0 - y, y0 + x, color);
 1042              		.loc 1 947 0
 1043 00c0 5946     		mov	r1, fp
 1044 00c2 0B1B     		subs	r3, r1, r4
 1045 00c4 019A     		ldr	r2, [sp, #4]
 1046 00c6 2900     		movs	r1, r5
 1047 00c8 0393     		str	r3, [sp, #12]
 1048 00ca 1800     		movs	r0, r3
 1049 00cc FFF7FEFF 		bl	StripLights_Pixel
 1050              	.LVL94:
 948:Generated_Source\PSoC4/StripLights.c **** 		StripLights_Pixel( x0 + y, y0 - x, color);
 1051              		.loc 1 948 0
 1052 00d0 4146     		mov	r1, r8
 1053 00d2 8D1B     		subs	r5, r1, r6
 1054 00d4 019A     		ldr	r2, [sp, #4]
 1055 00d6 2900     		movs	r1, r5
 1056 00d8 3800     		movs	r0, r7
 1057 00da FFF7FEFF 		bl	StripLights_Pixel
 1058              	.LVL95:
 949:Generated_Source\PSoC4/StripLights.c **** 		StripLights_Pixel( x0 - y, y0 - x, color);
 1059              		.loc 1 949 0
 1060 00de 019A     		ldr	r2, [sp, #4]
 1061 00e0 2900     		movs	r1, r5
 1062 00e2 0398     		ldr	r0, [sp, #12]
 1063 00e4 FFF7FEFF 		bl	StripLights_Pixel
 1064              	.LVL96:
 939:Generated_Source\PSoC4/StripLights.c **** 		f += ddF_x + 1;
 1065              		.loc 1 939 0
 1066 00e8 029B     		ldr	r3, [sp, #8]
 1067              	.LVL97:
 1068              	.L70:
 930:Generated_Source\PSoC4/StripLights.c **** 	{
 1069              		.loc 1 930 0
 1070 00ea A642     		cmp	r6, r4
 1071 00ec B4DB     		blt	.L72
 950:Generated_Source\PSoC4/StripLights.c **** 	}
 951:Generated_Source\PSoC4/StripLights.c **** }
 1072              		.loc 1 951 0
 1073 00ee 05B0     		add	sp, sp, #20
 1074              		@ sp needed
 1075              	.LVL98:
 1076              	.LVL99:
 1077              	.LVL100:
 1078              	.LVL101:
 1079              	.LVL102:
 1080              	.LVL103:
 1081 00f0 3CBC     		pop	{r2, r3, r4, r5}
 1082 00f2 9046     		mov	r8, r2
 1083 00f4 9946     		mov	r9, r3
 1084 00f6 A246     		mov	r10, r4
 1085 00f8 AB46     		mov	fp, r5
 1086 00fa F0BD     		pop	{r4, r5, r6, r7, pc}
ARM GAS  C:\Users\JAMESS~1\AppData\Local\Temp\ccSFa4Kp.s 			page 38


 1087              		.cfi_endproc
 1088              	.LFE48:
 1089              		.size	StripLights_DrawCircle, .-StripLights_DrawCircle
 1090              		.section	.text.StripLights_DrawLine,"ax",%progbits
 1091              		.align	2
 1092              		.global	StripLights_DrawLine
 1093              		.code	16
 1094              		.thumb_func
 1095              		.type	StripLights_DrawLine, %function
 1096              	StripLights_DrawLine:
 1097              	.LFB49:
 952:Generated_Source\PSoC4/StripLights.c **** 
 953:Generated_Source\PSoC4/StripLights.c **** 
 954:Generated_Source\PSoC4/StripLights.c **** /*******************************************************************************
 955:Generated_Source\PSoC4/StripLights.c **** * Function Name: StripLights_DrawLine
 956:Generated_Source\PSoC4/StripLights.c **** ********************************************************************************
 957:Generated_Source\PSoC4/StripLights.c **** *
 958:Generated_Source\PSoC4/StripLights.c **** * Summary:
 959:Generated_Source\PSoC4/StripLights.c **** *  Draw a line on the display.  
 960:Generated_Source\PSoC4/StripLights.c **** *
 961:Generated_Source\PSoC4/StripLights.c **** * Parameters:  
 962:Generated_Source\PSoC4/StripLights.c **** *  x0, y0:  The beginning endpoint
 963:Generated_Source\PSoC4/StripLights.c **** *  x1, y1:  The end endpoint.
 964:Generated_Source\PSoC4/StripLights.c **** *  color:   Color of the line.
 965:Generated_Source\PSoC4/StripLights.c **** *
 966:Generated_Source\PSoC4/StripLights.c **** * Return: 
 967:Generated_Source\PSoC4/StripLights.c **** *  None 
 968:Generated_Source\PSoC4/StripLights.c **** *  
 969:Generated_Source\PSoC4/StripLights.c **** *******************************************************************************/
 970:Generated_Source\PSoC4/StripLights.c **** void StripLights_DrawLine(int32 x0, int32 y0, int32 x1, int32 y1, uint32 color)
 971:Generated_Source\PSoC4/StripLights.c **** {
 1098              		.loc 1 971 0
 1099              		.cfi_startproc
 1100              		@ args = 4, pretend = 0, frame = 8
 1101              		@ frame_needed = 0, uses_anonymous_args = 0
 1102              	.LVL104:
 1103 0000 F0B5     		push	{r4, r5, r6, r7, lr}
 1104              		.cfi_def_cfa_offset 20
 1105              		.cfi_offset 4, -20
 1106              		.cfi_offset 5, -16
 1107              		.cfi_offset 6, -12
 1108              		.cfi_offset 7, -8
 1109              		.cfi_offset 14, -4
 1110 0002 5F46     		mov	r7, fp
 1111 0004 5646     		mov	r6, r10
 1112 0006 4D46     		mov	r5, r9
 1113 0008 4446     		mov	r4, r8
 1114 000a F0B4     		push	{r4, r5, r6, r7}
 1115              		.cfi_def_cfa_offset 36
 1116              		.cfi_offset 8, -36
 1117              		.cfi_offset 9, -32
 1118              		.cfi_offset 10, -28
 1119              		.cfi_offset 11, -24
 1120 000c 83B0     		sub	sp, sp, #12
 1121              		.cfi_def_cfa_offset 48
 1122 000e 0400     		movs	r4, r0
 1123 0010 0D00     		movs	r5, r1
ARM GAS  C:\Users\JAMESS~1\AppData\Local\Temp\ccSFa4Kp.s 			page 39


 1124 0012 0192     		str	r2, [sp, #4]
 1125 0014 9B46     		mov	fp, r3
 972:Generated_Source\PSoC4/StripLights.c **** 	int32 dy = y1 - y0; /* Difference between y0 and y1 */
 1126              		.loc 1 972 0
 1127 0016 5B1A     		subs	r3, r3, r1
 1128              	.LVL105:
 973:Generated_Source\PSoC4/StripLights.c **** 	int32 dx = x1 - x0; /* Difference between x0 and x1 */
 1129              		.loc 1 973 0
 1130 0018 171A     		subs	r7, r2, r0
 1131              	.LVL106:
 974:Generated_Source\PSoC4/StripLights.c **** 	int32 stepx, stepy;
 975:Generated_Source\PSoC4/StripLights.c **** 
 976:Generated_Source\PSoC4/StripLights.c **** 	if (dy < 0)
 1132              		.loc 1 976 0
 1133 001a 002B     		cmp	r3, #0
 1134 001c 04DA     		bge	.L84
 977:Generated_Source\PSoC4/StripLights.c **** 	{
 978:Generated_Source\PSoC4/StripLights.c **** 		dy = -dy;
 1135              		.loc 1 978 0
 1136 001e 5B42     		rsbs	r3, r3, #0
 1137              	.LVL107:
 979:Generated_Source\PSoC4/StripLights.c **** 		stepy = -1;
 1138              		.loc 1 979 0
 1139 0020 0122     		movs	r2, #1
 1140              	.LVL108:
 1141 0022 5242     		rsbs	r2, r2, #0
 1142 0024 9246     		mov	r10, r2
 1143 0026 01E0     		b	.L74
 1144              	.LVL109:
 1145              	.L84:
 980:Generated_Source\PSoC4/StripLights.c **** 	}
 981:Generated_Source\PSoC4/StripLights.c **** 	else
 982:Generated_Source\PSoC4/StripLights.c **** 	{
 983:Generated_Source\PSoC4/StripLights.c **** 		stepy = 1;
 1146              		.loc 1 983 0
 1147 0028 0122     		movs	r2, #1
 1148              	.LVL110:
 1149 002a 9246     		mov	r10, r2
 1150              	.L74:
 1151              	.LVL111:
 984:Generated_Source\PSoC4/StripLights.c **** 	}
 985:Generated_Source\PSoC4/StripLights.c **** 
 986:Generated_Source\PSoC4/StripLights.c **** 	if (dx < 0)
 1152              		.loc 1 986 0
 1153 002c 002F     		cmp	r7, #0
 1154 002e 04DA     		bge	.L85
 987:Generated_Source\PSoC4/StripLights.c **** 	{
 988:Generated_Source\PSoC4/StripLights.c **** 		dx = -dx;
 1155              		.loc 1 988 0
 1156 0030 7F42     		rsbs	r7, r7, #0
 1157              	.LVL112:
 989:Generated_Source\PSoC4/StripLights.c **** 		stepx = -1;
 1158              		.loc 1 989 0
 1159 0032 0122     		movs	r2, #1
 1160 0034 5242     		rsbs	r2, r2, #0
 1161 0036 9146     		mov	r9, r2
 1162 0038 01E0     		b	.L75
ARM GAS  C:\Users\JAMESS~1\AppData\Local\Temp\ccSFa4Kp.s 			page 40


 1163              	.LVL113:
 1164              	.L85:
 990:Generated_Source\PSoC4/StripLights.c **** 	}
 991:Generated_Source\PSoC4/StripLights.c **** 	else
 992:Generated_Source\PSoC4/StripLights.c **** 	{
 993:Generated_Source\PSoC4/StripLights.c **** 		stepx = 1;
 1165              		.loc 1 993 0
 1166 003a 0122     		movs	r2, #1
 1167 003c 9146     		mov	r9, r2
 1168              	.L75:
 1169              	.LVL114:
 994:Generated_Source\PSoC4/StripLights.c **** 	}
 995:Generated_Source\PSoC4/StripLights.c **** 
 996:Generated_Source\PSoC4/StripLights.c **** 	dy <<= 1; /* dy is now 2*dy  */
 1170              		.loc 1 996 0
 1171 003e 5B00     		lsls	r3, r3, #1
 1172              	.LVL115:
 1173 0040 9846     		mov	r8, r3
 1174              	.LVL116:
 997:Generated_Source\PSoC4/StripLights.c **** 	dx <<= 1; /* dx is now 2*dx  */
 1175              		.loc 1 997 0
 1176 0042 7F00     		lsls	r7, r7, #1
 1177              	.LVL117:
 998:Generated_Source\PSoC4/StripLights.c **** 	StripLights_Pixel(x0, y0, color);
 1178              		.loc 1 998 0
 1179 0044 0C9A     		ldr	r2, [sp, #48]
 1180 0046 2900     		movs	r1, r5
 1181              	.LVL118:
 1182 0048 2000     		movs	r0, r4
 1183              	.LVL119:
 1184 004a FFF7FEFF 		bl	StripLights_Pixel
 1185              	.LVL120:
 999:Generated_Source\PSoC4/StripLights.c **** 
1000:Generated_Source\PSoC4/StripLights.c **** 	if (dx > dy) 
 1186              		.loc 1 1000 0
 1187 004e B845     		cmp	r8, r7
 1188 0050 12DA     		bge	.L76
 1189              	.LBB2:
1001:Generated_Source\PSoC4/StripLights.c **** 	{
1002:Generated_Source\PSoC4/StripLights.c **** 		int fraction = dy - (dx >> 1);
 1190              		.loc 1 1002 0
 1191 0052 7B10     		asrs	r3, r7, #1
 1192 0054 4246     		mov	r2, r8
 1193 0056 D61A     		subs	r6, r2, r3
 1194              	.LVL121:
1003:Generated_Source\PSoC4/StripLights.c **** 		while (x0 != x1)
 1195              		.loc 1 1003 0
 1196 0058 0AE0     		b	.L77
 1197              	.L79:
1004:Generated_Source\PSoC4/StripLights.c **** 		{
1005:Generated_Source\PSoC4/StripLights.c **** 			if (fraction >= 0)
 1198              		.loc 1 1005 0
 1199 005a 002E     		cmp	r6, #0
 1200 005c 01DB     		blt	.L78
1006:Generated_Source\PSoC4/StripLights.c **** 			{
1007:Generated_Source\PSoC4/StripLights.c **** 				y0 += stepy;
 1201              		.loc 1 1007 0
ARM GAS  C:\Users\JAMESS~1\AppData\Local\Temp\ccSFa4Kp.s 			page 41


 1202 005e 5544     		add	r5, r5, r10
 1203              	.LVL122:
1008:Generated_Source\PSoC4/StripLights.c **** 				fraction -= dx;
 1204              		.loc 1 1008 0
 1205 0060 F61B     		subs	r6, r6, r7
 1206              	.LVL123:
 1207              	.L78:
1009:Generated_Source\PSoC4/StripLights.c **** 			}
1010:Generated_Source\PSoC4/StripLights.c **** 			x0 += stepx;
 1208              		.loc 1 1010 0
 1209 0062 4C44     		add	r4, r4, r9
 1210              	.LVL124:
1011:Generated_Source\PSoC4/StripLights.c **** 			fraction += dy;
 1211              		.loc 1 1011 0
 1212 0064 4644     		add	r6, r6, r8
 1213              	.LVL125:
1012:Generated_Source\PSoC4/StripLights.c **** 			StripLights_Pixel(x0, y0, color);
 1214              		.loc 1 1012 0
 1215 0066 0C9A     		ldr	r2, [sp, #48]
 1216 0068 2900     		movs	r1, r5
 1217 006a 2000     		movs	r0, r4
 1218 006c FFF7FEFF 		bl	StripLights_Pixel
 1219              	.LVL126:
 1220              	.L77:
1003:Generated_Source\PSoC4/StripLights.c **** 		{
 1221              		.loc 1 1003 0
 1222 0070 019B     		ldr	r3, [sp, #4]
 1223 0072 9C42     		cmp	r4, r3
 1224 0074 F1D1     		bne	.L79
 1225 0076 11E0     		b	.L73
 1226              	.LVL127:
 1227              	.L76:
 1228              	.LBE2:
 1229              	.LBB3:
1013:Generated_Source\PSoC4/StripLights.c **** 		}
1014:Generated_Source\PSoC4/StripLights.c **** 	}
1015:Generated_Source\PSoC4/StripLights.c **** 	else
1016:Generated_Source\PSoC4/StripLights.c **** 	{
1017:Generated_Source\PSoC4/StripLights.c **** 		int fraction = dx - (dy >> 1);
 1230              		.loc 1 1017 0
 1231 0078 4346     		mov	r3, r8
 1232 007a 5E10     		asrs	r6, r3, #1
 1233 007c BE1B     		subs	r6, r7, r6
 1234              	.LVL128:
1018:Generated_Source\PSoC4/StripLights.c **** 		while (y0 != y1)
 1235              		.loc 1 1018 0
 1236 007e 0BE0     		b	.L81
 1237              	.L83:
1019:Generated_Source\PSoC4/StripLights.c **** 		{
1020:Generated_Source\PSoC4/StripLights.c **** 			if (fraction >= 0)
 1238              		.loc 1 1020 0
 1239 0080 002E     		cmp	r6, #0
 1240 0082 02DB     		blt	.L82
1021:Generated_Source\PSoC4/StripLights.c **** 			{
1022:Generated_Source\PSoC4/StripLights.c **** 				x0 += stepx;
 1241              		.loc 1 1022 0
 1242 0084 4C44     		add	r4, r4, r9
ARM GAS  C:\Users\JAMESS~1\AppData\Local\Temp\ccSFa4Kp.s 			page 42


 1243              	.LVL129:
1023:Generated_Source\PSoC4/StripLights.c **** 				fraction -= dy;
 1244              		.loc 1 1023 0
 1245 0086 4346     		mov	r3, r8
 1246 0088 F61A     		subs	r6, r6, r3
 1247              	.LVL130:
 1248              	.L82:
1024:Generated_Source\PSoC4/StripLights.c **** 			}
1025:Generated_Source\PSoC4/StripLights.c **** 			y0 += stepy;
 1249              		.loc 1 1025 0
 1250 008a 5544     		add	r5, r5, r10
 1251              	.LVL131:
1026:Generated_Source\PSoC4/StripLights.c **** 			fraction += dx;
 1252              		.loc 1 1026 0
 1253 008c F619     		adds	r6, r6, r7
 1254              	.LVL132:
1027:Generated_Source\PSoC4/StripLights.c **** 			StripLights_Pixel( x0, y0, color);
 1255              		.loc 1 1027 0
 1256 008e 0C9A     		ldr	r2, [sp, #48]
 1257 0090 2900     		movs	r1, r5
 1258 0092 2000     		movs	r0, r4
 1259 0094 FFF7FEFF 		bl	StripLights_Pixel
 1260              	.LVL133:
 1261              	.L81:
1018:Generated_Source\PSoC4/StripLights.c **** 		{
 1262              		.loc 1 1018 0
 1263 0098 5D45     		cmp	r5, fp
 1264 009a F1D1     		bne	.L83
 1265              	.LVL134:
 1266              	.L73:
 1267              	.LBE3:
1028:Generated_Source\PSoC4/StripLights.c **** 		}
1029:Generated_Source\PSoC4/StripLights.c **** 	}
1030:Generated_Source\PSoC4/StripLights.c **** }
 1268              		.loc 1 1030 0
 1269 009c 03B0     		add	sp, sp, #12
 1270              		@ sp needed
 1271              	.LVL135:
 1272              	.LVL136:
 1273              	.LVL137:
 1274              	.LVL138:
 1275              	.LVL139:
 1276              	.LVL140:
 1277              	.LVL141:
 1278 009e 3CBC     		pop	{r2, r3, r4, r5}
 1279 00a0 9046     		mov	r8, r2
 1280 00a2 9946     		mov	r9, r3
 1281 00a4 A246     		mov	r10, r4
 1282 00a6 AB46     		mov	fp, r5
 1283 00a8 F0BD     		pop	{r4, r5, r6, r7, pc}
 1284              		.cfi_endproc
 1285              	.LFE49:
 1286              		.size	StripLights_DrawLine, .-StripLights_DrawLine
 1287 00aa C046     		.section	.text.StripLights_DrawRect,"ax",%progbits
 1288              		.align	2
 1289              		.global	StripLights_DrawRect
 1290              		.code	16
ARM GAS  C:\Users\JAMESS~1\AppData\Local\Temp\ccSFa4Kp.s 			page 43


 1291              		.thumb_func
 1292              		.type	StripLights_DrawRect, %function
 1293              	StripLights_DrawRect:
 1294              	.LFB50:
1031:Generated_Source\PSoC4/StripLights.c **** 
1032:Generated_Source\PSoC4/StripLights.c **** /*******************************************************************************
1033:Generated_Source\PSoC4/StripLights.c **** * Function Name: StripLights_DrawRect
1034:Generated_Source\PSoC4/StripLights.c **** ********************************************************************************
1035:Generated_Source\PSoC4/StripLights.c **** *
1036:Generated_Source\PSoC4/StripLights.c **** * Summary:
1037:Generated_Source\PSoC4/StripLights.c **** *  Draw a rectangle, filled or not.  
1038:Generated_Source\PSoC4/StripLights.c **** *
1039:Generated_Source\PSoC4/StripLights.c **** * Parameters:  
1040:Generated_Source\PSoC4/StripLights.c **** *  x0, y0:  The upper lefthand corner.
1041:Generated_Source\PSoC4/StripLights.c **** *  x1, y1:  The lower right corner.
1042:Generated_Source\PSoC4/StripLights.c **** *  fill:    Non-Zero if retangle is to be filled.
1043:Generated_Source\PSoC4/StripLights.c **** *  color:   Color for rectangle, border and fill.
1044:Generated_Source\PSoC4/StripLights.c **** *
1045:Generated_Source\PSoC4/StripLights.c **** * Return: 
1046:Generated_Source\PSoC4/StripLights.c **** *  None 
1047:Generated_Source\PSoC4/StripLights.c **** *  
1048:Generated_Source\PSoC4/StripLights.c **** *******************************************************************************/
1049:Generated_Source\PSoC4/StripLights.c **** void StripLights_DrawRect(int32 x0, int32 y0, int32 x1, int32 y1, int32 fill, uint32 color)
1050:Generated_Source\PSoC4/StripLights.c **** {	
 1295              		.loc 1 1050 0
 1296              		.cfi_startproc
 1297              		@ args = 8, pretend = 0, frame = 8
 1298              		@ frame_needed = 0, uses_anonymous_args = 0
 1299              	.LVL142:
 1300 0000 F0B5     		push	{r4, r5, r6, r7, lr}
 1301              		.cfi_def_cfa_offset 20
 1302              		.cfi_offset 4, -20
 1303              		.cfi_offset 5, -16
 1304              		.cfi_offset 6, -12
 1305              		.cfi_offset 7, -8
 1306              		.cfi_offset 14, -4
 1307 0002 85B0     		sub	sp, sp, #20
 1308              		.cfi_def_cfa_offset 40
 1309 0004 0400     		movs	r4, r0
 1310 0006 0391     		str	r1, [sp, #12]
 1311 0008 1600     		movs	r6, r2
 1312 000a 0293     		str	r3, [sp, #8]
 1313 000c 0B9F     		ldr	r7, [sp, #44]
1051:Generated_Source\PSoC4/StripLights.c ****      int xDiff;
1052:Generated_Source\PSoC4/StripLights.c **** 	/* Check if the rectangle is to be filled    */
1053:Generated_Source\PSoC4/StripLights.c **** 	if (fill != 0)
 1314              		.loc 1 1053 0
 1315 000e 0A9B     		ldr	r3, [sp, #40]
 1316              	.LVL143:
 1317 0010 002B     		cmp	r3, #0
 1318 0012 15D0     		beq	.L87
1054:Generated_Source\PSoC4/StripLights.c **** 	{	
1055:Generated_Source\PSoC4/StripLights.c ****         /* Find the difference between the x vars */
1056:Generated_Source\PSoC4/StripLights.c **** 		if(x0 > x1)
 1319              		.loc 1 1056 0
 1320 0014 9042     		cmp	r0, r2
 1321 0016 01DD     		ble	.L88
ARM GAS  C:\Users\JAMESS~1\AppData\Local\Temp\ccSFa4Kp.s 			page 44


1057:Generated_Source\PSoC4/StripLights.c **** 		{
1058:Generated_Source\PSoC4/StripLights.c **** 			xDiff = x0 - x1; 
 1322              		.loc 1 1058 0
 1323 0018 851A     		subs	r5, r0, r2
 1324              	.LVL144:
 1325 001a 0EE0     		b	.L89
 1326              	.LVL145:
 1327              	.L88:
1059:Generated_Source\PSoC4/StripLights.c **** 		}
1060:Generated_Source\PSoC4/StripLights.c **** 		else
1061:Generated_Source\PSoC4/StripLights.c **** 		{
1062:Generated_Source\PSoC4/StripLights.c **** 			xDiff = x1 - x0;
 1328              		.loc 1 1062 0
 1329 001c 151A     		subs	r5, r2, r0
 1330              	.LVL146:
 1331 001e 0CE0     		b	.L89
 1332              	.LVL147:
 1333              	.L93:
1063:Generated_Source\PSoC4/StripLights.c **** 		}
1064:Generated_Source\PSoC4/StripLights.c **** 	
1065:Generated_Source\PSoC4/StripLights.c **** 	    /* Fill it with lines  */
1066:Generated_Source\PSoC4/StripLights.c **** 		while(xDiff >= 0)
1067:Generated_Source\PSoC4/StripLights.c **** 		{
1068:Generated_Source\PSoC4/StripLights.c **** 			StripLights_DrawLine(x0, y0, x0, y1, color);
 1334              		.loc 1 1068 0
 1335 0020 0097     		str	r7, [sp]
 1336 0022 029B     		ldr	r3, [sp, #8]
 1337 0024 2200     		movs	r2, r4
 1338 0026 0399     		ldr	r1, [sp, #12]
 1339 0028 2000     		movs	r0, r4
 1340 002a FFF7FEFF 		bl	StripLights_DrawLine
 1341              	.LVL148:
1069:Generated_Source\PSoC4/StripLights.c **** 		
1070:Generated_Source\PSoC4/StripLights.c **** 			if(x0 > x1)
 1342              		.loc 1 1070 0
 1343 002e B442     		cmp	r4, r6
 1344 0030 01DD     		ble	.L91
1071:Generated_Source\PSoC4/StripLights.c **** 				x0--;
 1345              		.loc 1 1071 0
 1346 0032 013C     		subs	r4, r4, #1
 1347              	.LVL149:
 1348 0034 00E0     		b	.L92
 1349              	.L91:
1072:Generated_Source\PSoC4/StripLights.c **** 			else
1073:Generated_Source\PSoC4/StripLights.c **** 				x0++;
 1350              		.loc 1 1073 0
 1351 0036 0134     		adds	r4, r4, #1
 1352              	.LVL150:
 1353              	.L92:
1074:Generated_Source\PSoC4/StripLights.c **** 		
1075:Generated_Source\PSoC4/StripLights.c **** 			xDiff--;
 1354              		.loc 1 1075 0
 1355 0038 013D     		subs	r5, r5, #1
 1356              	.LVL151:
 1357              	.L89:
1066:Generated_Source\PSoC4/StripLights.c **** 		{
 1358              		.loc 1 1066 0
ARM GAS  C:\Users\JAMESS~1\AppData\Local\Temp\ccSFa4Kp.s 			page 45


 1359 003a 002D     		cmp	r5, #0
 1360 003c F0DA     		bge	.L93
 1361 003e 1AE0     		b	.L86
 1362              	.LVL152:
 1363              	.L87:
1076:Generated_Source\PSoC4/StripLights.c **** 		}
1077:Generated_Source\PSoC4/StripLights.c **** 	}
1078:Generated_Source\PSoC4/StripLights.c **** 	else 
1079:Generated_Source\PSoC4/StripLights.c **** 	{
1080:Generated_Source\PSoC4/StripLights.c **** 		/* Draw the four sides of the rectangle */
1081:Generated_Source\PSoC4/StripLights.c **** 		StripLights_DrawLine(x0, y0, x1, y0, color);
 1364              		.loc 1 1081 0
 1365 0040 0097     		str	r7, [sp]
 1366 0042 039D     		ldr	r5, [sp, #12]
 1367 0044 2B00     		movs	r3, r5
 1368 0046 2900     		movs	r1, r5
 1369              	.LVL153:
 1370 0048 FFF7FEFF 		bl	StripLights_DrawLine
 1371              	.LVL154:
1082:Generated_Source\PSoC4/StripLights.c **** 		StripLights_DrawLine(x0, y1, x1, y1, color);
 1372              		.loc 1 1082 0
 1373 004c 0097     		str	r7, [sp]
 1374 004e 0299     		ldr	r1, [sp, #8]
 1375 0050 0B00     		movs	r3, r1
 1376 0052 3200     		movs	r2, r6
 1377 0054 2000     		movs	r0, r4
 1378 0056 FFF7FEFF 		bl	StripLights_DrawLine
 1379              	.LVL155:
1083:Generated_Source\PSoC4/StripLights.c **** 		StripLights_DrawLine(x0, y0, x0, y1, color);
 1380              		.loc 1 1083 0
 1381 005a 0097     		str	r7, [sp]
 1382 005c 029B     		ldr	r3, [sp, #8]
 1383 005e 2200     		movs	r2, r4
 1384 0060 2900     		movs	r1, r5
 1385 0062 2000     		movs	r0, r4
 1386 0064 FFF7FEFF 		bl	StripLights_DrawLine
 1387              	.LVL156:
1084:Generated_Source\PSoC4/StripLights.c **** 		StripLights_DrawLine(x1, y0, x1, y1, color);
 1388              		.loc 1 1084 0
 1389 0068 0097     		str	r7, [sp]
 1390 006a 029B     		ldr	r3, [sp, #8]
 1391 006c 3200     		movs	r2, r6
 1392 006e 2900     		movs	r1, r5
 1393 0070 3000     		movs	r0, r6
 1394 0072 FFF7FEFF 		bl	StripLights_DrawLine
 1395              	.LVL157:
 1396              	.L86:
1085:Generated_Source\PSoC4/StripLights.c **** 	}
1086:Generated_Source\PSoC4/StripLights.c **** }
 1397              		.loc 1 1086 0
 1398 0076 05B0     		add	sp, sp, #20
 1399              		@ sp needed
 1400              	.LVL158:
 1401              	.LVL159:
 1402 0078 F0BD     		pop	{r4, r5, r6, r7, pc}
 1403              		.cfi_endproc
 1404              	.LFE50:
ARM GAS  C:\Users\JAMESS~1\AppData\Local\Temp\ccSFa4Kp.s 			page 46


 1405              		.size	StripLights_DrawRect, .-StripLights_DrawRect
 1406 007a C046     		.section	.text.StripLights_Dim,"ax",%progbits
 1407              		.align	2
 1408              		.global	StripLights_Dim
 1409              		.code	16
 1410              		.thumb_func
 1411              		.type	StripLights_Dim, %function
 1412              	StripLights_Dim:
 1413              	.LFB51:
1087:Generated_Source\PSoC4/StripLights.c **** 
1088:Generated_Source\PSoC4/StripLights.c **** /*******************************************************************************
1089:Generated_Source\PSoC4/StripLights.c **** * Function Name: StripLights_Dim
1090:Generated_Source\PSoC4/StripLights.c **** ********************************************************************************
1091:Generated_Source\PSoC4/StripLights.c **** *
1092:Generated_Source\PSoC4/StripLights.c **** * Summary:
1093:Generated_Source\PSoC4/StripLights.c **** *  Dim all output by a specific level (0,1,2,3,4)  
1094:Generated_Source\PSoC4/StripLights.c **** *
1095:Generated_Source\PSoC4/StripLights.c **** * Parameters:  
1096:Generated_Source\PSoC4/StripLights.c **** *  dimLevel:  Dim level 1 to 4, 0 => No dimming.
1097:Generated_Source\PSoC4/StripLights.c **** *
1098:Generated_Source\PSoC4/StripLights.c **** * Return: 
1099:Generated_Source\PSoC4/StripLights.c **** *  None 
1100:Generated_Source\PSoC4/StripLights.c **** *  
1101:Generated_Source\PSoC4/StripLights.c **** *******************************************************************************/
1102:Generated_Source\PSoC4/StripLights.c **** void StripLights_Dim(uint32 dimLevel) 
1103:Generated_Source\PSoC4/StripLights.c **** {
 1414              		.loc 1 1103 0
 1415              		.cfi_startproc
 1416              		@ args = 0, pretend = 0, frame = 0
 1417              		@ frame_needed = 0, uses_anonymous_args = 0
 1418              		@ link register save eliminated.
 1419              	.LVL160:
1104:Generated_Source\PSoC4/StripLights.c **** extern uint32  StripLights_DimMask;
1105:Generated_Source\PSoC4/StripLights.c **** extern uint32  StripLights_DimShift;
1106:Generated_Source\PSoC4/StripLights.c **** 
1107:Generated_Source\PSoC4/StripLights.c ****     switch(dimLevel)
 1420              		.loc 1 1107 0
 1421 0000 0228     		cmp	r0, #2
 1422 0002 0FD0     		beq	.L97
 1423 0004 02D8     		bhi	.L98
 1424 0006 0128     		cmp	r0, #1
 1425 0008 05D0     		beq	.L99
 1426 000a 20E0     		b	.L96
 1427              	.L98:
 1428 000c 0328     		cmp	r0, #3
 1429 000e 10D0     		beq	.L100
 1430 0010 0428     		cmp	r0, #4
 1431 0012 15D0     		beq	.L101
 1432 0014 1BE0     		b	.L96
 1433              	.L99:
1108:Generated_Source\PSoC4/StripLights.c ****     {
1109:Generated_Source\PSoC4/StripLights.c ****        case 1:  // 1/2 bright
1110:Generated_Source\PSoC4/StripLights.c ****            StripLights_DimMask = 0x7F7F7F7F;
 1434              		.loc 1 1110 0
 1435 0016 124A     		ldr	r2, .L103
 1436 0018 124B     		ldr	r3, .L103+4
 1437 001a 1A60     		str	r2, [r3]
ARM GAS  C:\Users\JAMESS~1\AppData\Local\Temp\ccSFa4Kp.s 			page 47


1111:Generated_Source\PSoC4/StripLights.c ****            StripLights_DimShift = 1;
 1438              		.loc 1 1111 0
 1439 001c 0122     		movs	r2, #1
 1440 001e 124B     		ldr	r3, .L103+8
 1441 0020 1A60     		str	r2, [r3]
1112:Generated_Source\PSoC4/StripLights.c ****            break;
 1442              		.loc 1 1112 0
 1443 0022 1BE0     		b	.L95
 1444              	.L97:
1113:Generated_Source\PSoC4/StripLights.c ****            
1114:Generated_Source\PSoC4/StripLights.c ****        case 2:
1115:Generated_Source\PSoC4/StripLights.c ****            StripLights_DimMask = 0x3F3F3F3F;
 1445              		.loc 1 1115 0
 1446 0024 114A     		ldr	r2, .L103+12
 1447 0026 0F4B     		ldr	r3, .L103+4
 1448 0028 1A60     		str	r2, [r3]
1116:Generated_Source\PSoC4/StripLights.c ****            StripLights_DimShift = 2;
 1449              		.loc 1 1116 0
 1450 002a 0222     		movs	r2, #2
 1451 002c 0E4B     		ldr	r3, .L103+8
 1452 002e 1A60     		str	r2, [r3]
1117:Generated_Source\PSoC4/StripLights.c ****            break;
 1453              		.loc 1 1117 0
 1454 0030 14E0     		b	.L95
 1455              	.L100:
1118:Generated_Source\PSoC4/StripLights.c ****            
1119:Generated_Source\PSoC4/StripLights.c ****        case 3:
1120:Generated_Source\PSoC4/StripLights.c ****            StripLights_DimMask = 0x1F1F1F1F;
 1456              		.loc 1 1120 0
 1457 0032 0F4A     		ldr	r2, .L103+16
 1458 0034 0B4B     		ldr	r3, .L103+4
 1459 0036 1A60     		str	r2, [r3]
1121:Generated_Source\PSoC4/StripLights.c ****            StripLights_DimShift = 3;
 1460              		.loc 1 1121 0
 1461 0038 0322     		movs	r2, #3
 1462 003a 0B4B     		ldr	r3, .L103+8
 1463 003c 1A60     		str	r2, [r3]
1122:Generated_Source\PSoC4/StripLights.c ****            break;
 1464              		.loc 1 1122 0
 1465 003e 0DE0     		b	.L95
 1466              	.L101:
1123:Generated_Source\PSoC4/StripLights.c ****            
1124:Generated_Source\PSoC4/StripLights.c ****        case 4:
1125:Generated_Source\PSoC4/StripLights.c ****            StripLights_DimMask = 0x0F0F0F0F;
 1467              		.loc 1 1125 0
 1468 0040 0C4A     		ldr	r2, .L103+20
 1469 0042 084B     		ldr	r3, .L103+4
 1470 0044 1A60     		str	r2, [r3]
1126:Generated_Source\PSoC4/StripLights.c ****            StripLights_DimShift = 4;
 1471              		.loc 1 1126 0
 1472 0046 0422     		movs	r2, #4
 1473 0048 074B     		ldr	r3, .L103+8
 1474 004a 1A60     		str	r2, [r3]
1127:Generated_Source\PSoC4/StripLights.c ****            break;
 1475              		.loc 1 1127 0
 1476 004c 06E0     		b	.L95
 1477              	.L96:
ARM GAS  C:\Users\JAMESS~1\AppData\Local\Temp\ccSFa4Kp.s 			page 48


1128:Generated_Source\PSoC4/StripLights.c ****            
1129:Generated_Source\PSoC4/StripLights.c ****        default:
1130:Generated_Source\PSoC4/StripLights.c ****            StripLights_DimMask = 0xFFFFFFFF;
 1478              		.loc 1 1130 0
 1479 004e 0122     		movs	r2, #1
 1480 0050 5242     		rsbs	r2, r2, #0
 1481 0052 044B     		ldr	r3, .L103+4
 1482 0054 1A60     		str	r2, [r3]
1131:Generated_Source\PSoC4/StripLights.c ****            StripLights_DimShift = 0;
 1483              		.loc 1 1131 0
 1484 0056 0022     		movs	r2, #0
 1485 0058 034B     		ldr	r3, .L103+8
 1486 005a 1A60     		str	r2, [r3]
 1487              	.L95:
1132:Generated_Source\PSoC4/StripLights.c ****            break; 
1133:Generated_Source\PSoC4/StripLights.c ****     }
1134:Generated_Source\PSoC4/StripLights.c **** }
 1488              		.loc 1 1134 0
 1489              		@ sp needed
 1490 005c 7047     		bx	lr
 1491              	.L104:
 1492 005e C046     		.align	2
 1493              	.L103:
 1494 0060 7F7F7F7F 		.word	2139062143
 1495 0064 00000000 		.word	StripLights_DimMask
 1496 0068 00000000 		.word	StripLights_DimShift
 1497 006c 3F3F3F3F 		.word	1061109567
 1498 0070 1F1F1F1F 		.word	522133279
 1499 0074 0F0F0F0F 		.word	252645135
 1500              		.cfi_endproc
 1501              	.LFE51:
 1502              		.size	StripLights_Dim, .-StripLights_Dim
 1503              		.section	.text.StripLights_Start,"ax",%progbits
 1504              		.align	2
 1505              		.global	StripLights_Start
 1506              		.code	16
 1507              		.thumb_func
 1508              		.type	StripLights_Start, %function
 1509              	StripLights_Start:
 1510              	.LFB32:
 253:Generated_Source\PSoC4/StripLights.c ****     extern uint8 StripLights_initvar;
 1511              		.loc 1 253 0
 1512              		.cfi_startproc
 1513              		@ args = 0, pretend = 0, frame = 0
 1514              		@ frame_needed = 0, uses_anonymous_args = 0
 1515 0000 10B5     		push	{r4, lr}
 1516              		.cfi_def_cfa_offset 8
 1517              		.cfi_offset 4, -8
 1518              		.cfi_offset 14, -4
 264:Generated_Source\PSoC4/StripLights.c **** 
 1519              		.loc 1 264 0
 1520 0002 0322     		movs	r2, #3
 1521 0004 184B     		ldr	r3, .L107
 1522 0006 1A70     		strb	r2, [r3]
 279:Generated_Source\PSoC4/StripLights.c ****         StripLights_Compare0 = (uint8)StripLights_COMPARE_ZERO;
 1523              		.loc 1 279 0
 1524 0008 0B32     		adds	r2, r2, #11
ARM GAS  C:\Users\JAMESS~1\AppData\Local\Temp\ccSFa4Kp.s 			page 49


 1525 000a 184B     		ldr	r3, .L107+4
 1526 000c 1A70     		strb	r2, [r3]
 280:Generated_Source\PSoC4/StripLights.c ****         StripLights_Compare1 = (uint8)StripLights_COMPARE_ONE;        
 1527              		.loc 1 280 0
 1528 000e 023A     		subs	r2, r2, #2
 1529 0010 174B     		ldr	r3, .L107+8
 1530 0012 1A70     		strb	r2, [r3]
 281:Generated_Source\PSoC4/StripLights.c ****     #endif /* CY_PSOC5A */
 1531              		.loc 1 281 0
 1532 0014 053A     		subs	r2, r2, #5
 1533 0016 174B     		ldr	r3, .L107+12
 1534 0018 1A70     		strb	r2, [r3]
 285:Generated_Source\PSoC4/StripLights.c ****     StripLights_MemClear(StripLights_OFF);
 1535              		.loc 1 285 0
 1536 001a 174C     		ldr	r4, .L107+16
 1537 001c 0123     		movs	r3, #1
 1538 001e 2370     		strb	r3, [r4]
 286:Generated_Source\PSoC4/StripLights.c ****     StripLights_CONTROL = StripLights_DISABLE;
 1539              		.loc 1 286 0
 1540 0020 1820     		movs	r0, #24
 1541 0022 FFF7FEFF 		bl	StripLights_getColor
 1542              	.LVL161:
 1543 0026 FFF7FEFF 		bl	StripLights_MemClear
 1544              	.LVL162:
 287:Generated_Source\PSoC4/StripLights.c ****     
 1545              		.loc 1 287 0
 1546 002a 0023     		movs	r3, #0
 1547 002c 2370     		strb	r3, [r4]
 289:Generated_Source\PSoC4/StripLights.c ****     
 1548              		.loc 1 289 0
 1549 002e 0020     		movs	r0, #0
 1550 0030 FFF7FEFF 		bl	StripLights_SetFont
 1551              	.LVL163:
 292:Generated_Source\PSoC4/StripLights.c **** 
 1552              		.loc 1 292 0
 1553 0034 0020     		movs	r0, #0
 1554 0036 FFF7FEFF 		bl	StripLights_Dim
 1555              	.LVL164:
 294:Generated_Source\PSoC4/StripLights.c ****     {
 1556              		.loc 1 294 0
 1557 003a 104B     		ldr	r3, .L107+20
 1558 003c 1B7F     		ldrb	r3, [r3, #28]
 1559 003e 002B     		cmp	r3, #0
 1560 0040 0ED1     		bne	.L106
 297:Generated_Source\PSoC4/StripLights.c ****  
 1561              		.loc 1 297 0
 1562 0042 0122     		movs	r2, #1
 1563 0044 0D4B     		ldr	r3, .L107+20
 1564 0046 1A77     		strb	r2, [r3, #28]
 303:Generated_Source\PSoC4/StripLights.c **** 		   StripLights_fisr_StartEx(StripLights_FISR);
 1565              		.loc 1 303 0
 1566 0048 0D48     		ldr	r0, .L107+24
 1567 004a FFF7FEFF 		bl	StripLights_cisr_StartEx
 1568              	.LVL165:
 304:Generated_Source\PSoC4/StripLights.c ****         
 1569              		.loc 1 304 0
 1570 004e 0D48     		ldr	r0, .L107+28
ARM GAS  C:\Users\JAMESS~1\AppData\Local\Temp\ccSFa4Kp.s 			page 50


 1571 0050 FFF7FEFF 		bl	StripLights_fisr_StartEx
 1572              	.LVL166:
 307:Generated_Source\PSoC4/StripLights.c ****            StripLights_fisr_SetPriority(0u);
 1573              		.loc 1 307 0
 1574 0054 0120     		movs	r0, #1
 1575 0056 FFF7FEFF 		bl	StripLights_cisr_SetPriority
 1576              	.LVL167:
 308:Generated_Source\PSoC4/StripLights.c ****        }
 1577              		.loc 1 308 0
 1578 005a 0020     		movs	r0, #0
 1579 005c FFF7FEFF 		bl	StripLights_fisr_SetPriority
 1580              	.LVL168:
 1581              	.L106:
 316:Generated_Source\PSoC4/StripLights.c **** }
 1582              		.loc 1 316 0
 1583 0060 0122     		movs	r2, #1
 1584 0062 094B     		ldr	r3, .L107+32
 1585 0064 1A60     		str	r2, [r3]
 317:Generated_Source\PSoC4/StripLights.c **** 
 1586              		.loc 1 317 0
 1587              		@ sp needed
 1588 0066 10BD     		pop	{r4, pc}
 1589              	.L108:
 1590              		.align	2
 1591              	.L107:
 1592 0068 91000F40 		.word	1074725009
 1593 006c 41000F40 		.word	1074724929
 1594 0070 21000F40 		.word	1074724897
 1595 0074 31000F40 		.word	1074724913
 1596 0078 72000F40 		.word	1074724978
 1597 007c 00000000 		.word	.LANCHOR0
 1598 0080 00000000 		.word	StripLights_CISR
 1599 0084 00000000 		.word	StripLights_FISR
 1600 0088 00000000 		.word	StripLights_refreshComplete
 1601              		.cfi_endproc
 1602              	.LFE32:
 1603              		.size	StripLights_Start, .-StripLights_Start
 1604              		.section	.text.StripLights_Bplot8,"ax",%progbits
 1605              		.align	2
 1606              		.global	StripLights_Bplot8
 1607              		.code	16
 1608              		.thumb_func
 1609              		.type	StripLights_Bplot8, %function
 1610              	StripLights_Bplot8:
 1611              	.LFB52:
1135:Generated_Source\PSoC4/StripLights.c **** 
1136:Generated_Source\PSoC4/StripLights.c **** /*******************************************************************************
1137:Generated_Source\PSoC4/StripLights.c **** * Function Name: StripLights_Bplot8
1138:Generated_Source\PSoC4/StripLights.c **** ********************************************************************************
1139:Generated_Source\PSoC4/StripLights.c **** *
1140:Generated_Source\PSoC4/StripLights.c **** * Summary:
1141:Generated_Source\PSoC4/StripLights.c **** *  Draw a bitmap image on the display using 8-bit color. 
1142:Generated_Source\PSoC4/StripLights.c **** *
1143:Generated_Source\PSoC4/StripLights.c **** * Parameters:  
1144:Generated_Source\PSoC4/StripLights.c **** *    x, y:  The upper left corner of the image location
1145:Generated_Source\PSoC4/StripLights.c **** *  bitMap:  A pointer to an image array.  The first two values is the X and Y
1146:Generated_Source\PSoC4/StripLights.c **** *           size of the bitmap.
ARM GAS  C:\Users\JAMESS~1\AppData\Local\Temp\ccSFa4Kp.s 			page 51


1147:Generated_Source\PSoC4/StripLights.c **** *  update:  If not 0 update the display after drawing image.
1148:Generated_Source\PSoC4/StripLights.c **** *
1149:Generated_Source\PSoC4/StripLights.c **** * Return: 
1150:Generated_Source\PSoC4/StripLights.c **** *  None 
1151:Generated_Source\PSoC4/StripLights.c **** *  
1152:Generated_Source\PSoC4/StripLights.c **** *******************************************************************************/
1153:Generated_Source\PSoC4/StripLights.c **** void StripLights_Bplot8( int32 x, int32 y, uint8 * bitMap, int32 update)
1154:Generated_Source\PSoC4/StripLights.c **** {
 1612              		.loc 1 1154 0
 1613              		.cfi_startproc
 1614              		@ args = 0, pretend = 0, frame = 8
 1615              		@ frame_needed = 0, uses_anonymous_args = 0
 1616              	.LVL169:
 1617 0000 F0B5     		push	{r4, r5, r6, r7, lr}
 1618              		.cfi_def_cfa_offset 20
 1619              		.cfi_offset 4, -20
 1620              		.cfi_offset 5, -16
 1621              		.cfi_offset 6, -12
 1622              		.cfi_offset 7, -8
 1623              		.cfi_offset 14, -4
 1624 0002 5F46     		mov	r7, fp
 1625 0004 4646     		mov	r6, r8
 1626 0006 C0B4     		push	{r6, r7}
 1627              		.cfi_def_cfa_offset 28
 1628              		.cfi_offset 8, -28
 1629              		.cfi_offset 11, -24
 1630 0008 83B0     		sub	sp, sp, #12
 1631              		.cfi_def_cfa_offset 40
 1632 000a 0190     		str	r0, [sp, #4]
 1633 000c 0091     		str	r1, [sp]
 1634 000e 1700     		movs	r7, r2
 1635 0010 9B46     		mov	fp, r3
 1636              	.LVL170:
1155:Generated_Source\PSoC4/StripLights.c ****     int32 dx, dy;
1156:Generated_Source\PSoC4/StripLights.c ****     int32 aindex = 0;
1157:Generated_Source\PSoC4/StripLights.c ****     int32 maxX, maxY;
1158:Generated_Source\PSoC4/StripLights.c **** 
1159:Generated_Source\PSoC4/StripLights.c ****     maxX = x + (int32)bitMap[aindex++];
 1637              		.loc 1 1159 0
 1638 0012 1378     		ldrb	r3, [r2]
 1639              	.LVL171:
 1640 0014 1E18     		adds	r6, r3, r0
 1641              	.LVL172:
1160:Generated_Source\PSoC4/StripLights.c ****     maxY = y  + (int32)bitMap[aindex++];
 1642              		.loc 1 1160 0
 1643 0016 7B78     		ldrb	r3, [r7, #1]
 1644 0018 8846     		mov	r8, r1
 1645 001a 9844     		add	r8, r8, r3
 1646              	.LVL173:
 1647 001c 0223     		movs	r3, #2
1161:Generated_Source\PSoC4/StripLights.c **** 
1162:Generated_Source\PSoC4/StripLights.c **** 	for(dy = y; dy < maxY; dy++)
 1648              		.loc 1 1162 0
 1649 001e 0EE0     		b	.L110
 1650              	.LVL174:
 1651              	.L111:
1163:Generated_Source\PSoC4/StripLights.c ****     {
ARM GAS  C:\Users\JAMESS~1\AppData\Local\Temp\ccSFa4Kp.s 			page 52


1164:Generated_Source\PSoC4/StripLights.c **** 		for(dx = x; dx < maxX; dx++)
1165:Generated_Source\PSoC4/StripLights.c ****         {
1166:Generated_Source\PSoC4/StripLights.c ****             StripLights_Pixel(dx, dy, bitMap[aindex++]);
 1652              		.loc 1 1166 0 discriminator 3
 1653 0020 5D1C     		adds	r5, r3, #1
 1654              	.LVL175:
 1655 0022 FA5C     		ldrb	r2, [r7, r3]
 1656 0024 0099     		ldr	r1, [sp]
 1657 0026 2000     		movs	r0, r4
 1658 0028 FFF7FEFF 		bl	StripLights_Pixel
 1659              	.LVL176:
1164:Generated_Source\PSoC4/StripLights.c ****         {
 1660              		.loc 1 1164 0 discriminator 3
 1661 002c 0134     		adds	r4, r4, #1
 1662              	.LVL177:
 1663              		.loc 1 1166 0 discriminator 3
 1664 002e 2B00     		movs	r3, r5
 1665 0030 00E0     		b	.L112
 1666              	.LVL178:
 1667              	.L114:
 1668 0032 019C     		ldr	r4, [sp, #4]
 1669              	.LVL179:
 1670              	.L112:
1164:Generated_Source\PSoC4/StripLights.c ****         {
 1671              		.loc 1 1164 0 discriminator 1
 1672 0034 B442     		cmp	r4, r6
 1673 0036 F3DB     		blt	.L111
1162:Generated_Source\PSoC4/StripLights.c ****     {
 1674              		.loc 1 1162 0 discriminator 2
 1675 0038 009A     		ldr	r2, [sp]
 1676 003a 0132     		adds	r2, r2, #1
 1677 003c 0092     		str	r2, [sp]
 1678              	.LVL180:
 1679              	.L110:
1162:Generated_Source\PSoC4/StripLights.c ****     {
 1680              		.loc 1 1162 0 is_stmt 0 discriminator 1
 1681 003e 009A     		ldr	r2, [sp]
 1682 0040 4245     		cmp	r2, r8
 1683 0042 F6DB     		blt	.L114
1167:Generated_Source\PSoC4/StripLights.c ****         }
1168:Generated_Source\PSoC4/StripLights.c ****     }
1169:Generated_Source\PSoC4/StripLights.c **** 	if(update) StripLights_Trigger(1);
 1684              		.loc 1 1169 0 is_stmt 1
 1685 0044 5B46     		mov	r3, fp
 1686              	.LVL181:
 1687 0046 002B     		cmp	r3, #0
 1688 0048 02D0     		beq	.L109
 1689              	.LVL182:
 1690              		.loc 1 1169 0 is_stmt 0 discriminator 1
 1691 004a 0120     		movs	r0, #1
 1692 004c FFF7FEFF 		bl	StripLights_Trigger
 1693              	.LVL183:
 1694              	.L109:
1170:Generated_Source\PSoC4/StripLights.c **** }
 1695              		.loc 1 1170 0 is_stmt 1
 1696 0050 03B0     		add	sp, sp, #12
 1697              	.LVL184:
ARM GAS  C:\Users\JAMESS~1\AppData\Local\Temp\ccSFa4Kp.s 			page 53


 1698              		@ sp needed
 1699              	.LVL185:
 1700              	.LVL186:
 1701              	.LVL187:
 1702              	.LVL188:
 1703 0052 0CBC     		pop	{r2, r3}
 1704 0054 9046     		mov	r8, r2
 1705 0056 9B46     		mov	fp, r3
 1706 0058 F0BD     		pop	{r4, r5, r6, r7, pc}
 1707              		.cfi_endproc
 1708              	.LFE52:
 1709              		.size	StripLights_Bplot8, .-StripLights_Bplot8
 1710 005a C046     		.section	.text.StripLights_Bplot32,"ax",%progbits
 1711              		.align	2
 1712              		.global	StripLights_Bplot32
 1713              		.code	16
 1714              		.thumb_func
 1715              		.type	StripLights_Bplot32, %function
 1716              	StripLights_Bplot32:
 1717              	.LFB53:
1171:Generated_Source\PSoC4/StripLights.c **** 
1172:Generated_Source\PSoC4/StripLights.c **** /*******************************************************************************
1173:Generated_Source\PSoC4/StripLights.c **** * Function Name: StripLights_Bplot32
1174:Generated_Source\PSoC4/StripLights.c **** ********************************************************************************
1175:Generated_Source\PSoC4/StripLights.c **** *
1176:Generated_Source\PSoC4/StripLights.c **** * Summary:
1177:Generated_Source\PSoC4/StripLights.c **** *  Draw a bitmap image on the display using 32-bit color. 
1178:Generated_Source\PSoC4/StripLights.c **** *
1179:Generated_Source\PSoC4/StripLights.c **** * Parameters:  
1180:Generated_Source\PSoC4/StripLights.c **** *    x, y:  The upper left corner of the image location
1181:Generated_Source\PSoC4/StripLights.c **** *  bitMap:  A pointer to an image array.  The first two values is the X and Y
1182:Generated_Source\PSoC4/StripLights.c **** *           size of the bitmap.
1183:Generated_Source\PSoC4/StripLights.c **** *  update:  If not 0 update the display after drawing image.
1184:Generated_Source\PSoC4/StripLights.c **** *
1185:Generated_Source\PSoC4/StripLights.c **** * Return: 
1186:Generated_Source\PSoC4/StripLights.c **** *  None 
1187:Generated_Source\PSoC4/StripLights.c **** *  
1188:Generated_Source\PSoC4/StripLights.c **** *******************************************************************************/
1189:Generated_Source\PSoC4/StripLights.c **** void StripLights_Bplot32( int32 x, int32 y, uint32 * bitMap, int32 update)
1190:Generated_Source\PSoC4/StripLights.c **** {
 1718              		.loc 1 1190 0
 1719              		.cfi_startproc
 1720              		@ args = 0, pretend = 0, frame = 8
 1721              		@ frame_needed = 0, uses_anonymous_args = 0
 1722              	.LVL189:
 1723 0000 F0B5     		push	{r4, r5, r6, r7, lr}
 1724              		.cfi_def_cfa_offset 20
 1725              		.cfi_offset 4, -20
 1726              		.cfi_offset 5, -16
 1727              		.cfi_offset 6, -12
 1728              		.cfi_offset 7, -8
 1729              		.cfi_offset 14, -4
 1730 0002 5F46     		mov	r7, fp
 1731 0004 4646     		mov	r6, r8
 1732 0006 C0B4     		push	{r6, r7}
 1733              		.cfi_def_cfa_offset 28
 1734              		.cfi_offset 8, -28
ARM GAS  C:\Users\JAMESS~1\AppData\Local\Temp\ccSFa4Kp.s 			page 54


 1735              		.cfi_offset 11, -24
 1736 0008 83B0     		sub	sp, sp, #12
 1737              		.cfi_def_cfa_offset 40
 1738 000a 0190     		str	r0, [sp, #4]
 1739 000c 0091     		str	r1, [sp]
 1740 000e 1700     		movs	r7, r2
 1741 0010 9B46     		mov	fp, r3
 1742              	.LVL190:
1191:Generated_Source\PSoC4/StripLights.c ****     int32 dx, dy;
1192:Generated_Source\PSoC4/StripLights.c ****     int32 aindex = 0;
1193:Generated_Source\PSoC4/StripLights.c ****     int32 maxX, maxY;
1194:Generated_Source\PSoC4/StripLights.c **** 
1195:Generated_Source\PSoC4/StripLights.c ****     maxX = x + (int32)bitMap[aindex++];
 1743              		.loc 1 1195 0
 1744 0012 1368     		ldr	r3, [r2]
 1745              	.LVL191:
 1746 0014 1E00     		movs	r6, r3
 1747 0016 8446     		mov	ip, r0
 1748 0018 6644     		add	r6, r6, ip
 1749              	.LVL192:
1196:Generated_Source\PSoC4/StripLights.c ****     maxY = y  + (int32)bitMap[aindex++];
 1750              		.loc 1 1196 0
 1751 001a 5368     		ldr	r3, [r2, #4]
 1752 001c 9846     		mov	r8, r3
 1753 001e 8C46     		mov	ip, r1
 1754 0020 E044     		add	r8, r8, ip
 1755              	.LVL193:
 1756 0022 0223     		movs	r3, #2
1197:Generated_Source\PSoC4/StripLights.c **** 
1198:Generated_Source\PSoC4/StripLights.c **** 	for(dy = y; dy < maxY; dy++)
 1757              		.loc 1 1198 0
 1758 0024 0FE0     		b	.L116
 1759              	.LVL194:
 1760              	.L117:
1199:Generated_Source\PSoC4/StripLights.c ****     {
1200:Generated_Source\PSoC4/StripLights.c **** 		for(dx = x; dx < maxX; dx++)
1201:Generated_Source\PSoC4/StripLights.c ****         {
1202:Generated_Source\PSoC4/StripLights.c ****             StripLights_Pixel(dx, dy, bitMap[aindex++]);
 1761              		.loc 1 1202 0 discriminator 3
 1762 0026 5D1C     		adds	r5, r3, #1
 1763              	.LVL195:
 1764 0028 9B00     		lsls	r3, r3, #2
 1765 002a FA58     		ldr	r2, [r7, r3]
 1766 002c 0099     		ldr	r1, [sp]
 1767 002e 2000     		movs	r0, r4
 1768 0030 FFF7FEFF 		bl	StripLights_Pixel
 1769              	.LVL196:
1200:Generated_Source\PSoC4/StripLights.c ****         {
 1770              		.loc 1 1200 0 discriminator 3
 1771 0034 0134     		adds	r4, r4, #1
 1772              	.LVL197:
 1773              		.loc 1 1202 0 discriminator 3
 1774 0036 2B00     		movs	r3, r5
 1775 0038 00E0     		b	.L118
 1776              	.LVL198:
 1777              	.L120:
 1778 003a 019C     		ldr	r4, [sp, #4]
ARM GAS  C:\Users\JAMESS~1\AppData\Local\Temp\ccSFa4Kp.s 			page 55


 1779              	.LVL199:
 1780              	.L118:
1200:Generated_Source\PSoC4/StripLights.c ****         {
 1781              		.loc 1 1200 0 discriminator 1
 1782 003c B442     		cmp	r4, r6
 1783 003e F2DB     		blt	.L117
1198:Generated_Source\PSoC4/StripLights.c ****     {
 1784              		.loc 1 1198 0 discriminator 2
 1785 0040 009A     		ldr	r2, [sp]
 1786 0042 0132     		adds	r2, r2, #1
 1787 0044 0092     		str	r2, [sp]
 1788              	.LVL200:
 1789              	.L116:
1198:Generated_Source\PSoC4/StripLights.c ****     {
 1790              		.loc 1 1198 0 is_stmt 0 discriminator 1
 1791 0046 009A     		ldr	r2, [sp]
 1792 0048 4245     		cmp	r2, r8
 1793 004a F6DB     		blt	.L120
1203:Generated_Source\PSoC4/StripLights.c ****         }
1204:Generated_Source\PSoC4/StripLights.c ****     }
1205:Generated_Source\PSoC4/StripLights.c **** 	if(update) StripLights_Trigger(1);
 1794              		.loc 1 1205 0 is_stmt 1
 1795 004c 5B46     		mov	r3, fp
 1796              	.LVL201:
 1797 004e 002B     		cmp	r3, #0
 1798 0050 02D0     		beq	.L115
 1799              	.LVL202:
 1800              		.loc 1 1205 0 is_stmt 0 discriminator 1
 1801 0052 0120     		movs	r0, #1
 1802 0054 FFF7FEFF 		bl	StripLights_Trigger
 1803              	.LVL203:
 1804              	.L115:
1206:Generated_Source\PSoC4/StripLights.c **** }
 1805              		.loc 1 1206 0 is_stmt 1
 1806 0058 03B0     		add	sp, sp, #12
 1807              	.LVL204:
 1808              		@ sp needed
 1809              	.LVL205:
 1810              	.LVL206:
 1811              	.LVL207:
 1812              	.LVL208:
 1813 005a 0CBC     		pop	{r2, r3}
 1814 005c 9046     		mov	r8, r2
 1815 005e 9B46     		mov	fp, r3
 1816 0060 F0BD     		pop	{r4, r5, r6, r7, pc}
 1817              		.cfi_endproc
 1818              	.LFE53:
 1819              		.size	StripLights_Bplot32, .-StripLights_Bplot32
 1820              		.global	__aeabi_uidiv
 1821 0062 C046     		.section	.text.StripLights_RgbBlend,"ax",%progbits
 1822              		.align	2
 1823              		.global	StripLights_RgbBlend
 1824              		.code	16
 1825              		.thumb_func
 1826              		.type	StripLights_RgbBlend, %function
 1827              	StripLights_RgbBlend:
 1828              	.LFB54:
ARM GAS  C:\Users\JAMESS~1\AppData\Local\Temp\ccSFa4Kp.s 			page 56


1207:Generated_Source\PSoC4/StripLights.c **** 
1208:Generated_Source\PSoC4/StripLights.c **** /*******************************************************************************
1209:Generated_Source\PSoC4/StripLights.c **** * Function Name: StripLights_RgbBlend()
1210:Generated_Source\PSoC4/StripLights.c **** ********************************************************************************
1211:Generated_Source\PSoC4/StripLights.c **** * Summary:  Blend two colors into one.
1212:Generated_Source\PSoC4/StripLights.c **** *    
1213:Generated_Source\PSoC4/StripLights.c **** *    newColor = (pct * toColor)  + ((100-pct) * fromColor)
1214:Generated_Source\PSoC4/StripLights.c **** *
1215:Generated_Source\PSoC4/StripLights.c **** * Parameters:  
1216:Generated_Source\PSoC4/StripLights.c **** *  void  
1217:Generated_Source\PSoC4/StripLights.c **** *
1218:Generated_Source\PSoC4/StripLights.c **** * Return: 
1219:Generated_Source\PSoC4/StripLights.c **** *  void
1220:Generated_Source\PSoC4/StripLights.c **** *
1221:Generated_Source\PSoC4/StripLights.c **** *******************************************************************************/
1222:Generated_Source\PSoC4/StripLights.c **** uint32 StripLights_RgbBlend(uint32 fromColor, uint32 toColor, uint32 pct)
1223:Generated_Source\PSoC4/StripLights.c **** {
 1829              		.loc 1 1223 0
 1830              		.cfi_startproc
 1831              		@ args = 0, pretend = 0, frame = 0
 1832              		@ frame_needed = 0, uses_anonymous_args = 0
 1833              	.LVL209:
 1834 0000 F8B5     		push	{r3, r4, r5, r6, r7, lr}
 1835              		.cfi_def_cfa_offset 24
 1836              		.cfi_offset 3, -24
 1837              		.cfi_offset 4, -20
 1838              		.cfi_offset 5, -16
 1839              		.cfi_offset 6, -12
 1840              		.cfi_offset 7, -8
 1841              		.cfi_offset 14, -4
 1842 0002 4F46     		mov	r7, r9
 1843 0004 4646     		mov	r6, r8
 1844 0006 C0B4     		push	{r6, r7}
 1845              		.cfi_def_cfa_offset 32
 1846              		.cfi_offset 8, -32
 1847              		.cfi_offset 9, -28
 1848 0008 0400     		movs	r4, r0
 1849 000a 0E00     		movs	r6, r1
 1850 000c 9146     		mov	r9, r2
 1851              	.LVL210:
1224:Generated_Source\PSoC4/StripLights.c ****     uint32 newColor = 0;
1225:Generated_Source\PSoC4/StripLights.c ****  
1226:Generated_Source\PSoC4/StripLights.c ****     #if(StripLights_CHIP == StripLights_CHIP_SF2812RGBW)
1227:Generated_Source\PSoC4/StripLights.c ****         uint32 tc, fc;
1228:Generated_Source\PSoC4/StripLights.c ****         
1229:Generated_Source\PSoC4/StripLights.c ****         tc = toColor >> 8;
1230:Generated_Source\PSoC4/StripLights.c ****         fc = fromColor >> 8;
1231:Generated_Source\PSoC4/StripLights.c ****         newColor = ((((pct * (tc & 0x00FF0000)) + ((100-pct) * (fc & 0x00FF0000)))/100) & 0x00FF000
1232:Generated_Source\PSoC4/StripLights.c ****     #endif
1233:Generated_Source\PSoC4/StripLights.c ****     newColor |= (((pct * (toColor & 0x00FF0000)) + ((100-pct) * (fromColor & 0x00FF0000)))/100) & 0
 1852              		.loc 1 1233 0
 1853 000e FF25     		movs	r5, #255
 1854 0010 2D04     		lsls	r5, r5, #16
 1855 0012 0800     		movs	r0, r1
 1856              	.LVL211:
 1857 0014 2840     		ands	r0, r5
 1858 0016 5043     		muls	r0, r2
ARM GAS  C:\Users\JAMESS~1\AppData\Local\Temp\ccSFa4Kp.s 			page 57


 1859 0018 6423     		movs	r3, #100
 1860 001a 9B1A     		subs	r3, r3, r2
 1861 001c 9846     		mov	r8, r3
 1862 001e 2300     		movs	r3, r4
 1863 0020 2B40     		ands	r3, r5
 1864 0022 4246     		mov	r2, r8
 1865              	.LVL212:
 1866 0024 5343     		muls	r3, r2
 1867 0026 C018     		adds	r0, r0, r3
 1868 0028 6421     		movs	r1, #100
 1869              	.LVL213:
 1870 002a FFF7FEFF 		bl	__aeabi_uidiv
 1871              	.LVL214:
 1872 002e 0540     		ands	r5, r0
 1873              	.LVL215:
1234:Generated_Source\PSoC4/StripLights.c ****     newColor |= (((pct * (toColor & 0x0000FF00)) + ((100-pct) * (fromColor & 0x0000FF00)))/100) & 0
 1874              		.loc 1 1234 0
 1875 0030 FF27     		movs	r7, #255
 1876 0032 3F02     		lsls	r7, r7, #8
 1877 0034 3000     		movs	r0, r6
 1878 0036 3840     		ands	r0, r7
 1879 0038 4B46     		mov	r3, r9
 1880 003a 5843     		muls	r0, r3
 1881 003c 2300     		movs	r3, r4
 1882 003e 3B40     		ands	r3, r7
 1883 0040 4246     		mov	r2, r8
 1884 0042 5343     		muls	r3, r2
 1885 0044 C018     		adds	r0, r0, r3
 1886 0046 6421     		movs	r1, #100
 1887 0048 FFF7FEFF 		bl	__aeabi_uidiv
 1888              	.LVL216:
 1889 004c 0740     		ands	r7, r0
 1890 004e 3D43     		orrs	r5, r7
 1891              	.LVL217:
1235:Generated_Source\PSoC4/StripLights.c ****     newColor |= (((pct * (toColor & 0x000000FF)) + ((100-pct) * (fromColor & 0x000000FF)))/100) & 0
 1892              		.loc 1 1235 0
 1893 0050 FF27     		movs	r7, #255
 1894 0052 3000     		movs	r0, r6
 1895 0054 3840     		ands	r0, r7
 1896 0056 4B46     		mov	r3, r9
 1897 0058 5843     		muls	r0, r3
 1898 005a 3C40     		ands	r4, r7
 1899              	.LVL218:
 1900 005c 4346     		mov	r3, r8
 1901 005e 5C43     		muls	r4, r3
 1902 0060 0019     		adds	r0, r0, r4
 1903 0062 6421     		movs	r1, #100
 1904 0064 FFF7FEFF 		bl	__aeabi_uidiv
 1905              	.LVL219:
 1906 0068 3840     		ands	r0, r7
 1907 006a 2843     		orrs	r0, r5
 1908              	.LVL220:
1236:Generated_Source\PSoC4/StripLights.c ****  
1237:Generated_Source\PSoC4/StripLights.c ****    return(newColor);
1238:Generated_Source\PSoC4/StripLights.c **** }
 1909              		.loc 1 1238 0
 1910              		@ sp needed
ARM GAS  C:\Users\JAMESS~1\AppData\Local\Temp\ccSFa4Kp.s 			page 58


 1911              	.LVL221:
 1912              	.LVL222:
 1913 006c 0CBC     		pop	{r2, r3}
 1914 006e 9046     		mov	r8, r2
 1915 0070 9946     		mov	r9, r3
 1916 0072 F8BD     		pop	{r3, r4, r5, r6, r7, pc}
 1917              		.cfi_endproc
 1918              	.LFE54:
 1919              		.size	StripLights_RgbBlend, .-StripLights_RgbBlend
 1920              		.global	StripLights_CLUT
 1921              		.global	StripLights_gamma
 1922              		.comm	StripLights_DimShift,4,4
 1923              		.comm	StripLights_DimMask,4,4
 1924              		.comm	StripLights_refreshComplete,4,4
 1925              		.global	StripLights_row
 1926              		.global	StripLights_ledIndex
 1927              		.comm	StripLights_ledArray,56,4
 1928              		.global	StripLights_initvar
 1929              		.global	StripLights_ExitCritical
 1930              		.global	StripLights_EnterCritical
 1931              		.section	.rodata
 1932              		.align	2
 1933              		.set	.LANCHOR1,. + 0
 1934              		.set	.LANCHOR2,. + 256
 1935              		.type	StripLights_gamma, %object
 1936              		.size	StripLights_gamma, 256
 1937              	StripLights_gamma:
 1938 0000 00       		.byte	0
 1939 0001 00       		.byte	0
 1940 0002 00       		.byte	0
 1941 0003 00       		.byte	0
 1942 0004 00       		.byte	0
 1943 0005 00       		.byte	0
 1944 0006 00       		.byte	0
 1945 0007 00       		.byte	0
 1946 0008 00       		.byte	0
 1947 0009 00       		.byte	0
 1948 000a 00       		.byte	0
 1949 000b 00       		.byte	0
 1950 000c 00       		.byte	0
 1951 000d 00       		.byte	0
 1952 000e 00       		.byte	0
 1953 000f 00       		.byte	0
 1954 0010 00       		.byte	0
 1955 0011 00       		.byte	0
 1956 0012 00       		.byte	0
 1957 0013 00       		.byte	0
 1958 0014 00       		.byte	0
 1959 0015 00       		.byte	0
 1960 0016 00       		.byte	0
 1961 0017 00       		.byte	0
 1962 0018 00       		.byte	0
 1963 0019 00       		.byte	0
 1964 001a 00       		.byte	0
 1965 001b 00       		.byte	0
 1966 001c 01       		.byte	1
 1967 001d 01       		.byte	1
ARM GAS  C:\Users\JAMESS~1\AppData\Local\Temp\ccSFa4Kp.s 			page 59


 1968 001e 01       		.byte	1
 1969 001f 01       		.byte	1
 1970 0020 01       		.byte	1
 1971 0021 01       		.byte	1
 1972 0022 01       		.byte	1
 1973 0023 01       		.byte	1
 1974 0024 01       		.byte	1
 1975 0025 01       		.byte	1
 1976 0026 01       		.byte	1
 1977 0027 01       		.byte	1
 1978 0028 01       		.byte	1
 1979 0029 02       		.byte	2
 1980 002a 02       		.byte	2
 1981 002b 02       		.byte	2
 1982 002c 02       		.byte	2
 1983 002d 02       		.byte	2
 1984 002e 02       		.byte	2
 1985 002f 02       		.byte	2
 1986 0030 02       		.byte	2
 1987 0031 03       		.byte	3
 1988 0032 03       		.byte	3
 1989 0033 03       		.byte	3
 1990 0034 03       		.byte	3
 1991 0035 03       		.byte	3
 1992 0036 03       		.byte	3
 1993 0037 03       		.byte	3
 1994 0038 04       		.byte	4
 1995 0039 04       		.byte	4
 1996 003a 04       		.byte	4
 1997 003b 04       		.byte	4
 1998 003c 04       		.byte	4
 1999 003d 05       		.byte	5
 2000 003e 05       		.byte	5
 2001 003f 05       		.byte	5
 2002 0040 05       		.byte	5
 2003 0041 06       		.byte	6
 2004 0042 06       		.byte	6
 2005 0043 06       		.byte	6
 2006 0044 06       		.byte	6
 2007 0045 07       		.byte	7
 2008 0046 07       		.byte	7
 2009 0047 07       		.byte	7
 2010 0048 07       		.byte	7
 2011 0049 08       		.byte	8
 2012 004a 08       		.byte	8
 2013 004b 08       		.byte	8
 2014 004c 09       		.byte	9
 2015 004d 09       		.byte	9
 2016 004e 09       		.byte	9
 2017 004f 0A       		.byte	10
 2018 0050 0A       		.byte	10
 2019 0051 0A       		.byte	10
 2020 0052 0B       		.byte	11
 2021 0053 0B       		.byte	11
 2022 0054 0B       		.byte	11
 2023 0055 0C       		.byte	12
 2024 0056 0C       		.byte	12
ARM GAS  C:\Users\JAMESS~1\AppData\Local\Temp\ccSFa4Kp.s 			page 60


 2025 0057 0D       		.byte	13
 2026 0058 0D       		.byte	13
 2027 0059 0D       		.byte	13
 2028 005a 0E       		.byte	14
 2029 005b 0E       		.byte	14
 2030 005c 0F       		.byte	15
 2031 005d 0F       		.byte	15
 2032 005e 10       		.byte	16
 2033 005f 10       		.byte	16
 2034 0060 11       		.byte	17
 2035 0061 11       		.byte	17
 2036 0062 12       		.byte	18
 2037 0063 12       		.byte	18
 2038 0064 13       		.byte	19
 2039 0065 13       		.byte	19
 2040 0066 14       		.byte	20
 2041 0067 14       		.byte	20
 2042 0068 15       		.byte	21
 2043 0069 15       		.byte	21
 2044 006a 16       		.byte	22
 2045 006b 16       		.byte	22
 2046 006c 17       		.byte	23
 2047 006d 18       		.byte	24
 2048 006e 18       		.byte	24
 2049 006f 19       		.byte	25
 2050 0070 19       		.byte	25
 2051 0071 1A       		.byte	26
 2052 0072 1B       		.byte	27
 2053 0073 1B       		.byte	27
 2054 0074 1C       		.byte	28
 2055 0075 1D       		.byte	29
 2056 0076 1D       		.byte	29
 2057 0077 1E       		.byte	30
 2058 0078 1F       		.byte	31
 2059 0079 20       		.byte	32
 2060 007a 20       		.byte	32
 2061 007b 21       		.byte	33
 2062 007c 22       		.byte	34
 2063 007d 23       		.byte	35
 2064 007e 23       		.byte	35
 2065 007f 24       		.byte	36
 2066 0080 25       		.byte	37
 2067 0081 26       		.byte	38
 2068 0082 27       		.byte	39
 2069 0083 27       		.byte	39
 2070 0084 28       		.byte	40
 2071 0085 29       		.byte	41
 2072 0086 2A       		.byte	42
 2073 0087 2B       		.byte	43
 2074 0088 2C       		.byte	44
 2075 0089 2D       		.byte	45
 2076 008a 2E       		.byte	46
 2077 008b 2F       		.byte	47
 2078 008c 30       		.byte	48
 2079 008d 31       		.byte	49
 2080 008e 32       		.byte	50
 2081 008f 32       		.byte	50
ARM GAS  C:\Users\JAMESS~1\AppData\Local\Temp\ccSFa4Kp.s 			page 61


 2082 0090 33       		.byte	51
 2083 0091 34       		.byte	52
 2084 0092 36       		.byte	54
 2085 0093 37       		.byte	55
 2086 0094 38       		.byte	56
 2087 0095 39       		.byte	57
 2088 0096 3A       		.byte	58
 2089 0097 3B       		.byte	59
 2090 0098 3C       		.byte	60
 2091 0099 3D       		.byte	61
 2092 009a 3E       		.byte	62
 2093 009b 3F       		.byte	63
 2094 009c 40       		.byte	64
 2095 009d 42       		.byte	66
 2096 009e 43       		.byte	67
 2097 009f 44       		.byte	68
 2098 00a0 45       		.byte	69
 2099 00a1 46       		.byte	70
 2100 00a2 48       		.byte	72
 2101 00a3 49       		.byte	73
 2102 00a4 4A       		.byte	74
 2103 00a5 4B       		.byte	75
 2104 00a6 4D       		.byte	77
 2105 00a7 4E       		.byte	78
 2106 00a8 4F       		.byte	79
 2107 00a9 51       		.byte	81
 2108 00aa 52       		.byte	82
 2109 00ab 53       		.byte	83
 2110 00ac 55       		.byte	85
 2111 00ad 56       		.byte	86
 2112 00ae 57       		.byte	87
 2113 00af 59       		.byte	89
 2114 00b0 5A       		.byte	90
 2115 00b1 5C       		.byte	92
 2116 00b2 5D       		.byte	93
 2117 00b3 5F       		.byte	95
 2118 00b4 60       		.byte	96
 2119 00b5 62       		.byte	98
 2120 00b6 63       		.byte	99
 2121 00b7 65       		.byte	101
 2122 00b8 66       		.byte	102
 2123 00b9 68       		.byte	104
 2124 00ba 69       		.byte	105
 2125 00bb 6B       		.byte	107
 2126 00bc 6D       		.byte	109
 2127 00bd 6E       		.byte	110
 2128 00be 70       		.byte	112
 2129 00bf 72       		.byte	114
 2130 00c0 73       		.byte	115
 2131 00c1 75       		.byte	117
 2132 00c2 77       		.byte	119
 2133 00c3 78       		.byte	120
 2134 00c4 7A       		.byte	122
 2135 00c5 7C       		.byte	124
 2136 00c6 7E       		.byte	126
 2137 00c7 7F       		.byte	127
 2138 00c8 81       		.byte	-127
ARM GAS  C:\Users\JAMESS~1\AppData\Local\Temp\ccSFa4Kp.s 			page 62


 2139 00c9 83       		.byte	-125
 2140 00ca 85       		.byte	-123
 2141 00cb 87       		.byte	-121
 2142 00cc 89       		.byte	-119
 2143 00cd 8A       		.byte	-118
 2144 00ce 8C       		.byte	-116
 2145 00cf 8E       		.byte	-114
 2146 00d0 90       		.byte	-112
 2147 00d1 92       		.byte	-110
 2148 00d2 94       		.byte	-108
 2149 00d3 96       		.byte	-106
 2150 00d4 98       		.byte	-104
 2151 00d5 9A       		.byte	-102
 2152 00d6 9C       		.byte	-100
 2153 00d7 9E       		.byte	-98
 2154 00d8 A0       		.byte	-96
 2155 00d9 A2       		.byte	-94
 2156 00da A4       		.byte	-92
 2157 00db A7       		.byte	-89
 2158 00dc A9       		.byte	-87
 2159 00dd AB       		.byte	-85
 2160 00de AD       		.byte	-83
 2161 00df AF       		.byte	-81
 2162 00e0 B1       		.byte	-79
 2163 00e1 B4       		.byte	-76
 2164 00e2 B6       		.byte	-74
 2165 00e3 B8       		.byte	-72
 2166 00e4 BA       		.byte	-70
 2167 00e5 BD       		.byte	-67
 2168 00e6 BF       		.byte	-65
 2169 00e7 C1       		.byte	-63
 2170 00e8 C4       		.byte	-60
 2171 00e9 C6       		.byte	-58
 2172 00ea C8       		.byte	-56
 2173 00eb CB       		.byte	-53
 2174 00ec CD       		.byte	-51
 2175 00ed D0       		.byte	-48
 2176 00ee D2       		.byte	-46
 2177 00ef D5       		.byte	-43
 2178 00f0 D7       		.byte	-41
 2179 00f1 DA       		.byte	-38
 2180 00f2 DC       		.byte	-36
 2181 00f3 DF       		.byte	-33
 2182 00f4 E1       		.byte	-31
 2183 00f5 E4       		.byte	-28
 2184 00f6 E7       		.byte	-25
 2185 00f7 E9       		.byte	-23
 2186 00f8 EC       		.byte	-20
 2187 00f9 EF       		.byte	-17
 2188 00fa F1       		.byte	-15
 2189 00fb F4       		.byte	-12
 2190 00fc F7       		.byte	-9
 2191 00fd F9       		.byte	-7
 2192 00fe FC       		.byte	-4
 2193 00ff FF       		.byte	-1
 2194              		.type	StripLights_CLUT, %object
 2195              		.size	StripLights_CLUT, 480
ARM GAS  C:\Users\JAMESS~1\AppData\Local\Temp\ccSFa4Kp.s 			page 63


 2196              	StripLights_CLUT:
 2197 0100 FFFF0000 		.word	65535
 2198 0104 FFCC0000 		.word	52479
 2199 0108 FF990000 		.word	39423
 2200 010c FF330000 		.word	13311
 2201 0110 FF000000 		.word	255
 2202 0114 B3006600 		.word	6684851
 2203 0118 99009900 		.word	10027161
 2204 011c 6600B300 		.word	11731046
 2205 0120 3300CC00 		.word	13369395
 2206 0124 1919B300 		.word	11737369
 2207 0128 00339900 		.word	10040064
 2208 012c 00409900 		.word	10043392
 2209 0130 00669900 		.word	10053120
 2210 0134 00999900 		.word	10066176
 2211 0138 00CC9900 		.word	10079232
 2212 013c 00E66600 		.word	6743552
 2213 0140 00FF0000 		.word	65280
 2214 0144 33FF0000 		.word	65331
 2215 0148 66FF0000 		.word	65382
 2216 014c 80FF0000 		.word	65408
 2217 0150 99FF0000 		.word	65433
 2218 0154 B2FF0000 		.word	65458
 2219 0158 CCFF0000 		.word	65484
 2220 015c E5FF0000 		.word	65509
 2221 0160 00000000 		.word	0
 2222 0164 00005500 		.word	5570560
 2223 0168 0000AA00 		.word	11141120
 2224 016c 0000FF00 		.word	16711680
 2225 0170 55000000 		.word	85
 2226 0174 55005500 		.word	5570645
 2227 0178 5500AA00 		.word	11141205
 2228 017c 5500FF00 		.word	16711765
 2229 0180 AA000000 		.word	170
 2230 0184 AA005500 		.word	5570730
 2231 0188 AA00AA00 		.word	11141290
 2232 018c AA00FF00 		.word	16711850
 2233 0190 FF000000 		.word	255
 2234 0194 FF005500 		.word	5570815
 2235 0198 FF00AA00 		.word	11141375
 2236 019c FF00FF00 		.word	16711935
 2237 01a0 00550000 		.word	21760
 2238 01a4 00555500 		.word	5592320
 2239 01a8 0055AA00 		.word	11162880
 2240 01ac 0055FF00 		.word	16733440
 2241 01b0 55550000 		.word	21845
 2242 01b4 55555500 		.word	5592405
 2243 01b8 5555AA00 		.word	11162965
 2244 01bc 5555FF00 		.word	16733525
 2245 01c0 AA550000 		.word	21930
 2246 01c4 AA555500 		.word	5592490
 2247 01c8 AA55AA00 		.word	11163050
 2248 01cc AA55FF00 		.word	16733610
 2249 01d0 FF550000 		.word	22015
 2250 01d4 FF555500 		.word	5592575
 2251 01d8 FF55AA00 		.word	11163135
 2252 01dc FF55FF00 		.word	16733695
ARM GAS  C:\Users\JAMESS~1\AppData\Local\Temp\ccSFa4Kp.s 			page 64


 2253 01e0 00AA0000 		.word	43520
 2254 01e4 00AA5500 		.word	5614080
 2255 01e8 00AAAA00 		.word	11184640
 2256 01ec 00AAFF00 		.word	16755200
 2257 01f0 55AA0000 		.word	43605
 2258 01f4 55AA5500 		.word	5614165
 2259 01f8 55AAAA00 		.word	11184725
 2260 01fc 55AAFF00 		.word	16755285
 2261 0200 AAAA0000 		.word	43690
 2262 0204 AAAA5500 		.word	5614250
 2263 0208 AAAAAA00 		.word	11184810
 2264 020c AAAAFF00 		.word	16755370
 2265 0210 FFAA0000 		.word	43775
 2266 0214 FFAA5500 		.word	5614335
 2267 0218 FFAAAA00 		.word	11184895
 2268 021c FFAAFF00 		.word	16755455
 2269 0220 00FF0000 		.word	65280
 2270 0224 00FF5500 		.word	5635840
 2271 0228 00FFAA00 		.word	11206400
 2272 022c 00FFFF00 		.word	16776960
 2273 0230 55FF0000 		.word	65365
 2274 0234 55FF5500 		.word	5635925
 2275 0238 55FFAA00 		.word	11206485
 2276 023c 55FFFF00 		.word	16777045
 2277 0240 AAFF0000 		.word	65450
 2278 0244 AAFF5500 		.word	5636010
 2279 0248 AAFFAA00 		.word	11206570
 2280 024c AAFFFF00 		.word	16777130
 2281 0250 FFFF0000 		.word	65535
 2282 0254 FFFF5500 		.word	5636095
 2283 0258 FFFFAA00 		.word	11206655
 2284 025c FFFFFF00 		.word	16777215
 2285 0260 FF800000 		.word	33023
 2286 0264 FF008000 		.word	8388863
 2287 0268 FF00FF00 		.word	16711935
 2288 026c 8000FF00 		.word	16711808
 2289 0270 0080FF00 		.word	16744448
 2290 0274 00FF8000 		.word	8453888
 2291 0278 FF000000 		.word	255
 2292 027c 20202000 		.word	2105376
 2293 0280 00002000 		.word	2097152
 2294 0284 00000010 		.word	268435456
 2295 0288 00FF0000 		.word	65280
 2296 028c 30FF0000 		.word	65328
 2297 0290 FFFFFFFF 		.word	-1
 2298 0294 000000FF 		.word	-16777216
 2299 0298 808080FF 		.word	-8355712
 2300 029c 404040FF 		.word	-12566464
 2301 02a0 0000FF00 		.word	16711680
 2302 02a4 0010F000 		.word	15732736
 2303 02a8 0020E000 		.word	14688256
 2304 02ac 0030D000 		.word	13643776
 2305 02b0 0040C000 		.word	12599296
 2306 02b4 0050B000 		.word	11554816
 2307 02b8 0060A000 		.word	10510336
 2308 02bc 00709000 		.word	9465856
 2309 02c0 00808000 		.word	8421376
ARM GAS  C:\Users\JAMESS~1\AppData\Local\Temp\ccSFa4Kp.s 			page 65


 2310 02c4 00907000 		.word	7376896
 2311 02c8 00A06000 		.word	6332416
 2312 02cc 00B05000 		.word	5287936
 2313 02d0 00C04000 		.word	4243456
 2314 02d4 00D03000 		.word	3198976
 2315 02d8 00E02000 		.word	2154496
 2316 02dc 00FF0000 		.word	65280
 2317              		.bss
 2318              		.align	2
 2319              		.set	.LANCHOR0,. + 0
 2320              		.type	StripLights_row, %object
 2321              		.size	StripLights_row, 4
 2322              	StripLights_row:
 2323 0000 00000000 		.space	4
 2324              		.type	StripLights_ledIndex, %object
 2325              		.size	StripLights_ledIndex, 4
 2326              	StripLights_ledIndex:
 2327 0004 00000000 		.space	4
 2328              		.type	color.5758, %object
 2329              		.size	color.5758, 4
 2330              	color.5758:
 2331 0008 00000000 		.space	4
 2332              		.type	color.5766, %object
 2333              		.size	color.5766, 4
 2334              	color.5766:
 2335 000c 00000000 		.space	4
 2336              		.type	StripLights_EnterCritical, %object
 2337              		.size	StripLights_EnterCritical, 4
 2338              	StripLights_EnterCritical:
 2339 0010 00000000 		.space	4
 2340              		.type	StripLights_ExitCritical, %object
 2341              		.size	StripLights_ExitCritical, 4
 2342              	StripLights_ExitCritical:
 2343 0014 00000000 		.space	4
 2344              		.type	colorIndex.5751, %object
 2345              		.size	colorIndex.5751, 4
 2346              	colorIndex.5751:
 2347 0018 00000000 		.space	4
 2348              		.type	StripLights_initvar, %object
 2349              		.size	StripLights_initvar, 1
 2350              	StripLights_initvar:
 2351 001c 00       		.space	1
 2352              		.text
 2353              	.Letext0:
 2354              		.file 2 "Generated_Source\\PSoC4/cytypes.h"
 2355              		.file 3 "Generated_Source\\PSoC4/StripLights.h"
 2356              		.file 4 "Generated_Source\\PSoC4/CyLib.h"
 2357              		.file 5 "Generated_Source\\PSoC4\\StripLights_fonts.h"
 2358              		.file 6 "Generated_Source\\PSoC4/StripLights_cisr.h"
 2359              		.file 7 "Generated_Source\\PSoC4/StripLights_fisr.h"