ARM GAS  C:\Users\JAMESS~1\AppData\Local\Temp\ccSFa4Kp.s 			page 1


   1              		.syntax unified
   2              		.cpu cortex-m0
   3              		.fpu softvfp
   4              		.eabi_attribute 20, 1
   5              		.eabi_attribute 21, 1
   6              		.eabi_attribute 23, 3
   7              		.eabi_attribute 24, 1
   8              		.eabi_attribute 25, 1
   9              		.eabi_attribute 26, 1
  10              		.eabi_attribute 30, 1
  11              		.eabi_attribute 34, 0
  12              		.eabi_attribute 18, 4
  13              		.thumb
  14              		.syntax unified
  15              		.file	"StripLights.c"
  16              		.text
  17              	.Ltext0:
  18              		.cfi_sections	.debug_frame
  19              		.section	.text.StripLights_FISR,"ax",%progbits
  20              		.align	2
  21              		.global	StripLights_FISR
  22              		.code	16
  23              		.thumb_func
  24              		.type	StripLights_FISR, %function
  25              	StripLights_FISR:
  26              	.LFB41:
  27              		.file 1 "Generated_Source\\PSoC4\\StripLights.c"
   1:Generated_Source\PSoC4/StripLights.c **** /* =========================================================
   2:Generated_Source\PSoC4/StripLights.c ****  *
   3:Generated_Source\PSoC4/StripLights.c ****  * Strip Light Controller
   4:Generated_Source\PSoC4/StripLights.c ****  * By Mark Hastings
   5:Generated_Source\PSoC4/StripLights.c ****  *
   6:Generated_Source\PSoC4/StripLights.c ****  * 10/28/2015 MEH Added support for SF2812RGBW
   7:Generated_Source\PSoC4/StripLights.c ****  *                Allow for a more flexible bus clock selection
   8:Generated_Source\PSoC4/StripLights.c ****  * 12/12/2015 MEH Fixed a bug that may cause the interface
   9:Generated_Source\PSoC4/StripLights.c ****  *                to hang when many other ISRs are running.
  10:Generated_Source\PSoC4/StripLights.c ****  *
  11:Generated_Source\PSoC4/StripLights.c ****  * This file contains the functions required to control each
  12:Generated_Source\PSoC4/StripLights.c ****  * lighting control channel.
  13:Generated_Source\PSoC4/StripLights.c ****  *
  14:Generated_Source\PSoC4/StripLights.c ****  * =========================================================
  15:Generated_Source\PSoC4/StripLights.c **** */
  16:Generated_Source\PSoC4/StripLights.c **** 
  17:Generated_Source\PSoC4/StripLights.c **** #include <project.h>
  18:Generated_Source\PSoC4/StripLights.c **** #include "cytypes.h"
  19:Generated_Source\PSoC4/StripLights.c **** #include "stdlib.h"
  20:Generated_Source\PSoC4/StripLights.c **** #include "cyfitter.h"
  21:Generated_Source\PSoC4/StripLights.c **** #include "StripLights.h"
  22:Generated_Source\PSoC4/StripLights.c **** #include "StripLights_fonts.h"
  23:Generated_Source\PSoC4/StripLights.c **** 
  24:Generated_Source\PSoC4/StripLights.c **** 
  25:Generated_Source\PSoC4/StripLights.c **** void   (*StripLights_EnterCritical)() = (funcPtr)0;
  26:Generated_Source\PSoC4/StripLights.c **** void   (*StripLights_ExitCritical)() = (funcPtr)0;
  27:Generated_Source\PSoC4/StripLights.c **** 
  28:Generated_Source\PSoC4/StripLights.c **** 
  29:Generated_Source\PSoC4/StripLights.c **** uint8  StripLights_initvar = 0;
  30:Generated_Source\PSoC4/StripLights.c **** 
ARM GAS  C:\Users\JAMESS~1\AppData\Local\Temp\ccSFa4Kp.s 			page 2


  31:Generated_Source\PSoC4/StripLights.c **** #if(StripLights_MEMORY_TYPE == StripLights_MEMORY_RGB)
  32:Generated_Source\PSoC4/StripLights.c **** uint32  StripLights_ledArray[StripLights_ARRAY_ROWS][StripLights_ARRAY_COLS];
  33:Generated_Source\PSoC4/StripLights.c **** #else
  34:Generated_Source\PSoC4/StripLights.c **** uint8   StripLights_ledArray[StripLights_ARRAY_ROWS][StripLights_ARRAY_COLS];
  35:Generated_Source\PSoC4/StripLights.c **** #endif
  36:Generated_Source\PSoC4/StripLights.c **** 
  37:Generated_Source\PSoC4/StripLights.c **** uint32  StripLights_ledIndex = 0;  
  38:Generated_Source\PSoC4/StripLights.c **** uint32  StripLights_row = 0;
  39:Generated_Source\PSoC4/StripLights.c **** uint32  StripLights_refreshComplete;
  40:Generated_Source\PSoC4/StripLights.c **** 
  41:Generated_Source\PSoC4/StripLights.c **** uint32  StripLights_DimMask;
  42:Generated_Source\PSoC4/StripLights.c **** uint32  StripLights_DimShift;
  43:Generated_Source\PSoC4/StripLights.c **** 
  44:Generated_Source\PSoC4/StripLights.c **** #if( StripLights_GAMMA_CORRECTION == StripLights_GAMMA_ON )
  45:Generated_Source\PSoC4/StripLights.c **** const uint8 StripLights_gamma[] = {
  46:Generated_Source\PSoC4/StripLights.c ****     0,  0,  0,  0,  0,  0,  0,  0,  0,  0,  0,  0,  0,  0,  0,  0,
  47:Generated_Source\PSoC4/StripLights.c ****     0,  0,  0,  0,  0,  0,  0,  0,  0,  0,  0,  0,  1,  1,  1,  1,
  48:Generated_Source\PSoC4/StripLights.c ****     1,  1,  1,  1,  1,  1,  1,  1,  1,  2,  2,  2,  2,  2,  2,  2,
  49:Generated_Source\PSoC4/StripLights.c ****     2,  3,  3,  3,  3,  3,  3,  3,  4,  4,  4,  4,  4,  5,  5,  5,
  50:Generated_Source\PSoC4/StripLights.c ****     5,  6,  6,  6,  6,  7,  7,  7,  7,  8,  8,  8,  9,  9,  9, 10,
  51:Generated_Source\PSoC4/StripLights.c ****    10, 10, 11, 11, 11, 12, 12, 13, 13, 13, 14, 14, 15, 15, 16, 16,
  52:Generated_Source\PSoC4/StripLights.c ****    17, 17, 18, 18, 19, 19, 20, 20, 21, 21, 22, 22, 23, 24, 24, 25,
  53:Generated_Source\PSoC4/StripLights.c ****    25, 26, 27, 27, 28, 29, 29, 30, 31, 32, 32, 33, 34, 35, 35, 36,
  54:Generated_Source\PSoC4/StripLights.c ****    37, 38, 39, 39, 40, 41, 42, 43, 44, 45, 46, 47, 48, 49, 50, 50,
  55:Generated_Source\PSoC4/StripLights.c ****    51, 52, 54, 55, 56, 57, 58, 59, 60, 61, 62, 63, 64, 66, 67, 68,
  56:Generated_Source\PSoC4/StripLights.c ****    69, 70, 72, 73, 74, 75, 77, 78, 79, 81, 82, 83, 85, 86, 87, 89,
  57:Generated_Source\PSoC4/StripLights.c ****    90, 92, 93, 95, 96, 98, 99,101,102,104,105,107,109,110,112,114,
  58:Generated_Source\PSoC4/StripLights.c ****   115,117,119,120,122,124,126,127,129,131,133,135,137,138,140,142,
  59:Generated_Source\PSoC4/StripLights.c ****   144,146,148,150,152,154,156,158,160,162,164,167,169,171,173,175,
  60:Generated_Source\PSoC4/StripLights.c ****   177,180,182,184,186,189,191,193,196,198,200,203,205,208,210,213,
  61:Generated_Source\PSoC4/StripLights.c ****   215,218,220,223,225,228,231,233,236,239,241,244,247,249,252,255 };
  62:Generated_Source\PSoC4/StripLights.c **** 
  63:Generated_Source\PSoC4/StripLights.c **** #endif
  64:Generated_Source\PSoC4/StripLights.c **** 
  65:Generated_Source\PSoC4/StripLights.c **** #if (StripLights_LED_LAYOUT == StripLights_LED_LAYOUT_GRID16X16)
  66:Generated_Source\PSoC4/StripLights.c ****  uint8 const StripLights_cTrans[16][16] =  {
  67:Generated_Source\PSoC4/StripLights.c **** 	/*  0  */  {  0,  1,  2,  3,  4,  5,  6,  7,  8,  9, 10, 11, 12, 13, 14, 15},
  68:Generated_Source\PSoC4/StripLights.c ****     /*  1  */  { 31, 30, 29, 28, 27, 26, 25, 24, 23, 22, 21, 20, 19, 18, 17, 16},
  69:Generated_Source\PSoC4/StripLights.c **** 	/*  2  */  { 32, 33, 34, 35, 36, 37, 38, 39, 40, 41, 42, 43, 44, 45, 46, 47},
  70:Generated_Source\PSoC4/StripLights.c **** 	/*  3  */  { 63, 62, 61, 60, 59, 58, 57, 56, 55, 54, 53, 52, 51, 50, 49, 48}, 
  71:Generated_Source\PSoC4/StripLights.c **** 	/*  4  */  { 64, 65, 66, 67, 68, 69, 70, 71, 72, 73, 74, 75, 76, 77, 78, 79},
  72:Generated_Source\PSoC4/StripLights.c **** 	/*  5  */  { 95, 94, 93, 92, 91, 90, 89, 88, 87, 86, 85, 84, 83, 82, 81, 80},
  73:Generated_Source\PSoC4/StripLights.c **** 	/*  6  */  { 96, 97, 98, 99,100,101,102,103,104,105,106,107,108,109,110,111},
  74:Generated_Source\PSoC4/StripLights.c **** 	/*  7  */  {127,126,125,124,123,122,121,120,119,118,117,116,115,114,113,112},
  75:Generated_Source\PSoC4/StripLights.c **** 	/*  8  */  {128,129,130,131,132,133,134,135,136,137,138,139,140,141,142,143},
  76:Generated_Source\PSoC4/StripLights.c **** 	/*  9  */  {159,158,157,156,155,154,153,152,151,150,149,148,147,146,145,144},
  77:Generated_Source\PSoC4/StripLights.c **** 	/* 10  */  {160,161,162,163,164,165,166,167,168,169,170,171,172,173,174,175},
  78:Generated_Source\PSoC4/StripLights.c **** 	/* 11  */  {191,190,189,188,187,186,185,184,183,182,181,180,179,178,177,176},
  79:Generated_Source\PSoC4/StripLights.c **** 	/* 12  */  {192,193,194,195,196,197,198,199,200,201,202,203,204,205,206,207},
  80:Generated_Source\PSoC4/StripLights.c **** 	/* 13  */  {223,222,221,220,219,218,217,216,215,214,213,212,211,210,209,208},
  81:Generated_Source\PSoC4/StripLights.c **** 	/* 14  */  {224,225,226,227,228,229,230,231,232,233,234,235,236,237,238,239},
  82:Generated_Source\PSoC4/StripLights.c **** 	/* 15  */  {255,254,253,252,251,250,249,248,247,246,245,244,243,242,241,240}};   
  83:Generated_Source\PSoC4/StripLights.c **** #endif
  84:Generated_Source\PSoC4/StripLights.c **** 
  85:Generated_Source\PSoC4/StripLights.c **** 
  86:Generated_Source\PSoC4/StripLights.c **** #if((StripLights_CHIP == StripLights_CHIP_WS2812) || (StripLights_CHIP == StripLights_CHIP_SF2812RG
  87:Generated_Source\PSoC4/StripLights.c **** const uint32 StripLights_CLUT[ ] = {
ARM GAS  C:\Users\JAMESS~1\AppData\Local\Temp\ccSFa4Kp.s 			page 3


  88:Generated_Source\PSoC4/StripLights.c **** //xxBBRRGG (WS2812)
  89:Generated_Source\PSoC4/StripLights.c **** //     (24)   [ Index = 0 ]
  90:Generated_Source\PSoC4/StripLights.c **** 0x0000FFFF,  // 0 Yellow
  91:Generated_Source\PSoC4/StripLights.c **** 0x0000CCFF,
  92:Generated_Source\PSoC4/StripLights.c **** 0x000099FF,
  93:Generated_Source\PSoC4/StripLights.c **** 0x000033FF,
  94:Generated_Source\PSoC4/StripLights.c **** 0x000000FF,  // 5  Green
  95:Generated_Source\PSoC4/StripLights.c **** 0x006600B3,
  96:Generated_Source\PSoC4/StripLights.c **** 0x00990099, 
  97:Generated_Source\PSoC4/StripLights.c **** 0x00B30066, 
  98:Generated_Source\PSoC4/StripLights.c **** 0x00CC0033,  // 9 Blue
  99:Generated_Source\PSoC4/StripLights.c **** 0x00B31919, 
 100:Generated_Source\PSoC4/StripLights.c **** 0x00993300, 
 101:Generated_Source\PSoC4/StripLights.c **** 0x00994000, 
 102:Generated_Source\PSoC4/StripLights.c **** 0x00996600, 
 103:Generated_Source\PSoC4/StripLights.c **** 0x00999900, 
 104:Generated_Source\PSoC4/StripLights.c **** 0x0099CC00, 
 105:Generated_Source\PSoC4/StripLights.c **** 0x0066E600, 
 106:Generated_Source\PSoC4/StripLights.c **** 0x0000FF00, // Red
 107:Generated_Source\PSoC4/StripLights.c **** 0x0000FF33, 
 108:Generated_Source\PSoC4/StripLights.c **** 0x0000FF66, 
 109:Generated_Source\PSoC4/StripLights.c **** 0x0000FF80, 
 110:Generated_Source\PSoC4/StripLights.c **** 0x0000FF99,  // 20 Orange
 111:Generated_Source\PSoC4/StripLights.c **** 0x0000FFB2, 
 112:Generated_Source\PSoC4/StripLights.c **** 0x0000FFCC, 
 113:Generated_Source\PSoC4/StripLights.c **** 0x0000FFE5,
 114:Generated_Source\PSoC4/StripLights.c **** // #24
 115:Generated_Source\PSoC4/StripLights.c **** 
 116:Generated_Source\PSoC4/StripLights.c **** //xxBBRRGG  (64)  [ Index = 24 ]
 117:Generated_Source\PSoC4/StripLights.c **** 0x00000000, 0x00550000, 0x00AA0000, 0x00FF0000,  // 0, Black,  LtBlue, MBlue, Blue
 118:Generated_Source\PSoC4/StripLights.c **** 0x00000055, 0x00550055, 0x00AA0055, 0x00FF0055,  // 4, LtGreen
 119:Generated_Source\PSoC4/StripLights.c **** 0x000000AA, 0x005500AA, 0x00AA00AA, 0x00FF00AA,  // 8, MGreen
 120:Generated_Source\PSoC4/StripLights.c **** 0x000000FF, 0x005500FF, 0x00AA00FF, 0x00FF00FF,  // 12 Green
 121:Generated_Source\PSoC4/StripLights.c **** 
 122:Generated_Source\PSoC4/StripLights.c **** 0x00005500, 0x00555500, 0x00AA5500, 0x00FF5500,  // 16, LtRed
 123:Generated_Source\PSoC4/StripLights.c **** 0x00005555, 0x00555555, 0x00AA5555, 0x00FF5555,  // 20, LtYellow
 124:Generated_Source\PSoC4/StripLights.c **** 0x000055AA, 0x005555AA, 0x00AA55AA, 0x00FF55AA,  // 24, 
 125:Generated_Source\PSoC4/StripLights.c **** 0x000055FF, 0x005555FF, 0x00AA55FF, 0x00FF55FF,  // 28,
 126:Generated_Source\PSoC4/StripLights.c **** 
 127:Generated_Source\PSoC4/StripLights.c **** 0x0000AA00, 0x0055AA00, 0x00AAAA00, 0x00FFAA00,  // 32, MRed
 128:Generated_Source\PSoC4/StripLights.c **** 0x0000AA55, 0x0055AA55, 0x00AAAA55, 0x00FFAA55,  // 36, 
 129:Generated_Source\PSoC4/StripLights.c **** 0x0000AAAA, 0x0055AAAA, 0x00AAAAAA, 0x00FFAAAA,  // 55, 
 130:Generated_Source\PSoC4/StripLights.c **** 0x0000AAFF, 0x0055AAFF, 0x00AAAAFF, 0x00FFAAFF,  // 44, 
 131:Generated_Source\PSoC4/StripLights.c **** 
 132:Generated_Source\PSoC4/StripLights.c **** 0x0000FF00, 0x0055FF00, 0x00AAFF00, 0x00FFFF00,  // 48, Red, ??, ??, Magenta
 133:Generated_Source\PSoC4/StripLights.c **** 0x0000FF55, 0x0055FF55, 0x00AAFF55, 0x00FFFF55,  // 52,
 134:Generated_Source\PSoC4/StripLights.c **** 0x0000FFAA, 0x0055FFAA, 0x00AAFFAA, 0x00FFFFAA,  // 56,
 135:Generated_Source\PSoC4/StripLights.c **** 0x0000FFFF, 0x0055FFFF, 0x00AAFFFF, 0x00FFFFFF,  // 60, Yellow,??, ??, White
 136:Generated_Source\PSoC4/StripLights.c **** 
 137:Generated_Source\PSoC4/StripLights.c **** // Misc ( 16 )  [ Index = 88 ]
 138:Generated_Source\PSoC4/StripLights.c **** 0x000080FF,  // SPRING_GREEN
 139:Generated_Source\PSoC4/StripLights.c **** 0x008000FF,  // TURQUOSE
 140:Generated_Source\PSoC4/StripLights.c **** 0x00FF00FF,  // CYAN
 141:Generated_Source\PSoC4/StripLights.c **** 0x00FF0080,  // OCEAN
 142:Generated_Source\PSoC4/StripLights.c **** 0x00FF8000,  // VIOLET
 143:Generated_Source\PSoC4/StripLights.c **** 0x0080FF00,  // RASPBERRY
 144:Generated_Source\PSoC4/StripLights.c **** 0x000000FF,  // GREEN
ARM GAS  C:\Users\JAMESS~1\AppData\Local\Temp\ccSFa4Kp.s 			page 4


 145:Generated_Source\PSoC4/StripLights.c **** 0x00202020,  // DIM WHITE
 146:Generated_Source\PSoC4/StripLights.c **** 0x00200000,  // DIM BLUE
 147:Generated_Source\PSoC4/StripLights.c **** 0x10000000,  // INVISIBLE
 148:Generated_Source\PSoC4/StripLights.c **** 0x0000FF00,  // Fire_Dark
 149:Generated_Source\PSoC4/StripLights.c **** 0x0000FF30,  // Fire_Light  // 00FF80
 150:Generated_Source\PSoC4/StripLights.c **** 0xFFFFFFFF,  // Full White
 151:Generated_Source\PSoC4/StripLights.c **** 0xFF000000,  // LED_WHITE
 152:Generated_Source\PSoC4/StripLights.c **** 0xFF808080,  // WHITE_RGB50
 153:Generated_Source\PSoC4/StripLights.c **** 0xFF404040,  // WHITE_RGB25
 154:Generated_Source\PSoC4/StripLights.c **** 
 155:Generated_Source\PSoC4/StripLights.c **** // Temperture Color Blue to Red (16) [ Index = 104 ]
 156:Generated_Source\PSoC4/StripLights.c **** 0x00FF0000, 0x00F01000, 0x00E02000, 0x00D03000,
 157:Generated_Source\PSoC4/StripLights.c **** 0x00C04000, 0x00B05000, 0x00A06000, 0x00907000,
 158:Generated_Source\PSoC4/StripLights.c **** 0x00808000, 0x00709000, 0x0060A000, 0x0050B000,
 159:Generated_Source\PSoC4/StripLights.c **** 0x0040C000, 0x0030D000, 0x0020E000, 0x0000FF00
 160:Generated_Source\PSoC4/StripLights.c **** };
 161:Generated_Source\PSoC4/StripLights.c **** #else  //xxBBGGRR (WS2811)
 162:Generated_Source\PSoC4/StripLights.c **** const uint32 StripLights_CLUT[ ] = {
 163:Generated_Source\PSoC4/StripLights.c **** //     (24)   [ Index = 0 ]
 164:Generated_Source\PSoC4/StripLights.c **** 0x0000FFFF,  // 0 Yellow
 165:Generated_Source\PSoC4/StripLights.c **** 0x0000FFCC,
 166:Generated_Source\PSoC4/StripLights.c **** 0x0000FF99,
 167:Generated_Source\PSoC4/StripLights.c **** 0x0000FF33,
 168:Generated_Source\PSoC4/StripLights.c **** 0x0000FF00,  // 5  Green
 169:Generated_Source\PSoC4/StripLights.c **** 0x0066B300,
 170:Generated_Source\PSoC4/StripLights.c **** 0x00999900, 
 171:Generated_Source\PSoC4/StripLights.c **** 0x00B36600, 
 172:Generated_Source\PSoC4/StripLights.c **** 0x00CC3300,  // 9 Blue
 173:Generated_Source\PSoC4/StripLights.c **** 0x00B31919, 
 174:Generated_Source\PSoC4/StripLights.c **** 0x00990033, 
 175:Generated_Source\PSoC4/StripLights.c **** 0x00990040, 
 176:Generated_Source\PSoC4/StripLights.c **** 0x00990066, 
 177:Generated_Source\PSoC4/StripLights.c **** 0x00990099, 
 178:Generated_Source\PSoC4/StripLights.c **** 0x009900CC, 
 179:Generated_Source\PSoC4/StripLights.c **** 0x006600E6, 
 180:Generated_Source\PSoC4/StripLights.c **** 0x000000FF, 
 181:Generated_Source\PSoC4/StripLights.c **** 0x000033FF, 
 182:Generated_Source\PSoC4/StripLights.c **** 0x000066FF, 
 183:Generated_Source\PSoC4/StripLights.c **** 0x000080FF, 
 184:Generated_Source\PSoC4/StripLights.c **** 0x000080FF,  // 20 Orange
 185:Generated_Source\PSoC4/StripLights.c **** 0x0000B2FF, 
 186:Generated_Source\PSoC4/StripLights.c **** 0x0000CCFF, 
 187:Generated_Source\PSoC4/StripLights.c **** 0x0000E5FF,
 188:Generated_Source\PSoC4/StripLights.c **** // #24
 189:Generated_Source\PSoC4/StripLights.c **** 
 190:Generated_Source\PSoC4/StripLights.c **** //xxBBGGRR  (64)  [ Index = 24 ]
 191:Generated_Source\PSoC4/StripLights.c **** 0x00000000, 0x00550000, 0x00AA0000, 0x00FF0000,  // 0, Black,  LtBlue, MBlue, Blue
 192:Generated_Source\PSoC4/StripLights.c **** 0x00005500, 0x00555500, 0x00AA5500, 0x00FF5500,  // 4, LtGreen
 193:Generated_Source\PSoC4/StripLights.c **** 0x0000AA00, 0x0055AA00, 0x00AAAA00, 0x00FFAA00,  // 8, MGreen
 194:Generated_Source\PSoC4/StripLights.c **** 0x0000FF00, 0x0055FF00, 0x00AAFF00, 0x00FFFF00,  // 12 Green
 195:Generated_Source\PSoC4/StripLights.c **** 
 196:Generated_Source\PSoC4/StripLights.c **** 0x00000055, 0x00550055, 0x00AA0055, 0x00FF0055,  // 16, LtRed
 197:Generated_Source\PSoC4/StripLights.c **** 0x00005555, 0x00555555, 0x00AA5555, 0x00FF5555,  // 20, LtYellow
 198:Generated_Source\PSoC4/StripLights.c **** 0x0000AA55, 0x0055AA55, 0x00AAAA55, 0x00FFAA55,  // 24, 
 199:Generated_Source\PSoC4/StripLights.c **** 0x0000FF55, 0x0055FF55, 0x00AAFF55, 0x00FFFF55,  // 28,
 200:Generated_Source\PSoC4/StripLights.c **** 
 201:Generated_Source\PSoC4/StripLights.c **** 0x000000AA, 0x005500AA, 0x00AA00AA, 0x00FF00AA,  // 32, MRed
ARM GAS  C:\Users\JAMESS~1\AppData\Local\Temp\ccSFa4Kp.s 			page 5


 202:Generated_Source\PSoC4/StripLights.c **** 0x000055AA, 0x005555AA, 0x00AA55AA, 0x00FF55AA,  // 36, 
 203:Generated_Source\PSoC4/StripLights.c **** 0x0000AAAA, 0x0055AAAA, 0x00AAAAAA, 0x00FFAAAA,  // 55, 
 204:Generated_Source\PSoC4/StripLights.c **** 0x0000FFAA, 0x0055FFAA, 0x00AAFFAA, 0x00FFFFAA,  // 44, 
 205:Generated_Source\PSoC4/StripLights.c **** 
 206:Generated_Source\PSoC4/StripLights.c **** 0x000000FF, 0x005500FF, 0x00AA00FF, 0x00F00FFF,  // 48, Red, ??, ??, Magenta
 207:Generated_Source\PSoC4/StripLights.c **** 0x000055FF, 0x005555FF, 0x00AA55FF, 0x00FF55FF,  // 52,
 208:Generated_Source\PSoC4/StripLights.c **** 0x0000AAFF, 0x0055AAFF, 0x00AAAAFF, 0x00FFAAFF,  // 56,
 209:Generated_Source\PSoC4/StripLights.c **** 0x0000FFFF, 0x0055FFFF, 0x00AAFFFF, 0x00FFFFFF,  // 60, Yellow,??, ??, White
 210:Generated_Source\PSoC4/StripLights.c **** 
 211:Generated_Source\PSoC4/StripLights.c **** // Misc ( 16 )  [ Index = 88 ]   //xxBBGGRR
 212:Generated_Source\PSoC4/StripLights.c **** 0x0000FF80,  // SPRING_GREEN
 213:Generated_Source\PSoC4/StripLights.c **** 0x0080FF00,  // TURQUOSE
 214:Generated_Source\PSoC4/StripLights.c **** 0x00FFFF00,  // CYAN
 215:Generated_Source\PSoC4/StripLights.c **** 0x00FF8000,  // OCEAN
 216:Generated_Source\PSoC4/StripLights.c **** 0x00FF0080,  // VIOLET
 217:Generated_Source\PSoC4/StripLights.c **** 0x008000FF,  // RASPBERRY
 218:Generated_Source\PSoC4/StripLights.c **** 0x0000FF00,  // GREEN
 219:Generated_Source\PSoC4/StripLights.c **** 0x00202020,  // DIM WHITE
 220:Generated_Source\PSoC4/StripLights.c **** 0x00200000,  // DIM BLUE
 221:Generated_Source\PSoC4/StripLights.c **** 0x10000000,  // INVISIBLE
 222:Generated_Source\PSoC4/StripLights.c **** 0x000000FF,  // Fire_Dark
 223:Generated_Source\PSoC4/StripLights.c **** 0x000030FF,  // Fire_Light  // 0080FF
 224:Generated_Source\PSoC4/StripLights.c **** 0xFFFFFFFF,  // Full White
 225:Generated_Source\PSoC4/StripLights.c **** 0xFF000000,  // White_LED
 226:Generated_Source\PSoC4/StripLights.c **** 0xFF808080,  // WHITE_RGB50
 227:Generated_Source\PSoC4/StripLights.c **** 0xFF404040,  // WHITE_RGB25
 228:Generated_Source\PSoC4/StripLights.c **** 
 229:Generated_Source\PSoC4/StripLights.c **** // Temperture Color Blue to Red (16) [ Index = 104 ]
 230:Generated_Source\PSoC4/StripLights.c **** 0x00FF0000, 0x00F00010, 0x00E00020, 0x00D00030,
 231:Generated_Source\PSoC4/StripLights.c **** 0x00C00040, 0x00B00050, 0x00A00060, 0x00900070,
 232:Generated_Source\PSoC4/StripLights.c **** 0x00800080, 0x00700090, 0x006000A0, 0x005000B0,
 233:Generated_Source\PSoC4/StripLights.c **** 0x004000C0, 0x003000D0, 0x002000E0, 0x000000FF
 234:Generated_Source\PSoC4/StripLights.c **** };
 235:Generated_Source\PSoC4/StripLights.c **** #endif
 236:Generated_Source\PSoC4/StripLights.c **** 
 237:Generated_Source\PSoC4/StripLights.c **** 
 238:Generated_Source\PSoC4/StripLights.c **** 
 239:Generated_Source\PSoC4/StripLights.c **** /*******************************************************************************
 240:Generated_Source\PSoC4/StripLights.c **** * Function Name: StripLights_Start
 241:Generated_Source\PSoC4/StripLights.c **** ********************************************************************************
 242:Generated_Source\PSoC4/StripLights.c **** * Summary:
 243:Generated_Source\PSoC4/StripLights.c **** *  Initialize the hardware. 
 244:Generated_Source\PSoC4/StripLights.c **** *
 245:Generated_Source\PSoC4/StripLights.c **** * Parameters:  
 246:Generated_Source\PSoC4/StripLights.c **** *  void  
 247:Generated_Source\PSoC4/StripLights.c **** *
 248:Generated_Source\PSoC4/StripLights.c **** * Return: 
 249:Generated_Source\PSoC4/StripLights.c **** *  void
 250:Generated_Source\PSoC4/StripLights.c **** *
 251:Generated_Source\PSoC4/StripLights.c **** *******************************************************************************/
 252:Generated_Source\PSoC4/StripLights.c **** void StripLights_Start()
 253:Generated_Source\PSoC4/StripLights.c **** {
 254:Generated_Source\PSoC4/StripLights.c ****     extern uint8 StripLights_initvar;
 255:Generated_Source\PSoC4/StripLights.c ****     extern uint32 StripLights_refreshComplete;
 256:Generated_Source\PSoC4/StripLights.c **** 
 257:Generated_Source\PSoC4/StripLights.c ****     #if (CY_PSOC3 || CY_PSOC5LP)
 258:Generated_Source\PSoC4/StripLights.c ****         int32   StripLights_realClock; 
ARM GAS  C:\Users\JAMESS~1\AppData\Local\Temp\ccSFa4Kp.s 			page 6


 259:Generated_Source\PSoC4/StripLights.c ****         int16   StripLights_period;
 260:Generated_Source\PSoC4/StripLights.c ****         int16   StripLights_dataZero;
 261:Generated_Source\PSoC4/StripLights.c ****         int16   StripLights_dataOne;
 262:Generated_Source\PSoC4/StripLights.c ****     #endif /* CY_PSOC5A */
 263:Generated_Source\PSoC4/StripLights.c **** 
 264:Generated_Source\PSoC4/StripLights.c ****     StripLights_ACTL0_REG = StripLights_DISABLE_FIFO;
 265:Generated_Source\PSoC4/StripLights.c **** 
 266:Generated_Source\PSoC4/StripLights.c ****     #if (CY_PSOC3 || CY_PSOC5LP)
 267:Generated_Source\PSoC4/StripLights.c ****         StripLights_realClock = (int32)StripLights_INPUT_CLOCK / (int32)(StripLights_Clock_DIV_LSB 
 268:Generated_Source\PSoC4/StripLights.c ****         StripLights_period    = (int16)(StripLights_realClock/StripLights_WS281X_CLOCK );
 269:Generated_Source\PSoC4/StripLights.c ****         
 270:Generated_Source\PSoC4/StripLights.c ****         StripLights_dataZero  = ((StripLights_period * StripLights_TIME_T0H)/StripLights_TIME_TL_TH
 271:Generated_Source\PSoC4/StripLights.c ****         StripLights_dataOne   = ((StripLights_period * StripLights_TIME_T1H)/StripLights_TIME_TL_TH
 272:Generated_Source\PSoC4/StripLights.c ****         
 273:Generated_Source\PSoC4/StripLights.c ****         StripLights_Period    = (uint8)(StripLights_period - 1);
 274:Generated_Source\PSoC4/StripLights.c ****         StripLights_Compare0  = (uint8)(StripLights_period - StripLights_dataZero);
 275:Generated_Source\PSoC4/StripLights.c ****         StripLights_Compare1  = (uint8)(StripLights_period - StripLights_dataOne);
 276:Generated_Source\PSoC4/StripLights.c **** 
 277:Generated_Source\PSoC4/StripLights.c ****     #elif (CY_PSOC4)
 278:Generated_Source\PSoC4/StripLights.c ****  
 279:Generated_Source\PSoC4/StripLights.c ****         StripLights_Period   = (uint8)StripLights_PERIOD-1;
 280:Generated_Source\PSoC4/StripLights.c ****         StripLights_Compare0 = (uint8)StripLights_COMPARE_ZERO;
 281:Generated_Source\PSoC4/StripLights.c ****         StripLights_Compare1 = (uint8)StripLights_COMPARE_ONE;        
 282:Generated_Source\PSoC4/StripLights.c ****     #endif /* CY_PSOC5A */
 283:Generated_Source\PSoC4/StripLights.c **** 
 284:Generated_Source\PSoC4/StripLights.c ****     
 285:Generated_Source\PSoC4/StripLights.c ****     StripLights_CONTROL = StripLights_ENABLE;
 286:Generated_Source\PSoC4/StripLights.c ****     StripLights_MemClear(StripLights_OFF);
 287:Generated_Source\PSoC4/StripLights.c ****     StripLights_CONTROL = StripLights_DISABLE;
 288:Generated_Source\PSoC4/StripLights.c ****     
 289:Generated_Source\PSoC4/StripLights.c ****     StripLights_SetFont( StripLights_FONT_5X7);
 290:Generated_Source\PSoC4/StripLights.c ****     
 291:Generated_Source\PSoC4/StripLights.c ****     /* Set no dimming, full brightness */
 292:Generated_Source\PSoC4/StripLights.c ****     StripLights_Dim(0); 
 293:Generated_Source\PSoC4/StripLights.c **** 
 294:Generated_Source\PSoC4/StripLights.c ****     if(StripLights_initvar == 0)
 295:Generated_Source\PSoC4/StripLights.c ****     {
 296:Generated_Source\PSoC4/StripLights.c **** 
 297:Generated_Source\PSoC4/StripLights.c ****         StripLights_initvar = 1;
 298:Generated_Source\PSoC4/StripLights.c ****  
 299:Generated_Source\PSoC4/StripLights.c ****          /* Start and set interrupt vector */
 300:Generated_Source\PSoC4/StripLights.c **** 
 301:Generated_Source\PSoC4/StripLights.c **** #if(StripLights_TRANSFER == StripLights_TRANSFER_ISR)
 302:Generated_Source\PSoC4/StripLights.c ****        {
 303:Generated_Source\PSoC4/StripLights.c ****            StripLights_cisr_StartEx(StripLights_CISR);
 304:Generated_Source\PSoC4/StripLights.c **** 		   StripLights_fisr_StartEx(StripLights_FISR);
 305:Generated_Source\PSoC4/StripLights.c ****         
 306:Generated_Source\PSoC4/StripLights.c ****            /* Set the ISRs to the highest priority */
 307:Generated_Source\PSoC4/StripLights.c ****            StripLights_cisr_SetPriority(1u);
 308:Generated_Source\PSoC4/StripLights.c ****            StripLights_fisr_SetPriority(0u);
 309:Generated_Source\PSoC4/StripLights.c ****        }
 310:Generated_Source\PSoC4/StripLights.c **** #endif       
 311:Generated_Source\PSoC4/StripLights.c ****        if(StripLights_TRANSFER == StripLights_TRANSFER_FIRMWARE)
 312:Generated_Source\PSoC4/StripLights.c ****        {
 313:Generated_Source\PSoC4/StripLights.c ****            StripLights_CONTROL = StripLights_ENABLE;    
 314:Generated_Source\PSoC4/StripLights.c ****        }
 315:Generated_Source\PSoC4/StripLights.c ****     }
ARM GAS  C:\Users\JAMESS~1\AppData\Local\Temp\ccSFa4Kp.s 			page 7


 316:Generated_Source\PSoC4/StripLights.c ****     StripLights_refreshComplete = 1;
 317:Generated_Source\PSoC4/StripLights.c **** }
 318:Generated_Source\PSoC4/StripLights.c **** 
 319:Generated_Source\PSoC4/StripLights.c **** /*******************************************************************************
 320:Generated_Source\PSoC4/StripLights.c **** * Function Name: StripLights_SetCriticalFuncs
 321:Generated_Source\PSoC4/StripLights.c **** ********************************************************************************
 322:Generated_Source\PSoC4/StripLights.c **** * Summary:
 323:Generated_Source\PSoC4/StripLights.c **** *   Set the enter and exit critical functions
 324:Generated_Source\PSoC4/StripLights.c **** *
 325:Generated_Source\PSoC4/StripLights.c **** * Parameters:  
 326:Generated_Source\PSoC4/StripLights.c **** *  void  
 327:Generated_Source\PSoC4/StripLights.c **** *
 328:Generated_Source\PSoC4/StripLights.c **** * Return: 
 329:Generated_Source\PSoC4/StripLights.c **** *  void
 330:Generated_Source\PSoC4/StripLights.c **** *
 331:Generated_Source\PSoC4/StripLights.c **** *******************************************************************************/
 332:Generated_Source\PSoC4/StripLights.c **** void StripLights_SetCriticalFuncs(funcPtr EnCriticalFunc, funcPtr ExCriticalFunc)
 333:Generated_Source\PSoC4/StripLights.c **** {
 334:Generated_Source\PSoC4/StripLights.c ****     StripLights_EnterCritical = EnCriticalFunc;
 335:Generated_Source\PSoC4/StripLights.c ****     StripLights_ExitCritical  = ExCriticalFunc;   
 336:Generated_Source\PSoC4/StripLights.c **** }
 337:Generated_Source\PSoC4/StripLights.c **** 
 338:Generated_Source\PSoC4/StripLights.c **** /*******************************************************************************
 339:Generated_Source\PSoC4/StripLights.c **** * Function Name: StripLights_TriggerWaitDelay
 340:Generated_Source\PSoC4/StripLights.c **** ********************************************************************************
 341:Generated_Source\PSoC4/StripLights.c **** * Summary:
 342:Generated_Source\PSoC4/StripLights.c **** *   Update the LEDs then wait for completion.
 343:Generated_Source\PSoC4/StripLights.c **** *
 344:Generated_Source\PSoC4/StripLights.c **** * Parameters:  
 345:Generated_Source\PSoC4/StripLights.c **** *  void  
 346:Generated_Source\PSoC4/StripLights.c **** *
 347:Generated_Source\PSoC4/StripLights.c **** * Return: 
 348:Generated_Source\PSoC4/StripLights.c **** *  void
 349:Generated_Source\PSoC4/StripLights.c **** *
 350:Generated_Source\PSoC4/StripLights.c **** *******************************************************************************/
 351:Generated_Source\PSoC4/StripLights.c **** void StripLights_TriggerWaitDelay(uint32 delay)
 352:Generated_Source\PSoC4/StripLights.c **** {
 353:Generated_Source\PSoC4/StripLights.c **** 
 354:Generated_Source\PSoC4/StripLights.c ****     uint32 toCount = 0;
 355:Generated_Source\PSoC4/StripLights.c ****     
 356:Generated_Source\PSoC4/StripLights.c ****     // Call Critical section function here
 357:Generated_Source\PSoC4/StripLights.c ****     if(StripLights_EnterCritical != (funcPtr)0)
 358:Generated_Source\PSoC4/StripLights.c ****     {
 359:Generated_Source\PSoC4/StripLights.c ****         StripLights_EnterCritical();    
 360:Generated_Source\PSoC4/StripLights.c ****     }
 361:Generated_Source\PSoC4/StripLights.c ****     
 362:Generated_Source\PSoC4/StripLights.c ****     StripLights_Trigger(1);           // Trigger the LED update
 363:Generated_Source\PSoC4/StripLights.c ****     
 364:Generated_Source\PSoC4/StripLights.c ****     while( StripLights_Ready() == 0)
 365:Generated_Source\PSoC4/StripLights.c ****     {
 366:Generated_Source\PSoC4/StripLights.c ****         if(toCount > (StripLights_READY_TIMEOUT  * 10)) break; 
 367:Generated_Source\PSoC4/StripLights.c ****         CyDelayUs(100);  
 368:Generated_Source\PSoC4/StripLights.c ****         toCount++;
 369:Generated_Source\PSoC4/StripLights.c ****     }
 370:Generated_Source\PSoC4/StripLights.c ****     
 371:Generated_Source\PSoC4/StripLights.c ****     while(toCount < (delay*10)) 
 372:Generated_Source\PSoC4/StripLights.c ****     {
ARM GAS  C:\Users\JAMESS~1\AppData\Local\Temp\ccSFa4Kp.s 			page 8


 373:Generated_Source\PSoC4/StripLights.c ****         toCount++;
 374:Generated_Source\PSoC4/StripLights.c ****         CyDelayUs(100); 
 375:Generated_Source\PSoC4/StripLights.c ****     }
 376:Generated_Source\PSoC4/StripLights.c ****     
 377:Generated_Source\PSoC4/StripLights.c ****     
 378:Generated_Source\PSoC4/StripLights.c ****     // Call undo critical function here
 379:Generated_Source\PSoC4/StripLights.c ****       if(StripLights_ExitCritical != (funcPtr)0)
 380:Generated_Source\PSoC4/StripLights.c ****     {
 381:Generated_Source\PSoC4/StripLights.c ****         StripLights_ExitCritical();    
 382:Generated_Source\PSoC4/StripLights.c ****     }
 383:Generated_Source\PSoC4/StripLights.c ****     
 384:Generated_Source\PSoC4/StripLights.c ****     
 385:Generated_Source\PSoC4/StripLights.c **** }
 386:Generated_Source\PSoC4/StripLights.c **** 
 387:Generated_Source\PSoC4/StripLights.c **** /*******************************************************************************
 388:Generated_Source\PSoC4/StripLights.c **** * Function Name: StripLights_TriggerWait
 389:Generated_Source\PSoC4/StripLights.c **** ********************************************************************************
 390:Generated_Source\PSoC4/StripLights.c **** * Summary:
 391:Generated_Source\PSoC4/StripLights.c **** *   Update the LEDs then waits for completion.
 392:Generated_Source\PSoC4/StripLights.c **** *
 393:Generated_Source\PSoC4/StripLights.c **** * Parameters:  
 394:Generated_Source\PSoC4/StripLights.c ****   rst: Resets the row and column parameters.    
 395:Generated_Source\PSoC4/StripLights.c **** *
 396:Generated_Source\PSoC4/StripLights.c **** * Return: 
 397:Generated_Source\PSoC4/StripLights.c **** *  void
 398:Generated_Source\PSoC4/StripLights.c **** *
 399:Generated_Source\PSoC4/StripLights.c **** *******************************************************************************/
 400:Generated_Source\PSoC4/StripLights.c **** void StripLights_TriggerWait(uint32 rst)
 401:Generated_Source\PSoC4/StripLights.c **** {
 402:Generated_Source\PSoC4/StripLights.c **** 
 403:Generated_Source\PSoC4/StripLights.c ****     
 404:Generated_Source\PSoC4/StripLights.c ****     // Call Critical section function here
 405:Generated_Source\PSoC4/StripLights.c ****     if(StripLights_EnterCritical != (funcPtr)0)
 406:Generated_Source\PSoC4/StripLights.c ****     {
 407:Generated_Source\PSoC4/StripLights.c ****         StripLights_EnterCritical();    
 408:Generated_Source\PSoC4/StripLights.c ****     }
 409:Generated_Source\PSoC4/StripLights.c ****     
 410:Generated_Source\PSoC4/StripLights.c ****     StripLights_Trigger(rst);
 411:Generated_Source\PSoC4/StripLights.c ****     
 412:Generated_Source\PSoC4/StripLights.c ****     while( StripLights_Ready() == 0);
 413:Generated_Source\PSoC4/StripLights.c ****     
 414:Generated_Source\PSoC4/StripLights.c ****     
 415:Generated_Source\PSoC4/StripLights.c ****     // Call undo critical function here
 416:Generated_Source\PSoC4/StripLights.c ****       if(StripLights_ExitCritical != (funcPtr)0)
 417:Generated_Source\PSoC4/StripLights.c ****     {
 418:Generated_Source\PSoC4/StripLights.c ****         StripLights_ExitCritical();    
 419:Generated_Source\PSoC4/StripLights.c ****     }
 420:Generated_Source\PSoC4/StripLights.c ****     
 421:Generated_Source\PSoC4/StripLights.c ****     
 422:Generated_Source\PSoC4/StripLights.c **** }
 423:Generated_Source\PSoC4/StripLights.c **** 
 424:Generated_Source\PSoC4/StripLights.c **** 
 425:Generated_Source\PSoC4/StripLights.c **** /*******************************************************************************
 426:Generated_Source\PSoC4/StripLights.c **** * Function Name: StripLights_Trigger
 427:Generated_Source\PSoC4/StripLights.c **** ********************************************************************************
 428:Generated_Source\PSoC4/StripLights.c **** * Summary:
 429:Generated_Source\PSoC4/StripLights.c **** *   Update the LEDs with graphics memory.
ARM GAS  C:\Users\JAMESS~1\AppData\Local\Temp\ccSFa4Kp.s 			page 9


 430:Generated_Source\PSoC4/StripLights.c **** *
 431:Generated_Source\PSoC4/StripLights.c **** * Parameters:  
 432:Generated_Source\PSoC4/StripLights.c **** *  rst: Resets the row and column parameters.  
 433:Generated_Source\PSoC4/StripLights.c **** *
 434:Generated_Source\PSoC4/StripLights.c **** * Return: 
 435:Generated_Source\PSoC4/StripLights.c **** *  void
 436:Generated_Source\PSoC4/StripLights.c **** *
 437:Generated_Source\PSoC4/StripLights.c **** *******************************************************************************/
 438:Generated_Source\PSoC4/StripLights.c **** void StripLights_Trigger(uint32 rst)
 439:Generated_Source\PSoC4/StripLights.c **** {
 440:Generated_Source\PSoC4/StripLights.c ****     uint32 color;
 441:Generated_Source\PSoC4/StripLights.c ****     
 442:Generated_Source\PSoC4/StripLights.c ****     if(rst) 
 443:Generated_Source\PSoC4/StripLights.c ****     {
 444:Generated_Source\PSoC4/StripLights.c ****         StripLights_row = 0;  /* Reset the row */
 445:Generated_Source\PSoC4/StripLights.c ****         StripLights_Channel = 0;
 446:Generated_Source\PSoC4/StripLights.c ****     }
 447:Generated_Source\PSoC4/StripLights.c ****     
 448:Generated_Source\PSoC4/StripLights.c ****     #if(StripLights_MEMORY_TYPE == StripLights_MEMORY_RGB)
 449:Generated_Source\PSoC4/StripLights.c ****        color = StripLights_ledArray[StripLights_row][0];
 450:Generated_Source\PSoC4/StripLights.c ****     #else  /* Else use lookup table */
 451:Generated_Source\PSoC4/StripLights.c ****        color = StripLights_CLUT[ (StripLights_ledArray[StripLights_row][0]) ];
 452:Generated_Source\PSoC4/StripLights.c ****     #endif
 453:Generated_Source\PSoC4/StripLights.c ****     
 454:Generated_Source\PSoC4/StripLights.c ****      color = (color >> StripLights_DimShift) & StripLights_DimMask;
 455:Generated_Source\PSoC4/StripLights.c ****      
 456:Generated_Source\PSoC4/StripLights.c ****     #if(StripLights_GAMMA_CORRECTION == StripLights_GAMMA_ON)
 457:Generated_Source\PSoC4/StripLights.c ****         StripLights_DATA = StripLights_gamma[color & 0x000000FF];  // Write Green
 458:Generated_Source\PSoC4/StripLights.c ****         color = color >> 8;
 459:Generated_Source\PSoC4/StripLights.c ****         StripLights_DATA = StripLights_gamma[color & 0x000000FF];  // Write Red
 460:Generated_Source\PSoC4/StripLights.c ****         color = color >> 8;
 461:Generated_Source\PSoC4/StripLights.c ****         StripLights_DATA = StripLights_gamma[color & 0x000000FF];  // Write Blue
 462:Generated_Source\PSoC4/StripLights.c ****         #if(StripLights_CHIP == StripLights_CHIP_SF2812RGBW)
 463:Generated_Source\PSoC4/StripLights.c ****             color = color >> 8;
 464:Generated_Source\PSoC4/StripLights.c ****             StripLights_DATA = StripLights_gamma[color & 0x000000FF];  // Write White
 465:Generated_Source\PSoC4/StripLights.c ****         #endif
 466:Generated_Source\PSoC4/StripLights.c ****     #else
 467:Generated_Source\PSoC4/StripLights.c ****         StripLights_DATA = (uint8)(color & 0x000000FF);  // Write Green
 468:Generated_Source\PSoC4/StripLights.c ****         color = color >> 8;
 469:Generated_Source\PSoC4/StripLights.c ****         StripLights_DATA = (uint8)(color & 0x000000FF);  // Write Red
 470:Generated_Source\PSoC4/StripLights.c ****         color = color >> 8;
 471:Generated_Source\PSoC4/StripLights.c ****         StripLights_DATA = (uint8)(color & 0x000000FF);  // Write Blue  
 472:Generated_Source\PSoC4/StripLights.c ****         #if(StripLights_CHIP == StripLights_CHIP_SF2812RGBW)
 473:Generated_Source\PSoC4/StripLights.c ****             color = color >> 8;
 474:Generated_Source\PSoC4/StripLights.c ****         StripLights_DATA = (uint8)(color & 0x000000FF);  // Write White 
 475:Generated_Source\PSoC4/StripLights.c ****         #endif
 476:Generated_Source\PSoC4/StripLights.c ****     #endif
 477:Generated_Source\PSoC4/StripLights.c ****   
 478:Generated_Source\PSoC4/StripLights.c ****     StripLights_ledIndex = 1;
 479:Generated_Source\PSoC4/StripLights.c **** 	
 480:Generated_Source\PSoC4/StripLights.c **** 	StripLights_CONTROL = StripLights_ENABLE | StripLights_XFRCMPT_IRQ_EN | StripLights_FIFO_IRQ_EN; 
 481:Generated_Source\PSoC4/StripLights.c ****     StripLights_refreshComplete = 0;
 482:Generated_Source\PSoC4/StripLights.c **** }
 483:Generated_Source\PSoC4/StripLights.c **** 
 484:Generated_Source\PSoC4/StripLights.c **** /*******************************************************************************
 485:Generated_Source\PSoC4/StripLights.c **** * Function Name: StripLights_Ready
 486:Generated_Source\PSoC4/StripLights.c **** ********************************************************************************
ARM GAS  C:\Users\JAMESS~1\AppData\Local\Temp\ccSFa4Kp.s 			page 10


 487:Generated_Source\PSoC4/StripLights.c **** * Summary:
 488:Generated_Source\PSoC4/StripLights.c **** *  Checks to see if transfer is complete.
 489:Generated_Source\PSoC4/StripLights.c **** *
 490:Generated_Source\PSoC4/StripLights.c **** * Parameters:  
 491:Generated_Source\PSoC4/StripLights.c **** *  none  
 492:Generated_Source\PSoC4/StripLights.c **** *
 493:Generated_Source\PSoC4/StripLights.c **** * Return: 
 494:Generated_Source\PSoC4/StripLights.c **** *  Zero if not complete, non-zero if transfer complete.
 495:Generated_Source\PSoC4/StripLights.c **** *
 496:Generated_Source\PSoC4/StripLights.c **** *******************************************************************************/
 497:Generated_Source\PSoC4/StripLights.c **** uint32 StripLights_Ready(void)
 498:Generated_Source\PSoC4/StripLights.c **** {
 499:Generated_Source\PSoC4/StripLights.c ****     if(StripLights_refreshComplete )
 500:Generated_Source\PSoC4/StripLights.c ****     {
 501:Generated_Source\PSoC4/StripLights.c ****         StripLights_CONTROL = StripLights_DISABLE;
 502:Generated_Source\PSoC4/StripLights.c ****         return((uint32)1);
 503:Generated_Source\PSoC4/StripLights.c ****     }
 504:Generated_Source\PSoC4/StripLights.c ****     else
 505:Generated_Source\PSoC4/StripLights.c ****     {
 506:Generated_Source\PSoC4/StripLights.c ****          return((uint32)0);
 507:Generated_Source\PSoC4/StripLights.c ****     }
 508:Generated_Source\PSoC4/StripLights.c **** }
 509:Generated_Source\PSoC4/StripLights.c **** 
 510:Generated_Source\PSoC4/StripLights.c **** 
 511:Generated_Source\PSoC4/StripLights.c **** /*******************************************************************************
 512:Generated_Source\PSoC4/StripLights.c **** * Function Name: StripLights_Stop
 513:Generated_Source\PSoC4/StripLights.c **** ********************************************************************************
 514:Generated_Source\PSoC4/StripLights.c **** * Summary:
 515:Generated_Source\PSoC4/StripLights.c **** *  Stop all transfers.
 516:Generated_Source\PSoC4/StripLights.c **** *
 517:Generated_Source\PSoC4/StripLights.c **** * Parameters:  
 518:Generated_Source\PSoC4/StripLights.c **** *  None 
 519:Generated_Source\PSoC4/StripLights.c **** *
 520:Generated_Source\PSoC4/StripLights.c **** * Return: 
 521:Generated_Source\PSoC4/StripLights.c **** *  void
 522:Generated_Source\PSoC4/StripLights.c **** *
 523:Generated_Source\PSoC4/StripLights.c **** *******************************************************************************/
 524:Generated_Source\PSoC4/StripLights.c **** void StripLights_Stop()
 525:Generated_Source\PSoC4/StripLights.c **** {
 526:Generated_Source\PSoC4/StripLights.c ****     StripLights_CONTROL = StripLights_DISABLE;
 527:Generated_Source\PSoC4/StripLights.c **** }
 528:Generated_Source\PSoC4/StripLights.c **** 
 529:Generated_Source\PSoC4/StripLights.c **** uint32 StripLights_getColor( uint32 color)
 530:Generated_Source\PSoC4/StripLights.c **** {
 531:Generated_Source\PSoC4/StripLights.c ****     #if(StripLights_MEMORY_TYPE == StripLights_MEMORY_RGB)
 532:Generated_Source\PSoC4/StripLights.c ****     color = StripLights_CLUT[color];
 533:Generated_Source\PSoC4/StripLights.c ****     #endif
 534:Generated_Source\PSoC4/StripLights.c **** 
 535:Generated_Source\PSoC4/StripLights.c ****     return(color);
 536:Generated_Source\PSoC4/StripLights.c **** }
 537:Generated_Source\PSoC4/StripLights.c **** 
 538:Generated_Source\PSoC4/StripLights.c **** /*******************************************************************************
 539:Generated_Source\PSoC4/StripLights.c **** * Function Name: StripLights_ColorInc
 540:Generated_Source\PSoC4/StripLights.c **** ********************************************************************************
 541:Generated_Source\PSoC4/StripLights.c **** * Summary:
 542:Generated_Source\PSoC4/StripLights.c **** *  Increment color throught the color lookup table.
 543:Generated_Source\PSoC4/StripLights.c **** *
ARM GAS  C:\Users\JAMESS~1\AppData\Local\Temp\ccSFa4Kp.s 			page 11


 544:Generated_Source\PSoC4/StripLights.c **** * Parameters:  
 545:Generated_Source\PSoC4/StripLights.c **** *  uint32 incValue: Increment through color table by incValue. 
 546:Generated_Source\PSoC4/StripLights.c **** *
 547:Generated_Source\PSoC4/StripLights.c **** * Return: Color at next location.
 548:Generated_Source\PSoC4/StripLights.c **** *  
 549:Generated_Source\PSoC4/StripLights.c **** *
 550:Generated_Source\PSoC4/StripLights.c **** *******************************************************************************/
 551:Generated_Source\PSoC4/StripLights.c **** uint32 StripLights_ColorInc(uint32 incValue)
 552:Generated_Source\PSoC4/StripLights.c **** {
 553:Generated_Source\PSoC4/StripLights.c ****     uint32 color;
 554:Generated_Source\PSoC4/StripLights.c ****     extern const uint32 StripLights_CLUT[];
 555:Generated_Source\PSoC4/StripLights.c ****     static uint32 colorIndex = 0;
 556:Generated_Source\PSoC4/StripLights.c ****     
 557:Generated_Source\PSoC4/StripLights.c ****     colorIndex += incValue;
 558:Generated_Source\PSoC4/StripLights.c ****     colorIndex = colorIndex % StripLights_COLOR_WHEEL_SIZE;
 559:Generated_Source\PSoC4/StripLights.c **** 
 560:Generated_Source\PSoC4/StripLights.c ****     #if(StripLights_MEMORY_TYPE == StripLights_MEMORY_RGB)
 561:Generated_Source\PSoC4/StripLights.c ****        color = StripLights_CLUT[ colorIndex ];
 562:Generated_Source\PSoC4/StripLights.c ****     #else
 563:Generated_Source\PSoC4/StripLights.c ****         color = colorIndex;
 564:Generated_Source\PSoC4/StripLights.c ****     #endif
 565:Generated_Source\PSoC4/StripLights.c ****     return(color);
 566:Generated_Source\PSoC4/StripLights.c **** }
 567:Generated_Source\PSoC4/StripLights.c **** /*****************************************************************************
 568:Generated_Source\PSoC4/StripLights.c **** * Function Name: StripLights_FISR
 569:Generated_Source\PSoC4/StripLights.c **** ******************************************************************************
 570:Generated_Source\PSoC4/StripLights.c **** *
 571:Generated_Source\PSoC4/StripLights.c **** * Summary:
 572:Generated_Source\PSoC4/StripLights.c **** *  Interrupt service handler for data transfer for each LED 
 573:Generated_Source\PSoC4/StripLights.c **** *
 574:Generated_Source\PSoC4/StripLights.c **** * Parameters:  
 575:Generated_Source\PSoC4/StripLights.c **** *  void
 576:Generated_Source\PSoC4/StripLights.c **** *
 577:Generated_Source\PSoC4/StripLights.c **** * Return: 
 578:Generated_Source\PSoC4/StripLights.c **** *  void 
 579:Generated_Source\PSoC4/StripLights.c **** *
 580:Generated_Source\PSoC4/StripLights.c **** * Reentrant: 
 581:Generated_Source\PSoC4/StripLights.c **** *  No
 582:Generated_Source\PSoC4/StripLights.c **** *
 583:Generated_Source\PSoC4/StripLights.c **** *****************************************************************************/
 584:Generated_Source\PSoC4/StripLights.c **** CY_ISR( StripLights_FISR)
 585:Generated_Source\PSoC4/StripLights.c **** {
  28              		.loc 1 585 0
  29              		.cfi_startproc
  30              		@ args = 0, pretend = 0, frame = 0
  31              		@ frame_needed = 0, uses_anonymous_args = 0
  32 0000 70B5     		push	{r4, r5, r6, lr}
  33              		.cfi_def_cfa_offset 16
  34              		.cfi_offset 4, -16
  35              		.cfi_offset 5, -12
  36              		.cfi_offset 6, -8
  37              		.cfi_offset 14, -4
 586:Generated_Source\PSoC4/StripLights.c ****     extern uint32  StripLights_DimMask;
 587:Generated_Source\PSoC4/StripLights.c ****     extern uint32  StripLights_DimShift;
 588:Generated_Source\PSoC4/StripLights.c ****     uint32 static color;
 589:Generated_Source\PSoC4/StripLights.c ****    
 590:Generated_Source\PSoC4/StripLights.c ****     #if(StripLights_MEMORY_TYPE == StripLights_MEMORY_RGB)
ARM GAS  C:\Users\JAMESS~1\AppData\Local\Temp\ccSFa4Kp.s 			page 12


 591:Generated_Source\PSoC4/StripLights.c ****         color = StripLights_ledArray[StripLights_row][StripLights_ledIndex];
  38              		.loc 1 591 0
  39 0002 1449     		ldr	r1, .L3
  40 0004 0A68     		ldr	r2, [r1]
  41 0006 D300     		lsls	r3, r2, #3
  42 0008 9B1A     		subs	r3, r3, r2
  43 000a 5B00     		lsls	r3, r3, #1
  44 000c 4A68     		ldr	r2, [r1, #4]
  45 000e 9B18     		adds	r3, r3, r2
  46 0010 9B00     		lsls	r3, r3, #2
  47 0012 1148     		ldr	r0, .L3+4
  48 0014 1B58     		ldr	r3, [r3, r0]
 592:Generated_Source\PSoC4/StripLights.c ****     #else  /* Else use lookup table */
 593:Generated_Source\PSoC4/StripLights.c ****         color = StripLights_CLUT[ (StripLights_ledArray[StripLights_row][StripLights_ledIndex]) ];
 594:Generated_Source\PSoC4/StripLights.c ****     #endif
 595:Generated_Source\PSoC4/StripLights.c **** 
 596:Generated_Source\PSoC4/StripLights.c ****     color = (color >> StripLights_DimShift) & StripLights_DimMask;  
  49              		.loc 1 596 0
  50 0016 1148     		ldr	r0, .L3+8
  51 0018 0068     		ldr	r0, [r0]
  52 001a C340     		lsrs	r3, r3, r0
  53 001c 1048     		ldr	r0, .L3+12
  54 001e 0068     		ldr	r0, [r0]
  55 0020 0340     		ands	r3, r0
 597:Generated_Source\PSoC4/StripLights.c **** 
 598:Generated_Source\PSoC4/StripLights.c ****     #if(StripLights_GAMMA_CORRECTION == StripLights_GAMMA_ON)
 599:Generated_Source\PSoC4/StripLights.c **** 
 600:Generated_Source\PSoC4/StripLights.c ****         StripLights_DATA = StripLights_gamma[color & 0x000000FF];  // Write Green
  56              		.loc 1 600 0
  57 0022 FF25     		movs	r5, #255
  58 0024 2800     		movs	r0, r5
  59 0026 1840     		ands	r0, r3
  60 0028 0E4C     		ldr	r4, .L3+16
  61 002a 265C     		ldrb	r6, [r4, r0]
  62 002c 0E48     		ldr	r0, .L3+20
  63 002e 0670     		strb	r6, [r0]
 601:Generated_Source\PSoC4/StripLights.c ****         color = color >> 8;
  64              		.loc 1 601 0
  65 0030 1E0A     		lsrs	r6, r3, #8
 602:Generated_Source\PSoC4/StripLights.c ****         StripLights_DATA = StripLights_gamma[color & 0x000000FF];  // Write Red
  66              		.loc 1 602 0
  67 0032 2E40     		ands	r6, r5
  68 0034 A65D     		ldrb	r6, [r4, r6]
  69 0036 0670     		strb	r6, [r0]
 603:Generated_Source\PSoC4/StripLights.c ****         color = color >> 8;
  70              		.loc 1 603 0
  71 0038 1B0C     		lsrs	r3, r3, #16
  72 003a 8B60     		str	r3, [r1, #8]
 604:Generated_Source\PSoC4/StripLights.c ****         StripLights_DATA = StripLights_gamma[color & 0x000000FF];  // Write Blue
  73              		.loc 1 604 0
  74 003c 2B40     		ands	r3, r5
  75 003e E35C     		ldrb	r3, [r4, r3]
  76 0040 0370     		strb	r3, [r0]
 605:Generated_Source\PSoC4/StripLights.c ****         #if(StripLights_CHIP == StripLights_CHIP_SF2812RGBW)
 606:Generated_Source\PSoC4/StripLights.c ****             color = color >> 8;
 607:Generated_Source\PSoC4/StripLights.c ****             StripLights_DATA = StripLights_gamma[color & 0x000000FF];  // Write White 
 608:Generated_Source\PSoC4/StripLights.c ****         #endif
ARM GAS  C:\Users\JAMESS~1\AppData\Local\Temp\ccSFa4Kp.s 			page 13


 609:Generated_Source\PSoC4/StripLights.c ****     #else
 610:Generated_Source\PSoC4/StripLights.c **** 
 611:Generated_Source\PSoC4/StripLights.c ****         StripLights_DATA = (uint8)(color & 0x000000FF);  // Write Green
 612:Generated_Source\PSoC4/StripLights.c ****         color = color >> 8;
 613:Generated_Source\PSoC4/StripLights.c ****         StripLights_DATA = (uint8)(color & 0x000000FF);  // Write Red
 614:Generated_Source\PSoC4/StripLights.c ****         color = color >> 8;
 615:Generated_Source\PSoC4/StripLights.c ****         StripLights_DATA = (uint8)(color & 0x000000FF);  // Write Blue    
 616:Generated_Source\PSoC4/StripLights.c ****          #if(StripLights_CHIP == StripLights_CHIP_SF2812RGBW)
 617:Generated_Source\PSoC4/StripLights.c ****             color = color >> 8;
 618:Generated_Source\PSoC4/StripLights.c ****             StripLights_DATA = (uint8)(color & 0x000000FF);  // Write White 
 619:Generated_Source\PSoC4/StripLights.c ****         #endif 
 620:Generated_Source\PSoC4/StripLights.c ****     #endif
 621:Generated_Source\PSoC4/StripLights.c ****     
 622:Generated_Source\PSoC4/StripLights.c ****     StripLights_ledIndex++;
  77              		.loc 1 622 0
  78 0042 0132     		adds	r2, r2, #1
  79 0044 4A60     		str	r2, [r1, #4]
 623:Generated_Source\PSoC4/StripLights.c ****     if(StripLights_ledIndex >= StripLights_ARRAY_COLS)
  80              		.loc 1 623 0
  81 0046 0D2A     		cmp	r2, #13
  82 0048 02D9     		bls	.L1
 624:Generated_Source\PSoC4/StripLights.c ****     {
 625:Generated_Source\PSoC4/StripLights.c ****         StripLights_CONTROL = StripLights_ENABLE | StripLights_XFRCMPT_IRQ_EN; 
  83              		.loc 1 625 0
  84 004a 1122     		movs	r2, #17
  85 004c 074B     		ldr	r3, .L3+24
  86 004e 1A70     		strb	r2, [r3]
  87              	.L1:
 626:Generated_Source\PSoC4/StripLights.c ****     }
 627:Generated_Source\PSoC4/StripLights.c **** }
  88              		.loc 1 627 0
  89              		@ sp needed
  90 0050 70BD     		pop	{r4, r5, r6, pc}
  91              	.L4:
  92 0052 C046     		.align	2
  93              	.L3:
  94 0054 00000000 		.word	.LANCHOR0
  95 0058 00000000 		.word	StripLights_ledArray
  96 005c 00000000 		.word	StripLights_DimShift
  97 0060 00000000 		.word	StripLights_DimMask
  98 0064 00000000 		.word	.LANCHOR1
  99 0068 42000F40 		.word	1074724930
 100 006c 72000F40 		.word	1074724978
 101              		.cfi_endproc
 102              	.LFE41:
 103              		.size	StripLights_FISR, .-StripLights_FISR
 104              		.section	.text.StripLights_CISR,"ax",%progbits
 105              		.align	2
 106              		.global	StripLights_CISR
 107              		.code	16
 108              		.thumb_func
 109              		.type	StripLights_CISR, %function
 110              	StripLights_CISR:
 111              	.LFB42:
 628:Generated_Source\PSoC4/StripLights.c **** 
 629:Generated_Source\PSoC4/StripLights.c **** /*****************************************************************************
 630:Generated_Source\PSoC4/StripLights.c **** * Function Name: StripLights_CISR
ARM GAS  C:\Users\JAMESS~1\AppData\Local\Temp\ccSFa4Kp.s 			page 14


 631:Generated_Source\PSoC4/StripLights.c **** ******************************************************************************
 632:Generated_Source\PSoC4/StripLights.c **** *
 633:Generated_Source\PSoC4/StripLights.c **** * Summary:
 634:Generated_Source\PSoC4/StripLights.c **** *  Interrupt service handler after each row is complete.
 635:Generated_Source\PSoC4/StripLights.c **** *
 636:Generated_Source\PSoC4/StripLights.c **** * Parameters:  
 637:Generated_Source\PSoC4/StripLights.c **** *  void
 638:Generated_Source\PSoC4/StripLights.c **** *
 639:Generated_Source\PSoC4/StripLights.c **** * Return: 
 640:Generated_Source\PSoC4/StripLights.c **** *  void 
 641:Generated_Source\PSoC4/StripLights.c **** *
 642:Generated_Source\PSoC4/StripLights.c **** * Reentrant: 
 643:Generated_Source\PSoC4/StripLights.c **** *  No
 644:Generated_Source\PSoC4/StripLights.c **** *
 645:Generated_Source\PSoC4/StripLights.c **** *****************************************************************************/
 646:Generated_Source\PSoC4/StripLights.c **** CY_ISR( StripLights_CISR)
 647:Generated_Source\PSoC4/StripLights.c **** {
 112              		.loc 1 647 0
 113              		.cfi_startproc
 114              		@ args = 0, pretend = 0, frame = 0
 115              		@ frame_needed = 0, uses_anonymous_args = 0
 116 0000 30B5     		push	{r4, r5, lr}
 117              		.cfi_def_cfa_offset 12
 118              		.cfi_offset 4, -12
 119              		.cfi_offset 5, -8
 120              		.cfi_offset 14, -4
 648:Generated_Source\PSoC4/StripLights.c ****     extern uint32  StripLights_DimMask;
 649:Generated_Source\PSoC4/StripLights.c ****     extern uint32  StripLights_DimShift;
 650:Generated_Source\PSoC4/StripLights.c ****     uint32 static color;
 651:Generated_Source\PSoC4/StripLights.c ****     extern uint32 StripLights_refreshComplete;
 652:Generated_Source\PSoC4/StripLights.c **** 
 653:Generated_Source\PSoC4/StripLights.c **** 	StripLights_CONTROL = StripLights_ENABLE |StripLights_NEXT_ROW;
 121              		.loc 1 653 0
 122 0002 2122     		movs	r2, #33
 123 0004 184B     		ldr	r3, .L8
 124 0006 1A70     		strb	r2, [r3]
 654:Generated_Source\PSoC4/StripLights.c ****     StripLights_row++;
 125              		.loc 1 654 0
 126 0008 184A     		ldr	r2, .L8+4
 127 000a 1368     		ldr	r3, [r2]
 128 000c 0133     		adds	r3, r3, #1
 129 000e 1360     		str	r3, [r2]
 655:Generated_Source\PSoC4/StripLights.c ****     if( StripLights_row < StripLights_ARRAY_ROWS)  /* More Rows to do  */
 130              		.loc 1 655 0
 131 0010 002B     		cmp	r3, #0
 132 0012 25D1     		bne	.L6
 656:Generated_Source\PSoC4/StripLights.c ****     {
 657:Generated_Source\PSoC4/StripLights.c ****         StripLights_Channel = StripLights_row;  
 133              		.loc 1 657 0
 134 0014 DBB2     		uxtb	r3, r3
 135 0016 164A     		ldr	r2, .L8+8
 136 0018 1370     		strb	r3, [r2]
 658:Generated_Source\PSoC4/StripLights.c **** 
 659:Generated_Source\PSoC4/StripLights.c **** 		#if(StripLights_MEMORY_TYPE == StripLights_MEMORY_RGB)
 660:Generated_Source\PSoC4/StripLights.c ****              color = StripLights_ledArray[StripLights_row][0];
 137              		.loc 1 660 0
 138 001a 144A     		ldr	r2, .L8+4
ARM GAS  C:\Users\JAMESS~1\AppData\Local\Temp\ccSFa4Kp.s 			page 15


 139 001c 1168     		ldr	r1, [r2]
 140 001e CB00     		lsls	r3, r1, #3
 141 0020 5B1A     		subs	r3, r3, r1
 142 0022 DB00     		lsls	r3, r3, #3
 143 0024 1349     		ldr	r1, .L8+12
 144 0026 5B58     		ldr	r3, [r3, r1]
 661:Generated_Source\PSoC4/StripLights.c ****         #else  /* Else use lookup table */
 662:Generated_Source\PSoC4/StripLights.c ****              color = StripLights_CLUT[ (StripLights_ledArray[StripLights_row][0]) ];
 663:Generated_Source\PSoC4/StripLights.c ****         #endif
 664:Generated_Source\PSoC4/StripLights.c **** 
 665:Generated_Source\PSoC4/StripLights.c ****         color = (color >> StripLights_DimShift) & StripLights_DimMask;
 145              		.loc 1 665 0
 146 0028 1349     		ldr	r1, .L8+16
 147 002a 0968     		ldr	r1, [r1]
 148 002c CB40     		lsrs	r3, r3, r1
 149 002e 1349     		ldr	r1, .L8+20
 150 0030 0968     		ldr	r1, [r1]
 151 0032 0B40     		ands	r3, r1
 666:Generated_Source\PSoC4/StripLights.c ****  
 667:Generated_Source\PSoC4/StripLights.c ****         #if(StripLights_GAMMA_CORRECTION == StripLights_GAMMA_ON)
 668:Generated_Source\PSoC4/StripLights.c ****             StripLights_DATA = StripLights_gamma[color & 0x000000FF];  // Write Green
 152              		.loc 1 668 0
 153 0034 FF24     		movs	r4, #255
 154 0036 2100     		movs	r1, r4
 155 0038 1940     		ands	r1, r3
 156 003a 1148     		ldr	r0, .L8+24
 157 003c 455C     		ldrb	r5, [r0, r1]
 158 003e 1149     		ldr	r1, .L8+28
 159 0040 0D70     		strb	r5, [r1]
 669:Generated_Source\PSoC4/StripLights.c ****             color = color >> 8;
 160              		.loc 1 669 0
 161 0042 1D0A     		lsrs	r5, r3, #8
 670:Generated_Source\PSoC4/StripLights.c ****             StripLights_DATA = StripLights_gamma[color & 0x000000FF];  // Write Red
 162              		.loc 1 670 0
 163 0044 2540     		ands	r5, r4
 164 0046 455D     		ldrb	r5, [r0, r5]
 165 0048 0D70     		strb	r5, [r1]
 671:Generated_Source\PSoC4/StripLights.c ****             color = color >> 8;
 166              		.loc 1 671 0
 167 004a 1B0C     		lsrs	r3, r3, #16
 168 004c D360     		str	r3, [r2, #12]
 672:Generated_Source\PSoC4/StripLights.c ****             StripLights_DATA = StripLights_gamma[color & 0x000000FF];  // Write Blue
 169              		.loc 1 672 0
 170 004e 2340     		ands	r3, r4
 171 0050 C35C     		ldrb	r3, [r0, r3]
 172 0052 0B70     		strb	r3, [r1]
 673:Generated_Source\PSoC4/StripLights.c ****              #if(StripLights_CHIP == StripLights_CHIP_SF2812RGBW)
 674:Generated_Source\PSoC4/StripLights.c ****                 color = color >> 8;
 675:Generated_Source\PSoC4/StripLights.c ****                 StripLights_DATA = StripLights_gamma[color & 0x000000FF];  // Write White 
 676:Generated_Source\PSoC4/StripLights.c ****             #endif 
 677:Generated_Source\PSoC4/StripLights.c ****         #else
 678:Generated_Source\PSoC4/StripLights.c ****             StripLights_DATA = (uint8)(color & 0x000000FF);  // Write Green
 679:Generated_Source\PSoC4/StripLights.c ****             color = color >> 8;
 680:Generated_Source\PSoC4/StripLights.c ****             StripLights_DATA = (uint8)(color & 0x000000FF);  // Write Red
 681:Generated_Source\PSoC4/StripLights.c ****             color = color >> 8;
 682:Generated_Source\PSoC4/StripLights.c ****             StripLights_DATA = (uint8)(color & 0x000000FF);  // Write Blue  
 683:Generated_Source\PSoC4/StripLights.c ****             #if(StripLights_CHIP == StripLights_CHIP_SF2812RGBW)
ARM GAS  C:\Users\JAMESS~1\AppData\Local\Temp\ccSFa4Kp.s 			page 16


 684:Generated_Source\PSoC4/StripLights.c ****                 color = color >> 8;
 685:Generated_Source\PSoC4/StripLights.c ****                 StripLights_DATA = (uint8)(color & 0x000000FF);  // Write White 
 686:Generated_Source\PSoC4/StripLights.c ****             #endif  
 687:Generated_Source\PSoC4/StripLights.c ****         #endif
 688:Generated_Source\PSoC4/StripLights.c ****        
 689:Generated_Source\PSoC4/StripLights.c ****         StripLights_ledIndex = 1;
 173              		.loc 1 689 0
 174 0054 0123     		movs	r3, #1
 175 0056 5360     		str	r3, [r2, #4]
 690:Generated_Source\PSoC4/StripLights.c **** 		StripLights_CONTROL = StripLights_ENABLE | StripLights_XFRCMPT_IRQ_EN | StripLights_FIFO_IRQ_EN; 
 176              		.loc 1 690 0
 177 0058 1922     		movs	r2, #25
 178 005a 034B     		ldr	r3, .L8
 179 005c 1A70     		strb	r2, [r3]
 180 005e 02E0     		b	.L5
 181              	.L6:
 691:Generated_Source\PSoC4/StripLights.c ****     }
 692:Generated_Source\PSoC4/StripLights.c ****     else
 693:Generated_Source\PSoC4/StripLights.c ****     {
 694:Generated_Source\PSoC4/StripLights.c ****         StripLights_refreshComplete = 1u;
 182              		.loc 1 694 0
 183 0060 0122     		movs	r2, #1
 184 0062 094B     		ldr	r3, .L8+32
 185 0064 1A60     		str	r2, [r3]
 186              	.L5:
 695:Generated_Source\PSoC4/StripLights.c ****     }
 696:Generated_Source\PSoC4/StripLights.c **** }
 187              		.loc 1 696 0
 188              		@ sp needed
 189 0066 30BD     		pop	{r4, r5, pc}
 190              	.L9:
 191              		.align	2
 192              	.L8:
 193 0068 72000F40 		.word	1074724978
 194 006c 00000000 		.word	.LANCHOR0
 195 0070 70000F40 		.word	1074724976
 196 0074 00000000 		.word	StripLights_ledArray
 197 0078 00000000 		.word	StripLights_DimShift
 198 007c 00000000 		.word	StripLights_DimMask
 199 0080 00000000 		.word	.LANCHOR1
 200 0084 42000F40 		.word	1074724930
 201 0088 00000000 		.word	StripLights_refreshComplete
 202              		.cfi_endproc
 203              	.LFE42:
 204              		.size	StripLights_CISR, .-StripLights_CISR
 205              		.section	.text.StripLights_SetCriticalFuncs,"ax",%progbits
 206              		.align	2
 207              		.global	StripLights_SetCriticalFuncs
 208              		.code	16
 209              		.thumb_func
 210              		.type	StripLights_SetCriticalFuncs, %function
 211              	StripLights_SetCriticalFuncs:
 212              	.LFB33:
 333:Generated_Source\PSoC4/StripLights.c ****     StripLights_EnterCritical = EnCriticalFunc;
 213              		.loc 1 333 0
 214              		.cfi_startproc
 215              		@ args = 0, pretend = 0, frame = 0
ARM GAS  C:\Users\JAMESS~1\AppData\Local\Temp\ccSFa4Kp.s 			page 17


 216              		@ frame_needed = 0, uses_anonymous_args = 0
 217              		@ link register save eliminated.
 218              	.LVL0:
 334:Generated_Source\PSoC4/StripLights.c ****     StripLights_ExitCritical  = ExCriticalFunc;   
 219              		.loc 1 334 0
 220 0000 014B     		ldr	r3, .L11
 221 0002 1861     		str	r0, [r3, #16]
 335:Generated_Source\PSoC4/StripLights.c **** }
 222              		.loc 1 335 0
 223 0004 5961     		str	r1, [r3, #20]
 336:Generated_Source\PSoC4/StripLights.c **** 
 224              		.loc 1 336 0
 225              		@ sp needed
 226 0006 7047     		bx	lr
 227              	.L12:
 228              		.align	2
 229              	.L11:
 230 0008 00000000 		.word	.LANCHOR0
 231              		.cfi_endproc
 232              	.LFE33:
 233              		.size	StripLights_SetCriticalFuncs, .-StripLights_SetCriticalFuncs
 234              		.section	.text.StripLights_Trigger,"ax",%progbits
 235              		.align	2
 236              		.global	StripLights_Trigger
 237              		.code	16
 238              		.thumb_func
 239              		.type	StripLights_Trigger, %function
 240              	StripLights_Trigger:
 241              	.LFB36:
 439:Generated_Source\PSoC4/StripLights.c ****     uint32 color;
 242              		.loc 1 439 0
 243              		.cfi_startproc
 244              		@ args = 0, pretend = 0, frame = 0
 245              		@ frame_needed = 0, uses_anonymous_args = 0
 246              	.LVL1:
 247 0000 30B5     		push	{r4, r5, lr}
 248              		.cfi_def_cfa_offset 12
 249              		.cfi_offset 4, -12
 250              		.cfi_offset 5, -8
 251              		.cfi_offset 14, -4
 442:Generated_Source\PSoC4/StripLights.c ****     {
 252              		.loc 1 442 0
 253 0002 0028     		cmp	r0, #0
 254 0004 04D0     		beq	.L14
 444:Generated_Source\PSoC4/StripLights.c ****         StripLights_Channel = 0;
 255              		.loc 1 444 0
 256 0006 0023     		movs	r3, #0
 257 0008 144A     		ldr	r2, .L15
 258 000a 1360     		str	r3, [r2]
 445:Generated_Source\PSoC4/StripLights.c ****     }
 259              		.loc 1 445 0
 260 000c 144A     		ldr	r2, .L15+4
 261 000e 1370     		strb	r3, [r2]
 262              	.L14:
 449:Generated_Source\PSoC4/StripLights.c ****     #else  /* Else use lookup table */
 263              		.loc 1 449 0
 264 0010 124D     		ldr	r5, .L15
ARM GAS  C:\Users\JAMESS~1\AppData\Local\Temp\ccSFa4Kp.s 			page 18


 265 0012 2A68     		ldr	r2, [r5]
 266 0014 D300     		lsls	r3, r2, #3
 267 0016 9B1A     		subs	r3, r3, r2
 268 0018 DA00     		lsls	r2, r3, #3
 269 001a 124B     		ldr	r3, .L15+8
 270 001c D358     		ldr	r3, [r2, r3]
 271              	.LVL2:
 454:Generated_Source\PSoC4/StripLights.c ****      
 272              		.loc 1 454 0
 273 001e 124A     		ldr	r2, .L15+12
 274 0020 1268     		ldr	r2, [r2]
 275 0022 D340     		lsrs	r3, r3, r2
 276              	.LVL3:
 277 0024 114A     		ldr	r2, .L15+16
 278 0026 1268     		ldr	r2, [r2]
 279 0028 1340     		ands	r3, r2
 280              	.LVL4:
 457:Generated_Source\PSoC4/StripLights.c ****         color = color >> 8;
 281              		.loc 1 457 0
 282 002a FF20     		movs	r0, #255
 283              	.LVL5:
 284 002c 0200     		movs	r2, r0
 285 002e 1A40     		ands	r2, r3
 286 0030 0F49     		ldr	r1, .L15+20
 287 0032 8C5C     		ldrb	r4, [r1, r2]
 288 0034 0F4A     		ldr	r2, .L15+24
 289 0036 1470     		strb	r4, [r2]
 458:Generated_Source\PSoC4/StripLights.c ****         StripLights_DATA = StripLights_gamma[color & 0x000000FF];  // Write Red
 290              		.loc 1 458 0
 291 0038 1C0A     		lsrs	r4, r3, #8
 292              	.LVL6:
 459:Generated_Source\PSoC4/StripLights.c ****         color = color >> 8;
 293              		.loc 1 459 0
 294 003a 0440     		ands	r4, r0
 295              	.LVL7:
 296 003c 0C5D     		ldrb	r4, [r1, r4]
 297 003e 1470     		strb	r4, [r2]
 460:Generated_Source\PSoC4/StripLights.c ****         StripLights_DATA = StripLights_gamma[color & 0x000000FF];  // Write Blue
 298              		.loc 1 460 0
 299 0040 1B0C     		lsrs	r3, r3, #16
 300              	.LVL8:
 461:Generated_Source\PSoC4/StripLights.c ****         #if(StripLights_CHIP == StripLights_CHIP_SF2812RGBW)
 301              		.loc 1 461 0
 302 0042 0340     		ands	r3, r0
 303              	.LVL9:
 304 0044 CB5C     		ldrb	r3, [r1, r3]
 305 0046 1370     		strb	r3, [r2]
 478:Generated_Source\PSoC4/StripLights.c **** 	
 306              		.loc 1 478 0
 307 0048 0123     		movs	r3, #1
 308 004a 6B60     		str	r3, [r5, #4]
 480:Generated_Source\PSoC4/StripLights.c ****     StripLights_refreshComplete = 0;
 309              		.loc 1 480 0
 310 004c 1922     		movs	r2, #25
 311 004e 0A4B     		ldr	r3, .L15+28
 312 0050 1A70     		strb	r2, [r3]
 481:Generated_Source\PSoC4/StripLights.c **** }
ARM GAS  C:\Users\JAMESS~1\AppData\Local\Temp\ccSFa4Kp.s 			page 19


 313              		.loc 1 481 0
 314 0052 0022     		movs	r2, #0
 315 0054 094B     		ldr	r3, .L15+32
 316 0056 1A60     		str	r2, [r3]
 482:Generated_Source\PSoC4/StripLights.c **** 
 317              		.loc 1 482 0
 318              		@ sp needed
 319 0058 30BD     		pop	{r4, r5, pc}
 320              	.L16:
 321 005a C046     		.align	2
 322              	.L15:
 323 005c 00000000 		.word	.LANCHOR0
 324 0060 70000F40 		.word	1074724976
 325 0064 00000000 		.word	StripLights_ledArray
 326 0068 00000000 		.word	StripLights_DimShift
 327 006c 00000000 		.word	StripLights_DimMask
 328 0070 00000000 		.word	.LANCHOR1
 329 0074 42000F40 		.word	1074724930
 330 0078 72000F40 		.word	1074724978
 331 007c 00000000 		.word	StripLights_refreshComplete
 332              		.cfi_endproc
 333              	.LFE36:
 334              		.size	StripLights_Trigger, .-StripLights_Trigger
 335              		.section	.text.StripLights_Ready,"ax",%progbits
 336              		.align	2
 337              		.global	StripLights_Ready
 338              		.code	16
 339              		.thumb_func
 340              		.type	StripLights_Ready, %function
 341              	StripLights_Ready:
 342              	.LFB37:
 498:Generated_Source\PSoC4/StripLights.c ****     if(StripLights_refreshComplete )
 343              		.loc 1 498 0
 344              		.cfi_startproc
 345              		@ args = 0, pretend = 0, frame = 0
 346              		@ frame_needed = 0, uses_anonymous_args = 0
 347              		@ link register save eliminated.
 499:Generated_Source\PSoC4/StripLights.c ****     {
 348              		.loc 1 499 0
 349 0000 044B     		ldr	r3, .L19
 350 0002 1868     		ldr	r0, [r3]
 351 0004 0028     		cmp	r0, #0
 352 0006 03D0     		beq	.L18
 501:Generated_Source\PSoC4/StripLights.c ****         return((uint32)1);
 353              		.loc 1 501 0
 354 0008 0022     		movs	r2, #0
 355 000a 034B     		ldr	r3, .L19+4
 356 000c 1A70     		strb	r2, [r3]
 502:Generated_Source\PSoC4/StripLights.c ****     }
 357              		.loc 1 502 0
 358 000e 0120     		movs	r0, #1
 359              	.L18:
 508:Generated_Source\PSoC4/StripLights.c **** 
 360              		.loc 1 508 0
 361              		@ sp needed
 362 0010 7047     		bx	lr
 363              	.L20:
ARM GAS  C:\Users\JAMESS~1\AppData\Local\Temp\ccSFa4Kp.s 			page 20


 364 0012 C046     		.align	2
 365              	.L19:
 366 0014 00000000 		.word	StripLights_refreshComplete
 367 0018 72000F40 		.word	1074724978
 368              		.cfi_endproc
 369              	.LFE37:
 370              		.size	StripLights_Ready, .-StripLights_Ready
 371              		.section	.text.StripLights_TriggerWaitDelay,"ax",%progbits
 372              		.align	2
 373              		.global	StripLights_TriggerWaitDelay
 374              		.code	16
 375              		.thumb_func
 376              		.type	StripLights_TriggerWaitDelay, %function
 377              	StripLights_TriggerWaitDelay:
 378              	.LFB34:
 352:Generated_Source\PSoC4/StripLights.c **** 
 379              		.loc 1 352 0
 380              		.cfi_startproc
 381              		@ args = 0, pretend = 0, frame = 0
 382              		@ frame_needed = 0, uses_anonymous_args = 0
 383              	.LVL10:
 384 0000 70B5     		push	{r4, r5, r6, lr}
 385              		.cfi_def_cfa_offset 16
 386              		.cfi_offset 4, -16
 387              		.cfi_offset 5, -12
 388              		.cfi_offset 6, -8
 389              		.cfi_offset 14, -4
 390 0002 0500     		movs	r5, r0
 391              	.LVL11:
 357:Generated_Source\PSoC4/StripLights.c ****     {
 392              		.loc 1 357 0
 393 0004 124B     		ldr	r3, .L28
 394 0006 1B69     		ldr	r3, [r3, #16]
 395 0008 002B     		cmp	r3, #0
 396 000a 00D0     		beq	.L22
 359:Generated_Source\PSoC4/StripLights.c ****     }
 397              		.loc 1 359 0
 398 000c 9847     		blx	r3
 399              	.LVL12:
 400              	.L22:
 362:Generated_Source\PSoC4/StripLights.c ****     
 401              		.loc 1 362 0
 402 000e 0120     		movs	r0, #1
 403 0010 FFF7FEFF 		bl	StripLights_Trigger
 404              	.LVL13:
 354:Generated_Source\PSoC4/StripLights.c ****     
 405              		.loc 1 354 0
 406 0014 0024     		movs	r4, #0
 364:Generated_Source\PSoC4/StripLights.c ****     {
 407              		.loc 1 364 0
 408 0016 07E0     		b	.L23
 409              	.LVL14:
 410              	.L25:
 366:Generated_Source\PSoC4/StripLights.c ****         CyDelayUs(100);  
 411              		.loc 1 366 0
 412 0018 FA23     		movs	r3, #250
 413 001a DB00     		lsls	r3, r3, #3
ARM GAS  C:\Users\JAMESS~1\AppData\Local\Temp\ccSFa4Kp.s 			page 21


 414 001c 9C42     		cmp	r4, r3
 415 001e 0CD8     		bhi	.L24
 367:Generated_Source\PSoC4/StripLights.c ****         toCount++;
 416              		.loc 1 367 0
 417 0020 6420     		movs	r0, #100
 418 0022 FFF7FEFF 		bl	CyDelayUs
 419              	.LVL15:
 368:Generated_Source\PSoC4/StripLights.c ****     }
 420              		.loc 1 368 0
 421 0026 0134     		adds	r4, r4, #1
 422              	.LVL16:
 423              	.L23:
 364:Generated_Source\PSoC4/StripLights.c ****     {
 424              		.loc 1 364 0
 425 0028 FFF7FEFF 		bl	StripLights_Ready
 426              	.LVL17:
 427 002c 0028     		cmp	r0, #0
 428 002e F3D0     		beq	.L25
 429 0030 03E0     		b	.L24
 430              	.L26:
 373:Generated_Source\PSoC4/StripLights.c ****         CyDelayUs(100); 
 431              		.loc 1 373 0
 432 0032 0134     		adds	r4, r4, #1
 433              	.LVL18:
 374:Generated_Source\PSoC4/StripLights.c ****     }
 434              		.loc 1 374 0
 435 0034 6420     		movs	r0, #100
 436 0036 FFF7FEFF 		bl	CyDelayUs
 437              	.LVL19:
 438              	.L24:
 371:Generated_Source\PSoC4/StripLights.c ****     {
 439              		.loc 1 371 0
 440 003a AB00     		lsls	r3, r5, #2
 441 003c 5B19     		adds	r3, r3, r5
 442 003e 5A00     		lsls	r2, r3, #1
 443 0040 9442     		cmp	r4, r2
 444 0042 F6D3     		bcc	.L26
 379:Generated_Source\PSoC4/StripLights.c ****     {
 445              		.loc 1 379 0
 446 0044 024B     		ldr	r3, .L28
 447 0046 5B69     		ldr	r3, [r3, #20]
 448 0048 002B     		cmp	r3, #0
 449 004a 00D0     		beq	.L21
 381:Generated_Source\PSoC4/StripLights.c ****     }
 450              		.loc 1 381 0
 451 004c 9847     		blx	r3
 452              	.LVL20:
 453              	.L21:
 385:Generated_Source\PSoC4/StripLights.c **** 
 454              		.loc 1 385 0
 455              		@ sp needed
 456              	.LVL21:
 457              	.LVL22:
 458 004e 70BD     		pop	{r4, r5, r6, pc}
 459              	.L29:
 460              		.align	2
 461              	.L28:
ARM GAS  C:\Users\JAMESS~1\AppData\Local\Temp\ccSFa4Kp.s 			page 22


 462 0050 00000000 		.word	.LANCHOR0
 463              		.cfi_endproc
 464              	.LFE34:
 465              		.size	StripLights_TriggerWaitDelay, .-StripLights_TriggerWaitDelay
 466              		.section	.text.StripLights_TriggerWait,"ax",%progbits
 467              		.align	2
 468              		.global	StripLights_TriggerWait
 469              		.code	16
 470              		.thumb_func
 471              		.type	StripLights_TriggerWait, %function
 472              	StripLights_TriggerWait:
 473              	.LFB35:
 401:Generated_Source\PSoC4/StripLights.c **** 
 474              		.loc 1 401 0
 475              		.cfi_startproc
 476              		@ args = 0, pretend = 0, frame = 0
 477              		@ frame_needed = 0, uses_anonymous_args = 0
 478              	.LVL23:
 479 0000 10B5     		push	{r4, lr}
 480              		.cfi_def_cfa_offset 8
 481              		.cfi_offset 4, -8
 482              		.cfi_offset 14, -4
 483 0002 0400     		movs	r4, r0
 405:Generated_Source\PSoC4/StripLights.c ****     {
 484              		.loc 1 405 0
 485 0004 084B     		ldr	r3, .L34
 486 0006 1B69     		ldr	r3, [r3, #16]
 487 0008 002B     		cmp	r3, #0
 488 000a 00D0     		beq	.L31
 407:Generated_Source\PSoC4/StripLights.c ****     }
 489              		.loc 1 407 0
 490 000c 9847     		blx	r3
 491              	.LVL24:
 492              	.L31:
 410:Generated_Source\PSoC4/StripLights.c ****     
 493              		.loc 1 410 0
 494 000e 2000     		movs	r0, r4
 495 0010 FFF7FEFF 		bl	StripLights_Trigger
 496              	.LVL25:
 497              	.L32:
 412:Generated_Source\PSoC4/StripLights.c ****     
 498              		.loc 1 412 0 discriminator 1
 499 0014 FFF7FEFF 		bl	StripLights_Ready
 500              	.LVL26:
 501 0018 0028     		cmp	r0, #0
 502 001a FBD0     		beq	.L32
 416:Generated_Source\PSoC4/StripLights.c ****     {
 503              		.loc 1 416 0
 504 001c 024B     		ldr	r3, .L34
 505 001e 5B69     		ldr	r3, [r3, #20]
 506 0020 002B     		cmp	r3, #0
 507 0022 00D0     		beq	.L30
 418:Generated_Source\PSoC4/StripLights.c ****     }
 508              		.loc 1 418 0
 509 0024 9847     		blx	r3
 510              	.LVL27:
 511              	.L30:
ARM GAS  C:\Users\JAMESS~1\AppData\Local\Temp\ccSFa4Kp.s 			page 23


 422:Generated_Source\PSoC4/StripLights.c **** 
 512              		.loc 1 422 0
 513              		@ sp needed
 514              	.LVL28:
 515 0026 10BD     		pop	{r4, pc}
 516              	.L35:
 517              		.align	2
 518              	.L34:
 519 0028 00000000 		.word	.LANCHOR0
 520              		.cfi_endproc
 521              	.LFE35:
 522              		.size	StripLights_TriggerWait, .-StripLights_TriggerWait
 523              		.section	.text.StripLights_Stop,"ax",%progbits
 524              		.align	2
 525              		.global	StripLights_Stop
 526              		.code	16
 527              		.thumb_func
 528              		.type	StripLights_Stop, %function
 529              	StripLights_Stop:
 530              	.LFB38:
 525:Generated_Source\PSoC4/StripLights.c ****     StripLights_CONTROL = StripLights_DISABLE;
 531              		.loc 1 525 0
 532              		.cfi_startproc
 533              		@ args = 0, pretend = 0, frame = 0
 534              		@ frame_needed = 0, uses_anonymous_args = 0
 535              		@ link register save eliminated.
 526:Generated_Source\PSoC4/StripLights.c **** }
 536              		.loc 1 526 0
 537 0000 0022     		movs	r2, #0
 538 0002 014B     		ldr	r3, .L37
 539 0004 1A70     		strb	r2, [r3]
 527:Generated_Source\PSoC4/StripLights.c **** 
 540              		.loc 1 527 0
 541              		@ sp needed
 542 0006 7047     		bx	lr
 543              	.L38:
 544              		.align	2
 545              	.L37:
 546 0008 72000F40 		.word	1074724978
 547              		.cfi_endproc
 548              	.LFE38:
 549              		.size	StripLights_Stop, .-StripLights_Stop
 550              		.section	.text.StripLights_getColor,"ax",%progbits
 551              		.align	2
 552              		.global	StripLights_getColor
 553              		.code	16
 554              		.thumb_func
 555              		.type	StripLights_getColor, %function
 556              	StripLights_getColor:
 557              	.LFB39:
 530:Generated_Source\PSoC4/StripLights.c ****     #if(StripLights_MEMORY_TYPE == StripLights_MEMORY_RGB)
 558              		.loc 1 530 0
 559              		.cfi_startproc
 560              		@ args = 0, pretend = 0, frame = 0
 561              		@ frame_needed = 0, uses_anonymous_args = 0
 562              		@ link register save eliminated.
 563              	.LVL29:
ARM GAS  C:\Users\JAMESS~1\AppData\Local\Temp\ccSFa4Kp.s 			page 24


 532:Generated_Source\PSoC4/StripLights.c ****     #endif
 564              		.loc 1 532 0
 565 0000 8000     		lsls	r0, r0, #2
 566              	.LVL30:
 567 0002 014B     		ldr	r3, .L40
 568 0004 C058     		ldr	r0, [r0, r3]
 569              	.LVL31:
 536:Generated_Source\PSoC4/StripLights.c **** 
 570              		.loc 1 536 0
 571              		@ sp needed
 572 0006 7047     		bx	lr
 573              	.L41:
 574              		.align	2
 575              	.L40:
 576 0008 00010000 		.word	.LANCHOR2
 577              		.cfi_endproc
 578              	.LFE39:
 579              		.size	StripLights_getColor, .-StripLights_getColor
 580              		.global	__aeabi_uidivmod
 581              		.section	.text.StripLights_ColorInc,"ax",%progbits
 582              		.align	2
 583              		.global	StripLights_ColorInc
 584              		.code	16
 585              		.thumb_func
 586              		.type	StripLights_ColorInc, %function
 587              	StripLights_ColorInc:
 588              	.LFB40:
 552:Generated_Source\PSoC4/StripLights.c ****     uint32 color;
 589              		.loc 1 552 0
 590              		.cfi_startproc
 591              		@ args = 0, pretend = 0, frame = 0
 592              		@ frame_needed = 0, uses_anonymous_args = 0
 593              	.LVL32:
 594 0000 10B5     		push	{r4, lr}
 595              		.cfi_def_cfa_offset 8
 596              		.cfi_offset 4, -8
 597              		.cfi_offset 14, -4
 557:Generated_Source\PSoC4/StripLights.c ****     colorIndex = colorIndex % StripLights_COLOR_WHEEL_SIZE;
 598              		.loc 1 557 0
 599 0002 064C     		ldr	r4, .L43
 600 0004 A369     		ldr	r3, [r4, #24]
 601 0006 9C46     		mov	ip, r3
 602 0008 6044     		add	r0, r0, ip
 603              	.LVL33:
 558:Generated_Source\PSoC4/StripLights.c **** 
 604              		.loc 1 558 0
 605 000a 1821     		movs	r1, #24
 606 000c FFF7FEFF 		bl	__aeabi_uidivmod
 607              	.LVL34:
 608 0010 A161     		str	r1, [r4, #24]
 561:Generated_Source\PSoC4/StripLights.c ****     #else
 609              		.loc 1 561 0
 610 0012 8900     		lsls	r1, r1, #2
 611 0014 024B     		ldr	r3, .L43+4
 612 0016 C858     		ldr	r0, [r1, r3]
 613              	.LVL35:
 566:Generated_Source\PSoC4/StripLights.c **** /*****************************************************************************
ARM GAS  C:\Users\JAMESS~1\AppData\Local\Temp\ccSFa4Kp.s 			page 25


 614              		.loc 1 566 0
 615              		@ sp needed
 616 0018 10BD     		pop	{r4, pc}
 617              	.L44:
 618 001a C046     		.align	2
 619              	.L43:
 620 001c 00000000 		.word	.LANCHOR0
 621 0020 00010000 		.word	.LANCHOR2
 622              		.cfi_endproc
 623              	.LFE40:
 624              		.size	StripLights_ColorInc, .-StripLights_ColorInc
 625              		.section	.text.StripLights_MemClear,"ax",%progbits
 626              		.align	2
 627              		.global	StripLights_MemClear
 628              		.code	16
 629              		.thumb_func
 630              		.type	StripLights_MemClear, %function
 631              	StripLights_MemClear:
 632              	.LFB44:
 697:Generated_Source\PSoC4/StripLights.c **** 
 698:Generated_Source\PSoC4/StripLights.c **** 
 699:Generated_Source\PSoC4/StripLights.c **** /*******************************************************************************
 700:Generated_Source\PSoC4/StripLights.c **** * Function Name: StripLights_DisplayClear
 701:Generated_Source\PSoC4/StripLights.c **** ********************************************************************************
 702:Generated_Source\PSoC4/StripLights.c **** * Summary:
 703:Generated_Source\PSoC4/StripLights.c **** *   Clear memory with a given value and update the display.
 704:Generated_Source\PSoC4/StripLights.c **** *
 705:Generated_Source\PSoC4/StripLights.c **** * Parameters:  
 706:Generated_Source\PSoC4/StripLights.c **** *  uint32 color: Color to clear display. 
 707:Generated_Source\PSoC4/StripLights.c **** *
 708:Generated_Source\PSoC4/StripLights.c **** * Return: 
 709:Generated_Source\PSoC4/StripLights.c **** *  void
 710:Generated_Source\PSoC4/StripLights.c **** *
 711:Generated_Source\PSoC4/StripLights.c **** *******************************************************************************/
 712:Generated_Source\PSoC4/StripLights.c **** void StripLights_DisplayClear(uint32 color)
 713:Generated_Source\PSoC4/StripLights.c **** {   
 714:Generated_Source\PSoC4/StripLights.c ****     StripLights_MemClear(color);
 715:Generated_Source\PSoC4/StripLights.c ****     StripLights_Trigger(1);
 716:Generated_Source\PSoC4/StripLights.c **** }
 717:Generated_Source\PSoC4/StripLights.c **** 
 718:Generated_Source\PSoC4/StripLights.c **** /*******************************************************************************
 719:Generated_Source\PSoC4/StripLights.c **** * Function Name: StripLights_MemClear
 720:Generated_Source\PSoC4/StripLights.c **** ********************************************************************************
 721:Generated_Source\PSoC4/StripLights.c **** * Summary:
 722:Generated_Source\PSoC4/StripLights.c **** *   Clear LED memory with given color, but do not update display.
 723:Generated_Source\PSoC4/StripLights.c **** *
 724:Generated_Source\PSoC4/StripLights.c **** * Parameters:  
 725:Generated_Source\PSoC4/StripLights.c **** *  uint32 color: Color to clear display.  
 726:Generated_Source\PSoC4/StripLights.c **** *
 727:Generated_Source\PSoC4/StripLights.c **** * Return: 
 728:Generated_Source\PSoC4/StripLights.c **** *  void
 729:Generated_Source\PSoC4/StripLights.c **** *
 730:Generated_Source\PSoC4/StripLights.c **** *******************************************************************************/
 731:Generated_Source\PSoC4/StripLights.c **** void StripLights_MemClear(uint32 color)
 732:Generated_Source\PSoC4/StripLights.c **** {
 633              		.loc 1 732 0
 634              		.cfi_startproc
ARM GAS  C:\Users\JAMESS~1\AppData\Local\Temp\ccSFa4Kp.s 			page 26


 635              		@ args = 0, pretend = 0, frame = 0
 636              		@ frame_needed = 0, uses_anonymous_args = 0
 637              	.LVL36:
 638 0000 10B5     		push	{r4, lr}
 639              		.cfi_def_cfa_offset 8
 640              		.cfi_offset 4, -8
 641              		.cfi_offset 14, -4
 642              	.LVL37:
 733:Generated_Source\PSoC4/StripLights.c ****     uint32  row, col;
 734:Generated_Source\PSoC4/StripLights.c ****     
 735:Generated_Source\PSoC4/StripLights.c ****     for(row=0; row < StripLights_ARRAY_ROWS; row++)
 643              		.loc 1 735 0
 644 0002 0024     		movs	r4, #0
 645 0004 0CE0     		b	.L46
 646              	.LVL38:
 647              	.L47:
 736:Generated_Source\PSoC4/StripLights.c ****     {
 737:Generated_Source\PSoC4/StripLights.c ****         for(col=0; col < StripLights_ARRAY_COLS; col++)
 738:Generated_Source\PSoC4/StripLights.c ****         {
 739:Generated_Source\PSoC4/StripLights.c ****             #if(StripLights_MEMORY_TYPE == StripLights_MEMORY_RGB)
 740:Generated_Source\PSoC4/StripLights.c ****                 StripLights_ledArray[row][col] = color;
 648              		.loc 1 740 0 discriminator 3
 649 0006 E200     		lsls	r2, r4, #3
 650 0008 121B     		subs	r2, r2, r4
 651 000a 5300     		lsls	r3, r2, #1
 652 000c 5B18     		adds	r3, r3, r1
 653 000e 9B00     		lsls	r3, r3, #2
 654 0010 054A     		ldr	r2, .L50
 655 0012 9850     		str	r0, [r3, r2]
 737:Generated_Source\PSoC4/StripLights.c ****         {
 656              		.loc 1 737 0 discriminator 3
 657 0014 0131     		adds	r1, r1, #1
 658              	.LVL39:
 659 0016 00E0     		b	.L48
 660              	.LVL40:
 661              	.L49:
 662 0018 0021     		movs	r1, #0
 663              	.L48:
 664              	.LVL41:
 737:Generated_Source\PSoC4/StripLights.c ****         {
 665              		.loc 1 737 0 is_stmt 0 discriminator 1
 666 001a 0D29     		cmp	r1, #13
 667 001c F3D9     		bls	.L47
 735:Generated_Source\PSoC4/StripLights.c ****     {
 668              		.loc 1 735 0 is_stmt 1 discriminator 2
 669 001e 0134     		adds	r4, r4, #1
 670              	.LVL42:
 671              	.L46:
 735:Generated_Source\PSoC4/StripLights.c ****     {
 672              		.loc 1 735 0 is_stmt 0 discriminator 1
 673 0020 002C     		cmp	r4, #0
 674 0022 F9D0     		beq	.L49
 741:Generated_Source\PSoC4/StripLights.c ****             #else  /* Else use lookup table */
 742:Generated_Source\PSoC4/StripLights.c ****                  StripLights_ledArray[row][col] = (uint8)color;
 743:Generated_Source\PSoC4/StripLights.c ****             #endif
 744:Generated_Source\PSoC4/StripLights.c ****         }
 745:Generated_Source\PSoC4/StripLights.c ****     }
ARM GAS  C:\Users\JAMESS~1\AppData\Local\Temp\ccSFa4Kp.s 			page 27


 746:Generated_Source\PSoC4/StripLights.c **** }
 675              		.loc 1 746 0 is_stmt 1
 676              		@ sp needed
 677              	.LVL43:
 678 0024 10BD     		pop	{r4, pc}
 679              	.L51:
 680 0026 C046     		.align	2
 681              	.L50:
 682 0028 00000000 		.word	StripLights_ledArray
 683              		.cfi_endproc
 684              	.LFE44:
 685              		.size	StripLights_MemClear, .-StripLights_MemClear
 686              		.section	.text.StripLights_DisplayClear,"ax",%progbits
 687              		.align	2
 688              		.global	StripLights_DisplayClear
 689              		.code	16
 690              		.thumb_func
 691              		.type	StripLights_DisplayClear, %function
 692              	StripLights_DisplayClear:
 693              	.LFB43:
 713:Generated_Source\PSoC4/StripLights.c ****     StripLights_MemClear(color);
 694              		.loc 1 713 0
 695              		.cfi_startproc
 696              		@ args = 0, pretend = 0, frame = 0
 697              		@ frame_needed = 0, uses_anonymous_args = 0
 698              	.LVL44:
 699 0000 10B5     		push	{r4, lr}
 700              		.cfi_def_cfa_offset 8
 701              		.cfi_offset 4, -8
 702              		.cfi_offset 14, -4
 714:Generated_Source\PSoC4/StripLights.c ****     StripLights_Trigger(1);
 703              		.loc 1 714 0
 704 0002 FFF7FEFF 		bl	StripLights_MemClear
 705              	.LVL45:
 715:Generated_Source\PSoC4/StripLights.c **** }
 706              		.loc 1 715 0
 707 0006 0120     		movs	r0, #1
 708 0008 FFF7FEFF 		bl	StripLights_Trigger
 709              	.LVL46:
 716:Generated_Source\PSoC4/StripLights.c **** 
 710              		.loc 1 716 0
 711              		@ sp needed
 712 000c 10BD     		pop	{r4, pc}
 713              		.cfi_endproc
 714              	.LFE43:
 715              		.size	StripLights_DisplayClear, .-StripLights_DisplayClear
 716 000e C046     		.section	.text.StripLights_WriteColor,"ax",%progbits
 717              		.align	2
 718              		.global	StripLights_WriteColor
 719              		.code	16
 720              		.thumb_func
 721              		.type	StripLights_WriteColor, %function
 722              	StripLights_WriteColor:
 723              	.LFB45:
 747:Generated_Source\PSoC4/StripLights.c **** 
 748:Generated_Source\PSoC4/StripLights.c **** 
 749:Generated_Source\PSoC4/StripLights.c **** 
ARM GAS  C:\Users\JAMESS~1\AppData\Local\Temp\ccSFa4Kp.s 			page 28


 750:Generated_Source\PSoC4/StripLights.c **** /*******************************************************************************
 751:Generated_Source\PSoC4/StripLights.c **** * Function Name: StripLights_WriteColor
 752:Generated_Source\PSoC4/StripLights.c **** ********************************************************************************
 753:Generated_Source\PSoC4/StripLights.c **** * Summary:
 754:Generated_Source\PSoC4/StripLights.c **** *   Write given color directly to output register.
 755:Generated_Source\PSoC4/StripLights.c **** *
 756:Generated_Source\PSoC4/StripLights.c **** * Parameters:  
 757:Generated_Source\PSoC4/StripLights.c **** *  uint32 color: Color to write to display. 
 758:Generated_Source\PSoC4/StripLights.c **** *
 759:Generated_Source\PSoC4/StripLights.c **** * Return: 
 760:Generated_Source\PSoC4/StripLights.c **** *  void
 761:Generated_Source\PSoC4/StripLights.c **** *
 762:Generated_Source\PSoC4/StripLights.c **** *******************************************************************************/
 763:Generated_Source\PSoC4/StripLights.c **** void StripLights_WriteColor(uint32 color)
 764:Generated_Source\PSoC4/StripLights.c **** {
 724              		.loc 1 764 0
 725              		.cfi_startproc
 726              		@ args = 0, pretend = 0, frame = 0
 727              		@ frame_needed = 0, uses_anonymous_args = 0
 728              		@ link register save eliminated.
 729              	.LVL47:
 730              	.L54:
 765:Generated_Source\PSoC4/StripLights.c ****     while( (StripLights_STATUS & StripLights_FIFO_EMPTY) == 0); 
 731              		.loc 1 765 0 discriminator 1
 732 0000 064B     		ldr	r3, .L55
 733 0002 1B78     		ldrb	r3, [r3]
 734 0004 DB07     		lsls	r3, r3, #31
 735 0006 FBD5     		bpl	.L54
 766:Generated_Source\PSoC4/StripLights.c **** 
 767:Generated_Source\PSoC4/StripLights.c ****     StripLights_DATA = (uint8)(color & 0x000000FF);  // Write Green
 736              		.loc 1 767 0
 737 0008 C2B2     		uxtb	r2, r0
 738 000a 054B     		ldr	r3, .L55+4
 739 000c 1A70     		strb	r2, [r3]
 768:Generated_Source\PSoC4/StripLights.c ****     color = color >> 8;
 740              		.loc 1 768 0
 741 000e 020A     		lsrs	r2, r0, #8
 742              	.LVL48:
 769:Generated_Source\PSoC4/StripLights.c ****     StripLights_DATA = (uint8)(color & 0x000000FF);  // Write Red
 743              		.loc 1 769 0
 744 0010 D2B2     		uxtb	r2, r2
 745              	.LVL49:
 746 0012 1A70     		strb	r2, [r3]
 770:Generated_Source\PSoC4/StripLights.c ****     color = color >> 8;
 747              		.loc 1 770 0
 748 0014 000C     		lsrs	r0, r0, #16
 749              	.LVL50:
 771:Generated_Source\PSoC4/StripLights.c ****     StripLights_DATA = (uint8)(color & 0x000000FF);  // Write Blue
 750              		.loc 1 771 0
 751 0016 C0B2     		uxtb	r0, r0
 752              	.LVL51:
 753 0018 1870     		strb	r0, [r3]
 772:Generated_Source\PSoC4/StripLights.c ****     
 773:Generated_Source\PSoC4/StripLights.c ****     #if(StripLights_CHIP == StripLights_CHIP_SF2812RGBW)
 774:Generated_Source\PSoC4/StripLights.c ****         color = color >> 8;
 775:Generated_Source\PSoC4/StripLights.c ****         StripLights_DATA = (uint8)(color & 0x000000FF);  // Write White 
 776:Generated_Source\PSoC4/StripLights.c ****     #endif 
ARM GAS  C:\Users\JAMESS~1\AppData\Local\Temp\ccSFa4Kp.s 			page 29


 777:Generated_Source\PSoC4/StripLights.c **** }
 754              		.loc 1 777 0
 755              		@ sp needed
 756 001a 7047     		bx	lr
 757              	.L56:
 758              		.align	2
 759              	.L55:
 760 001c 62000F40 		.word	1074724962
 761 0020 42000F40 		.word	1074724930
 762              		.cfi_endproc
 763              	.LFE45:
 764              		.size	StripLights_WriteColor, .-StripLights_WriteColor
 765              		.section	.text.StripLights_Pixel,"ax",%progbits
 766              		.align	2
 767              		.global	StripLights_Pixel
 768              		.code	16
 769              		.thumb_func
 770              		.type	StripLights_Pixel, %function
 771              	StripLights_Pixel:
 772              	.LFB46:
 778:Generated_Source\PSoC4/StripLights.c **** 
 779:Generated_Source\PSoC4/StripLights.c **** 
 780:Generated_Source\PSoC4/StripLights.c **** /*******************************************************************************
 781:Generated_Source\PSoC4/StripLights.c **** * Function Name: StripLights_Pixel
 782:Generated_Source\PSoC4/StripLights.c **** ********************************************************************************
 783:Generated_Source\PSoC4/StripLights.c **** *
 784:Generated_Source\PSoC4/StripLights.c **** * Summary:
 785:Generated_Source\PSoC4/StripLights.c **** *  Draw Pixel  
 786:Generated_Source\PSoC4/StripLights.c **** *
 787:Generated_Source\PSoC4/StripLights.c **** * Parameters:  
 788:Generated_Source\PSoC4/StripLights.c **** *  x,y:    Location to draw the pixel
 789:Generated_Source\PSoC4/StripLights.c **** *  color:  Color of the pixel
 790:Generated_Source\PSoC4/StripLights.c **** *
 791:Generated_Source\PSoC4/StripLights.c **** * Return: 
 792:Generated_Source\PSoC4/StripLights.c **** *  None 
 793:Generated_Source\PSoC4/StripLights.c **** *******************************************************************************/
 794:Generated_Source\PSoC4/StripLights.c **** void StripLights_Pixel(int32 x, int32 y, uint32 color)
 795:Generated_Source\PSoC4/StripLights.c **** {
 773              		.loc 1 795 0
 774              		.cfi_startproc
 775              		@ args = 0, pretend = 0, frame = 0
 776              		@ frame_needed = 0, uses_anonymous_args = 0
 777              		@ link register save eliminated.
 778              	.LVL52:
 796:Generated_Source\PSoC4/StripLights.c **** 
 797:Generated_Source\PSoC4/StripLights.c ****     // Swap X-Y Coordinates
 798:Generated_Source\PSoC4/StripLights.c ****     #if(StripLights_SWAP_XY_COORD == StripLights_XY_SWAPED)
 799:Generated_Source\PSoC4/StripLights.c ****         uint32 xyTmp;
 800:Generated_Source\PSoC4/StripLights.c ****         xyTmp = x;
 801:Generated_Source\PSoC4/StripLights.c ****         x = y;
 802:Generated_Source\PSoC4/StripLights.c ****         y = xyTmp;
 803:Generated_Source\PSoC4/StripLights.c ****     #endif
 804:Generated_Source\PSoC4/StripLights.c ****     
 805:Generated_Source\PSoC4/StripLights.c ****     // X-Wrap
 806:Generated_Source\PSoC4/StripLights.c ****     #if (StripLights_COORD_WRAP & StripLights_COORD_XAXIS )
 807:Generated_Source\PSoC4/StripLights.c ****         x = x % (StripLights_MAX_X+1);
 808:Generated_Source\PSoC4/StripLights.c ****     #endif
ARM GAS  C:\Users\JAMESS~1\AppData\Local\Temp\ccSFa4Kp.s 			page 30


 809:Generated_Source\PSoC4/StripLights.c ****     
 810:Generated_Source\PSoC4/StripLights.c ****     // Y-Wrap
 811:Generated_Source\PSoC4/StripLights.c ****     #if (StripLights_COORD_WRAP & StripLights_COORD_YAXIS )
 812:Generated_Source\PSoC4/StripLights.c ****         y = y % (StripLights_MAX_Y+1);
 813:Generated_Source\PSoC4/StripLights.c ****     #endif
 814:Generated_Source\PSoC4/StripLights.c ****     
 815:Generated_Source\PSoC4/StripLights.c ****     // Flip X-Axis
 816:Generated_Source\PSoC4/StripLights.c ****     #if (StripLights_FLIP_X_COORD == StripLights_FLIP_COORD )
 817:Generated_Source\PSoC4/StripLights.c ****         x = StripLights_MAX_X - x;
 818:Generated_Source\PSoC4/StripLights.c ****     #endif
 819:Generated_Source\PSoC4/StripLights.c ****     
 820:Generated_Source\PSoC4/StripLights.c ****     // Flip Y-Axis
 821:Generated_Source\PSoC4/StripLights.c ****     #if (StripLights_FLIP_Y_COORD == StripLights_FLIP_COORD )
 822:Generated_Source\PSoC4/StripLights.c ****         y = StripLights_MAX_Y - y;
 823:Generated_Source\PSoC4/StripLights.c ****     #endif
 824:Generated_Source\PSoC4/StripLights.c ****     
 825:Generated_Source\PSoC4/StripLights.c ****     // Make sure X-Y values are in range
 826:Generated_Source\PSoC4/StripLights.c ****    	if((x >= StripLights_MIN_X) && (y >= StripLights_MIN_Y) && (x <= StripLights_MAX_X) && (y <= St
 779              		.loc 1 826 0
 780 0000 0028     		cmp	r0, #0
 781 0002 0CDB     		blt	.L57
 782              		.loc 1 826 0 is_stmt 0 discriminator 1
 783 0004 0029     		cmp	r1, #0
 784 0006 0ADB     		blt	.L57
 785              		.loc 1 826 0 discriminator 2
 786 0008 0D28     		cmp	r0, #13
 787 000a 08DC     		bgt	.L57
 788              		.loc 1 826 0 discriminator 3
 789 000c 0029     		cmp	r1, #0
 790 000e 06DC     		bgt	.L57
 827:Generated_Source\PSoC4/StripLights.c ****     {
 828:Generated_Source\PSoC4/StripLights.c ****         
 829:Generated_Source\PSoC4/StripLights.c ****         #if (StripLights_LED_LAYOUT == StripLights_LED_LAYOUT_STANDARD)
 830:Generated_Source\PSoC4/StripLights.c ****              // Do nothing special   
 831:Generated_Source\PSoC4/StripLights.c ****         #elif (StripLights_LED_LAYOUT == StripLights_LED_LAYOUT_SPIRAL)
 832:Generated_Source\PSoC4/StripLights.c ****             x = x + (y * StripLights_COLUMNS);
 833:Generated_Source\PSoC4/StripLights.c ****             y = 0;
 834:Generated_Source\PSoC4/StripLights.c ****             
 835:Generated_Source\PSoC4/StripLights.c ****         #elif (StripLights_LED_LAYOUT == StripLights_LED_LAYOUT_GRID16X16)
 836:Generated_Source\PSoC4/StripLights.c ****             	x = (((x/(int32)16)*(int32)256) + (uint32)StripLights_cTrans[y % 16][x % 16]);
 837:Generated_Source\PSoC4/StripLights.c **** 		        y = (y/(int32)16);    
 838:Generated_Source\PSoC4/StripLights.c ****         #endif
 839:Generated_Source\PSoC4/StripLights.c ****          
 840:Generated_Source\PSoC4/StripLights.c ****         #if(StripLights_MEMORY_TYPE == StripLights_MEMORY_RGB)
 841:Generated_Source\PSoC4/StripLights.c ****             StripLights_ledArray[y][x] = color;
 791              		.loc 1 841 0 is_stmt 1
 792 0010 CB00     		lsls	r3, r1, #3
 793 0012 591A     		subs	r1, r3, r1
 794              	.LVL53:
 795 0014 4B00     		lsls	r3, r1, #1
 796 0016 1818     		adds	r0, r3, r0
 797              	.LVL54:
 798 0018 8000     		lsls	r0, r0, #2
 799 001a 014B     		ldr	r3, .L59
 800 001c C250     		str	r2, [r0, r3]
 801              	.L57:
 842:Generated_Source\PSoC4/StripLights.c ****         #else  /* Else use lookup table */
ARM GAS  C:\Users\JAMESS~1\AppData\Local\Temp\ccSFa4Kp.s 			page 31


 843:Generated_Source\PSoC4/StripLights.c ****             StripLights_ledArray[y][x] = (uint8)color;
 844:Generated_Source\PSoC4/StripLights.c ****         #endif    
 845:Generated_Source\PSoC4/StripLights.c ****             
 846:Generated_Source\PSoC4/StripLights.c **** 
 847:Generated_Source\PSoC4/StripLights.c ****     }
 848:Generated_Source\PSoC4/StripLights.c **** }
 802              		.loc 1 848 0
 803              		@ sp needed
 804 001e 7047     		bx	lr
 805              	.L60:
 806              		.align	2
 807              	.L59:
 808 0020 00000000 		.word	StripLights_ledArray
 809              		.cfi_endproc
 810              	.LFE46:
 811              		.size	StripLights_Pixel, .-StripLights_Pixel
 812              		.section	.text.StripLights_GetPixel,"ax",%progbits
 813              		.align	2
 814              		.global	StripLights_GetPixel
 815              		.code	16
 816              		.thumb_func
 817              		.type	StripLights_GetPixel, %function
 818              	StripLights_GetPixel:
 819              	.LFB47:
 849:Generated_Source\PSoC4/StripLights.c **** 
 850:Generated_Source\PSoC4/StripLights.c **** 
 851:Generated_Source\PSoC4/StripLights.c **** 
 852:Generated_Source\PSoC4/StripLights.c **** /*******************************************************************************
 853:Generated_Source\PSoC4/StripLights.c **** * Function Name: StripLights_GetPixel
 854:Generated_Source\PSoC4/StripLights.c **** ********************************************************************************
 855:Generated_Source\PSoC4/StripLights.c **** *
 856:Generated_Source\PSoC4/StripLights.c **** * Summary:
 857:Generated_Source\PSoC4/StripLights.c **** *  Get Pixel Color  
 858:Generated_Source\PSoC4/StripLights.c **** *
 859:Generated_Source\PSoC4/StripLights.c **** * Parameters:  
 860:Generated_Source\PSoC4/StripLights.c **** *  x,y:    Location to get pixel color
 861:Generated_Source\PSoC4/StripLights.c **** *
 862:Generated_Source\PSoC4/StripLights.c **** * Return: 
 863:Generated_Source\PSoC4/StripLights.c **** *  None 
 864:Generated_Source\PSoC4/StripLights.c **** *******************************************************************************/
 865:Generated_Source\PSoC4/StripLights.c **** uint32 StripLights_GetPixel(int32 x, int32 y)
 866:Generated_Source\PSoC4/StripLights.c **** {
 820              		.loc 1 866 0
 821              		.cfi_startproc
 822              		@ args = 0, pretend = 0, frame = 0
 823              		@ frame_needed = 0, uses_anonymous_args = 0
 824              		@ link register save eliminated.
 825              	.LVL55:
 867:Generated_Source\PSoC4/StripLights.c ****     uint32 color = 0;
 868:Generated_Source\PSoC4/StripLights.c ****     #if (StripLights_COORD_WRAP & StripLights_COORD_XAXIS )
 869:Generated_Source\PSoC4/StripLights.c ****         x = x % (StripLights_MAX_X+1);
 870:Generated_Source\PSoC4/StripLights.c ****     #endif
 871:Generated_Source\PSoC4/StripLights.c ****     #if (StripLights_COORD_WRAP & StripLights_COORD_YAXIS )
 872:Generated_Source\PSoC4/StripLights.c ****         y = y % (StripLights_MAX_Y+1);
 873:Generated_Source\PSoC4/StripLights.c ****     #endif
 874:Generated_Source\PSoC4/StripLights.c ****     
 875:Generated_Source\PSoC4/StripLights.c ****     if((x>=0) && (y>=0) && (x < StripLights_ARRAY_COLS) && (y < StripLights_ARRAY_ROWS))
ARM GAS  C:\Users\JAMESS~1\AppData\Local\Temp\ccSFa4Kp.s 			page 32


 826              		.loc 1 875 0
 827 0000 0028     		cmp	r0, #0
 828 0002 0DDB     		blt	.L63
 829              		.loc 1 875 0 is_stmt 0 discriminator 1
 830 0004 0029     		cmp	r1, #0
 831 0006 0DDB     		blt	.L64
 832              		.loc 1 875 0 discriminator 2
 833 0008 0D28     		cmp	r0, #13
 834 000a 0DDC     		bgt	.L65
 835              		.loc 1 875 0 discriminator 3
 836 000c 0029     		cmp	r1, #0
 837 000e 0DDC     		bgt	.L66
 876:Generated_Source\PSoC4/StripLights.c ****     {
 877:Generated_Source\PSoC4/StripLights.c ****                 
 878:Generated_Source\PSoC4/StripLights.c ****         #if (StripLights_LED_LAYOUT == StripLights_LED_LAYOUT_STANDARD)
 879:Generated_Source\PSoC4/StripLights.c ****             
 880:Generated_Source\PSoC4/StripLights.c ****         #elif (StripLights_LED_LAYOUT == StripLights_LED_LAYOUT_SPIRAL)
 881:Generated_Source\PSoC4/StripLights.c ****             x = x + (y * StripLights_COLUMNS);
 882:Generated_Source\PSoC4/StripLights.c ****             y = 0;
 883:Generated_Source\PSoC4/StripLights.c ****             
 884:Generated_Source\PSoC4/StripLights.c ****         #elif (StripLights_LED_LAYOUT == StripLights_LED_LAYOUT_GRID16X16)
 885:Generated_Source\PSoC4/StripLights.c ****             	x = (((x/(int32)16)*(int32)256) + (uint32)StripLights_cTrans[y % 16][x % 16]);
 886:Generated_Source\PSoC4/StripLights.c **** 		        y = (y/(int32)16);    
 887:Generated_Source\PSoC4/StripLights.c ****         #endif
 888:Generated_Source\PSoC4/StripLights.c ****     
 889:Generated_Source\PSoC4/StripLights.c ****         #if(StripLights_MEMORY_TYPE == StripLights_MEMORY_RGB)
 890:Generated_Source\PSoC4/StripLights.c ****             color = StripLights_ledArray[y][x];
 838              		.loc 1 890 0 is_stmt 1
 839 0010 CB00     		lsls	r3, r1, #3
 840 0012 591A     		subs	r1, r3, r1
 841              	.LVL56:
 842 0014 4B00     		lsls	r3, r1, #1
 843 0016 1818     		adds	r0, r3, r0
 844              	.LVL57:
 845 0018 8000     		lsls	r0, r0, #2
 846 001a 054B     		ldr	r3, .L67
 847 001c C058     		ldr	r0, [r0, r3]
 848              	.LVL58:
 849 001e 06E0     		b	.L62
 850              	.LVL59:
 851              	.L63:
 867:Generated_Source\PSoC4/StripLights.c ****     uint32 color = 0;
 852              		.loc 1 867 0
 853 0020 0020     		movs	r0, #0
 854              	.LVL60:
 855 0022 04E0     		b	.L62
 856              	.LVL61:
 857              	.L64:
 858 0024 0020     		movs	r0, #0
 859              	.LVL62:
 860 0026 02E0     		b	.L62
 861              	.LVL63:
 862              	.L65:
 863 0028 0020     		movs	r0, #0
 864              	.LVL64:
 865 002a 00E0     		b	.L62
 866              	.LVL65:
ARM GAS  C:\Users\JAMESS~1\AppData\Local\Temp\ccSFa4Kp.s 			page 33


 867              	.L66:
 868 002c 0020     		movs	r0, #0
 869              	.LVL66:
 870              	.L62:
 891:Generated_Source\PSoC4/StripLights.c ****         #else  /* Else use lookup table */
 892:Generated_Source\PSoC4/StripLights.c ****             color = (uint32)StripLights_ledArray[y][x];
 893:Generated_Source\PSoC4/StripLights.c ****         #endif
 894:Generated_Source\PSoC4/StripLights.c **** 
 895:Generated_Source\PSoC4/StripLights.c ****     }
 896:Generated_Source\PSoC4/StripLights.c ****     return(color);
 897:Generated_Source\PSoC4/StripLights.c **** }
 871              		.loc 1 897 0
 872              		@ sp needed
 873 002e 7047     		bx	lr
 874              	.L68:
 875              		.align	2
 876              	.L67:
 877 0030 00000000 		.word	StripLights_ledArray
 878              		.cfi_endproc
 879              	.LFE47:
 880              		.size	StripLights_GetPixel, .-StripLights_GetPixel
 881              		.section	.text.StripLights_DrawCircle,"ax",%progbits
 882              		.align	2
 883              		.global	StripLights_DrawCircle
 884              		.code	16
 885              		.thumb_func
 886              		.type	StripLights_DrawCircle, %function
 887              	StripLights_DrawCircle:
 888              	.LFB48:
 898:Generated_Source\PSoC4/StripLights.c **** 
 899:Generated_Source\PSoC4/StripLights.c **** /*******************************************************************************
 900:Generated_Source\PSoC4/StripLights.c **** * Function Name: StripLights_DrawCircle
 901:Generated_Source\PSoC4/StripLights.c **** ********************************************************************************
 902:Generated_Source\PSoC4/StripLights.c **** *
 903:Generated_Source\PSoC4/StripLights.c **** * Summary:
 904:Generated_Source\PSoC4/StripLights.c **** *  Draw a circle on the display given a start point and radius.  
 905:Generated_Source\PSoC4/StripLights.c **** *
 906:Generated_Source\PSoC4/StripLights.c **** *  This code uses Bresenham's Circle Algorithm. 
 907:Generated_Source\PSoC4/StripLights.c **** *
 908:Generated_Source\PSoC4/StripLights.c **** * Parameters:  
 909:Generated_Source\PSoC4/StripLights.c **** *  x0, y0: Center of circle
 910:Generated_Source\PSoC4/StripLights.c **** *  radius: Radius of circle
 911:Generated_Source\PSoC4/StripLights.c **** *  color:  Color of circle
 912:Generated_Source\PSoC4/StripLights.c **** *
 913:Generated_Source\PSoC4/StripLights.c **** * Return: 
 914:Generated_Source\PSoC4/StripLights.c **** *  None 
 915:Generated_Source\PSoC4/StripLights.c **** *  
 916:Generated_Source\PSoC4/StripLights.c **** *******************************************************************************/
 917:Generated_Source\PSoC4/StripLights.c **** void StripLights_DrawCircle (int32 x0, int32 y0, int32 radius, uint32 color)
 918:Generated_Source\PSoC4/StripLights.c **** {
 889              		.loc 1 918 0
 890              		.cfi_startproc
 891              		@ args = 0, pretend = 0, frame = 16
 892              		@ frame_needed = 0, uses_anonymous_args = 0
 893              	.LVL67:
 894 0000 F0B5     		push	{r4, r5, r6, r7, lr}
 895              		.cfi_def_cfa_offset 20
ARM GAS  C:\Users\JAMESS~1\AppData\Local\Temp\ccSFa4Kp.s 			page 34


 896              		.cfi_offset 4, -20
 897              		.cfi_offset 5, -16
 898              		.cfi_offset 6, -12
 899              		.cfi_offset 7, -8
 900              		.cfi_offset 14, -4
 901 0002 5F46     		mov	r7, fp
 902 0004 5646     		mov	r6, r10
 903 0006 4D46     		mov	r5, r9
 904 0008 4446     		mov	r4, r8
 905 000a F0B4     		push	{r4, r5, r6, r7}
 906              		.cfi_def_cfa_offset 36
 907              		.cfi_offset 8, -36
 908              		.cfi_offset 9, -32
 909              		.cfi_offset 10, -28
 910              		.cfi_offset 11, -24
 911 000c 85B0     		sub	sp, sp, #20
 912              		.cfi_def_cfa_offset 56
 913 000e 8346     		mov	fp, r0
 914 0010 8846     		mov	r8, r1
 915 0012 1400     		movs	r4, r2
 916 0014 1D00     		movs	r5, r3
 917 0016 0193     		str	r3, [sp, #4]
 919:Generated_Source\PSoC4/StripLights.c **** 	int32 f = 1 - radius;
 918              		.loc 1 919 0
 919 0018 0123     		movs	r3, #1
 920              	.LVL68:
 921 001a 9B1A     		subs	r3, r3, r2
 922 001c 9946     		mov	r9, r3
 923              	.LVL69:
 920:Generated_Source\PSoC4/StripLights.c **** 	int32 ddF_x = 0;
 921:Generated_Source\PSoC4/StripLights.c **** 	int32 ddF_y = -2 * radius;
 924              		.loc 1 921 0
 925 001e D307     		lsls	r3, r2, #31
 926              	.LVL70:
 927 0020 9B1A     		subs	r3, r3, r2
 928 0022 5A00     		lsls	r2, r3, #1
 929              	.LVL71:
 930 0024 9246     		mov	r10, r2
 931              	.LVL72:
 922:Generated_Source\PSoC4/StripLights.c **** 	int32 x = 0;
 923:Generated_Source\PSoC4/StripLights.c **** 	int32 y = radius;
 924:Generated_Source\PSoC4/StripLights.c **** 
 925:Generated_Source\PSoC4/StripLights.c **** 	StripLights_Pixel(x0, y0 + radius, color);
 932              		.loc 1 925 0
 933 0026 6118     		adds	r1, r4, r1
 934              	.LVL73:
 935 0028 2A00     		movs	r2, r5
 936              	.LVL74:
 937 002a FFF7FEFF 		bl	StripLights_Pixel
 938              	.LVL75:
 926:Generated_Source\PSoC4/StripLights.c **** 	StripLights_Pixel(x0, y0 - radius, color);
 939              		.loc 1 926 0
 940 002e 4346     		mov	r3, r8
 941 0030 191B     		subs	r1, r3, r4
 942 0032 2A00     		movs	r2, r5
 943 0034 5846     		mov	r0, fp
 944 0036 FFF7FEFF 		bl	StripLights_Pixel
ARM GAS  C:\Users\JAMESS~1\AppData\Local\Temp\ccSFa4Kp.s 			page 35


 945              	.LVL76:
 927:Generated_Source\PSoC4/StripLights.c **** 	StripLights_Pixel( x0 + radius, y0, color);
 946              		.loc 1 927 0
 947 003a 5B46     		mov	r3, fp
 948 003c E018     		adds	r0, r4, r3
 949 003e 2A00     		movs	r2, r5
 950 0040 4146     		mov	r1, r8
 951 0042 FFF7FEFF 		bl	StripLights_Pixel
 952              	.LVL77:
 928:Generated_Source\PSoC4/StripLights.c **** 	StripLights_Pixel( x0 - radius, y0, color);
 953              		.loc 1 928 0
 954 0046 5B46     		mov	r3, fp
 955 0048 181B     		subs	r0, r3, r4
 956 004a 2A00     		movs	r2, r5
 957 004c 4146     		mov	r1, r8
 958 004e FFF7FEFF 		bl	StripLights_Pixel
 959              	.LVL78:
 922:Generated_Source\PSoC4/StripLights.c **** 	int32 y = radius;
 960              		.loc 1 922 0
 961 0052 0026     		movs	r6, #0
 920:Generated_Source\PSoC4/StripLights.c **** 	int32 ddF_y = -2 * radius;
 962              		.loc 1 920 0
 963 0054 0023     		movs	r3, #0
 929:Generated_Source\PSoC4/StripLights.c **** 
 930:Generated_Source\PSoC4/StripLights.c **** 	while(x < y)
 964              		.loc 1 930 0
 965 0056 48E0     		b	.L70
 966              	.LVL79:
 967              	.L72:
 931:Generated_Source\PSoC4/StripLights.c **** 	{
 932:Generated_Source\PSoC4/StripLights.c **** 		if(f >= 0)
 968              		.loc 1 932 0
 969 0058 4A46     		mov	r2, r9
 970 005a 002A     		cmp	r2, #0
 971 005c 04DB     		blt	.L71
 972              	.LVL80:
 933:Generated_Source\PSoC4/StripLights.c **** 		{
 934:Generated_Source\PSoC4/StripLights.c **** 			y--;
 973              		.loc 1 934 0
 974 005e 013C     		subs	r4, r4, #1
 975              	.LVL81:
 935:Generated_Source\PSoC4/StripLights.c **** 			ddF_y += 2;
 976              		.loc 1 935 0
 977 0060 0222     		movs	r2, #2
 978              	.LVL82:
 979 0062 9446     		mov	ip, r2
 980 0064 E244     		add	r10, r10, ip
 981              	.LVL83:
 936:Generated_Source\PSoC4/StripLights.c **** 			f += ddF_y;
 982              		.loc 1 936 0
 983 0066 D144     		add	r9, r9, r10
 984              	.LVL84:
 985              	.L71:
 937:Generated_Source\PSoC4/StripLights.c **** 		}
 938:Generated_Source\PSoC4/StripLights.c **** 		x++;
 986              		.loc 1 938 0
 987 0068 0136     		adds	r6, r6, #1
ARM GAS  C:\Users\JAMESS~1\AppData\Local\Temp\ccSFa4Kp.s 			page 36


 988              	.LVL85:
 939:Generated_Source\PSoC4/StripLights.c **** 		ddF_x += 2;
 989              		.loc 1 939 0
 990 006a 9A1C     		adds	r2, r3, #2
 991 006c 0292     		str	r2, [sp, #8]
 992              	.LVL86:
 940:Generated_Source\PSoC4/StripLights.c **** 		f += ddF_x + 1;
 993              		.loc 1 940 0
 994 006e 0333     		adds	r3, r3, #3
 995 0070 9944     		add	r9, r9, r3
 996              	.LVL87:
 941:Generated_Source\PSoC4/StripLights.c **** 
 942:Generated_Source\PSoC4/StripLights.c **** 		StripLights_Pixel(x0 + x, y0 + y, color);
 997              		.loc 1 942 0
 998 0072 5946     		mov	r1, fp
 999 0074 8F19     		adds	r7, r1, r6
 1000 0076 4146     		mov	r1, r8
 1001 0078 6318     		adds	r3, r4, r1
 1002 007a 019A     		ldr	r2, [sp, #4]
 1003              	.LVL88:
 1004 007c 0393     		str	r3, [sp, #12]
 1005 007e 1900     		movs	r1, r3
 1006 0080 3800     		movs	r0, r7
 1007 0082 FFF7FEFF 		bl	StripLights_Pixel
 1008              	.LVL89:
 943:Generated_Source\PSoC4/StripLights.c **** 		StripLights_Pixel(x0 - x, y0 + y, color);
 1009              		.loc 1 943 0
 1010 0086 5846     		mov	r0, fp
 1011 0088 851B     		subs	r5, r0, r6
 1012 008a 019A     		ldr	r2, [sp, #4]
 1013 008c 0399     		ldr	r1, [sp, #12]
 1014 008e 2800     		movs	r0, r5
 1015 0090 FFF7FEFF 		bl	StripLights_Pixel
 1016              	.LVL90:
 944:Generated_Source\PSoC4/StripLights.c **** 		StripLights_Pixel( x0 + x, y0 - y, color);
 1017              		.loc 1 944 0
 1018 0094 4146     		mov	r1, r8
 1019 0096 0B1B     		subs	r3, r1, r4
 1020 0098 019A     		ldr	r2, [sp, #4]
 1021 009a 0393     		str	r3, [sp, #12]
 1022 009c 1900     		movs	r1, r3
 1023 009e 3800     		movs	r0, r7
 1024 00a0 FFF7FEFF 		bl	StripLights_Pixel
 1025              	.LVL91:
 945:Generated_Source\PSoC4/StripLights.c **** 		StripLights_Pixel( x0 - x, y0 - y, color);
 1026              		.loc 1 945 0
 1027 00a4 019A     		ldr	r2, [sp, #4]
 1028 00a6 0399     		ldr	r1, [sp, #12]
 1029 00a8 2800     		movs	r0, r5
 1030 00aa FFF7FEFF 		bl	StripLights_Pixel
 1031              	.LVL92:
 946:Generated_Source\PSoC4/StripLights.c **** 		StripLights_Pixel( x0 + y, y0 + x, color);
 1032              		.loc 1 946 0
 1033 00ae 5946     		mov	r1, fp
 1034 00b0 6718     		adds	r7, r4, r1
 1035 00b2 4146     		mov	r1, r8
 1036 00b4 8D19     		adds	r5, r1, r6
ARM GAS  C:\Users\JAMESS~1\AppData\Local\Temp\ccSFa4Kp.s 			page 37


 1037 00b6 019A     		ldr	r2, [sp, #4]
 1038 00b8 2900     		movs	r1, r5
 1039 00ba 3800     		movs	r0, r7
 1040 00bc FFF7FEFF 		bl	StripLights_Pixel
 1041              	.LVL93:
 947:Generated_Source\PSoC4/StripLights.c **** 		StripLights_Pixel( x0 - y, y0 + x, color);
 1042              		.loc 1 947 0
 1043 00c0 5946     		mov	r1, fp
 1044 00c2 0B1B     		subs	r3, r1, r4
 1045 00c4 019A     		ldr	r2, [sp, #4]
 1046 00c6 2900     		movs	r1, r5
 1047 00c8 0393     		str	r3, [sp, #12]
 1048 00ca 1800     		movs	r0, r3
 1049 00cc FFF7FEFF 		bl	StripLights_Pixel
 1050              	.LVL94:
 948:Generated_Source\PSoC4/StripLights.c **** 		StripLights_Pixel( x0 + y, y0 - x, color);
 1051              		.loc 1 948 0
 1052 00d0 4146     		mov	r1, r8
 1053 00d2 8D1B     		subs	r5, r1, r6
 1054 00d4 019A     		ldr	r2, [sp, #4]
 1055 00d6 2900     		movs	r1, r5
 1056 00d8 3800     		movs	r0, r7
 1057 00da FFF7FEFF 		bl	StripLights_Pixel
 1058              	.LVL95:
 949:Generated_Source\PSoC4/StripLights.c **** 		StripLights_Pixel( x0 - y, y0 - x, color);
 1059              		.loc 1 949 0
 1060 00de 019A     		ldr	r2, [sp, #4]
 1061 00e0 2900     		movs	r1, r5
 1062 00e2 0398     		ldr	r0, [sp, #12]
 1063 00e4 FFF7FEFF 		bl	StripLights_Pixel
 1064              	.LVL96:
 939:Generated_Source\PSoC4/StripLights.c **** 		f += ddF_x + 1;
 1065              		.loc 1 939 0
 1066 00e8 029B     		ldr	r3, [sp, #8]
 1067              	.LVL97:
 1068              	.L70:
 930:Generated_Source\PSoC4/StripLights.c **** 	{
 1069              		.loc 1 930 0
 1070 00ea A642     		cmp	r6, r4
 1071 00ec B4DB     		blt	.L72
 950:Generated_Source\PSoC4/StripLights.c **** 	}
 951:Generated_Source\PSoC4/StripLights.c **** }
 1072              		.loc 1 951 0
 1073 00ee 05B0     		add	sp, sp, #20
 1074              		@ sp needed
 1075              	.LVL98:
 1076              	.LVL99:
 1077              	.LVL100:
 1078              	.LVL101:
 1079              	.LVL102:
 1080              	.LVL103:
 1081 00f0 3CBC     		pop	{r2, r3, r4, r5}
 1082 00f2 9046     		mov	r8, r2
 1083 00f4 9946     		mov	r9, r3
 1084 00f6 A246     		mov	r10, r4
 1085 00f8 AB46     		mov	fp, r5
 1086 00fa F0BD     		pop	{r4, r5, r6, r7, pc}
ARM GAS  C:\Users\JAMESS~1\AppData\Local\Temp\ccSFa4Kp.s 			page 38


 1087              		.cfi_endproc
 1088              	.LFE48:
 1089              		.size	StripLights_DrawCircle, .-StripLights_DrawCircle
 1090              		.section	.text.StripLights_DrawLine,"ax",%progbits
 1091              		.align	2
 1092              		.global	StripLights_DrawLine
 1093              		.code	16
 1094              		.thumb_func
 1095              		.type	StripLights_DrawLine, %function
 1096              	StripLights_DrawLine:
 1097              	.LFB49:
 952:Generated_Source\PSoC4/StripLights.c **** 
 953:Generated_Source\PSoC4/StripLights.c **** 
 954:Generated_Source\PSoC4/StripLights.c **** /*******************************************************************************
 955:Generated_Source\PSoC4/StripLights.c **** * Function Name: StripLights_DrawLine
 956:Generated_Source\PSoC4/StripLights.c **** ********************************************************************************
 957:Generated_Source\PSoC4/StripLights.c **** *
 958:Generated_Source\PSoC4/StripLights.c **** * Summary:
 959:Generated_Source\PSoC4/StripLights.c **** *  Draw a line on the display.  
 960:Generated_Source\PSoC4/StripLights.c **** *
 961:Generated_Source\PSoC4/StripLights.c **** * Parameters:  
 962:Generated_Source\PSoC4/StripLights.c **** *  x0, y0:  The beginning endpoint
 963:Generated_Source\PSoC4/StripLights.c **** *  x1, y1:  The end endpoint.
 964:Generated_Source\PSoC4/StripLights.c **** *  color:   Color of the line.
 965:Generated_Source\PSoC4/StripLights.c **** *
 966:Generated_Source\PSoC4/StripLights.c **** * Return: 
 967:Generated_Source\PSoC4/StripLights.c **** *  None 
 968:Generated_Source\PSoC4/StripLights.c **** *  
 969:Generated_Source\PSoC4/StripLights.c **** *******************************************************************************/
 970:Generated_Source\PSoC4/StripLights.c **** void StripLights_DrawLine(int32 x0, int32 y0, int32 x1, int32 y1, uint32 color)
 971:Generated_Source\PSoC4/StripLights.c **** {
 1098              		.loc 1 971 0
 1099              		.cfi_startproc
 1100              		@ args = 4, pretend = 0, frame = 8
 1101              		@ frame_needed = 0, uses_anonymous_args = 0
 1102              	.LVL104:
 1103 0000 F0B5     		push	{r4, r5, r6, r7, lr}
 1104              		.cfi_def_cfa_offset 20
 1105              		.cfi_offset 4, -20
 1106              		.cfi_offset 5, -16
 1107              		.cfi_offset 6, -12
 1108              		.cfi_offset 7, -8
 1109              		.cfi_offset 14, -4
 1110 0002 5F46     		mov	r7, fp
 1111 0004 5646     		mov	r6, r10
 1112 0006 4D46     		mov	r5, r9
 1113 0008 4446     		mov	r4, r8
 1114 000a F0B4     		push	{r4, r5, r6, r7}
 1115              		.cfi_def_cfa_offset 36
 1116              		.cfi_offset 8, -36
 1117              		.cfi_offset 9, -32
 1118              		.cfi_offset 10, -28
 1119              		.cfi_offset 11, -24
 1120 000c 83B0     		sub	sp, sp, #12
 1121              		.cfi_def_cfa_offset 48
 1122 000e 0400     		movs	r4, r0
 1123 0010 0D00     		movs	r5, r1
ARM GAS  C:\Users\JAMESS~1\AppData\Local\Temp\ccSFa4Kp.s 			page 39


 1124 0012 0192     		str	r2, [sp, #4]
 1125 0014 9B46     		mov	fp, r3
 972:Generated_Source\PSoC4/StripLights.c **** 	int32 dy = y1 - y0; /* Difference between y0 and y1 */
 1126              		.loc 1 972 0
 1127 0016 5B1A     		subs	r3, r3, r1
 1128              	.LVL105:
 973:Generated_Source\PSoC4/StripLights.c **** 	int32 dx = x1 - x0; /* Difference between x0 and x1 */
 1129              		.loc 1 973 0
 1130 0018 171A     		subs	r7, r2, r0
 1131              	.LVL106:
 974:Generated_Source\PSoC4/StripLights.c **** 	int32 stepx, stepy;
 975:Generated_Source\PSoC4/StripLights.c **** 
 976:Generated_Source\PSoC4/StripLights.c **** 	if (dy < 0)
 1132              		.loc 1 976 0
 1133 001a 002B     		cmp	r3, #0
 1134 001c 04DA     		bge	.L84
 977:Generated_Source\PSoC4/StripLights.c **** 	{
 978:Generated_Source\PSoC4/StripLights.c **** 		dy = -dy;
 1135              		.loc 1 978 0
 1136 001e 5B42     		rsbs	r3, r3, #0
 1137              	.LVL107:
 979:Generated_Source\PSoC4/StripLights.c **** 		stepy = -1;
 1138              		.loc 1 979 0
 1139 0020 0122     		movs	r2, #1
 1140              	.LVL108:
 1141 0022 5242     		rsbs	r2, r2, #0
 1142 0024 9246     		mov	r10, r2
 1143 0026 01E0     		b	.L74
 1144              	.LVL109:
 1145              	.L84:
 980:Generated_Source\PSoC4/StripLights.c **** 	}
 981:Generated_Source\PSoC4/StripLights.c **** 	else
 982:Generated_Source\PSoC4/StripLights.c **** 	{
 983:Generated_Source\PSoC4/StripLights.c **** 		stepy = 1;
 1146              		.loc 1 983 0
 1147 0028 0122     		movs	r2, #1
 1148              	.LVL110:
 1149 002a 9246     		mov	r10, r2
 1150              	.L74:
 1151              	.LVL111:
 984:Generated_Source\PSoC4/StripLights.c **** 	}
 985:Generated_Source\PSoC4/StripLights.c **** 
 986:Generated_Source\PSoC4/StripLights.c **** 	if (dx < 0)
 1152              		.loc 1 986 0
 1153 002c 002F     		cmp	r7, #0
 1154 002e 04DA     		bge	.L85
 987:Generated_Source\PSoC4/StripLights.c **** 	{
 988:Generated_Source\PSoC4/StripLights.c **** 		dx = -dx;
 1155              		.loc 1 988 0
 1156 0030 7F42     		rsbs	r7, r7, #0
 1157              	.LVL112:
 989:Generated_Source\PSoC4/StripLights.c **** 		stepx = -1;
 1158              		.loc 1 989 0
 1159 0032 0122     		movs	r2, #1
 1160 0034 5242     		rsbs	r2, r2, #0
 1161 0036 9146     		mov	r9, r2
 1162 0038 01E0     		b	.L75
ARM GAS  C:\Users\JAMESS~1\AppData\Local\Temp\ccSFa4Kp.s 			page 40


 1163              	.LVL113:
 1164              	.L85:
 990:Generated_Source\PSoC4/StripLights.c **** 	}
 991:Generated_Source\PSoC4/StripLights.c **** 	else
 992:Generated_Source\PSoC4/StripLights.c **** 	{
 993:Generated_Source\PSoC4/StripLights.c **** 		stepx = 1;
 1165              		.loc 1 993 0
 1166 003a 0122     		movs	r2, #1
 1167 003c 9146     		mov	r9, r2
 1168              	.L75:
 1169              	.LVL114:
 994:Generated_Source\PSoC4/StripLights.c **** 	}
 995:Generated_Source\PSoC4/StripLights.c **** 
 996:Generated_Source\PSoC4/StripLights.c **** 	dy <<= 1; /* dy is now 2*dy  */
 1170              		.loc 1 996 0
 1171 003e 5B00     		lsls	r3, r3, #1
 1172              	.LVL115:
 1173 0040 9846     		mov	r8, r3
 1174              	.LVL116:
 997:Generated_Source\PSoC4/StripLights.c **** 	dx <<= 1; /* dx is now 2*dx  */
 1175              		.loc 1 997 0
 1176 0042 7F00     		lsls	r7, r7, #1
 1177              	.LVL117:
 998:Generated_Source\PSoC4/StripLights.c **** 	StripLights_Pixel(x0, y0, color);
 1178              		.loc 1 998 0
 1179 0044 0C9A     		ldr	r2, [sp, #48]
 1180 0046 2900     		movs	r1, r5
 1181              	.LVL118:
 1182 0048 2000     		movs	r0, r4
 1183              	.LVL119:
 1184 004a FFF7FEFF 		bl	StripLights_Pixel
 1185              	.LVL120:
 999:Generated_Source\PSoC4/StripLights.c **** 
1000:Generated_Source\PSoC4/StripLights.c **** 	if (dx > dy) 
 1186              		.loc 1 1000 0
 1187 004e B845     		cmp	r8, r7
 1188 0050 12DA     		bge	.L76
 1189              	.LBB2:
1001:Generated_Source\PSoC4/StripLights.c **** 	{
1002:Generated_Source\PSoC4/StripLights.c **** 		int fraction = dy - (dx >> 1);
 1190              		.loc 1 1002 0
 1191 0052 7B10     		asrs	r3, r7, #1
 1192 0054 4246     		mov	r2, r8
 1193 0056 D61A     		subs	r6, r2, r3
 1194              	.LVL121:
1003:Generated_Source\PSoC4/StripLights.c **** 		while (x0 != x1)
 1195              		.loc 1 1003 0
 1196 0058 0AE0     		b	.L77
 1197              	.L79:
1004:Generated_Source\PSoC4/StripLights.c **** 		{
1005:Generated_Source\PSoC4/StripLights.c **** 			if (fraction >= 0)
 1198              		.loc 1 1005 0
 1199 005a 002E     		cmp	r6, #0
 1200 005c 01DB     		blt	.L78
1006:Generated_Source\PSoC4/StripLights.c **** 			{
1007:Generated_Source\PSoC4/StripLights.c **** 				y0 += stepy;
 1201              		.loc 1 1007 0
ARM GAS  C:\Users\JAMESS~1\AppData\Local\Temp\ccSFa4Kp.s 			page 41


 1202 005e 5544     		add	r5, r5, r10
 1203              	.LVL122:
1008:Generated_Source\PSoC4/StripLights.c **** 				fraction -= dx;
 1204              		.loc 1 1008 0
 1205 0060 F61B     		subs	r6, r6, r7
 1206              	.LVL123:
 1207              	.L78:
1009:Generated_Source\PSoC4/StripLights.c **** 			}
1010:Generated_Source\PSoC4/StripLights.c **** 			x0 += stepx;
 1208              		.loc 1 1010 0
 1209 0062 4C44     		add	r4, r4, r9
 1210              	.LVL124:
1011:Generated_Source\PSoC4/StripLights.c **** 			fraction += dy;
 1211              		.loc 1 1011 0
 1212 0064 4644     		add	r6, r6, r8
 1213              	.LVL125:
1012:Generated_Source\PSoC4/StripLights.c **** 			StripLights_Pixel(x0, y0, color);
 1214              		.loc 1 1012 0
 1215 0066 0C9A     		ldr	r2, [sp, #48]
 1216 0068 2900     		movs	r1, r5
 1217 006a 2000     		movs	r0, r4
 1218 006c FFF7FEFF 		bl	StripLights_Pixel
 1219              	.LVL126:
 1220              	.L77:
1003:Generated_Source\PSoC4/StripLights.c **** 		{
 1221              		.loc 1 1003 0
 1222 0070 019B     		ldr	r3, [sp, #4]
 1223 0072 9C42     		cmp	r4, r3
 1224 0074 F1D1     		bne	.L79
 1225 0076 11E0     		b	.L73
 1226              	.LVL127:
 1227              	.L76:
 1228              	.LBE2:
 1229              	.LBB3:
1013:Generated_Source\PSoC4/StripLights.c **** 		}
1014:Generated_Source\PSoC4/StripLights.c **** 	}
1015:Generated_Source\PSoC4/StripLights.c **** 	else
1016:Generated_Source\PSoC4/StripLights.c **** 	{
1017:Generated_Source\PSoC4/StripLights.c **** 		int fraction = dx - (dy >> 1);
 1230              		.loc 1 1017 0
 1231 0078 4346     		mov	r3, r8
 1232 007a 5E10     		asrs	r6, r3, #1
 1233 007c BE1B     		subs	r6, r7, r6
 1234              	.LVL128:
1018:Generated_Source\PSoC4/StripLights.c **** 		while (y0 != y1)
 1235              		.loc 1 1018 0
 1236 007e 0BE0     		b	.L81
 1237              	.L83:
1019:Generated_Source\PSoC4/StripLights.c **** 		{
1020:Generated_Source\PSoC4/StripLights.c **** 			if (fraction >= 0)
 1238              		.loc 1 1020 0
 1239 0080 002E     		cmp	r6, #0
 1240 0082 02DB     		blt	.L82
1021:Generated_Source\PSoC4/StripLights.c **** 			{
1022:Generated_Source\PSoC4/StripLights.c **** 				x0 += stepx;
 1241              		.loc 1 1022 0
 1242 0084 4C44     		add	r4, r4, r9
ARM GAS  C:\Users\JAMESS~1\AppData\Local\Temp\ccSFa4Kp.s 			page 42


 1243              	.LVL129:
1023:Generated_Source\PSoC4/StripLights.c **** 				fraction -= dy;
 1244              		.loc 1 1023 0
 1245 0086 4346     		mov	r3, r8
 1246 0088 F61A     		subs	r6, r6, r3
 1247              	.LVL130:
 1248              	.L82:
1024:Generated_Source\PSoC4/StripLights.c **** 			}
1025:Generated_Source\PSoC4/StripLights.c **** 			y0 += stepy;
 1249              		.loc 1 1025 0
 1250 008a 5544     		add	r5, r5, r10
 1251              	.LVL131:
1026:Generated_Source\PSoC4/StripLights.c **** 			fraction += dx;
 1252              		.loc 1 1026 0
 1253 008c F619     		adds	r6, r6, r7
 1254              	.LVL132:
1027:Generated_Source\PSoC4/StripLights.c **** 			StripLights_Pixel( x0, y0, color);
 1255              		.loc 1 1027 0
 1256 008e 0C9A     		ldr	r2, [sp, #48]
 1257 0090 2900     		movs	r1, r5
 1258 0092 2000     		movs	r0, r4
 1259 0094 FFF7FEFF 		bl	StripLights_Pixel
 1260              	.LVL133:
 1261              	.L81:
1018:Generated_Source\PSoC4/StripLights.c **** 		{
 1262              		.loc 1 1018 0
 1263 0098 5D45     		cmp	r5, fp
 1264 009a F1D1     		bne	.L83
 1265              	.LVL134:
 1266              	.L73:
 1267              	.LBE3:
1028:Generated_Source\PSoC4/StripLights.c **** 		}
1029:Generated_Source\PSoC4/StripLights.c **** 	}
1030:Generated_Source\PSoC4/StripLights.c **** }
 1268              		.loc 1 1030 0
 1269 009c 03B0     		add	sp, sp, #12
 1270              		@ sp needed
 1271              	.LVL135:
 1272              	.LVL136:
 1273              	.LVL137:
 1274              	.LVL138:
 1275              	.LVL139:
 1276              	.LVL140:
 1277              	.LVL141:
 1278 009e 3CBC     		pop	{r2, r3, r4, r5}
 1279 00a0 9046     		mov	r8, r2
 1280 00a2 9946     		mov	r9, r3
 1281 00a4 A246     		mov	r10, r4
 1282 00a6 AB46     		mov	fp, r5
 1283 00a8 F0BD     		pop	{r4, r5, r6, r7, pc}
 1284              		.cfi_endproc
 1285              	.LFE49:
 1286              		.size	StripLights_DrawLine, .-StripLights_DrawLine
 1287 00aa C046     		.section	.text.StripLights_DrawRect,"ax",%progbits
 1288              		.align	2
 1289              		.global	StripLights_DrawRect
 1290              		.code	16
ARM GAS  C:\Users\JAMESS~1\AppData\Local\Temp\ccSFa4Kp.s 			page 43


 1291              		.thumb_func
 1292              		.type	StripLights_DrawRect, %function
 1293              	StripLights_DrawRect:
 1294              	.LFB50:
1031:Generated_Source\PSoC4/StripLights.c **** 
1032:Generated_Source\PSoC4/StripLights.c **** /*******************************************************************************
1033:Generated_Source\PSoC4/StripLights.c **** * Function Name: StripLights_DrawRect
1034:Generated_Source\PSoC4/StripLights.c **** ********************************************************************************
1035:Generated_Source\PSoC4/StripLights.c **** *
1036:Generated_Source\PSoC4/StripLights.c **** * Summary:
1037:Generated_Source\PSoC4/StripLights.c **** *  Draw a rectangle, filled or not.  
1038:Generated_Source\PSoC4/StripLights.c **** *
1039:Generated_Source\PSoC4/StripLights.c **** * Parameters:  
1040:Generated_Source\PSoC4/StripLights.c **** *  x0, y0:  The upper lefthand corner.
1041:Generated_Source\PSoC4/StripLights.c **** *  x1, y1:  The lower right corner.
1042:Generated_Source\PSoC4/StripLights.c **** *  fill:    Non-Zero if retangle is to be filled.
1043:Generated_Source\PSoC4/StripLights.c **** *  color:   Color for rectangle, border and fill.
1044:Generated_Source\PSoC4/StripLights.c **** *
1045:Generated_Source\PSoC4/StripLights.c **** * Return: 
1046:Generated_Source\PSoC4/StripLights.c **** *  None 
1047:Generated_Source\PSoC4/StripLights.c **** *  
1048:Generated_Source\PSoC4/StripLights.c **** *******************************************************************************/
1049:Generated_Source\PSoC4/StripLights.c **** void StripLights_DrawRect(int32 x0, int32 y0, int32 x1, int32 y1, int32 fill, uint32 color)
1050:Generated_Source\PSoC4/StripLights.c **** {	
 1295              		.loc 1 1050 0
 1296              		.cfi_startproc
 1297              		@ args = 8, pretend = 0, frame = 8
 1298              		@ frame_needed = 0, uses_anonymous_args = 0
 1299              	.LVL142:
 1300 0000 F0B5     		push	{r4, r5, r6, r7, lr}
 1301              		.cfi_def_cfa_offset 20
 1302              		.cfi_offset 4, -20
 1303              		.cfi_offset 5, -16
 1304              		.cfi_offset 6, -12
 1305              		.cfi_offset 7, -8
 1306              		.cfi_offset 14, -4
 1307 0002 85B0     		sub	sp, sp, #20
 1308              		.cfi_def_cfa_offset 40
 1309 0004 0400     		movs	r4, r0
 1310 0006 0391     		str	r1, [sp, #12]
 1311 0008 1600     		movs	r6, r2
 1312 000a 0293     		str	r3, [sp, #8]
 1313 000c 0B9F     		ldr	r7, [sp, #44]
1051:Generated_Source\PSoC4/StripLights.c ****      int xDiff;
1052:Generated_Source\PSoC4/StripLights.c **** 	/* Check if the rectangle is to be filled    */
1053:Generated_Source\PSoC4/StripLights.c **** 	if (fill != 0)
 1314              		.loc 1 1053 0
 1315 000e 0A9B     		ldr	r3, [sp, #40]
 1316              	.LVL143:
 1317 0010 002B     		cmp	r3, #0
 1318 0012 15D0     		beq	.L87
1054:Generated_Source\PSoC4/StripLights.c **** 	{	
1055:Generated_Source\PSoC4/StripLights.c ****         /* Find the difference between the x vars */
1056:Generated_Source\PSoC4/StripLights.c **** 		if(x0 > x1)
 1319              		.loc 1 1056 0
 1320 0014 9042     		cmp	r0, r2
 1321 0016 01DD     		ble	.L88
ARM GAS  C:\Users\JAMESS~1\AppData\Local\Temp\ccSFa4Kp.s 			page 44


1057:Generated_Source\PSoC4/StripLights.c **** 		{
1058:Generated_Source\PSoC4/StripLights.c **** 			xDiff = x0 - x1; 
 1322              		.loc 1 1058 0
 1323 0018 851A     		subs	r5, r0, r2
 1324              	.LVL144:
 1325 001a 0EE0     		b	.L89
 1326              	.LVL145:
 1327              	.L88:
1059:Generated_Source\PSoC4/StripLights.c **** 		}
1060:Generated_Source\PSoC4/StripLights.c **** 		else
1061:Generated_Source\PSoC4/StripLights.c **** 		{
1062:Generated_Source\PSoC4/StripLights.c **** 			xDiff = x1 - x0;
 1328              		.loc 1 1062 0
 1329 001c 151A     		subs	r5, r2, r0
 1330              	.LVL146:
 1331 001e 0CE0     		b	.L89
 1332              	.LVL147:
 1333              	.L93:
1063:Generated_Source\PSoC4/StripLights.c **** 		}
1064:Generated_Source\PSoC4/StripLights.c **** 	
1065:Generated_Source\PSoC4/StripLights.c **** 	    /* Fill it with lines  */
1066:Generated_Source\PSoC4/StripLights.c **** 		while(xDiff >= 0)
1067:Generated_Source\PSoC4/StripLights.c **** 		{
1068:Generated_Source\PSoC4/StripLights.c **** 			StripLights_DrawLine(x0, y0, x0, y1, color);
 1334              		.loc 1 1068 0
 1335 0020 0097     		str	r7, [sp]
 1336 0022 029B     		ldr	r3, [sp, #8]
 1337 0024 2200     		movs	r2, r4
 1338 0026 0399     		ldr	r1, [sp, #12]
 1339 0028 2000     		movs	r0, r4
 1340 002a FFF7FEFF 		bl	StripLights_DrawLine
 1341              	.LVL148:
1069:Generated_Source\PSoC4/StripLights.c **** 		
1070:Generated_Source\PSoC4/StripLights.c **** 			if(x0 > x1)
 1342              		.loc 1 1070 0
 1343 002e B442     		cmp	r4, r6
 1344 0030 01DD     		ble	.L91
1071:Generated_Source\PSoC4/StripLights.c **** 				x0--;
 1345              		.loc 1 1071 0
 1346 0032 013C     		subs	r4, r4, #1
 1347              	.LVL149:
 1348 0034 00E0     		b	.L92
 1349              	.L91:
1072:Generated_Source\PSoC4/StripLights.c **** 			else
1073:Generated_Source\PSoC4/StripLights.c **** 				x0++;
 1350              		.loc 1 1073 0
 1351 0036 0134     		adds	r4, r4, #1
 1352              	.LVL150:
 1353              	.L92:
1074:Generated_Source\PSoC4/StripLights.c **** 		
1075:Generated_Source\PSoC4/StripLights.c **** 			xDiff--;
 1354              		.loc 1 1075 0
 1355 0038 013D     		subs	r5, r5, #1
 1356              	.LVL151:
 1357              	.L89:
1066:Generated_Source\PSoC4/StripLights.c **** 		{
 1358              		.loc 1 1066 0
ARM GAS  C:\Users\JAMESS~1\AppData\Local\Temp\ccSFa4Kp.s 			page 45


 1359 003a 002D     		cmp	r5, #0
 1360 003c F0DA     		bge	.L93
 1361 003e 1AE0     		b	.L86
 1362              	.LVL152:
 1363              	.L87:
1076:Generated_Source\PSoC4/StripLights.c **** 		}
1077:Generated_Source\PSoC4/StripLights.c **** 	}
1078:Generated_Source\PSoC4/StripLights.c **** 	else 
1079:Generated_Source\PSoC4/StripLights.c **** 	{
1080:Generated_Source\PSoC4/StripLights.c **** 		/* Draw the four sides of the rectangle */
1081:Generated_Source\PSoC4/StripLights.c **** 		StripLights_DrawLine(x0, y0, x1, y0, color);
 1364              		.loc 1 1081 0
 1365 0040 0097     		str	r7, [sp]
 1366 0042 039D     		ldr	r5, [sp, #12]
 1367 0044 2B00     		movs	r3, r5
 1368 0046 2900     		movs	r1, r5
 1369              	.LVL153:
 1370 0048 FFF7FEFF 		bl	StripLights_DrawLine
 1371              	.LVL154:
1082:Generated_Source\PSoC4/StripLights.c **** 		StripLights_DrawLine(x0, y1, x1, y1, color);
 1372              		.loc 1 1082 0
 1373 004c 0097     		str	r7, [sp]
 1374 004e 0299     		ldr	r1, [sp, #8]
 1375 0050 0B00     		movs	r3, r1
 1376 0052 3200     		movs	r2, r6
 1377 0054 2000     		movs	r0, r4
 1378 0056 FFF7FEFF 		bl	StripLights_DrawLine
 1379              	.LVL155:
1083:Generated_Source\PSoC4/StripLights.c **** 		StripLights_DrawLine(x0, y0, x0, y1, color);
 1380              		.loc 1 1083 0
 1381 005a 0097     		str	r7, [sp]
 1382 005c 029B     		ldr	r3, [sp, #8]
 1383 005e 2200     		movs	r2, r4
 1384 0060 2900     		movs	r1, r5
 1385 0062 2000     		movs	r0, r4
 1386 0064 FFF7FEFF 		bl	StripLights_DrawLine
 1387              	.LVL156:
1084:Generated_Source\PSoC4/StripLights.c **** 		StripLights_DrawLine(x1, y0, x1, y1, color);
 1388              		.loc 1 1084 0
 1389 0068 0097     		str	r7, [sp]
 1390 006a 029B     		ldr	r3, [sp, #8]
 1391 006c 3200     		movs	r2, r6
 1392 006e 2900     		movs	r1, r5
 1393 0070 3000     		movs	r0, r6
 1394 0072 FFF7FEFF 		bl	StripLights_DrawLine
 1395              	.LVL157:
 1396              	.L86:
1085:Generated_Source\PSoC4/StripLights.c **** 	}
1086:Generated_Source\PSoC4/StripLights.c **** }
 1397              		.loc 1 1086 0
 1398 0076 05B0     		add	sp, sp, #20
 1399              		@ sp needed
 1400              	.LVL158:
 1401              	.LVL159:
 1402 0078 F0BD     		pop	{r4, r5, r6, r7, pc}
 1403              		.cfi_endproc
 1404              	.LFE50:
ARM GAS  C:\Users\JAMESS~1\AppData\Local\Temp\ccSFa4Kp.s 			page 46


 1405              		.size	StripLights_DrawRect, .-StripLights_DrawRect
 1406 007a C046     		.section	.text.StripLights_Dim,"ax",%progbits
 1407              		.align	2
 1408              		.global	StripLights_Dim
 1409              		.code	16
 1410              		.thumb_func
 1411              		.type	StripLights_Dim, %function
 1412              	StripLights_Dim:
 1413              	.LFB51:
1087:Generated_Source\PSoC4/StripLights.c **** 
1088:Generated_Source\PSoC4/StripLights.c **** /*******************************************************************************
1089:Generated_Source\PSoC4/StripLights.c **** * Function Name: StripLights_Dim
1090:Generated_Source\PSoC4/StripLights.c **** ********************************************************************************
1091:Generated_Source\PSoC4/StripLights.c **** *
1092:Generated_Source\PSoC4/StripLights.c **** * Summary:
1093:Generated_Source\PSoC4/StripLights.c **** *  Dim all output by a specific level (0,1,2,3,4)  
1094:Generated_Source\PSoC4/StripLights.c **** *
1095:Generated_Source\PSoC4/StripLights.c **** * Parameters:  
1096:Generated_Source\PSoC4/StripLights.c **** *  dimLevel:  Dim level 1 to 4, 0 => No dimming.
1097:Generated_Source\PSoC4/StripLights.c **** *
1098:Generated_Source\PSoC4/StripLights.c **** * Return: 
1099:Generated_Source\PSoC4/StripLights.c **** *  None 
1100:Generated_Source\PSoC4/StripLights.c **** *  
1101:Generated_Source\PSoC4/StripLights.c **** *******************************************************************************/
1102:Generated_Source\PSoC4/StripLights.c **** void StripLights_Dim(uint32 dimLevel) 
1103:Generated_Source\PSoC4/StripLights.c **** {
 1414              		.loc 1 1103 0
 1415              		.cfi_startproc
 1416              		@ args = 0, pretend = 0, frame = 0
 1417              		@ frame_needed = 0, uses_anonymous_args = 0
 1418              		@ link register save eliminated.
 1419              	.LVL160:
1104:Generated_Source\PSoC4/StripLights.c **** extern uint32  StripLights_DimMask;
1105:Generated_Source\PSoC4/StripLights.c **** extern uint32  StripLights_DimShift;
1106:Generated_Source\PSoC4/StripLights.c **** 
1107:Generated_Source\PSoC4/StripLights.c ****     switch(dimLevel)
 1420              		.loc 1 1107 0
 1421 0000 0228     		cmp	r0, #2
 1422 0002 0FD0     		beq	.L97
 1423 0004 02D8     		bhi	.L98
 1424 0006 0128     		cmp	r0, #1
 1425 0008 05D0     		beq	.L99
 1426 000a 20E0     		b	.L96
 1427              	.L98:
 1428 000c 0328     		cmp	r0, #3
 1429 000e 10D0     		beq	.L100
 1430 0010 0428     		cmp	r0, #4
 1431 0012 15D0     		beq	.L101
 1432 0014 1BE0     		b	.L96
 1433              	.L99:
1108:Generated_Source\PSoC4/StripLights.c ****     {
1109:Generated_Source\PSoC4/StripLights.c ****        case 1:  // 1/2 bright
1110:Generated_Source\PSoC4/StripLights.c ****            StripLights_DimMask = 0x7F7F7F7F;
 1434              		.loc 1 1110 0
 1435 0016 124A     		ldr	r2, .L103
 1436 0018 124B     		ldr	r3, .L103+4
 1437 001a 1A60     		str	r2, [r3]
ARM GAS  C:\Users\JAMESS~1\AppData\Local\Temp\ccSFa4Kp.s 			page 47


1111:Generated_Source\PSoC4/StripLights.c ****            StripLights_DimShift = 1;
 1438              		.loc 1 1111 0
 1439 001c 0122     		movs	r2, #1
 1440 001e 124B     		ldr	r3, .L103+8
 1441 0020 1A60     		str	r2, [r3]
1112:Generated_Source\PSoC4/StripLights.c ****            break;
 1442              		.loc 1 1112 0
 1443 0022 1BE0     		b	.L95
 1444              	.L97:
1113:Generated_Source\PSoC4/StripLights.c ****            
1114:Generated_Source\PSoC4/StripLights.c ****        case 2:
1115:Generated_Source\PSoC4/StripLights.c ****            StripLights_DimMask = 0x3F3F3F3F;
 1445              		.loc 1 1115 0
 1446 0024 114A     		ldr	r2, .L103+12
 1447 0026 0F4B     		ldr	r3, .L103+4
 1448 0028 1A60     		str	r2, [r3]
1116:Generated_Source\PSoC4/StripLights.c ****            StripLights_DimShift = 2;
 1449              		.loc 1 1116 0
 1450 002a 0222     		movs	r2, #2
 1451 002c 0E4B     		ldr	r3, .L103+8
 1452 002e 1A60     		str	r2, [r3]
1117:Generated_Source\PSoC4/StripLights.c ****            break;
 1453              		.loc 1 1117 0
 1454 0030 14E0     		b	.L95
 1455              	.L100:
1118:Generated_Source\PSoC4/StripLights.c ****            
1119:Generated_Source\PSoC4/StripLights.c ****        case 3:
1120:Generated_Source\PSoC4/StripLights.c ****            StripLights_DimMask = 0x1F1F1F1F;
 1456              		.loc 1 1120 0
 1457 0032 0F4A     		ldr	r2, .L103+16
 1458 0034 0B4B     		ldr	r3, .L103+4
 1459 0036 1A60     		str	r2, [r3]
1121:Generated_Source\PSoC4/StripLights.c ****            StripLights_DimShift = 3;
 1460              		.loc 1 1121 0
 1461 0038 0322     		movs	r2, #3
 1462 003a 0B4B     		ldr	r3, .L103+8
 1463 003c 1A60     		str	r2, [r3]
1122:Generated_Source\PSoC4/StripLights.c ****            break;
 1464              		.loc 1 1122 0
 1465 003e 0DE0     		b	.L95
 1466              	.L101:
1123:Generated_Source\PSoC4/StripLights.c ****            
1124:Generated_Source\PSoC4/StripLights.c ****        case 4:
1125:Generated_Source\PSoC4/StripLights.c ****            StripLights_DimMask = 0x0F0F0F0F;
 1467              		.loc 1 1125 0
 1468 0040 0C4A     		ldr	r2, .L103+20
 1469 0042 084B     		ldr	r3, .L103+4
 1470 0044 1A60     		str	r2, [r3]
1126:Generated_Source\PSoC4/StripLights.c ****            StripLights_DimShift = 4;
 1471              		.loc 1 1126 0
 1472 0046 0422     		movs	r2, #4
 1473 0048 074B     		ldr	r3, .L103+8
 1474 004a 1A60     		str	r2, [r3]
1127:Generated_Source\PSoC4/StripLights.c ****            break;
 1475              		.loc 1 1127 0
 1476 004c 06E0     		b	.L95
 1477              	.L96:
ARM GAS  C:\Users\JAMESS~1\AppData\Local\Temp\ccSFa4Kp.s 			page 48


1128:Generated_Source\PSoC4/StripLights.c ****            
1129:Generated_Source\PSoC4/StripLights.c ****        default:
1130:Generated_Source\PSoC4/StripLights.c ****            StripLights_DimMask = 0xFFFFFFFF;
 1478              		.loc 1 1130 0
 1479 004e 0122     		movs	r2, #1
 1480 0050 5242     		rsbs	r2, r2, #0
 1481 0052 044B     		ldr	r3, .L103+4
 1482 0054 1A60     		str	r2, [r3]
1131:Generated_Source\PSoC4/StripLights.c ****            StripLights_DimShift = 0;
 1483              		.loc 1 1131 0
 1484 0056 0022     		movs	r2, #0
 1485 0058 034B     		ldr	r3, .L103+8
 1486 005a 1A60     		str	r2, [r3]
 1487              	.L95:
1132:Generated_Source\PSoC4/StripLights.c ****            break; 
1133:Generated_Source\PSoC4/StripLights.c ****     }
1134:Generated_Source\PSoC4/StripLights.c **** }
 1488              		.loc 1 1134 0
 1489              		@ sp needed
 1490 005c 7047     		bx	lr
 1491              	.L104:
 1492 005e C046     		.align	2
 1493              	.L103:
 1494 0060 7F7F7F7F 		.word	2139062143
 1495 0064 00000000 		.word	StripLights_DimMask
 1496 0068 00000000 		.word	StripLights_DimShift
 1497 006c 3F3F3F3F 		.word	1061109567
 1498 0070 1F1F1F1F 		.word	522133279
 1499 0074 0F0F0F0F 		.word	252645135
 1500              		.cfi_endproc
 1501              	.LFE51:
 1502              		.size	StripLights_Dim, .-StripLights_Dim
 1503              		.section	.text.StripLights_Start,"ax",%progbits
 1504              		.align	2
 1505              		.global	StripLights_Start
 1506              		.code	16
 1507              		.thumb_func
 1508              		.type	StripLights_Start, %function
 1509              	StripLights_Start:
 1510              	.LFB32:
 253:Generated_Source\PSoC4/StripLights.c ****     extern uint8 StripLights_initvar;
 1511              		.loc 1 253 0
 1512              		.cfi_startproc
 1513              		@ args = 0, pretend = 0, frame = 0
 1514              		@ frame_needed = 0, uses_anonymous_args = 0
 1515 0000 10B5     		push	{r4, lr}
 1516              		.cfi_def_cfa_offset 8
 1517              		.cfi_offset 4, -8
 1518              		.cfi_offset 14, -4
 264:Generated_Source\PSoC4/StripLights.c **** 
 1519              		.loc 1 264 0
 1520 0002 0322     		movs	r2, #3
 1521 0004 184B     		ldr	r3, .L107
 1522 0006 1A70     		strb	r2, [r3]
 279:Generated_Source\PSoC4/StripLights.c ****         StripLights_Compare0 = (uint8)StripLights_COMPARE_ZERO;
 1523              		.loc 1 279 0
 1524 0008 0B32     		adds	r2, r2, #11
ARM GAS  C:\Users\JAMESS~1\AppData\Local\Temp\ccSFa4Kp.s 			page 49


 1525 000a 184B     		ldr	r3, .L107+4
 1526 000c 1A70     		strb	r2, [r3]
 280:Generated_Source\PSoC4/StripLights.c ****         StripLights_Compare1 = (uint8)StripLights_COMPARE_ONE;        
 1527              		.loc 1 280 0
 1528 000e 023A     		subs	r2, r2, #2
 1529 0010 174B     		ldr	r3, .L107+8
 1530 0012 1A70     		strb	r2, [r3]
 281:Generated_Source\PSoC4/StripLights.c ****     #endif /* CY_PSOC5A */
 1531              		.loc 1 281 0
 1532 0014 053A     		subs	r2, r2, #5
 1533 0016 174B     		ldr	r3, .L107+12
 1534 0018 1A70     		strb	r2, [r3]
 285:Generated_Source\PSoC4/StripLights.c ****     StripLights_MemClear(StripLights_OFF);
 1535              		.loc 1 285 0
 1536 001a 174C     		ldr	r4, .L107+16
 1537 001c 0123     		movs	r3, #1
 1538 001e 2370     		strb	r3, [r4]
 286:Generated_Source\PSoC4/StripLights.c ****     StripLights_CONTROL = StripLights_DISABLE;
 1539              		.loc 1 286 0
 1540 0020 1820     		movs	r0, #24
 1541 0022 FFF7FEFF 		bl	StripLights_getColor
 1542              	.LVL161:
 1543 0026 FFF7FEFF 		bl	StripLights_MemClear
 1544              	.LVL162:
 287:Generated_Source\PSoC4/StripLights.c ****     
 1545              		.loc 1 287 0
 1546 002a 0023     		movs	r3, #0
 1547 002c 2370     		strb	r3, [r4]
 289:Generated_Source\PSoC4/StripLights.c ****     
 1548              		.loc 1 289 0
 1549 002e 0020     		movs	r0, #0
 1550 0030 FFF7FEFF 		bl	StripLights_SetFont
 1551              	.LVL163:
 292:Generated_Source\PSoC4/StripLights.c **** 
 1552              		.loc 1 292 0
 1553 0034 0020     		movs	r0, #0
 1554 0036 FFF7FEFF 		bl	StripLights_Dim
 1555              	.LVL164:
 294:Generated_Source\PSoC4/StripLights.c ****     {
 1556              		.loc 1 294 0
 1557 003a 104B     		ldr	r3, .L107+20
 1558 003c 1B7F     		ldrb	r3, [r3, #28]
 1559 003e 002B     		cmp	r3, #0
 1560 0040 0ED1     		bne	.L106
 297:Generated_Source\PSoC4/StripLights.c ****  
 1561              		.loc 1 297 0
 1562 0042 0122     		movs	r2, #1
 1563 0044 0D4B     		ldr	r3, .L107+20
 1564 0046 1A77     		strb	r2, [r3, #28]
 303:Generated_Source\PSoC4/StripLights.c **** 		   StripLights_fisr_StartEx(StripLights_FISR);
 1565              		.loc 1 303 0
 1566 0048 0D48     		ldr	r0, .L107+24
 1567 004a FFF7FEFF 		bl	StripLights_cisr_StartEx
 1568              	.LVL165:
 304:Generated_Source\PSoC4/StripLights.c ****         
 1569              		.loc 1 304 0
 1570 004e 0D48     		ldr	r0, .L107+28
ARM GAS  C:\Users\JAMESS~1\AppData\Local\Temp\ccSFa4Kp.s 			page 50


 1571 0050 FFF7FEFF 		bl	StripLights_fisr_StartEx
 1572              	.LVL166:
 307:Generated_Source\PSoC4/StripLights.c ****            StripLights_fisr_SetPriority(0u);
 1573              		.loc 1 307 0
 1574 0054 0120     		movs	r0, #1
 1575 0056 FFF7FEFF 		bl	StripLights_cisr_SetPriority
 1576              	.LVL167:
 308:Generated_Source\PSoC4/StripLights.c ****        }
 1577              		.loc 1 308 0
 1578 005a 0020     		movs	r0, #0
 1579 005c FFF7FEFF 		bl	StripLights_fisr_SetPriority
 1580              	.LVL168:
 1581              	.L106:
 316:Generated_Source\PSoC4/StripLights.c **** }
 1582              		.loc 1 316 0
 1583 0060 0122     		movs	r2, #1
 1584 0062 094B     		ldr	r3, .L107+32
 1585 0064 1A60     		str	r2, [r3]
 317:Generated_Source\PSoC4/StripLights.c **** 
 1586              		.loc 1 317 0
 1587              		@ sp needed
 1588 0066 10BD     		pop	{r4, pc}
 1589              	.L108:
 1590              		.align	2
 1591              	.L107:
 1592 0068 91000F40 		.word	1074725009
 1593 006c 41000F40 		.word	1074724929
 1594 0070 21000F40 		.word	1074724897
 1595 0074 31000F40 		.word	1074724913
 1596 0078 72000F40 		.word	1074724978
 1597 007c 00000000 		.word	.LANCHOR0
 1598 0080 00000000 		.word	StripLights_CISR
 1599 0084 00000000 		.word	StripLights_FISR
 1600 0088 00000000 		.word	StripLights_refreshComplete
 1601              		.cfi_endproc
 1602              	.LFE32:
 1603              		.size	StripLights_Start, .-StripLights_Start
 1604              		.section	.text.StripLights_Bplot8,"ax",%progbits
 1605              		.align	2
 1606              		.global	StripLights_Bplot8
 1607              		.code	16
 1608              		.thumb_func
 1609              		.type	StripLights_Bplot8, %function
 1610              	StripLights_Bplot8:
 1611              	.LFB52:
1135:Generated_Source\PSoC4/StripLights.c **** 
1136:Generated_Source\PSoC4/StripLights.c **** /*******************************************************************************
1137:Generated_Source\PSoC4/StripLights.c **** * Function Name: StripLights_Bplot8
1138:Generated_Source\PSoC4/StripLights.c **** ********************************************************************************
1139:Generated_Source\PSoC4/StripLights.c **** *
1140:Generated_Source\PSoC4/StripLights.c **** * Summary:
1141:Generated_Source\PSoC4/StripLights.c **** *  Draw a bitmap image on the display using 8-bit color. 
1142:Generated_Source\PSoC4/StripLights.c **** *
1143:Generated_Source\PSoC4/StripLights.c **** * Parameters:  
1144:Generated_Source\PSoC4/StripLights.c **** *    x, y:  The upper left corner of the image location
1145:Generated_Source\PSoC4/StripLights.c **** *  bitMap:  A pointer to an image array.  The first two values is the X and Y
1146:Generated_Source\PSoC4/StripLights.c **** *           size of the bitmap.
ARM GAS  C:\Users\JAMESS~1\AppData\Local\Temp\ccSFa4Kp.s 			page 51


1147:Generated_Source\PSoC4/StripLights.c **** *  update:  If not 0 update the display after drawing image.
1148:Generated_Source\PSoC4/StripLights.c **** *
1149:Generated_Source\PSoC4/StripLights.c **** * Return: 
1150:Generated_Source\PSoC4/StripLights.c **** *  None 
1151:Generated_Source\PSoC4/StripLights.c **** *  
1152:Generated_Source\PSoC4/StripLights.c **** *******************************************************************************/
1153:Generated_Source\PSoC4/StripLights.c **** void StripLights_Bplot8( int32 x, int32 y, uint8 * bitMap, int32 update)
1154:Generated_Source\PSoC4/StripLights.c **** {
 1612              		.loc 1 1154 0
 1613              		.cfi_startproc
 1614              		@ args = 0, pretend = 0, frame = 8
 1615              		@ frame_needed = 0, uses_anonymous_args = 0
 1616              	.LVL169:
 1617 0000 F0B5     		push	{r4, r5, r6, r7, lr}
 1618              		.cfi_def_cfa_offset 20
 1619              		.cfi_offset 4, -20
 1620              		.cfi_offset 5, -16
 1621              		.cfi_offset 6, -12
 1622              		.cfi_offset 7, -8
 1623              		.cfi_offset 14, -4
 1624 0002 5F46     		mov	r7, fp
 1625 0004 4646     		mov	r6, r8
 1626 0006 C0B4     		push	{r6, r7}
 1627              		.cfi_def_cfa_offset 28
 1628              		.cfi_offset 8, -28
 1629              		.cfi_offset 11, -24
 1630 0008 83B0     		sub	sp, sp, #12
 1631              		.cfi_def_cfa_offset 40
 1632 000a 0190     		str	r0, [sp, #4]
 1633 000c 0091     		str	r1, [sp]
 1634 000e 1700     		movs	r7, r2
 1635 0010 9B46     		mov	fp, r3
 1636              	.LVL170:
1155:Generated_Source\PSoC4/StripLights.c ****     int32 dx, dy;
1156:Generated_Source\PSoC4/StripLights.c ****     int32 aindex = 0;
1157:Generated_Source\PSoC4/StripLights.c ****     int32 maxX, maxY;
1158:Generated_Source\PSoC4/StripLights.c **** 
1159:Generated_Source\PSoC4/StripLights.c ****     maxX = x + (int32)bitMap[aindex++];
 1637              		.loc 1 1159 0
 1638 0012 1378     		ldrb	r3, [r2]
 1639              	.LVL171:
 1640 0014 1E18     		adds	r6, r3, r0
 1641              	.LVL172:
1160:Generated_Source\PSoC4/StripLights.c ****     maxY = y  + (int32)bitMap[aindex++];
 1642              		.loc 1 1160 0
 1643 0016 7B78     		ldrb	r3, [r7, #1]
 1644 0018 8846     		mov	r8, r1
 1645 001a 9844     		add	r8, r8, r3
 1646              	.LVL173:
 1647 001c 0223     		movs	r3, #2
1161:Generated_Source\PSoC4/StripLights.c **** 
1162:Generated_Source\PSoC4/StripLights.c **** 	for(dy = y; dy < maxY; dy++)
 1648              		.loc 1 1162 0
 1649 001e 0EE0     		b	.L110
 1650              	.LVL174:
 1651              	.L111:
1163:Generated_Source\PSoC4/StripLights.c ****     {
ARM GAS  C:\Users\JAMESS~1\AppData\Local\Temp\ccSFa4Kp.s 			page 52


1164:Generated_Source\PSoC4/StripLights.c **** 		for(dx = x; dx < maxX; dx++)
1165:Generated_Source\PSoC4/StripLights.c ****         {
1166:Generated_Source\PSoC4/StripLights.c ****             StripLights_Pixel(dx, dy, bitMap[aindex++]);
 1652              		.loc 1 1166 0 discriminator 3
 1653 0020 5D1C     		adds	r5, r3, #1
 1654              	.LVL175:
 1655 0022 FA5C     		ldrb	r2, [r7, r3]
 1656 0024 0099     		ldr	r1, [sp]
 1657 0026 2000     		movs	r0, r4
 1658 0028 FFF7FEFF 		bl	StripLights_Pixel
 1659              	.LVL176:
1164:Generated_Source\PSoC4/StripLights.c ****         {
 1660              		.loc 1 1164 0 discriminator 3
 1661 002c 0134     		adds	r4, r4, #1
 1662              	.LVL177:
 1663              		.loc 1 1166 0 discriminator 3
 1664 002e 2B00     		movs	r3, r5
 1665 0030 00E0     		b	.L112
 1666              	.LVL178:
 1667              	.L114:
 1668 0032 019C     		ldr	r4, [sp, #4]
 1669              	.LVL179:
 1670              	.L112:
1164:Generated_Source\PSoC4/StripLights.c ****         {
 1671              		.loc 1 1164 0 discriminator 1
 1672 0034 B442     		cmp	r4, r6
 1673 0036 F3DB     		blt	.L111
1162:Generated_Source\PSoC4/StripLights.c ****     {
 1674              		.loc 1 1162 0 discriminator 2
 1675 0038 009A     		ldr	r2, [sp]
 1676 003a 0132     		adds	r2, r2, #1
 1677 003c 0092     		str	r2, [sp]
 1678              	.LVL180:
 1679              	.L110:
1162:Generated_Source\PSoC4/StripLights.c ****     {
 1680              		.loc 1 1162 0 is_stmt 0 discriminator 1
 1681 003e 009A     		ldr	r2, [sp]
 1682 0040 4245     		cmp	r2, r8
 1683 0042 F6DB     		blt	.L114
1167:Generated_Source\PSoC4/StripLights.c ****         }
1168:Generated_Source\PSoC4/StripLights.c ****     }
1169:Generated_Source\PSoC4/StripLights.c **** 	if(update) StripLights_Trigger(1);
 1684              		.loc 1 1169 0 is_stmt 1
 1685 0044 5B46     		mov	r3, fp
 1686              	.LVL181:
 1687 0046 002B     		cmp	r3, #0
 1688 0048 02D0     		beq	.L109
 1689              	.LVL182:
 1690              		.loc 1 1169 0 is_stmt 0 discriminator 1
 1691 004a 0120     		movs	r0, #1
 1692 004c FFF7FEFF 		bl	StripLights_Trigger
 1693              	.LVL183:
 1694              	.L109:
1170:Generated_Source\PSoC4/StripLights.c **** }
 1695              		.loc 1 1170 0 is_stmt 1
 1696 0050 03B0     		add	sp, sp, #12
 1697              	.LVL184:
ARM GAS  C:\Users\JAMESS~1\AppData\Local\Temp\ccSFa4Kp.s 			page 53


 1698              		@ sp needed
 1699              	.LVL185:
 1700              	.LVL186:
 1701              	.LVL187:
 1702              	.LVL188:
 1703 0052 0CBC     		pop	{r2, r3}
 1704 0054 9046     		mov	r8, r2
 1705 0056 9B46     		mov	fp, r3
 1706 0058 F0BD     		pop	{r4, r5, r6, r7, pc}
 1707              		.cfi_endproc
 1708              	.LFE52:
 1709              		.size	StripLights_Bplot8, .-StripLights_Bplot8
 1710 005a C046     		.section	.text.StripLights_Bplot32,"ax",%progbits
 1711              		.align	2
 1712              		.global	StripLights_Bplot32
 1713              		.code	16
 1714              		.thumb_func
 1715              		.type	StripLights_Bplot32, %function
 1716              	StripLights_Bplot32:
 1717              	.LFB53:
1171:Generated_Source\PSoC4/StripLights.c **** 
1172:Generated_Source\PSoC4/StripLights.c **** /*******************************************************************************
1173:Generated_Source\PSoC4/StripLights.c **** * Function Name: StripLights_Bplot32
1174:Generated_Source\PSoC4/StripLights.c **** ********************************************************************************
1175:Generated_Source\PSoC4/StripLights.c **** *
1176:Generated_Source\PSoC4/StripLights.c **** * Summary:
1177:Generated_Source\PSoC4/StripLights.c **** *  Draw a bitmap image on the display using 32-bit color. 
1178:Generated_Source\PSoC4/StripLights.c **** *
1179:Generated_Source\PSoC4/StripLights.c **** * Parameters:  
1180:Generated_Source\PSoC4/StripLights.c **** *    x, y:  The upper left corner of the image location
1181:Generated_Source\PSoC4/StripLights.c **** *  bitMap:  A pointer to an image array.  The first two values is the X and Y
1182:Generated_Source\PSoC4/StripLights.c **** *           size of the bitmap.
1183:Generated_Source\PSoC4/StripLights.c **** *  update:  If not 0 update the display after drawing image.
1184:Generated_Source\PSoC4/StripLights.c **** *
1185:Generated_Source\PSoC4/StripLights.c **** * Return: 
1186:Generated_Source\PSoC4/StripLights.c **** *  None 
1187:Generated_Source\PSoC4/StripLights.c **** *  
1188:Generated_Source\PSoC4/StripLights.c **** *******************************************************************************/
1189:Generated_Source\PSoC4/StripLights.c **** void StripLights_Bplot32( int32 x, int32 y, uint32 * bitMap, int32 update)
1190:Generated_Source\PSoC4/StripLights.c **** {
 1718              		.loc 1 1190 0
 1719              		.cfi_startproc
 1720              		@ args = 0, pretend = 0, frame = 8
 1721              		@ frame_needed = 0, uses_anonymous_args = 0
 1722              	.LVL189:
 1723 0000 F0B5     		push	{r4, r5, r6, r7, lr}
 1724              		.cfi_def_cfa_offset 20
 1725              		.cfi_offset 4, -20
 1726              		.cfi_offset 5, -16
 1727              		.cfi_offset 6, -12
 1728              		.cfi_offset 7, -8
 1729              		.cfi_offset 14, -4
 1730 0002 5F46     		mov	r7, fp
 1731 0004 4646     		mov	r6, r8
 1732 0006 C0B4     		push	{r6, r7}
 1733              		.cfi_def_cfa_offset 28
 1734              		.cfi_offset 8, -28
ARM GAS  C:\Users\JAMESS~1\AppData\Local\Temp\ccSFa4Kp.s 			page 54


 1735              		.cfi_offset 11, -24
 1736 0008 83B0     		sub	sp, sp, #12
 1737              		.cfi_def_cfa_offset 40
 1738 000a 0190     		str	r0, [sp, #4]
 1739 000c 0091     		str	r1, [sp]
 1740 000e 1700     		movs	r7, r2
 1741 0010 9B46     		mov	fp, r3
 1742              	.LVL190:
1191:Generated_Source\PSoC4/StripLights.c ****     int32 dx, dy;
1192:Generated_Source\PSoC4/StripLights.c ****     int32 aindex = 0;
1193:Generated_Source\PSoC4/StripLights.c ****     int32 maxX, maxY;
1194:Generated_Source\PSoC4/StripLights.c **** 
1195:Generated_Source\PSoC4/StripLights.c ****     maxX = x + (int32)bitMap[aindex++];
 1743              		.loc 1 1195 0
 1744 0012 1368     		ldr	r3, [r2]
 1745              	.LVL191:
 1746 0014 1E00     		movs	r6, r3
 1747 0016 8446     		mov	ip, r0
 1748 0018 6644     		add	r6, r6, ip
 1749              	.LVL192:
1196:Generated_Source\PSoC4/StripLights.c ****     maxY = y  + (int32)bitMap[aindex++];
 1750              		.loc 1 1196 0
 1751 001a 5368     		ldr	r3, [r2, #4]
 1752 001c 9846     		mov	r8, r3
 1753 001e 8C46     		mov	ip, r1
 1754 0020 E044     		add	r8, r8, ip
 1755              	.LVL193:
 1756 0022 0223     		movs	r3, #2
1197:Generated_Source\PSoC4/StripLights.c **** 
1198:Generated_Source\PSoC4/StripLights.c **** 	for(dy = y; dy < maxY; dy++)
 1757              		.loc 1 1198 0
 1758 0024 0FE0     		b	.L116
 1759              	.LVL194:
 1760              	.L117:
1199:Generated_Source\PSoC4/StripLights.c ****     {
1200:Generated_Source\PSoC4/StripLights.c **** 		for(dx = x; dx < maxX; dx++)
1201:Generated_Source\PSoC4/StripLights.c ****         {
1202:Generated_Source\PSoC4/StripLights.c ****             StripLights_Pixel(dx, dy, bitMap[aindex++]);
 1761              		.loc 1 1202 0 discriminator 3
 1762 0026 5D1C     		adds	r5, r3, #1
 1763              	.LVL195:
 1764 0028 9B00     		lsls	r3, r3, #2
 1765 002a FA58     		ldr	r2, [r7, r3]
 1766 002c 0099     		ldr	r1, [sp]
 1767 002e 2000     		movs	r0, r4
 1768 0030 FFF7FEFF 		bl	StripLights_Pixel
 1769              	.LVL196:
1200:Generated_Source\PSoC4/StripLights.c ****         {
 1770              		.loc 1 1200 0 discriminator 3
 1771 0034 0134     		adds	r4, r4, #1
 1772              	.LVL197:
 1773              		.loc 1 1202 0 discriminator 3
 1774 0036 2B00     		movs	r3, r5
 1775 0038 00E0     		b	.L118
 1776              	.LVL198:
 1777              	.L120:
 1778 003a 019C     		ldr	r4, [sp, #4]
ARM GAS  C:\Users\JAMESS~1\AppData\Local\Temp\ccSFa4Kp.s 			page 55


 1779              	.LVL199:
 1780              	.L118:
1200:Generated_Source\PSoC4/StripLights.c ****         {
 1781              		.loc 1 1200 0 discriminator 1
 1782 003c B442     		cmp	r4, r6
 1783 003e F2DB     		blt	.L117
1198:Generated_Source\PSoC4/StripLights.c ****     {
 1784              		.loc 1 1198 0 discriminator 2
 1785 0040 009A     		ldr	r2, [sp]
 1786 0042 0132     		adds	r2, r2, #1
 1787 0044 0092     		str	r2, [sp]
 1788              	.LVL200:
 1789              	.L116:
1198:Generated_Source\PSoC4/StripLights.c ****     {
 1790              		.loc 1 1198 0 is_stmt 0 discriminator 1
 1791 0046 009A     		ldr	r2, [sp]
 1792 0048 4245     		cmp	r2, r8
 1793 004a F6DB     		blt	.L120
1203:Generated_Source\PSoC4/StripLights.c ****         }
1204:Generated_Source\PSoC4/StripLights.c ****     }
1205:Generated_Source\PSoC4/StripLights.c **** 	if(update) StripLights_Trigger(1);
 1794              		.loc 1 1205 0 is_stmt 1
 1795 004c 5B46     		mov	r3, fp
 1796              	.LVL201:
 1797 004e 002B     		cmp	r3, #0
 1798 0050 02D0     		beq	.L115
 1799              	.LVL202:
 1800              		.loc 1 1205 0 is_stmt 0 discriminator 1
 1801 0052 0120     		movs	r0, #1
 1802 0054 FFF7FEFF 		bl	StripLights_Trigger
 1803              	.LVL203:
 1804              	.L115:
1206:Generated_Source\PSoC4/StripLights.c **** }
 1805              		.loc 1 1206 0 is_stmt 1
 1806 0058 03B0     		add	sp, sp, #12
 1807              	.LVL204:
 1808              		@ sp needed
 1809              	.LVL205:
 1810              	.LVL206:
 1811              	.LVL207:
 1812              	.LVL208:
 1813 005a 0CBC     		pop	{r2, r3}
 1814 005c 9046     		mov	r8, r2
 1815 005e 9B46     		mov	fp, r3
 1816 0060 F0BD     		pop	{r4, r5, r6, r7, pc}
 1817              		.cfi_endproc
 1818              	.LFE53:
 1819              		.size	StripLights_Bplot32, .-StripLights_Bplot32
 1820              		.global	__aeabi_uidiv
 1821 0062 C046     		.section	.text.StripLights_RgbBlend,"ax",%progbits
 1822              		.align	2
 1823              		.global	StripLights_RgbBlend
 1824              		.code	16
 1825              		.thumb_func
 1826              		.type	StripLights_RgbBlend, %function
 1827              	StripLights_RgbBlend:
 1828              	.LFB54:
ARM GAS  C:\Users\JAMESS~1\AppData\Local\Temp\ccSFa4Kp.s 			page 56


1207:Generated_Source\PSoC4/StripLights.c **** 
1208:Generated_Source\PSoC4/StripLights.c **** /*******************************************************************************
1209:Generated_Source\PSoC4/StripLights.c **** * Function Name: StripLights_RgbBlend()
1210:Generated_Source\PSoC4/StripLights.c **** ********************************************************************************
1211:Generated_Source\PSoC4/StripLights.c **** * Summary:  Blend two colors into one.
1212:Generated_Source\PSoC4/StripLights.c **** *    
1213:Generated_Source\PSoC4/StripLights.c **** *    newColor = (pct * toColor)  + ((100-pct) * fromColor)
1214:Generated_Source\PSoC4/StripLights.c **** *
1215:Generated_Source\PSoC4/StripLights.c **** * Parameters:  
1216:Generated_Source\PSoC4/StripLights.c **** *  void  
1217:Generated_Source\PSoC4/StripLights.c **** *
1218:Generated_Source\PSoC4/StripLights.c **** * Return: 
1219:Generated_Source\PSoC4/StripLights.c **** *  void
1220:Generated_Source\PSoC4/StripLights.c **** *
1221:Generated_Source\PSoC4/StripLights.c **** *******************************************************************************/
1222:Generated_Source\PSoC4/StripLights.c **** uint32 StripLights_RgbBlend(uint32 fromColor, uint32 toColor, uint32 pct)
1223:Generated_Source\PSoC4/StripLights.c **** {
 1829              		.loc 1 1223 0
 1830              		.cfi_startproc
 1831              		@ args = 0, pretend = 0, frame = 0
 1832              		@ frame_needed = 0, uses_anonymous_args = 0
 1833              	.LVL209:
 1834 0000 F8B5     		push	{r3, r4, r5, r6, r7, lr}
 1835              		.cfi_def_cfa_offset 24
 1836              		.cfi_offset 3, -24
 1837              		.cfi_offset 4, -20
 1838              		.cfi_offset 5, -16
 1839              		.cfi_offset 6, -12
 1840              		.cfi_offset 7, -8
 1841              		.cfi_offset 14, -4
 1842 0002 4F46     		mov	r7, r9
 1843 0004 4646     		mov	r6, r8
 1844 0006 C0B4     		push	{r6, r7}
 1845              		.cfi_def_cfa_offset 32
 1846              		.cfi_offset 8, -32
 1847              		.cfi_offset 9, -28
 1848 0008 0400     		movs	r4, r0
 1849 000a 0E00     		movs	r6, r1
 1850 000c 9146     		mov	r9, r2
 1851              	.LVL210:
1224:Generated_Source\PSoC4/StripLights.c ****     uint32 newColor = 0;
1225:Generated_Source\PSoC4/StripLights.c ****  
1226:Generated_Source\PSoC4/StripLights.c ****     #if(StripLights_CHIP == StripLights_CHIP_SF2812RGBW)
1227:Generated_Source\PSoC4/StripLights.c ****         uint32 tc, fc;
1228:Generated_Source\PSoC4/StripLights.c ****         
1229:Generated_Source\PSoC4/StripLights.c ****         tc = toColor >> 8;
1230:Generated_Source\PSoC4/StripLights.c ****         fc = fromColor >> 8;
1231:Generated_Source\PSoC4/StripLights.c ****         newColor = ((((pct * (tc & 0x00FF0000)) + ((100-pct) * (fc & 0x00FF0000)))/100) & 0x00FF000
1232:Generated_Source\PSoC4/StripLights.c ****     #endif
1233:Generated_Source\PSoC4/StripLights.c ****     newColor |= (((pct * (toColor & 0x00FF0000)) + ((100-pct) * (fromColor & 0x00FF0000)))/100) & 0
 1852              		.loc 1 1233 0
 1853 000e FF25     		movs	r5, #255
 1854 0010 2D04     		lsls	r5, r5, #16
 1855 0012 0800     		movs	r0, r1
 1856              	.LVL211:
 1857 0014 2840     		ands	r0, r5
 1858 0016 5043     		muls	r0, r2
ARM GAS  C:\Users\JAMESS~1\AppData\Local\Temp\ccSFa4Kp.s 			page 57


 1859 0018 6423     		movs	r3, #100
 1860 001a 9B1A     		subs	r3, r3, r2
 1861 001c 9846     		mov	r8, r3
 1862 001e 2300     		movs	r3, r4
 1863 0020 2B40     		ands	r3, r5
 1864 0022 4246     		mov	r2, r8
 1865              	.LVL212:
 1866 0024 5343     		muls	r3, r2
 1867 0026 C018     		adds	r0, r0, r3
 1868 0028 6421     		movs	r1, #100
 1869              	.LVL213:
 1870 002a FFF7FEFF 		bl	__aeabi_uidiv
 1871              	.LVL214:
 1872 002e 0540     		ands	r5, r0
 1873              	.LVL215:
1234:Generated_Source\PSoC4/StripLights.c ****     newColor |= (((pct * (toColor & 0x0000FF00)) + ((100-pct) * (fromColor & 0x0000FF00)))/100) & 0
 1874              		.loc 1 1234 0
 1875 0030 FF27     		movs	r7, #255
 1876 0032 3F02     		lsls	r7, r7, #8
 1877 0034 3000     		movs	r0, r6
 1878 0036 3840     		ands	r0, r7
 1879 0038 4B46     		mov	r3, r9
 1880 003a 5843     		muls	r0, r3
 1881 003c 2300     		movs	r3, r4
 1882 003e 3B40     		ands	r3, r7
 1883 0040 4246     		mov	r2, r8
 1884 0042 5343     		muls	r3, r2
 1885 0044 C018     		adds	r0, r0, r3
 1886 0046 6421     		movs	r1, #100
 1887 0048 FFF7FEFF 		bl	__aeabi_uidiv
 1888              	.LVL216:
 1889 004c 0740     		ands	r7, r0
 1890 004e 3D43     		orrs	r5, r7
 1891              	.LVL217:
1235:Generated_Source\PSoC4/StripLights.c ****     newColor |= (((pct * (toColor & 0x000000FF)) + ((100-pct) * (fromColor & 0x000000FF)))/100) & 0
 1892              		.loc 1 1235 0
 1893 0050 FF27     		movs	r7, #255
 1894 0052 3000     		movs	r0, r6
 1895 0054 3840     		ands	r0, r7
 1896 0056 4B46     		mov	r3, r9
 1897 0058 5843     		muls	r0, r3
 1898 005a 3C40     		ands	r4, r7
 1899              	.LVL218:
 1900 005c 4346     		mov	r3, r8
 1901 005e 5C43     		muls	r4, r3
 1902 0060 0019     		adds	r0, r0, r4
 1903 0062 6421     		movs	r1, #100
 1904 0064 FFF7FEFF 		bl	__aeabi_uidiv
 1905              	.LVL219:
 1906 0068 3840     		ands	r0, r7
 1907 006a 2843     		orrs	r0, r5
 1908              	.LVL220:
1236:Generated_Source\PSoC4/StripLights.c ****  
1237:Generated_Source\PSoC4/StripLights.c ****    return(newColor);
1238:Generated_Source\PSoC4/StripLights.c **** }
 1909              		.loc 1 1238 0
 1910              		@ sp needed
ARM GAS  C:\Users\JAMESS~1\AppData\Local\Temp\ccSFa4Kp.s 			page 58


 1911              	.LVL221:
 1912              	.LVL222:
 1913 006c 0CBC     		pop	{r2, r3}
 1914 006e 9046     		mov	r8, r2
 1915 0070 9946     		mov	r9, r3
 1916 0072 F8BD     		pop	{r3, r4, r5, r6, r7, pc}
 1917              		.cfi_endproc
 1918              	.LFE54:
 1919              		.size	StripLights_RgbBlend, .-StripLights_RgbBlend
 1920              		.global	StripLights_CLUT
 1921              		.global	StripLights_gamma
 1922              		.comm	StripLights_DimShift,4,4
 1923              		.comm	StripLights_DimMask,4,4
 1924              		.comm	StripLights_refreshComplete,4,4
 1925              		.global	StripLights_row
 1926              		.global	StripLights_ledIndex
 1927              		.comm	StripLights_ledArray,56,4
 1928              		.global	StripLights_initvar
 1929              		.global	StripLights_ExitCritical
 1930              		.global	StripLights_EnterCritical
 1931              		.section	.rodata
 1932              		.align	2
 1933              		.set	.LANCHOR1,. + 0
 1934              		.set	.LANCHOR2,. + 256
 1935              		.type	StripLights_gamma, %object
 1936              		.size	StripLights_gamma, 256
 1937              	StripLights_gamma:
 1938 0000 00       		.byte	0
 1939 0001 00       		.byte	0
 1940 0002 00       		.byte	0
 1941 0003 00       		.byte	0
 1942 0004 00       		.byte	0
 1943 0005 00       		.byte	0
 1944 0006 00       		.byte	0
 1945 0007 00       		.byte	0
 1946 0008 00       		.byte	0
 1947 0009 00       		.byte	0
 1948 000a 00       		.byte	0
 1949 000b 00       		.byte	0
 1950 000c 00       		.byte	0
 1951 000d 00       		.byte	0
 1952 000e 00       		.byte	0
 1953 000f 00       		.byte	0
 1954 0010 00       		.byte	0
 1955 0011 00       		.byte	0
 1956 0012 00       		.byte	0
 1957 0013 00       		.byte	0
 1958 0014 00       		.byte	0
 1959 0015 00       		.byte	0
 1960 0016 00       		.byte	0
 1961 0017 00       		.byte	0
 1962 0018 00       		.byte	0
 1963 0019 00       		.byte	0
 1964 001a 00       		.byte	0
 1965 001b 00       		.byte	0
 1966 001c 01       		.byte	1
 1967 001d 01       		.byte	1
ARM GAS  C:\Users\JAMESS~1\AppData\Local\Temp\ccSFa4Kp.s 			page 59


 1968 001e 01       		.byte	1
 1969 001f 01       		.byte	1
 1970 0020 01       		.byte	1
 1971 0021 01       		.byte	1
 1972 0022 01       		.byte	1
 1973 0023 01       		.byte	1
 1974 0024 01       		.byte	1
 1975 0025 01       		.byte	1
 1976 0026 01       		.byte	1
 1977 0027 01       		.byte	1
 1978 0028 01       		.byte	1
 1979 0029 02       		.byte	2
 1980 002a 02       		.byte	2
 1981 002b 02       		.byte	2
 1982 002c 02       		.byte	2
 1983 002d 02       		.byte	2
 1984 002e 02       		.byte	2
 1985 002f 02       		.byte	2
 1986 0030 02       		.byte	2
 1987 0031 03       		.byte	3
 1988 0032 03       		.byte	3
 1989 0033 03       		.byte	3
 1990 0034 03       		.byte	3
 1991 0035 03       		.byte	3
 1992 0036 03       		.byte	3
 1993 0037 03       		.byte	3
 1994 0038 04       		.byte	4
 1995 0039 04       		.byte	4
 1996 003a 04       		.byte	4
 1997 003b 04       		.byte	4
 1998 003c 04       		.byte	4
 1999 003d 05       		.byte	5
 2000 003e 05       		.byte	5
 2001 003f 05       		.byte	5
 2002 0040 05       		.byte	5
 2003 0041 06       		.byte	6
 2004 0042 06       		.byte	6
 2005 0043 06       		.byte	6
 2006 0044 06       		.byte	6
 2007 0045 07       		.byte	7
 2008 0046 07       		.byte	7
 2009 0047 07       		.byte	7
 2010 0048 07       		.byte	7
 2011 0049 08       		.byte	8
 2012 004a 08       		.byte	8
 2013 004b 08       		.byte	8
 2014 004c 09       		.byte	9
 2015 004d 09       		.byte	9
 2016 004e 09       		.byte	9
 2017 004f 0A       		.byte	10
 2018 0050 0A       		.byte	10
 2019 0051 0A       		.byte	10
 2020 0052 0B       		.byte	11
 2021 0053 0B       		.byte	11
 2022 0054 0B       		.byte	11
 2023 0055 0C       		.byte	12
 2024 0056 0C       		.byte	12
ARM GAS  C:\Users\JAMESS~1\AppData\Local\Temp\ccSFa4Kp.s 			page 60


 2025 0057 0D       		.byte	13
 2026 0058 0D       		.byte	13
 2027 0059 0D       		.byte	13
 2028 005a 0E       		.byte	14
 2029 005b 0E       		.byte	14
 2030 005c 0F       		.byte	15
 2031 005d 0F       		.byte	15
 2032 005e 10       		.byte	16
 2033 005f 10       		.byte	16
 2034 0060 11       		.byte	17
 2035 0061 11       		.byte	17
 2036 0062 12       		.byte	18
 2037 0063 12       		.byte	18
 2038 0064 13       		.byte	19
 2039 0065 13       		.byte	19
 2040 0066 14       		.byte	20
 2041 0067 14       		.byte	20
 2042 0068 15       		.byte	21
 2043 0069 15       		.byte	21
 2044 006a 16       		.byte	22
 2045 006b 16       		.byte	22
 2046 006c 17       		.byte	23
 2047 006d 18       		.byte	24
 2048 006e 18       		.byte	24
 2049 006f 19       		.byte	25
 2050 0070 19       		.byte	25
 2051 0071 1A       		.byte	26
 2052 0072 1B       		.byte	27
 2053 0073 1B       		.byte	27
 2054 0074 1C       		.byte	28
 2055 0075 1D       		.byte	29
 2056 0076 1D       		.byte	29
 2057 0077 1E       		.byte	30
 2058 0078 1F       		.byte	31
 2059 0079 20       		.byte	32
 2060 007a 20       		.byte	32
 2061 007b 21       		.byte	33
 2062 007c 22       		.byte	34
 2063 007d 23       		.byte	35
 2064 007e 23       		.byte	35
 2065 007f 24       		.byte	36
 2066 0080 25       		.byte	37
 2067 0081 26       		.byte	38
 2068 0082 27       		.byte	39
 2069 0083 27       		.byte	39
 2070 0084 28       		.byte	40
 2071 0085 29       		.byte	41
 2072 0086 2A       		.byte	42
 2073 0087 2B       		.byte	43
 2074 0088 2C       		.byte	44
 2075 0089 2D       		.byte	45
 2076 008a 2E       		.byte	46
 2077 008b 2F       		.byte	47
 2078 008c 30       		.byte	48
 2079 008d 31       		.byte	49
 2080 008e 32       		.byte	50
 2081 008f 32       		.byte	50
ARM GAS  C:\Users\JAMESS~1\AppData\Local\Temp\ccSFa4Kp.s 			page 61


 2082 0090 33       		.byte	51
 2083 0091 34       		.byte	52
 2084 0092 36       		.byte	54
 2085 0093 37       		.byte	55
 2086 0094 38       		.byte	56
 2087 0095 39       		.byte	57
 2088 0096 3A       		.byte	58
 2089 0097 3B       		.byte	59
 2090 0098 3C       		.byte	60
 2091 0099 3D       		.byte	61
 2092 009a 3E       		.byte	62
 2093 009b 3F       		.byte	63
 2094 009c 40       		.byte	64
 2095 009d 42       		.byte	66
 2096 009e 43       		.byte	67
 2097 009f 44       		.byte	68
 2098 00a0 45       		.byte	69
 2099 00a1 46       		.byte	70
 2100 00a2 48       		.byte	72
 2101 00a3 49       		.byte	73
 2102 00a4 4A       		.byte	74
 2103 00a5 4B       		.byte	75
 2104 00a6 4D       		.byte	77
 2105 00a7 4E       		.byte	78
 2106 00a8 4F       		.byte	79
 2107 00a9 51       		.byte	81
 2108 00aa 52       		.byte	82
 2109 00ab 53       		.byte	83
 2110 00ac 55       		.byte	85
 2111 00ad 56       		.byte	86
 2112 00ae 57       		.byte	87
 2113 00af 59       		.byte	89
 2114 00b0 5A       		.byte	90
 2115 00b1 5C       		.byte	92
 2116 00b2 5D       		.byte	93
 2117 00b3 5F       		.byte	95
 2118 00b4 60       		.byte	96
 2119 00b5 62       		.byte	98
 2120 00b6 63       		.byte	99
 2121 00b7 65       		.byte	101
 2122 00b8 66       		.byte	102
 2123 00b9 68       		.byte	104
 2124 00ba 69       		.byte	105
 2125 00bb 6B       		.byte	107
 2126 00bc 6D       		.byte	109
 2127 00bd 6E       		.byte	110
 2128 00be 70       		.byte	112
 2129 00bf 72       		.byte	114
 2130 00c0 73       		.byte	115
 2131 00c1 75       		.byte	117
 2132 00c2 77       		.byte	119
 2133 00c3 78       		.byte	120
 2134 00c4 7A       		.byte	122
 2135 00c5 7C       		.byte	124
 2136 00c6 7E       		.byte	126
 2137 00c7 7F       		.byte	127
 2138 00c8 81       		.byte	-127
ARM GAS  C:\Users\JAMESS~1\AppData\Local\Temp\ccSFa4Kp.s 			page 62


 2139 00c9 83       		.byte	-125
 2140 00ca 85       		.byte	-123
 2141 00cb 87       		.byte	-121
 2142 00cc 89       		.byte	-119
 2143 00cd 8A       		.byte	-118
 2144 00ce 8C       		.byte	-116
 2145 00cf 8E       		.byte	-114
 2146 00d0 90       		.byte	-112
 2147 00d1 92       		.byte	-110
 2148 00d2 94       		.byte	-108
 2149 00d3 96       		.byte	-106
 2150 00d4 98       		.byte	-104
 2151 00d5 9A       		.byte	-102
 2152 00d6 9C       		.byte	-100
 2153 00d7 9E       		.byte	-98
 2154 00d8 A0       		.byte	-96
 2155 00d9 A2       		.byte	-94
 2156 00da A4       		.byte	-92
 2157 00db A7       		.byte	-89
 2158 00dc A9       		.byte	-87
 2159 00dd AB       		.byte	-85
 2160 00de AD       		.byte	-83
 2161 00df AF       		.byte	-81
 2162 00e0 B1       		.byte	-79
 2163 00e1 B4       		.byte	-76
 2164 00e2 B6       		.byte	-74
 2165 00e3 B8       		.byte	-72
 2166 00e4 BA       		.byte	-70
 2167 00e5 BD       		.byte	-67
 2168 00e6 BF       		.byte	-65
 2169 00e7 C1       		.byte	-63
 2170 00e8 C4       		.byte	-60
 2171 00e9 C6       		.byte	-58
 2172 00ea C8       		.byte	-56
 2173 00eb CB       		.byte	-53
 2174 00ec CD       		.byte	-51
 2175 00ed D0       		.byte	-48
 2176 00ee D2       		.byte	-46
 2177 00ef D5       		.byte	-43
 2178 00f0 D7       		.byte	-41
 2179 00f1 DA       		.byte	-38
 2180 00f2 DC       		.byte	-36
 2181 00f3 DF       		.byte	-33
 2182 00f4 E1       		.byte	-31
 2183 00f5 E4       		.byte	-28
 2184 00f6 E7       		.byte	-25
 2185 00f7 E9       		.byte	-23
 2186 00f8 EC       		.byte	-20
 2187 00f9 EF       		.byte	-17
 2188 00fa F1       		.byte	-15
 2189 00fb F4       		.byte	-12
 2190 00fc F7       		.byte	-9
 2191 00fd F9       		.byte	-7
 2192 00fe FC       		.byte	-4
 2193 00ff FF       		.byte	-1
 2194              		.type	StripLights_CLUT, %object
 2195              		.size	StripLights_CLUT, 480
ARM GAS  C:\Users\JAMESS~1\AppData\Local\Temp\ccSFa4Kp.s 			page 63


 2196              	StripLights_CLUT:
 2197 0100 FFFF0000 		.word	65535
 2198 0104 FFCC0000 		.word	52479
 2199 0108 FF990000 		.word	39423
 2200 010c FF330000 		.word	13311
 2201 0110 FF000000 		.word	255
 2202 0114 B3006600 		.word	6684851
 2203 0118 99009900 		.word	10027161
 2204 011c 6600B300 		.word	11731046
 2205 0120 3300CC00 		.word	13369395
 2206 0124 1919B300 		.word	11737369
 2207 0128 00339900 		.word	10040064
 2208 012c 00409900 		.word	10043392
 2209 0130 00669900 		.word	10053120
 2210 0134 00999900 		.word	10066176
 2211 0138 00CC9900 		.word	10079232
 2212 013c 00E66600 		.word	6743552
 2213 0140 00FF0000 		.word	65280
 2214 0144 33FF0000 		.word	65331
 2215 0148 66FF0000 		.word	65382
 2216 014c 80FF0000 		.word	65408
 2217 0150 99FF0000 		.word	65433
 2218 0154 B2FF0000 		.word	65458
 2219 0158 CCFF0000 		.word	65484
 2220 015c E5FF0000 		.word	65509
 2221 0160 00000000 		.word	0
 2222 0164 00005500 		.word	5570560
 2223 0168 0000AA00 		.word	11141120
 2224 016c 0000FF00 		.word	16711680
 2225 0170 55000000 		.word	85
 2226 0174 55005500 		.word	5570645
 2227 0178 5500AA00 		.word	11141205
 2228 017c 5500FF00 		.word	16711765
 2229 0180 AA000000 		.word	170
 2230 0184 AA005500 		.word	5570730
 2231 0188 AA00AA00 		.word	11141290
 2232 018c AA00FF00 		.word	16711850
 2233 0190 FF000000 		.word	255
 2234 0194 FF005500 		.word	5570815
 2235 0198 FF00AA00 		.word	11141375
 2236 019c FF00FF00 		.word	16711935
 2237 01a0 00550000 		.word	21760
 2238 01a4 00555500 		.word	5592320
 2239 01a8 0055AA00 		.word	11162880
 2240 01ac 0055FF00 		.word	16733440
 2241 01b0 55550000 		.word	21845
 2242 01b4 55555500 		.word	5592405
 2243 01b8 5555AA00 		.word	11162965
 2244 01bc 5555FF00 		.word	16733525
 2245 01c0 AA550000 		.word	21930
 2246 01c4 AA555500 		.word	5592490
 2247 01c8 AA55AA00 		.word	11163050
 2248 01cc AA55FF00 		.word	16733610
 2249 01d0 FF550000 		.word	22015
 2250 01d4 FF555500 		.word	5592575
 2251 01d8 FF55AA00 		.word	11163135
 2252 01dc FF55FF00 		.word	16733695
ARM GAS  C:\Users\JAMESS~1\AppData\Local\Temp\ccSFa4Kp.s 			page 64


 2253 01e0 00AA0000 		.word	43520
 2254 01e4 00AA5500 		.word	5614080
 2255 01e8 00AAAA00 		.word	11184640
 2256 01ec 00AAFF00 		.word	16755200
 2257 01f0 55AA0000 		.word	43605
 2258 01f4 55AA5500 		.word	5614165
 2259 01f8 55AAAA00 		.word	11184725
 2260 01fc 55AAFF00 		.word	16755285
 2261 0200 AAAA0000 		.word	43690
 2262 0204 AAAA5500 		.word	5614250
 2263 0208 AAAAAA00 		.word	11184810
 2264 020c AAAAFF00 		.word	16755370
 2265 0210 FFAA0000 		.word	43775
 2266 0214 FFAA5500 		.word	5614335
 2267 0218 FFAAAA00 		.word	11184895
 2268 021c FFAAFF00 		.word	16755455
 2269 0220 00FF0000 		.word	65280
 2270 0224 00FF5500 		.word	5635840
 2271 0228 00FFAA00 		.word	11206400
 2272 022c 00FFFF00 		.word	16776960
 2273 0230 55FF0000 		.word	65365
 2274 0234 55FF5500 		.word	5635925
 2275 0238 55FFAA00 		.word	11206485
 2276 023c 55FFFF00 		.word	16777045
 2277 0240 AAFF0000 		.word	65450
 2278 0244 AAFF5500 		.word	5636010
 2279 0248 AAFFAA00 		.word	11206570
 2280 024c AAFFFF00 		.word	16777130
 2281 0250 FFFF0000 		.word	65535
 2282 0254 FFFF5500 		.word	5636095
 2283 0258 FFFFAA00 		.word	11206655
 2284 025c FFFFFF00 		.word	16777215
 2285 0260 FF800000 		.word	33023
 2286 0264 FF008000 		.word	8388863
 2287 0268 FF00FF00 		.word	16711935
 2288 026c 8000FF00 		.word	16711808
 2289 0270 0080FF00 		.word	16744448
 2290 0274 00FF8000 		.word	8453888
 2291 0278 FF000000 		.word	255
 2292 027c 20202000 		.word	2105376
 2293 0280 00002000 		.word	2097152
 2294 0284 00000010 		.word	268435456
 2295 0288 00FF0000 		.word	65280
 2296 028c 30FF0000 		.word	65328
 2297 0290 FFFFFFFF 		.word	-1
 2298 0294 000000FF 		.word	-16777216
 2299 0298 808080FF 		.word	-8355712
 2300 029c 404040FF 		.word	-12566464
 2301 02a0 0000FF00 		.word	16711680
 2302 02a4 0010F000 		.word	15732736
 2303 02a8 0020E000 		.word	14688256
 2304 02ac 0030D000 		.word	13643776
 2305 02b0 0040C000 		.word	12599296
 2306 02b4 0050B000 		.word	11554816
 2307 02b8 0060A000 		.word	10510336
 2308 02bc 00709000 		.word	9465856
 2309 02c0 00808000 		.word	8421376
ARM GAS  C:\Users\JAMESS~1\AppData\Local\Temp\ccSFa4Kp.s 			page 65


 2310 02c4 00907000 		.word	7376896
 2311 02c8 00A06000 		.word	6332416
 2312 02cc 00B05000 		.word	5287936
 2313 02d0 00C04000 		.word	4243456
 2314 02d4 00D03000 		.word	3198976
 2315 02d8 00E02000 		.word	2154496
 2316 02dc 00FF0000 		.word	65280
 2317              		.bss
 2318              		.align	2
 2319              		.set	.LANCHOR0,. + 0
 2320              		.type	StripLights_row, %object
 2321              		.size	StripLights_row, 4
 2322              	StripLights_row:
 2323 0000 00000000 		.space	4
 2324              		.type	StripLights_ledIndex, %object
 2325              		.size	StripLights_ledIndex, 4
 2326              	StripLights_ledIndex:
 2327 0004 00000000 		.space	4
 2328              		.type	color.5758, %object
 2329              		.size	color.5758, 4
 2330              	color.5758:
 2331 0008 00000000 		.space	4
 2332              		.type	color.5766, %object
 2333              		.size	color.5766, 4
 2334              	color.5766:
 2335 000c 00000000 		.space	4
 2336              		.type	StripLights_EnterCritical, %object
 2337              		.size	StripLights_EnterCritical, 4
 2338              	StripLights_EnterCritical:
 2339 0010 00000000 		.space	4
 2340              		.type	StripLights_ExitCritical, %object
 2341              		.size	StripLights_ExitCritical, 4
 2342              	StripLights_ExitCritical:
 2343 0014 00000000 		.space	4
 2344              		.type	colorIndex.5751, %object
 2345              		.size	colorIndex.5751, 4
 2346              	colorIndex.5751:
 2347 0018 00000000 		.space	4
 2348              		.type	StripLights_initvar, %object
 2349              		.size	StripLights_initvar, 1
 2350              	StripLights_initvar:
 2351 001c 00       		.space	1
 2352              		.text
 2353              	.Letext0:
 2354              		.file 2 "Generated_Source\\PSoC4/cytypes.h"
 2355              		.file 3 "Generated_Source\\PSoC4/StripLights.h"
 2356              		.file 4 "Generated_Source\\PSoC4/CyLib.h"
 2357              		.file 5 "Generated_Source\\PSoC4\\StripLights_fonts.h"
 2358              		.file 6 "Generated_Source\\PSoC4/StripLights_cisr.h"
 2359              		.file 7 "Generated_Source\\PSoC4/StripLights_fisr.h"
 2360              		.section	.debug_info,"",%progbits
 2361              	.Ldebug_info0:
 2362 0000 820D0000 		.4byte	0xd82
 2363 0004 0400     		.2byte	0x4
 2364 0006 00000000 		.4byte	.Ldebug_abbrev0
 2365 000a 04       		.byte	0x4
 2366 000b 01       		.uleb128 0x1
ARM GAS  C:\Users\JAMESS~1\AppData\Local\Temp\ccSFa4Kp.s 			page 66


 2367 000c 2E010000 		.4byte	.LASF81
 2368 0010 0C       		.byte	0xc
 2369 0011 A4000000 		.4byte	.LASF82
 2370 0015 EA040000 		.4byte	.LASF83
 2371 0019 00000000 		.4byte	.Ldebug_ranges0+0
 2372 001d 00000000 		.4byte	0
 2373 0021 00000000 		.4byte	.Ldebug_line0
 2374 0025 02       		.uleb128 0x2
 2375 0026 01       		.byte	0x1
 2376 0027 06       		.byte	0x6
 2377 0028 44020000 		.4byte	.LASF0
 2378 002c 02       		.uleb128 0x2
 2379 002d 01       		.byte	0x1
 2380 002e 08       		.byte	0x8
 2381 002f C1020000 		.4byte	.LASF1
 2382 0033 02       		.uleb128 0x2
 2383 0034 02       		.byte	0x2
 2384 0035 05       		.byte	0x5
 2385 0036 4F000000 		.4byte	.LASF2
 2386 003a 02       		.uleb128 0x2
 2387 003b 02       		.byte	0x2
 2388 003c 07       		.byte	0x7
 2389 003d E5030000 		.4byte	.LASF3
 2390 0041 02       		.uleb128 0x2
 2391 0042 04       		.byte	0x4
 2392 0043 05       		.byte	0x5
 2393 0044 89020000 		.4byte	.LASF4
 2394 0048 02       		.uleb128 0x2
 2395 0049 04       		.byte	0x4
 2396 004a 07       		.byte	0x7
 2397 004b 54030000 		.4byte	.LASF5
 2398 004f 02       		.uleb128 0x2
 2399 0050 08       		.byte	0x8
 2400 0051 05       		.byte	0x5
 2401 0052 6E020000 		.4byte	.LASF6
 2402 0056 02       		.uleb128 0x2
 2403 0057 08       		.byte	0x8
 2404 0058 07       		.byte	0x7
 2405 0059 0B030000 		.4byte	.LASF7
 2406 005d 03       		.uleb128 0x3
 2407 005e 04       		.byte	0x4
 2408 005f 05       		.byte	0x5
 2409 0060 696E7400 		.ascii	"int\000"
 2410 0064 02       		.uleb128 0x2
 2411 0065 04       		.byte	0x4
 2412 0066 07       		.byte	0x7
 2413 0067 47030000 		.4byte	.LASF8
 2414 006b 04       		.uleb128 0x4
 2415 006c EF010000 		.4byte	.LASF9
 2416 0070 02       		.byte	0x2
 2417 0071 D201     		.2byte	0x1d2
 2418 0073 2C000000 		.4byte	0x2c
 2419 0077 04       		.uleb128 0x4
 2420 0078 50040000 		.4byte	.LASF10
 2421 007c 02       		.byte	0x2
 2422 007d D401     		.2byte	0x1d4
 2423 007f 48000000 		.4byte	0x48
ARM GAS  C:\Users\JAMESS~1\AppData\Local\Temp\ccSFa4Kp.s 			page 67


 2424 0083 04       		.uleb128 0x4
 2425 0084 81040000 		.4byte	.LASF11
 2426 0088 02       		.byte	0x2
 2427 0089 D701     		.2byte	0x1d7
 2428 008b 41000000 		.4byte	0x41
 2429 008f 02       		.uleb128 0x2
 2430 0090 04       		.byte	0x4
 2431 0091 04       		.byte	0x4
 2432 0092 50020000 		.4byte	.LASF12
 2433 0096 02       		.uleb128 0x2
 2434 0097 08       		.byte	0x8
 2435 0098 04       		.byte	0x4
 2436 0099 54050000 		.4byte	.LASF13
 2437 009d 02       		.uleb128 0x2
 2438 009e 01       		.byte	0x1
 2439 009f 08       		.byte	0x8
 2440 00a0 20000000 		.4byte	.LASF14
 2441 00a4 04       		.uleb128 0x4
 2442 00a5 5D040000 		.4byte	.LASF15
 2443 00a9 02       		.byte	0x2
 2444 00aa 7C02     		.2byte	0x27c
 2445 00ac B0000000 		.4byte	0xb0
 2446 00b0 05       		.uleb128 0x5
 2447 00b1 6B000000 		.4byte	0x6b
 2448 00b5 06       		.uleb128 0x6
 2449 00b6 04       		.byte	0x4
 2450 00b7 BB000000 		.4byte	0xbb
 2451 00bb 07       		.uleb128 0x7
 2452 00bc 08       		.uleb128 0x8
 2453 00bd 84050000 		.4byte	.LASF16
 2454 00c1 03       		.byte	0x3
 2455 00c2 12       		.byte	0x12
 2456 00c3 B5000000 		.4byte	0xb5
 2457 00c7 02       		.uleb128 0x2
 2458 00c8 04       		.byte	0x4
 2459 00c9 07       		.byte	0x7
 2460 00ca 3C050000 		.4byte	.LASF17
 2461 00ce 02       		.uleb128 0x2
 2462 00cf 08       		.byte	0x8
 2463 00d0 04       		.byte	0x4
 2464 00d1 AB020000 		.4byte	.LASF18
 2465 00d5 09       		.uleb128 0x9
 2466 00d6 BC040000 		.4byte	.LASF21
 2467 00da 01       		.byte	0x1
 2468 00db 4802     		.2byte	0x248
 2469 00dd 00000000 		.4byte	.LFB41
 2470 00e1 70000000 		.4byte	.LFE41-.LFB41
 2471 00e5 01       		.uleb128 0x1
 2472 00e6 9C       		.byte	0x9c
 2473 00e7 16010000 		.4byte	0x116
 2474 00eb 0A       		.uleb128 0xa
 2475 00ec BC010000 		.4byte	.LASF19
 2476 00f0 01       		.byte	0x1
 2477 00f1 4A02     		.2byte	0x24a
 2478 00f3 77000000 		.4byte	0x77
 2479 00f7 0A       		.uleb128 0xa
 2480 00f8 3A000000 		.4byte	.LASF20
ARM GAS  C:\Users\JAMESS~1\AppData\Local\Temp\ccSFa4Kp.s 			page 68


 2481 00fc 01       		.byte	0x1
 2482 00fd 4B02     		.2byte	0x24b
 2483 00ff 77000000 		.4byte	0x77
 2484 0103 0B       		.uleb128 0xb
 2485 0104 59000000 		.4byte	.LASF23
 2486 0108 01       		.byte	0x1
 2487 0109 4C02     		.2byte	0x24c
 2488 010b 77000000 		.4byte	0x77
 2489 010f 05       		.uleb128 0x5
 2490 0110 03       		.byte	0x3
 2491 0111 08000000 		.4byte	color.5758
 2492 0115 00       		.byte	0
 2493 0116 09       		.uleb128 0x9
 2494 0117 9A040000 		.4byte	.LASF22
 2495 011b 01       		.byte	0x1
 2496 011c 8602     		.2byte	0x286
 2497 011e 00000000 		.4byte	.LFB42
 2498 0122 8C000000 		.4byte	.LFE42-.LFB42
 2499 0126 01       		.uleb128 0x1
 2500 0127 9C       		.byte	0x9c
 2501 0128 63010000 		.4byte	0x163
 2502 012c 0A       		.uleb128 0xa
 2503 012d BC010000 		.4byte	.LASF19
 2504 0131 01       		.byte	0x1
 2505 0132 8802     		.2byte	0x288
 2506 0134 77000000 		.4byte	0x77
 2507 0138 0A       		.uleb128 0xa
 2508 0139 3A000000 		.4byte	.LASF20
 2509 013d 01       		.byte	0x1
 2510 013e 8902     		.2byte	0x289
 2511 0140 77000000 		.4byte	0x77
 2512 0144 0B       		.uleb128 0xb
 2513 0145 59000000 		.4byte	.LASF23
 2514 0149 01       		.byte	0x1
 2515 014a 8A02     		.2byte	0x28a
 2516 014c 77000000 		.4byte	0x77
 2517 0150 05       		.uleb128 0x5
 2518 0151 03       		.byte	0x3
 2519 0152 0C000000 		.4byte	color.5766
 2520 0156 0A       		.uleb128 0xa
 2521 0157 5F000000 		.4byte	.LASF24
 2522 015b 01       		.byte	0x1
 2523 015c 8B02     		.2byte	0x28b
 2524 015e 77000000 		.4byte	0x77
 2525 0162 00       		.byte	0
 2526 0163 09       		.uleb128 0x9
 2527 0164 1A040000 		.4byte	.LASF25
 2528 0168 01       		.byte	0x1
 2529 0169 4C01     		.2byte	0x14c
 2530 016b 00000000 		.4byte	.LFB33
 2531 016f 0C000000 		.4byte	.LFE33-.LFB33
 2532 0173 01       		.uleb128 0x1
 2533 0174 9C       		.byte	0x9c
 2534 0175 96010000 		.4byte	0x196
 2535 0179 0C       		.uleb128 0xc
 2536 017a 45050000 		.4byte	.LASF26
 2537 017e 01       		.byte	0x1
ARM GAS  C:\Users\JAMESS~1\AppData\Local\Temp\ccSFa4Kp.s 			page 69


 2538 017f 4C01     		.2byte	0x14c
 2539 0181 BC000000 		.4byte	0xbc
 2540 0185 01       		.uleb128 0x1
 2541 0186 50       		.byte	0x50
 2542 0187 0C       		.uleb128 0xc
 2543 0188 11000000 		.4byte	.LASF27
 2544 018c 01       		.byte	0x1
 2545 018d 4C01     		.2byte	0x14c
 2546 018f BC000000 		.4byte	0xbc
 2547 0193 01       		.uleb128 0x1
 2548 0194 51       		.byte	0x51
 2549 0195 00       		.byte	0
 2550 0196 09       		.uleb128 0x9
 2551 0197 26020000 		.4byte	.LASF28
 2552 019b 01       		.byte	0x1
 2553 019c B601     		.2byte	0x1b6
 2554 019e 00000000 		.4byte	.LFB36
 2555 01a2 80000000 		.4byte	.LFE36-.LFB36
 2556 01a6 01       		.uleb128 0x1
 2557 01a7 9C       		.byte	0x9c
 2558 01a8 CD010000 		.4byte	0x1cd
 2559 01ac 0D       		.uleb128 0xd
 2560 01ad 72737400 		.ascii	"rst\000"
 2561 01b1 01       		.byte	0x1
 2562 01b2 B601     		.2byte	0x1b6
 2563 01b4 77000000 		.4byte	0x77
 2564 01b8 00000000 		.4byte	.LLST0
 2565 01bc 0E       		.uleb128 0xe
 2566 01bd 59000000 		.4byte	.LASF23
 2567 01c1 01       		.byte	0x1
 2568 01c2 B801     		.2byte	0x1b8
 2569 01c4 77000000 		.4byte	0x77
 2570 01c8 21000000 		.4byte	.LLST1
 2571 01cc 00       		.byte	0
 2572 01cd 0F       		.uleb128 0xf
 2573 01ce BE030000 		.4byte	.LASF84
 2574 01d2 01       		.byte	0x1
 2575 01d3 F101     		.2byte	0x1f1
 2576 01d5 77000000 		.4byte	0x77
 2577 01d9 00000000 		.4byte	.LFB37
 2578 01dd 1C000000 		.4byte	.LFE37-.LFB37
 2579 01e1 01       		.uleb128 0x1
 2580 01e2 9C       		.byte	0x9c
 2581 01e3 10       		.uleb128 0x10
 2582 01e4 F5010000 		.4byte	.LASF29
 2583 01e8 01       		.byte	0x1
 2584 01e9 5F01     		.2byte	0x15f
 2585 01eb 00000000 		.4byte	.LFB34
 2586 01ef 54000000 		.4byte	.LFE34-.LFB34
 2587 01f3 01       		.uleb128 0x1
 2588 01f4 9C       		.byte	0x9c
 2589 01f5 5A020000 		.4byte	0x25a
 2590 01f9 11       		.uleb128 0x11
 2591 01fa F7000000 		.4byte	.LASF30
 2592 01fe 01       		.byte	0x1
 2593 01ff 5F01     		.2byte	0x15f
 2594 0201 77000000 		.4byte	0x77
ARM GAS  C:\Users\JAMESS~1\AppData\Local\Temp\ccSFa4Kp.s 			page 70


 2595 0205 85000000 		.4byte	.LLST2
 2596 0209 0E       		.uleb128 0xe
 2597 020a E7010000 		.4byte	.LASF31
 2598 020e 01       		.byte	0x1
 2599 020f 6201     		.2byte	0x162
 2600 0211 77000000 		.4byte	0x77
 2601 0215 B1000000 		.4byte	.LLST3
 2602 0219 12       		.uleb128 0x12
 2603 021a 14000000 		.4byte	.LVL13
 2604 021e 96010000 		.4byte	0x196
 2605 0222 2C020000 		.4byte	0x22c
 2606 0226 13       		.uleb128 0x13
 2607 0227 01       		.uleb128 0x1
 2608 0228 50       		.byte	0x50
 2609 0229 01       		.uleb128 0x1
 2610 022a 31       		.byte	0x31
 2611 022b 00       		.byte	0
 2612 022c 12       		.uleb128 0x12
 2613 022d 26000000 		.4byte	.LVL15
 2614 0231 430D0000 		.4byte	0xd43
 2615 0235 40020000 		.4byte	0x240
 2616 0239 13       		.uleb128 0x13
 2617 023a 01       		.uleb128 0x1
 2618 023b 50       		.byte	0x50
 2619 023c 02       		.uleb128 0x2
 2620 023d 08       		.byte	0x8
 2621 023e 64       		.byte	0x64
 2622 023f 00       		.byte	0
 2623 0240 14       		.uleb128 0x14
 2624 0241 2C000000 		.4byte	.LVL17
 2625 0245 CD010000 		.4byte	0x1cd
 2626 0249 15       		.uleb128 0x15
 2627 024a 3A000000 		.4byte	.LVL19
 2628 024e 430D0000 		.4byte	0xd43
 2629 0252 13       		.uleb128 0x13
 2630 0253 01       		.uleb128 0x1
 2631 0254 50       		.byte	0x50
 2632 0255 02       		.uleb128 0x2
 2633 0256 08       		.byte	0x8
 2634 0257 64       		.byte	0x64
 2635 0258 00       		.byte	0
 2636 0259 00       		.byte	0
 2637 025a 10       		.uleb128 0x10
 2638 025b 56020000 		.4byte	.LASF32
 2639 025f 01       		.byte	0x1
 2640 0260 9001     		.2byte	0x190
 2641 0262 00000000 		.4byte	.LFB35
 2642 0266 2C000000 		.4byte	.LFE35-.LFB35
 2643 026a 01       		.uleb128 0x1
 2644 026b 9C       		.byte	0x9c
 2645 026c 9E020000 		.4byte	0x29e
 2646 0270 0D       		.uleb128 0xd
 2647 0271 72737400 		.ascii	"rst\000"
 2648 0275 01       		.byte	0x1
 2649 0276 9001     		.2byte	0x190
 2650 0278 77000000 		.4byte	0x77
 2651 027c D0000000 		.4byte	.LLST4
ARM GAS  C:\Users\JAMESS~1\AppData\Local\Temp\ccSFa4Kp.s 			page 71


 2652 0280 12       		.uleb128 0x12
 2653 0281 14000000 		.4byte	.LVL25
 2654 0285 96010000 		.4byte	0x196
 2655 0289 94020000 		.4byte	0x294
 2656 028d 13       		.uleb128 0x13
 2657 028e 01       		.uleb128 0x1
 2658 028f 50       		.byte	0x50
 2659 0290 02       		.uleb128 0x2
 2660 0291 74       		.byte	0x74
 2661 0292 00       		.sleb128 0
 2662 0293 00       		.byte	0
 2663 0294 14       		.uleb128 0x14
 2664 0295 18000000 		.4byte	.LVL26
 2665 0299 CD010000 		.4byte	0x1cd
 2666 029d 00       		.byte	0
 2667 029e 16       		.uleb128 0x16
 2668 029f AB040000 		.4byte	.LASF85
 2669 02a3 01       		.byte	0x1
 2670 02a4 0C02     		.2byte	0x20c
 2671 02a6 00000000 		.4byte	.LFB38
 2672 02aa 0C000000 		.4byte	.LFE38-.LFB38
 2673 02ae 01       		.uleb128 0x1
 2674 02af 9C       		.byte	0x9c
 2675 02b0 17       		.uleb128 0x17
 2676 02b1 D0030000 		.4byte	.LASF33
 2677 02b5 01       		.byte	0x1
 2678 02b6 1102     		.2byte	0x211
 2679 02b8 77000000 		.4byte	0x77
 2680 02bc 00000000 		.4byte	.LFB39
 2681 02c0 0C000000 		.4byte	.LFE39-.LFB39
 2682 02c4 01       		.uleb128 0x1
 2683 02c5 9C       		.byte	0x9c
 2684 02c6 DB020000 		.4byte	0x2db
 2685 02ca 11       		.uleb128 0x11
 2686 02cb 59000000 		.4byte	.LASF23
 2687 02cf 01       		.byte	0x1
 2688 02d0 1102     		.2byte	0x211
 2689 02d2 77000000 		.4byte	0x77
 2690 02d6 FC000000 		.4byte	.LLST5
 2691 02da 00       		.byte	0
 2692 02db 18       		.uleb128 0x18
 2693 02dc CF020000 		.4byte	.LASF34
 2694 02e0 01       		.byte	0x1
 2695 02e1 2702     		.2byte	0x227
 2696 02e3 77000000 		.4byte	0x77
 2697 02e7 00000000 		.4byte	.LFB40
 2698 02eb 24000000 		.4byte	.LFE40-.LFB40
 2699 02ef 01       		.uleb128 0x1
 2700 02f0 9C       		.byte	0x9c
 2701 02f1 32030000 		.4byte	0x332
 2702 02f5 11       		.uleb128 0x11
 2703 02f6 11040000 		.4byte	.LASF35
 2704 02fa 01       		.byte	0x1
 2705 02fb 2702     		.2byte	0x227
 2706 02fd 77000000 		.4byte	0x77
 2707 0301 28010000 		.4byte	.LLST6
 2708 0305 0B       		.uleb128 0xb
ARM GAS  C:\Users\JAMESS~1\AppData\Local\Temp\ccSFa4Kp.s 			page 72


 2709 0306 59000000 		.4byte	.LASF23
 2710 030a 01       		.byte	0x1
 2711 030b 2902     		.2byte	0x229
 2712 030d 77000000 		.4byte	0x77
 2713 0311 01       		.uleb128 0x1
 2714 0312 50       		.byte	0x50
 2715 0313 0A       		.uleb128 0xa
 2716 0314 00000000 		.4byte	.LASF36
 2717 0318 01       		.byte	0x1
 2718 0319 2A02     		.2byte	0x22a
 2719 031b 47030000 		.4byte	0x347
 2720 031f 0B       		.uleb128 0xb
 2721 0320 FB020000 		.4byte	.LASF37
 2722 0324 01       		.byte	0x1
 2723 0325 2B02     		.2byte	0x22b
 2724 0327 77000000 		.4byte	0x77
 2725 032b 05       		.uleb128 0x5
 2726 032c 03       		.byte	0x3
 2727 032d 18000000 		.4byte	colorIndex.5751
 2728 0331 00       		.byte	0
 2729 0332 19       		.uleb128 0x19
 2730 0333 42030000 		.4byte	0x342
 2731 0337 42030000 		.4byte	0x342
 2732 033b 1A       		.uleb128 0x1a
 2733 033c C7000000 		.4byte	0xc7
 2734 0340 77       		.byte	0x77
 2735 0341 00       		.byte	0
 2736 0342 1B       		.uleb128 0x1b
 2737 0343 77000000 		.4byte	0x77
 2738 0347 1B       		.uleb128 0x1b
 2739 0348 32030000 		.4byte	0x332
 2740 034c 09       		.uleb128 0x9
 2741 034d 6F030000 		.4byte	.LASF38
 2742 0351 01       		.byte	0x1
 2743 0352 DB02     		.2byte	0x2db
 2744 0354 00000000 		.4byte	.LFB44
 2745 0358 2C000000 		.4byte	.LFE44-.LFB44
 2746 035c 01       		.uleb128 0x1
 2747 035d 9C       		.byte	0x9c
 2748 035e 91030000 		.4byte	0x391
 2749 0362 0C       		.uleb128 0xc
 2750 0363 59000000 		.4byte	.LASF23
 2751 0367 01       		.byte	0x1
 2752 0368 DB02     		.2byte	0x2db
 2753 036a 77000000 		.4byte	0x77
 2754 036e 01       		.uleb128 0x1
 2755 036f 50       		.byte	0x50
 2756 0370 1C       		.uleb128 0x1c
 2757 0371 726F7700 		.ascii	"row\000"
 2758 0375 01       		.byte	0x1
 2759 0376 DD02     		.2byte	0x2dd
 2760 0378 77000000 		.4byte	0x77
 2761 037c 49010000 		.4byte	.LLST7
 2762 0380 1C       		.uleb128 0x1c
 2763 0381 636F6C00 		.ascii	"col\000"
 2764 0385 01       		.byte	0x1
 2765 0386 DD02     		.2byte	0x2dd
ARM GAS  C:\Users\JAMESS~1\AppData\Local\Temp\ccSFa4Kp.s 			page 73


 2766 0388 77000000 		.4byte	0x77
 2767 038c 68010000 		.4byte	.LLST8
 2768 0390 00       		.byte	0
 2769 0391 09       		.uleb128 0x9
 2770 0392 F8030000 		.4byte	.LASF39
 2771 0396 01       		.byte	0x1
 2772 0397 C802     		.2byte	0x2c8
 2773 0399 00000000 		.4byte	.LFB43
 2774 039d 0E000000 		.4byte	.LFE43-.LFB43
 2775 03a1 01       		.uleb128 0x1
 2776 03a2 9C       		.byte	0x9c
 2777 03a3 DC030000 		.4byte	0x3dc
 2778 03a7 11       		.uleb128 0x11
 2779 03a8 59000000 		.4byte	.LASF23
 2780 03ac 01       		.byte	0x1
 2781 03ad C802     		.2byte	0x2c8
 2782 03af 77000000 		.4byte	0x77
 2783 03b3 86010000 		.4byte	.LLST9
 2784 03b7 12       		.uleb128 0x12
 2785 03b8 06000000 		.4byte	.LVL45
 2786 03bc 4C030000 		.4byte	0x34c
 2787 03c0 CC030000 		.4byte	0x3cc
 2788 03c4 13       		.uleb128 0x13
 2789 03c5 01       		.uleb128 0x1
 2790 03c6 50       		.byte	0x50
 2791 03c7 03       		.uleb128 0x3
 2792 03c8 F3       		.byte	0xf3
 2793 03c9 01       		.uleb128 0x1
 2794 03ca 50       		.byte	0x50
 2795 03cb 00       		.byte	0
 2796 03cc 15       		.uleb128 0x15
 2797 03cd 0C000000 		.4byte	.LVL46
 2798 03d1 96010000 		.4byte	0x196
 2799 03d5 13       		.uleb128 0x13
 2800 03d6 01       		.uleb128 0x1
 2801 03d7 50       		.byte	0x50
 2802 03d8 01       		.uleb128 0x1
 2803 03d9 31       		.byte	0x31
 2804 03da 00       		.byte	0
 2805 03db 00       		.byte	0
 2806 03dc 09       		.uleb128 0x9
 2807 03dd D0010000 		.4byte	.LASF40
 2808 03e1 01       		.byte	0x1
 2809 03e2 FB02     		.2byte	0x2fb
 2810 03e4 00000000 		.4byte	.LFB45
 2811 03e8 24000000 		.4byte	.LFE45-.LFB45
 2812 03ec 01       		.uleb128 0x1
 2813 03ed 9C       		.byte	0x9c
 2814 03ee 03040000 		.4byte	0x403
 2815 03f2 11       		.uleb128 0x11
 2816 03f3 59000000 		.4byte	.LASF23
 2817 03f7 01       		.byte	0x1
 2818 03f8 FB02     		.2byte	0x2fb
 2819 03fa 77000000 		.4byte	0x77
 2820 03fe A7010000 		.4byte	.LLST10
 2821 0402 00       		.byte	0
 2822 0403 09       		.uleb128 0x9
ARM GAS  C:\Users\JAMESS~1\AppData\Local\Temp\ccSFa4Kp.s 			page 74


 2823 0404 2A050000 		.4byte	.LASF41
 2824 0408 01       		.byte	0x1
 2825 0409 1A03     		.2byte	0x31a
 2826 040b 00000000 		.4byte	.LFB46
 2827 040f 24000000 		.4byte	.LFE46-.LFB46
 2828 0413 01       		.uleb128 0x1
 2829 0414 9C       		.byte	0x9c
 2830 0415 44040000 		.4byte	0x444
 2831 0419 0D       		.uleb128 0xd
 2832 041a 7800     		.ascii	"x\000"
 2833 041c 01       		.byte	0x1
 2834 041d 1A03     		.2byte	0x31a
 2835 041f 83000000 		.4byte	0x83
 2836 0423 EF010000 		.4byte	.LLST11
 2837 0427 0D       		.uleb128 0xd
 2838 0428 7900     		.ascii	"y\000"
 2839 042a 01       		.byte	0x1
 2840 042b 1A03     		.2byte	0x31a
 2841 042d 83000000 		.4byte	0x83
 2842 0431 10020000 		.4byte	.LLST12
 2843 0435 0C       		.uleb128 0xc
 2844 0436 59000000 		.4byte	.LASF23
 2845 043a 01       		.byte	0x1
 2846 043b 1A03     		.2byte	0x31a
 2847 043d 77000000 		.4byte	0x77
 2848 0441 01       		.uleb128 0x1
 2849 0442 52       		.byte	0x52
 2850 0443 00       		.byte	0
 2851 0444 17       		.uleb128 0x17
 2852 0445 25000000 		.4byte	.LASF42
 2853 0449 01       		.byte	0x1
 2854 044a 6103     		.2byte	0x361
 2855 044c 77000000 		.4byte	0x77
 2856 0450 00000000 		.4byte	.LFB47
 2857 0454 34000000 		.4byte	.LFE47-.LFB47
 2858 0458 01       		.uleb128 0x1
 2859 0459 9C       		.byte	0x9c
 2860 045a 8B040000 		.4byte	0x48b
 2861 045e 0D       		.uleb128 0xd
 2862 045f 7800     		.ascii	"x\000"
 2863 0461 01       		.byte	0x1
 2864 0462 6103     		.2byte	0x361
 2865 0464 83000000 		.4byte	0x83
 2866 0468 31020000 		.4byte	.LLST13
 2867 046c 0D       		.uleb128 0xd
 2868 046d 7900     		.ascii	"y\000"
 2869 046f 01       		.byte	0x1
 2870 0470 6103     		.2byte	0x361
 2871 0472 83000000 		.4byte	0x83
 2872 0476 B6020000 		.4byte	.LLST14
 2873 047a 0E       		.uleb128 0xe
 2874 047b 59000000 		.4byte	.LASF23
 2875 047f 01       		.byte	0x1
 2876 0480 6303     		.2byte	0x363
 2877 0482 77000000 		.4byte	0x77
 2878 0486 F0020000 		.4byte	.LLST15
 2879 048a 00       		.byte	0
ARM GAS  C:\Users\JAMESS~1\AppData\Local\Temp\ccSFa4Kp.s 			page 75


 2880 048b 09       		.uleb128 0x9
 2881 048c E4020000 		.4byte	.LASF43
 2882 0490 01       		.byte	0x1
 2883 0491 9503     		.2byte	0x395
 2884 0493 00000000 		.4byte	.LFB48
 2885 0497 FC000000 		.4byte	.LFE48-.LFB48
 2886 049b 01       		.uleb128 0x1
 2887 049c 9C       		.byte	0x9c
 2888 049d C0060000 		.4byte	0x6c0
 2889 04a1 0D       		.uleb128 0xd
 2890 04a2 783000   		.ascii	"x0\000"
 2891 04a5 01       		.byte	0x1
 2892 04a6 9503     		.2byte	0x395
 2893 04a8 83000000 		.4byte	0x83
 2894 04ac 26030000 		.4byte	.LLST16
 2895 04b0 0D       		.uleb128 0xd
 2896 04b1 793000   		.ascii	"y0\000"
 2897 04b4 01       		.byte	0x1
 2898 04b5 9503     		.2byte	0x395
 2899 04b7 83000000 		.4byte	0x83
 2900 04bb 52030000 		.4byte	.LLST17
 2901 04bf 11       		.uleb128 0x11
 2902 04c0 6D050000 		.4byte	.LASF44
 2903 04c4 01       		.byte	0x1
 2904 04c5 9503     		.2byte	0x395
 2905 04c7 83000000 		.4byte	0x83
 2906 04cb 7E030000 		.4byte	.LLST18
 2907 04cf 11       		.uleb128 0x11
 2908 04d0 59000000 		.4byte	.LASF23
 2909 04d4 01       		.byte	0x1
 2910 04d5 9503     		.2byte	0x395
 2911 04d7 77000000 		.4byte	0x77
 2912 04db AA030000 		.4byte	.LLST19
 2913 04df 1C       		.uleb128 0x1c
 2914 04e0 6600     		.ascii	"f\000"
 2915 04e2 01       		.byte	0x1
 2916 04e3 9703     		.2byte	0x397
 2917 04e5 83000000 		.4byte	0x83
 2918 04e9 D4030000 		.4byte	.LLST20
 2919 04ed 0E       		.uleb128 0xe
 2920 04ee 7B040000 		.4byte	.LASF45
 2921 04f2 01       		.byte	0x1
 2922 04f3 9803     		.2byte	0x398
 2923 04f5 83000000 		.4byte	0x83
 2924 04f9 08040000 		.4byte	.LLST21
 2925 04fd 0E       		.uleb128 0xe
 2926 04fe 7C020000 		.4byte	.LASF46
 2927 0502 01       		.byte	0x1
 2928 0503 9903     		.2byte	0x399
 2929 0505 83000000 		.4byte	0x83
 2930 0509 49040000 		.4byte	.LLST22
 2931 050d 1C       		.uleb128 0x1c
 2932 050e 7800     		.ascii	"x\000"
 2933 0510 01       		.byte	0x1
 2934 0511 9A03     		.2byte	0x39a
 2935 0513 83000000 		.4byte	0x83
 2936 0517 67040000 		.4byte	.LLST23
ARM GAS  C:\Users\JAMESS~1\AppData\Local\Temp\ccSFa4Kp.s 			page 76


 2937 051b 1C       		.uleb128 0x1c
 2938 051c 7900     		.ascii	"y\000"
 2939 051e 01       		.byte	0x1
 2940 051f 9B03     		.2byte	0x39b
 2941 0521 83000000 		.4byte	0x83
 2942 0525 86040000 		.4byte	.LLST24
 2943 0529 12       		.uleb128 0x12
 2944 052a 2E000000 		.4byte	.LVL75
 2945 052e 03040000 		.4byte	0x403
 2946 0532 4C050000 		.4byte	0x54c
 2947 0536 13       		.uleb128 0x13
 2948 0537 01       		.uleb128 0x1
 2949 0538 50       		.byte	0x50
 2950 0539 02       		.uleb128 0x2
 2951 053a 7B       		.byte	0x7b
 2952 053b 00       		.sleb128 0
 2953 053c 13       		.uleb128 0x13
 2954 053d 01       		.uleb128 0x1
 2955 053e 51       		.byte	0x51
 2956 053f 05       		.uleb128 0x5
 2957 0540 74       		.byte	0x74
 2958 0541 00       		.sleb128 0
 2959 0542 78       		.byte	0x78
 2960 0543 00       		.sleb128 0
 2961 0544 22       		.byte	0x22
 2962 0545 13       		.uleb128 0x13
 2963 0546 01       		.uleb128 0x1
 2964 0547 52       		.byte	0x52
 2965 0548 02       		.uleb128 0x2
 2966 0549 75       		.byte	0x75
 2967 054a 00       		.sleb128 0
 2968 054b 00       		.byte	0
 2969 054c 12       		.uleb128 0x12
 2970 054d 3A000000 		.4byte	.LVL76
 2971 0551 03040000 		.4byte	0x403
 2972 0555 6F050000 		.4byte	0x56f
 2973 0559 13       		.uleb128 0x13
 2974 055a 01       		.uleb128 0x1
 2975 055b 50       		.byte	0x50
 2976 055c 02       		.uleb128 0x2
 2977 055d 7B       		.byte	0x7b
 2978 055e 00       		.sleb128 0
 2979 055f 13       		.uleb128 0x13
 2980 0560 01       		.uleb128 0x1
 2981 0561 51       		.byte	0x51
 2982 0562 05       		.uleb128 0x5
 2983 0563 78       		.byte	0x78
 2984 0564 00       		.sleb128 0
 2985 0565 74       		.byte	0x74
 2986 0566 00       		.sleb128 0
 2987 0567 1C       		.byte	0x1c
 2988 0568 13       		.uleb128 0x13
 2989 0569 01       		.uleb128 0x1
 2990 056a 52       		.byte	0x52
 2991 056b 02       		.uleb128 0x2
 2992 056c 75       		.byte	0x75
 2993 056d 00       		.sleb128 0
ARM GAS  C:\Users\JAMESS~1\AppData\Local\Temp\ccSFa4Kp.s 			page 77


 2994 056e 00       		.byte	0
 2995 056f 12       		.uleb128 0x12
 2996 0570 46000000 		.4byte	.LVL77
 2997 0574 03040000 		.4byte	0x403
 2998 0578 92050000 		.4byte	0x592
 2999 057c 13       		.uleb128 0x13
 3000 057d 01       		.uleb128 0x1
 3001 057e 50       		.byte	0x50
 3002 057f 05       		.uleb128 0x5
 3003 0580 74       		.byte	0x74
 3004 0581 00       		.sleb128 0
 3005 0582 7B       		.byte	0x7b
 3006 0583 00       		.sleb128 0
 3007 0584 22       		.byte	0x22
 3008 0585 13       		.uleb128 0x13
 3009 0586 01       		.uleb128 0x1
 3010 0587 51       		.byte	0x51
 3011 0588 02       		.uleb128 0x2
 3012 0589 78       		.byte	0x78
 3013 058a 00       		.sleb128 0
 3014 058b 13       		.uleb128 0x13
 3015 058c 01       		.uleb128 0x1
 3016 058d 52       		.byte	0x52
 3017 058e 02       		.uleb128 0x2
 3018 058f 75       		.byte	0x75
 3019 0590 00       		.sleb128 0
 3020 0591 00       		.byte	0
 3021 0592 12       		.uleb128 0x12
 3022 0593 52000000 		.4byte	.LVL78
 3023 0597 03040000 		.4byte	0x403
 3024 059b B5050000 		.4byte	0x5b5
 3025 059f 13       		.uleb128 0x13
 3026 05a0 01       		.uleb128 0x1
 3027 05a1 50       		.byte	0x50
 3028 05a2 05       		.uleb128 0x5
 3029 05a3 7B       		.byte	0x7b
 3030 05a4 00       		.sleb128 0
 3031 05a5 74       		.byte	0x74
 3032 05a6 00       		.sleb128 0
 3033 05a7 1C       		.byte	0x1c
 3034 05a8 13       		.uleb128 0x13
 3035 05a9 01       		.uleb128 0x1
 3036 05aa 51       		.byte	0x51
 3037 05ab 02       		.uleb128 0x2
 3038 05ac 78       		.byte	0x78
 3039 05ad 00       		.sleb128 0
 3040 05ae 13       		.uleb128 0x13
 3041 05af 01       		.uleb128 0x1
 3042 05b0 52       		.byte	0x52
 3043 05b1 02       		.uleb128 0x2
 3044 05b2 75       		.byte	0x75
 3045 05b3 00       		.sleb128 0
 3046 05b4 00       		.byte	0
 3047 05b5 12       		.uleb128 0x12
 3048 05b6 86000000 		.4byte	.LVL89
 3049 05ba 03040000 		.4byte	0x403
 3050 05be D7050000 		.4byte	0x5d7
ARM GAS  C:\Users\JAMESS~1\AppData\Local\Temp\ccSFa4Kp.s 			page 78


 3051 05c2 13       		.uleb128 0x13
 3052 05c3 01       		.uleb128 0x1
 3053 05c4 50       		.byte	0x50
 3054 05c5 02       		.uleb128 0x2
 3055 05c6 77       		.byte	0x77
 3056 05c7 00       		.sleb128 0
 3057 05c8 13       		.uleb128 0x13
 3058 05c9 01       		.uleb128 0x1
 3059 05ca 51       		.byte	0x51
 3060 05cb 03       		.uleb128 0x3
 3061 05cc 91       		.byte	0x91
 3062 05cd 54       		.sleb128 -44
 3063 05ce 06       		.byte	0x6
 3064 05cf 13       		.uleb128 0x13
 3065 05d0 01       		.uleb128 0x1
 3066 05d1 52       		.byte	0x52
 3067 05d2 03       		.uleb128 0x3
 3068 05d3 91       		.byte	0x91
 3069 05d4 4C       		.sleb128 -52
 3070 05d5 06       		.byte	0x6
 3071 05d6 00       		.byte	0
 3072 05d7 12       		.uleb128 0x12
 3073 05d8 94000000 		.4byte	.LVL90
 3074 05dc 03040000 		.4byte	0x403
 3075 05e0 F9050000 		.4byte	0x5f9
 3076 05e4 13       		.uleb128 0x13
 3077 05e5 01       		.uleb128 0x1
 3078 05e6 50       		.byte	0x50
 3079 05e7 02       		.uleb128 0x2
 3080 05e8 75       		.byte	0x75
 3081 05e9 00       		.sleb128 0
 3082 05ea 13       		.uleb128 0x13
 3083 05eb 01       		.uleb128 0x1
 3084 05ec 51       		.byte	0x51
 3085 05ed 03       		.uleb128 0x3
 3086 05ee 91       		.byte	0x91
 3087 05ef 54       		.sleb128 -44
 3088 05f0 06       		.byte	0x6
 3089 05f1 13       		.uleb128 0x13
 3090 05f2 01       		.uleb128 0x1
 3091 05f3 52       		.byte	0x52
 3092 05f4 03       		.uleb128 0x3
 3093 05f5 91       		.byte	0x91
 3094 05f6 4C       		.sleb128 -52
 3095 05f7 06       		.byte	0x6
 3096 05f8 00       		.byte	0
 3097 05f9 12       		.uleb128 0x12
 3098 05fa A4000000 		.4byte	.LVL91
 3099 05fe 03040000 		.4byte	0x403
 3100 0602 1B060000 		.4byte	0x61b
 3101 0606 13       		.uleb128 0x13
 3102 0607 01       		.uleb128 0x1
 3103 0608 50       		.byte	0x50
 3104 0609 02       		.uleb128 0x2
 3105 060a 77       		.byte	0x77
 3106 060b 00       		.sleb128 0
 3107 060c 13       		.uleb128 0x13
ARM GAS  C:\Users\JAMESS~1\AppData\Local\Temp\ccSFa4Kp.s 			page 79


 3108 060d 01       		.uleb128 0x1
 3109 060e 51       		.byte	0x51
 3110 060f 03       		.uleb128 0x3
 3111 0610 91       		.byte	0x91
 3112 0611 54       		.sleb128 -44
 3113 0612 06       		.byte	0x6
 3114 0613 13       		.uleb128 0x13
 3115 0614 01       		.uleb128 0x1
 3116 0615 52       		.byte	0x52
 3117 0616 03       		.uleb128 0x3
 3118 0617 91       		.byte	0x91
 3119 0618 4C       		.sleb128 -52
 3120 0619 06       		.byte	0x6
 3121 061a 00       		.byte	0
 3122 061b 12       		.uleb128 0x12
 3123 061c AE000000 		.4byte	.LVL92
 3124 0620 03040000 		.4byte	0x403
 3125 0624 3D060000 		.4byte	0x63d
 3126 0628 13       		.uleb128 0x13
 3127 0629 01       		.uleb128 0x1
 3128 062a 50       		.byte	0x50
 3129 062b 02       		.uleb128 0x2
 3130 062c 75       		.byte	0x75
 3131 062d 00       		.sleb128 0
 3132 062e 13       		.uleb128 0x13
 3133 062f 01       		.uleb128 0x1
 3134 0630 51       		.byte	0x51
 3135 0631 03       		.uleb128 0x3
 3136 0632 91       		.byte	0x91
 3137 0633 54       		.sleb128 -44
 3138 0634 06       		.byte	0x6
 3139 0635 13       		.uleb128 0x13
 3140 0636 01       		.uleb128 0x1
 3141 0637 52       		.byte	0x52
 3142 0638 03       		.uleb128 0x3
 3143 0639 91       		.byte	0x91
 3144 063a 4C       		.sleb128 -52
 3145 063b 06       		.byte	0x6
 3146 063c 00       		.byte	0
 3147 063d 12       		.uleb128 0x12
 3148 063e C0000000 		.4byte	.LVL93
 3149 0642 03040000 		.4byte	0x403
 3150 0646 5E060000 		.4byte	0x65e
 3151 064a 13       		.uleb128 0x13
 3152 064b 01       		.uleb128 0x1
 3153 064c 50       		.byte	0x50
 3154 064d 02       		.uleb128 0x2
 3155 064e 77       		.byte	0x77
 3156 064f 00       		.sleb128 0
 3157 0650 13       		.uleb128 0x13
 3158 0651 01       		.uleb128 0x1
 3159 0652 51       		.byte	0x51
 3160 0653 02       		.uleb128 0x2
 3161 0654 75       		.byte	0x75
 3162 0655 00       		.sleb128 0
 3163 0656 13       		.uleb128 0x13
 3164 0657 01       		.uleb128 0x1
ARM GAS  C:\Users\JAMESS~1\AppData\Local\Temp\ccSFa4Kp.s 			page 80


 3165 0658 52       		.byte	0x52
 3166 0659 03       		.uleb128 0x3
 3167 065a 91       		.byte	0x91
 3168 065b 4C       		.sleb128 -52
 3169 065c 06       		.byte	0x6
 3170 065d 00       		.byte	0
 3171 065e 12       		.uleb128 0x12
 3172 065f D0000000 		.4byte	.LVL94
 3173 0663 03040000 		.4byte	0x403
 3174 0667 80060000 		.4byte	0x680
 3175 066b 13       		.uleb128 0x13
 3176 066c 01       		.uleb128 0x1
 3177 066d 50       		.byte	0x50
 3178 066e 03       		.uleb128 0x3
 3179 066f 91       		.byte	0x91
 3180 0670 54       		.sleb128 -44
 3181 0671 06       		.byte	0x6
 3182 0672 13       		.uleb128 0x13
 3183 0673 01       		.uleb128 0x1
 3184 0674 51       		.byte	0x51
 3185 0675 02       		.uleb128 0x2
 3186 0676 75       		.byte	0x75
 3187 0677 00       		.sleb128 0
 3188 0678 13       		.uleb128 0x13
 3189 0679 01       		.uleb128 0x1
 3190 067a 52       		.byte	0x52
 3191 067b 03       		.uleb128 0x3
 3192 067c 91       		.byte	0x91
 3193 067d 4C       		.sleb128 -52
 3194 067e 06       		.byte	0x6
 3195 067f 00       		.byte	0
 3196 0680 12       		.uleb128 0x12
 3197 0681 DE000000 		.4byte	.LVL95
 3198 0685 03040000 		.4byte	0x403
 3199 0689 A1060000 		.4byte	0x6a1
 3200 068d 13       		.uleb128 0x13
 3201 068e 01       		.uleb128 0x1
 3202 068f 50       		.byte	0x50
 3203 0690 02       		.uleb128 0x2
 3204 0691 77       		.byte	0x77
 3205 0692 00       		.sleb128 0
 3206 0693 13       		.uleb128 0x13
 3207 0694 01       		.uleb128 0x1
 3208 0695 51       		.byte	0x51
 3209 0696 02       		.uleb128 0x2
 3210 0697 75       		.byte	0x75
 3211 0698 00       		.sleb128 0
 3212 0699 13       		.uleb128 0x13
 3213 069a 01       		.uleb128 0x1
 3214 069b 52       		.byte	0x52
 3215 069c 03       		.uleb128 0x3
 3216 069d 91       		.byte	0x91
 3217 069e 4C       		.sleb128 -52
 3218 069f 06       		.byte	0x6
 3219 06a0 00       		.byte	0
 3220 06a1 15       		.uleb128 0x15
 3221 06a2 E8000000 		.4byte	.LVL96
ARM GAS  C:\Users\JAMESS~1\AppData\Local\Temp\ccSFa4Kp.s 			page 81


 3222 06a6 03040000 		.4byte	0x403
 3223 06aa 13       		.uleb128 0x13
 3224 06ab 01       		.uleb128 0x1
 3225 06ac 50       		.byte	0x50
 3226 06ad 03       		.uleb128 0x3
 3227 06ae 91       		.byte	0x91
 3228 06af 54       		.sleb128 -44
 3229 06b0 06       		.byte	0x6
 3230 06b1 13       		.uleb128 0x13
 3231 06b2 01       		.uleb128 0x1
 3232 06b3 51       		.byte	0x51
 3233 06b4 02       		.uleb128 0x2
 3234 06b5 75       		.byte	0x75
 3235 06b6 00       		.sleb128 0
 3236 06b7 13       		.uleb128 0x13
 3237 06b8 01       		.uleb128 0x1
 3238 06b9 52       		.byte	0x52
 3239 06ba 03       		.uleb128 0x3
 3240 06bb 91       		.byte	0x91
 3241 06bc 4C       		.sleb128 -52
 3242 06bd 06       		.byte	0x6
 3243 06be 00       		.byte	0
 3244 06bf 00       		.byte	0
 3245 06c0 09       		.uleb128 0x9
 3246 06c1 9C050000 		.4byte	.LASF47
 3247 06c5 01       		.byte	0x1
 3248 06c6 CA03     		.2byte	0x3ca
 3249 06c8 00000000 		.4byte	.LFB49
 3250 06cc AA000000 		.4byte	.LFE49-.LFB49
 3251 06d0 01       		.uleb128 0x1
 3252 06d1 9C       		.byte	0x9c
 3253 06d2 F3070000 		.4byte	0x7f3
 3254 06d6 0D       		.uleb128 0xd
 3255 06d7 783000   		.ascii	"x0\000"
 3256 06da 01       		.byte	0x1
 3257 06db CA03     		.2byte	0x3ca
 3258 06dd 83000000 		.4byte	0x83
 3259 06e1 99040000 		.4byte	.LLST25
 3260 06e5 0D       		.uleb128 0xd
 3261 06e6 793000   		.ascii	"y0\000"
 3262 06e9 01       		.byte	0x1
 3263 06ea CA03     		.2byte	0x3ca
 3264 06ec 83000000 		.4byte	0x83
 3265 06f0 B7040000 		.4byte	.LLST26
 3266 06f4 0D       		.uleb128 0xd
 3267 06f5 783100   		.ascii	"x1\000"
 3268 06f8 01       		.byte	0x1
 3269 06f9 CA03     		.2byte	0x3ca
 3270 06fb 83000000 		.4byte	0x83
 3271 06ff D5040000 		.4byte	.LLST27
 3272 0703 0D       		.uleb128 0xd
 3273 0704 793100   		.ascii	"y1\000"
 3274 0707 01       		.byte	0x1
 3275 0708 CA03     		.2byte	0x3ca
 3276 070a 83000000 		.4byte	0x83
 3277 070e 0B050000 		.4byte	.LLST28
 3278 0712 0C       		.uleb128 0xc
ARM GAS  C:\Users\JAMESS~1\AppData\Local\Temp\ccSFa4Kp.s 			page 82


 3279 0713 59000000 		.4byte	.LASF23
 3280 0717 01       		.byte	0x1
 3281 0718 CA03     		.2byte	0x3ca
 3282 071a 77000000 		.4byte	0x77
 3283 071e 02       		.uleb128 0x2
 3284 071f 91       		.byte	0x91
 3285 0720 00       		.sleb128 0
 3286 0721 1C       		.uleb128 0x1c
 3287 0722 647900   		.ascii	"dy\000"
 3288 0725 01       		.byte	0x1
 3289 0726 CC03     		.2byte	0x3cc
 3290 0728 83000000 		.4byte	0x83
 3291 072c 37050000 		.4byte	.LLST29
 3292 0730 1C       		.uleb128 0x1c
 3293 0731 647800   		.ascii	"dx\000"
 3294 0734 01       		.byte	0x1
 3295 0735 CD03     		.2byte	0x3cd
 3296 0737 83000000 		.4byte	0x83
 3297 073b 60050000 		.4byte	.LLST30
 3298 073f 0E       		.uleb128 0xe
 3299 0740 B2030000 		.4byte	.LASF48
 3300 0744 01       		.byte	0x1
 3301 0745 CE03     		.2byte	0x3ce
 3302 0747 83000000 		.4byte	0x83
 3303 074b 73050000 		.4byte	.LLST31
 3304 074f 0E       		.uleb128 0xe
 3305 0750 B8030000 		.4byte	.LASF49
 3306 0754 01       		.byte	0x1
 3307 0755 CE03     		.2byte	0x3ce
 3308 0757 83000000 		.4byte	0x83
 3309 075b 93050000 		.4byte	.LLST32
 3310 075f 1D       		.uleb128 0x1d
 3311 0760 52000000 		.4byte	.LBB2
 3312 0764 26000000 		.4byte	.LBE2-.LBB2
 3313 0768 9A070000 		.4byte	0x79a
 3314 076c 0E       		.uleb128 0xe
 3315 076d A9030000 		.4byte	.LASF50
 3316 0771 01       		.byte	0x1
 3317 0772 EA03     		.2byte	0x3ea
 3318 0774 5D000000 		.4byte	0x5d
 3319 0778 B3050000 		.4byte	.LLST33
 3320 077c 15       		.uleb128 0x15
 3321 077d 70000000 		.4byte	.LVL126
 3322 0781 03040000 		.4byte	0x403
 3323 0785 13       		.uleb128 0x13
 3324 0786 01       		.uleb128 0x1
 3325 0787 50       		.byte	0x50
 3326 0788 02       		.uleb128 0x2
 3327 0789 74       		.byte	0x74
 3328 078a 00       		.sleb128 0
 3329 078b 13       		.uleb128 0x13
 3330 078c 01       		.uleb128 0x1
 3331 078d 51       		.byte	0x51
 3332 078e 02       		.uleb128 0x2
 3333 078f 75       		.byte	0x75
 3334 0790 00       		.sleb128 0
 3335 0791 13       		.uleb128 0x13
ARM GAS  C:\Users\JAMESS~1\AppData\Local\Temp\ccSFa4Kp.s 			page 83


 3336 0792 01       		.uleb128 0x1
 3337 0793 52       		.byte	0x52
 3338 0794 03       		.uleb128 0x3
 3339 0795 91       		.byte	0x91
 3340 0796 00       		.sleb128 0
 3341 0797 06       		.byte	0x6
 3342 0798 00       		.byte	0
 3343 0799 00       		.byte	0
 3344 079a 1D       		.uleb128 0x1d
 3345 079b 78000000 		.4byte	.LBB3
 3346 079f 24000000 		.4byte	.LBE3-.LBB3
 3347 07a3 D5070000 		.4byte	0x7d5
 3348 07a7 0E       		.uleb128 0xe
 3349 07a8 A9030000 		.4byte	.LASF50
 3350 07ac 01       		.byte	0x1
 3351 07ad F903     		.2byte	0x3f9
 3352 07af 5D000000 		.4byte	0x5d
 3353 07b3 C6050000 		.4byte	.LLST34
 3354 07b7 15       		.uleb128 0x15
 3355 07b8 98000000 		.4byte	.LVL133
 3356 07bc 03040000 		.4byte	0x403
 3357 07c0 13       		.uleb128 0x13
 3358 07c1 01       		.uleb128 0x1
 3359 07c2 50       		.byte	0x50
 3360 07c3 02       		.uleb128 0x2
 3361 07c4 74       		.byte	0x74
 3362 07c5 00       		.sleb128 0
 3363 07c6 13       		.uleb128 0x13
 3364 07c7 01       		.uleb128 0x1
 3365 07c8 51       		.byte	0x51
 3366 07c9 02       		.uleb128 0x2
 3367 07ca 75       		.byte	0x75
 3368 07cb 00       		.sleb128 0
 3369 07cc 13       		.uleb128 0x13
 3370 07cd 01       		.uleb128 0x1
 3371 07ce 52       		.byte	0x52
 3372 07cf 03       		.uleb128 0x3
 3373 07d0 91       		.byte	0x91
 3374 07d1 00       		.sleb128 0
 3375 07d2 06       		.byte	0x6
 3376 07d3 00       		.byte	0
 3377 07d4 00       		.byte	0
 3378 07d5 15       		.uleb128 0x15
 3379 07d6 4E000000 		.4byte	.LVL120
 3380 07da 03040000 		.4byte	0x403
 3381 07de 13       		.uleb128 0x13
 3382 07df 01       		.uleb128 0x1
 3383 07e0 50       		.byte	0x50
 3384 07e1 02       		.uleb128 0x2
 3385 07e2 74       		.byte	0x74
 3386 07e3 00       		.sleb128 0
 3387 07e4 13       		.uleb128 0x13
 3388 07e5 01       		.uleb128 0x1
 3389 07e6 51       		.byte	0x51
 3390 07e7 02       		.uleb128 0x2
 3391 07e8 75       		.byte	0x75
 3392 07e9 00       		.sleb128 0
ARM GAS  C:\Users\JAMESS~1\AppData\Local\Temp\ccSFa4Kp.s 			page 84


 3393 07ea 13       		.uleb128 0x13
 3394 07eb 01       		.uleb128 0x1
 3395 07ec 52       		.byte	0x52
 3396 07ed 03       		.uleb128 0x3
 3397 07ee 91       		.byte	0x91
 3398 07ef 00       		.sleb128 0
 3399 07f0 06       		.byte	0x6
 3400 07f1 00       		.byte	0
 3401 07f2 00       		.byte	0
 3402 07f3 09       		.uleb128 0x9
 3403 07f4 8F000000 		.4byte	.LASF51
 3404 07f8 01       		.byte	0x1
 3405 07f9 1904     		.2byte	0x419
 3406 07fb 00000000 		.4byte	.LFB50
 3407 07ff 7A000000 		.4byte	.LFE50-.LFB50
 3408 0803 01       		.uleb128 0x1
 3409 0804 9C       		.byte	0x9c
 3410 0805 4B090000 		.4byte	0x94b
 3411 0809 0D       		.uleb128 0xd
 3412 080a 783000   		.ascii	"x0\000"
 3413 080d 01       		.byte	0x1
 3414 080e 1904     		.2byte	0x419
 3415 0810 83000000 		.4byte	0x83
 3416 0814 D9050000 		.4byte	.LLST35
 3417 0818 0D       		.uleb128 0xd
 3418 0819 793000   		.ascii	"y0\000"
 3419 081c 01       		.byte	0x1
 3420 081d 1904     		.2byte	0x419
 3421 081f 83000000 		.4byte	0x83
 3422 0823 0D060000 		.4byte	.LLST36
 3423 0827 0D       		.uleb128 0xd
 3424 0828 783100   		.ascii	"x1\000"
 3425 082b 01       		.byte	0x1
 3426 082c 1904     		.2byte	0x419
 3427 082e 83000000 		.4byte	0x83
 3428 0832 43060000 		.4byte	.LLST37
 3429 0836 0D       		.uleb128 0xd
 3430 0837 793100   		.ascii	"y1\000"
 3431 083a 01       		.byte	0x1
 3432 083b 1904     		.2byte	0x419
 3433 083d 83000000 		.4byte	0x83
 3434 0841 85060000 		.4byte	.LLST38
 3435 0845 0C       		.uleb128 0xc
 3436 0846 29010000 		.4byte	.LASF52
 3437 084a 01       		.byte	0x1
 3438 084b 1904     		.2byte	0x419
 3439 084d 83000000 		.4byte	0x83
 3440 0851 02       		.uleb128 0x2
 3441 0852 91       		.byte	0x91
 3442 0853 00       		.sleb128 0
 3443 0854 0C       		.uleb128 0xc
 3444 0855 59000000 		.4byte	.LASF23
 3445 0859 01       		.byte	0x1
 3446 085a 1904     		.2byte	0x419
 3447 085c 77000000 		.4byte	0x77
 3448 0860 02       		.uleb128 0x2
 3449 0861 91       		.byte	0x91
ARM GAS  C:\Users\JAMESS~1\AppData\Local\Temp\ccSFa4Kp.s 			page 85


 3450 0862 04       		.sleb128 4
 3451 0863 0E       		.uleb128 0xe
 3452 0864 57040000 		.4byte	.LASF53
 3453 0868 01       		.byte	0x1
 3454 0869 1B04     		.2byte	0x41b
 3455 086b 5D000000 		.4byte	0x5d
 3456 086f A4060000 		.4byte	.LLST39
 3457 0873 12       		.uleb128 0x12
 3458 0874 2E000000 		.4byte	.LVL148
 3459 0878 C0060000 		.4byte	0x6c0
 3460 087c A2080000 		.4byte	0x8a2
 3461 0880 13       		.uleb128 0x13
 3462 0881 01       		.uleb128 0x1
 3463 0882 50       		.byte	0x50
 3464 0883 02       		.uleb128 0x2
 3465 0884 74       		.byte	0x74
 3466 0885 00       		.sleb128 0
 3467 0886 13       		.uleb128 0x13
 3468 0887 01       		.uleb128 0x1
 3469 0888 51       		.byte	0x51
 3470 0889 03       		.uleb128 0x3
 3471 088a 91       		.byte	0x91
 3472 088b 64       		.sleb128 -28
 3473 088c 06       		.byte	0x6
 3474 088d 13       		.uleb128 0x13
 3475 088e 01       		.uleb128 0x1
 3476 088f 52       		.byte	0x52
 3477 0890 02       		.uleb128 0x2
 3478 0891 74       		.byte	0x74
 3479 0892 00       		.sleb128 0
 3480 0893 13       		.uleb128 0x13
 3481 0894 01       		.uleb128 0x1
 3482 0895 53       		.byte	0x53
 3483 0896 03       		.uleb128 0x3
 3484 0897 91       		.byte	0x91
 3485 0898 60       		.sleb128 -32
 3486 0899 06       		.byte	0x6
 3487 089a 13       		.uleb128 0x13
 3488 089b 02       		.uleb128 0x2
 3489 089c 7D       		.byte	0x7d
 3490 089d 00       		.sleb128 0
 3491 089e 02       		.uleb128 0x2
 3492 089f 77       		.byte	0x77
 3493 08a0 00       		.sleb128 0
 3494 08a1 00       		.byte	0
 3495 08a2 12       		.uleb128 0x12
 3496 08a3 4C000000 		.4byte	.LVL154
 3497 08a7 C0060000 		.4byte	0x6c0
 3498 08ab C3080000 		.4byte	0x8c3
 3499 08af 13       		.uleb128 0x13
 3500 08b0 01       		.uleb128 0x1
 3501 08b1 51       		.byte	0x51
 3502 08b2 02       		.uleb128 0x2
 3503 08b3 75       		.byte	0x75
 3504 08b4 00       		.sleb128 0
 3505 08b5 13       		.uleb128 0x13
 3506 08b6 01       		.uleb128 0x1
ARM GAS  C:\Users\JAMESS~1\AppData\Local\Temp\ccSFa4Kp.s 			page 86


 3507 08b7 53       		.byte	0x53
 3508 08b8 02       		.uleb128 0x2
 3509 08b9 75       		.byte	0x75
 3510 08ba 00       		.sleb128 0
 3511 08bb 13       		.uleb128 0x13
 3512 08bc 02       		.uleb128 0x2
 3513 08bd 7D       		.byte	0x7d
 3514 08be 00       		.sleb128 0
 3515 08bf 02       		.uleb128 0x2
 3516 08c0 77       		.byte	0x77
 3517 08c1 00       		.sleb128 0
 3518 08c2 00       		.byte	0
 3519 08c3 12       		.uleb128 0x12
 3520 08c4 5A000000 		.4byte	.LVL155
 3521 08c8 C0060000 		.4byte	0x6c0
 3522 08cc F2080000 		.4byte	0x8f2
 3523 08d0 13       		.uleb128 0x13
 3524 08d1 01       		.uleb128 0x1
 3525 08d2 50       		.byte	0x50
 3526 08d3 02       		.uleb128 0x2
 3527 08d4 74       		.byte	0x74
 3528 08d5 00       		.sleb128 0
 3529 08d6 13       		.uleb128 0x13
 3530 08d7 01       		.uleb128 0x1
 3531 08d8 51       		.byte	0x51
 3532 08d9 03       		.uleb128 0x3
 3533 08da 91       		.byte	0x91
 3534 08db 60       		.sleb128 -32
 3535 08dc 06       		.byte	0x6
 3536 08dd 13       		.uleb128 0x13
 3537 08de 01       		.uleb128 0x1
 3538 08df 52       		.byte	0x52
 3539 08e0 02       		.uleb128 0x2
 3540 08e1 76       		.byte	0x76
 3541 08e2 00       		.sleb128 0
 3542 08e3 13       		.uleb128 0x13
 3543 08e4 01       		.uleb128 0x1
 3544 08e5 53       		.byte	0x53
 3545 08e6 03       		.uleb128 0x3
 3546 08e7 91       		.byte	0x91
 3547 08e8 60       		.sleb128 -32
 3548 08e9 06       		.byte	0x6
 3549 08ea 13       		.uleb128 0x13
 3550 08eb 02       		.uleb128 0x2
 3551 08ec 7D       		.byte	0x7d
 3552 08ed 00       		.sleb128 0
 3553 08ee 02       		.uleb128 0x2
 3554 08ef 77       		.byte	0x77
 3555 08f0 00       		.sleb128 0
 3556 08f1 00       		.byte	0
 3557 08f2 12       		.uleb128 0x12
 3558 08f3 68000000 		.4byte	.LVL156
 3559 08f7 C0060000 		.4byte	0x6c0
 3560 08fb 20090000 		.4byte	0x920
 3561 08ff 13       		.uleb128 0x13
 3562 0900 01       		.uleb128 0x1
 3563 0901 50       		.byte	0x50
ARM GAS  C:\Users\JAMESS~1\AppData\Local\Temp\ccSFa4Kp.s 			page 87


 3564 0902 02       		.uleb128 0x2
 3565 0903 74       		.byte	0x74
 3566 0904 00       		.sleb128 0
 3567 0905 13       		.uleb128 0x13
 3568 0906 01       		.uleb128 0x1
 3569 0907 51       		.byte	0x51
 3570 0908 02       		.uleb128 0x2
 3571 0909 75       		.byte	0x75
 3572 090a 00       		.sleb128 0
 3573 090b 13       		.uleb128 0x13
 3574 090c 01       		.uleb128 0x1
 3575 090d 52       		.byte	0x52
 3576 090e 02       		.uleb128 0x2
 3577 090f 74       		.byte	0x74
 3578 0910 00       		.sleb128 0
 3579 0911 13       		.uleb128 0x13
 3580 0912 01       		.uleb128 0x1
 3581 0913 53       		.byte	0x53
 3582 0914 03       		.uleb128 0x3
 3583 0915 91       		.byte	0x91
 3584 0916 60       		.sleb128 -32
 3585 0917 06       		.byte	0x6
 3586 0918 13       		.uleb128 0x13
 3587 0919 02       		.uleb128 0x2
 3588 091a 7D       		.byte	0x7d
 3589 091b 00       		.sleb128 0
 3590 091c 02       		.uleb128 0x2
 3591 091d 77       		.byte	0x77
 3592 091e 00       		.sleb128 0
 3593 091f 00       		.byte	0
 3594 0920 15       		.uleb128 0x15
 3595 0921 76000000 		.4byte	.LVL157
 3596 0925 C0060000 		.4byte	0x6c0
 3597 0929 13       		.uleb128 0x13
 3598 092a 01       		.uleb128 0x1
 3599 092b 50       		.byte	0x50
 3600 092c 02       		.uleb128 0x2
 3601 092d 76       		.byte	0x76
 3602 092e 00       		.sleb128 0
 3603 092f 13       		.uleb128 0x13
 3604 0930 01       		.uleb128 0x1
 3605 0931 51       		.byte	0x51
 3606 0932 02       		.uleb128 0x2
 3607 0933 75       		.byte	0x75
 3608 0934 00       		.sleb128 0
 3609 0935 13       		.uleb128 0x13
 3610 0936 01       		.uleb128 0x1
 3611 0937 52       		.byte	0x52
 3612 0938 02       		.uleb128 0x2
 3613 0939 76       		.byte	0x76
 3614 093a 00       		.sleb128 0
 3615 093b 13       		.uleb128 0x13
 3616 093c 01       		.uleb128 0x1
 3617 093d 53       		.byte	0x53
 3618 093e 03       		.uleb128 0x3
 3619 093f 91       		.byte	0x91
 3620 0940 60       		.sleb128 -32
ARM GAS  C:\Users\JAMESS~1\AppData\Local\Temp\ccSFa4Kp.s 			page 88


 3621 0941 06       		.byte	0x6
 3622 0942 13       		.uleb128 0x13
 3623 0943 02       		.uleb128 0x2
 3624 0944 7D       		.byte	0x7d
 3625 0945 00       		.sleb128 0
 3626 0946 02       		.uleb128 0x2
 3627 0947 77       		.byte	0x77
 3628 0948 00       		.sleb128 0
 3629 0949 00       		.byte	0
 3630 094a 00       		.byte	0
 3631 094b 09       		.uleb128 0x9
 3632 094c 99030000 		.4byte	.LASF54
 3633 0950 01       		.byte	0x1
 3634 0951 4E04     		.2byte	0x44e
 3635 0953 00000000 		.4byte	.LFB51
 3636 0957 78000000 		.4byte	.LFE51-.LFB51
 3637 095b 01       		.uleb128 0x1
 3638 095c 9C       		.byte	0x9c
 3639 095d 88090000 		.4byte	0x988
 3640 0961 0C       		.uleb128 0xc
 3641 0962 66030000 		.4byte	.LASF55
 3642 0966 01       		.byte	0x1
 3643 0967 4E04     		.2byte	0x44e
 3644 0969 77000000 		.4byte	0x77
 3645 096d 01       		.uleb128 0x1
 3646 096e 50       		.byte	0x50
 3647 096f 0A       		.uleb128 0xa
 3648 0970 BC010000 		.4byte	.LASF19
 3649 0974 01       		.byte	0x1
 3650 0975 5004     		.2byte	0x450
 3651 0977 77000000 		.4byte	0x77
 3652 097b 0A       		.uleb128 0xa
 3653 097c 3A000000 		.4byte	.LASF20
 3654 0980 01       		.byte	0x1
 3655 0981 5104     		.2byte	0x451
 3656 0983 77000000 		.4byte	0x77
 3657 0987 00       		.byte	0
 3658 0988 1E       		.uleb128 0x1e
 3659 0989 5B050000 		.4byte	.LASF56
 3660 098d 01       		.byte	0x1
 3661 098e FC       		.byte	0xfc
 3662 098f 00000000 		.4byte	.LFB32
 3663 0993 8C000000 		.4byte	.LFE32-.LFB32
 3664 0997 01       		.uleb128 0x1
 3665 0998 9C       		.byte	0x9c
 3666 0999 460A0000 		.4byte	0xa46
 3667 099d 1F       		.uleb128 0x1f
 3668 099e 12020000 		.4byte	.LASF57
 3669 09a2 01       		.byte	0x1
 3670 09a3 FE       		.byte	0xfe
 3671 09a4 6B000000 		.4byte	0x6b
 3672 09a8 1F       		.uleb128 0x1f
 3673 09a9 5F000000 		.4byte	.LASF24
 3674 09ad 01       		.byte	0x1
 3675 09ae FF       		.byte	0xff
 3676 09af 77000000 		.4byte	0x77
 3677 09b3 12       		.uleb128 0x12
ARM GAS  C:\Users\JAMESS~1\AppData\Local\Temp\ccSFa4Kp.s 			page 89


 3678 09b4 26000000 		.4byte	.LVL161
 3679 09b8 B0020000 		.4byte	0x2b0
 3680 09bc C6090000 		.4byte	0x9c6
 3681 09c0 13       		.uleb128 0x13
 3682 09c1 01       		.uleb128 0x1
 3683 09c2 50       		.byte	0x50
 3684 09c3 01       		.uleb128 0x1
 3685 09c4 48       		.byte	0x48
 3686 09c5 00       		.byte	0
 3687 09c6 14       		.uleb128 0x14
 3688 09c7 2A000000 		.4byte	.LVL162
 3689 09cb 4C030000 		.4byte	0x34c
 3690 09cf 12       		.uleb128 0x12
 3691 09d0 34000000 		.4byte	.LVL163
 3692 09d4 4E0D0000 		.4byte	0xd4e
 3693 09d8 E2090000 		.4byte	0x9e2
 3694 09dc 13       		.uleb128 0x13
 3695 09dd 01       		.uleb128 0x1
 3696 09de 50       		.byte	0x50
 3697 09df 01       		.uleb128 0x1
 3698 09e0 30       		.byte	0x30
 3699 09e1 00       		.byte	0
 3700 09e2 12       		.uleb128 0x12
 3701 09e3 3A000000 		.4byte	.LVL164
 3702 09e7 4B090000 		.4byte	0x94b
 3703 09eb F5090000 		.4byte	0x9f5
 3704 09ef 13       		.uleb128 0x13
 3705 09f0 01       		.uleb128 0x1
 3706 09f1 50       		.byte	0x50
 3707 09f2 01       		.uleb128 0x1
 3708 09f3 30       		.byte	0x30
 3709 09f4 00       		.byte	0
 3710 09f5 12       		.uleb128 0x12
 3711 09f6 4E000000 		.4byte	.LVL165
 3712 09fa 590D0000 		.4byte	0xd59
 3713 09fe 0C0A0000 		.4byte	0xa0c
 3714 0a02 13       		.uleb128 0x13
 3715 0a03 01       		.uleb128 0x1
 3716 0a04 50       		.byte	0x50
 3717 0a05 05       		.uleb128 0x5
 3718 0a06 03       		.byte	0x3
 3719 0a07 00000000 		.4byte	StripLights_CISR
 3720 0a0b 00       		.byte	0
 3721 0a0c 12       		.uleb128 0x12
 3722 0a0d 54000000 		.4byte	.LVL166
 3723 0a11 640D0000 		.4byte	0xd64
 3724 0a15 230A0000 		.4byte	0xa23
 3725 0a19 13       		.uleb128 0x13
 3726 0a1a 01       		.uleb128 0x1
 3727 0a1b 50       		.byte	0x50
 3728 0a1c 05       		.uleb128 0x5
 3729 0a1d 03       		.byte	0x3
 3730 0a1e 00000000 		.4byte	StripLights_FISR
 3731 0a22 00       		.byte	0
 3732 0a23 12       		.uleb128 0x12
 3733 0a24 5A000000 		.4byte	.LVL167
 3734 0a28 6F0D0000 		.4byte	0xd6f
ARM GAS  C:\Users\JAMESS~1\AppData\Local\Temp\ccSFa4Kp.s 			page 90


 3735 0a2c 360A0000 		.4byte	0xa36
 3736 0a30 13       		.uleb128 0x13
 3737 0a31 01       		.uleb128 0x1
 3738 0a32 50       		.byte	0x50
 3739 0a33 01       		.uleb128 0x1
 3740 0a34 31       		.byte	0x31
 3741 0a35 00       		.byte	0
 3742 0a36 15       		.uleb128 0x15
 3743 0a37 60000000 		.4byte	.LVL168
 3744 0a3b 7A0D0000 		.4byte	0xd7a
 3745 0a3f 13       		.uleb128 0x13
 3746 0a40 01       		.uleb128 0x1
 3747 0a41 50       		.byte	0x50
 3748 0a42 01       		.uleb128 0x1
 3749 0a43 30       		.byte	0x30
 3750 0a44 00       		.byte	0
 3751 0a45 00       		.byte	0
 3752 0a46 09       		.uleb128 0x9
 3753 0a47 87040000 		.4byte	.LASF58
 3754 0a4b 01       		.byte	0x1
 3755 0a4c 8104     		.2byte	0x481
 3756 0a4e 00000000 		.4byte	.LFB52
 3757 0a52 5A000000 		.4byte	.LFE52-.LFB52
 3758 0a56 01       		.uleb128 0x1
 3759 0a57 9C       		.byte	0x9c
 3760 0a58 110B0000 		.4byte	0xb11
 3761 0a5c 0D       		.uleb128 0xd
 3762 0a5d 7800     		.ascii	"x\000"
 3763 0a5f 01       		.byte	0x1
 3764 0a60 8104     		.2byte	0x481
 3765 0a62 83000000 		.4byte	0x83
 3766 0a66 C2060000 		.4byte	.LLST40
 3767 0a6a 0D       		.uleb128 0xd
 3768 0a6b 7900     		.ascii	"y\000"
 3769 0a6d 01       		.byte	0x1
 3770 0a6e 8104     		.2byte	0x481
 3771 0a70 83000000 		.4byte	0x83
 3772 0a74 E1060000 		.4byte	.LLST41
 3773 0a78 11       		.uleb128 0x11
 3774 0a79 95050000 		.4byte	.LASF59
 3775 0a7d 01       		.byte	0x1
 3776 0a7e 8104     		.2byte	0x481
 3777 0a80 110B0000 		.4byte	0xb11
 3778 0a84 02070000 		.4byte	.LLST42
 3779 0a88 11       		.uleb128 0x11
 3780 0a89 82020000 		.4byte	.LASF60
 3781 0a8d 01       		.byte	0x1
 3782 0a8e 8104     		.2byte	0x481
 3783 0a90 83000000 		.4byte	0x83
 3784 0a94 2E070000 		.4byte	.LLST43
 3785 0a98 1C       		.uleb128 0x1c
 3786 0a99 647800   		.ascii	"dx\000"
 3787 0a9c 01       		.byte	0x1
 3788 0a9d 8304     		.2byte	0x483
 3789 0a9f 83000000 		.4byte	0x83
 3790 0aa3 70070000 		.4byte	.LLST44
 3791 0aa7 1C       		.uleb128 0x1c
ARM GAS  C:\Users\JAMESS~1\AppData\Local\Temp\ccSFa4Kp.s 			page 91


 3792 0aa8 647900   		.ascii	"dy\000"
 3793 0aab 01       		.byte	0x1
 3794 0aac 8304     		.2byte	0x483
 3795 0aae 83000000 		.4byte	0x83
 3796 0ab2 8E070000 		.4byte	.LLST45
 3797 0ab6 0E       		.uleb128 0xe
 3798 0ab7 23050000 		.4byte	.LASF61
 3799 0abb 01       		.byte	0x1
 3800 0abc 8404     		.2byte	0x484
 3801 0abe 83000000 		.4byte	0x83
 3802 0ac2 D0070000 		.4byte	.LLST46
 3803 0ac6 0E       		.uleb128 0xe
 3804 0ac7 A6020000 		.4byte	.LASF62
 3805 0acb 01       		.byte	0x1
 3806 0acc 8504     		.2byte	0x485
 3807 0ace 83000000 		.4byte	0x83
 3808 0ad2 11080000 		.4byte	.LLST47
 3809 0ad6 0E       		.uleb128 0xe
 3810 0ad7 06030000 		.4byte	.LASF63
 3811 0adb 01       		.byte	0x1
 3812 0adc 8504     		.2byte	0x485
 3813 0ade 83000000 		.4byte	0x83
 3814 0ae2 24080000 		.4byte	.LLST48
 3815 0ae6 12       		.uleb128 0x12
 3816 0ae7 2C000000 		.4byte	.LVL176
 3817 0aeb 03040000 		.4byte	0x403
 3818 0aef 010B0000 		.4byte	0xb01
 3819 0af3 13       		.uleb128 0x13
 3820 0af4 01       		.uleb128 0x1
 3821 0af5 50       		.byte	0x50
 3822 0af6 02       		.uleb128 0x2
 3823 0af7 74       		.byte	0x74
 3824 0af8 00       		.sleb128 0
 3825 0af9 13       		.uleb128 0x13
 3826 0afa 01       		.uleb128 0x1
 3827 0afb 51       		.byte	0x51
 3828 0afc 03       		.uleb128 0x3
 3829 0afd 7D       		.byte	0x7d
 3830 0afe 00       		.sleb128 0
 3831 0aff 06       		.byte	0x6
 3832 0b00 00       		.byte	0
 3833 0b01 15       		.uleb128 0x15
 3834 0b02 50000000 		.4byte	.LVL183
 3835 0b06 96010000 		.4byte	0x196
 3836 0b0a 13       		.uleb128 0x13
 3837 0b0b 01       		.uleb128 0x1
 3838 0b0c 50       		.byte	0x50
 3839 0b0d 01       		.uleb128 0x1
 3840 0b0e 31       		.byte	0x31
 3841 0b0f 00       		.byte	0
 3842 0b10 00       		.byte	0
 3843 0b11 06       		.uleb128 0x6
 3844 0b12 04       		.byte	0x4
 3845 0b13 6B000000 		.4byte	0x6b
 3846 0b17 09       		.uleb128 0x9
 3847 0b18 92020000 		.4byte	.LASF64
 3848 0b1c 01       		.byte	0x1
ARM GAS  C:\Users\JAMESS~1\AppData\Local\Temp\ccSFa4Kp.s 			page 92


 3849 0b1d A504     		.2byte	0x4a5
 3850 0b1f 00000000 		.4byte	.LFB53
 3851 0b23 62000000 		.4byte	.LFE53-.LFB53
 3852 0b27 01       		.uleb128 0x1
 3853 0b28 9C       		.byte	0x9c
 3854 0b29 E20B0000 		.4byte	0xbe2
 3855 0b2d 0D       		.uleb128 0xd
 3856 0b2e 7800     		.ascii	"x\000"
 3857 0b30 01       		.byte	0x1
 3858 0b31 A504     		.2byte	0x4a5
 3859 0b33 83000000 		.4byte	0x83
 3860 0b37 37080000 		.4byte	.LLST49
 3861 0b3b 0D       		.uleb128 0xd
 3862 0b3c 7900     		.ascii	"y\000"
 3863 0b3e 01       		.byte	0x1
 3864 0b3f A504     		.2byte	0x4a5
 3865 0b41 83000000 		.4byte	0x83
 3866 0b45 56080000 		.4byte	.LLST50
 3867 0b49 11       		.uleb128 0x11
 3868 0b4a 95050000 		.4byte	.LASF59
 3869 0b4e 01       		.byte	0x1
 3870 0b4f A504     		.2byte	0x4a5
 3871 0b51 E20B0000 		.4byte	0xbe2
 3872 0b55 77080000 		.4byte	.LLST51
 3873 0b59 11       		.uleb128 0x11
 3874 0b5a 82020000 		.4byte	.LASF60
 3875 0b5e 01       		.byte	0x1
 3876 0b5f A504     		.2byte	0x4a5
 3877 0b61 83000000 		.4byte	0x83
 3878 0b65 A3080000 		.4byte	.LLST52
 3879 0b69 1C       		.uleb128 0x1c
 3880 0b6a 647800   		.ascii	"dx\000"
 3881 0b6d 01       		.byte	0x1
 3882 0b6e A704     		.2byte	0x4a7
 3883 0b70 83000000 		.4byte	0x83
 3884 0b74 E5080000 		.4byte	.LLST53
 3885 0b78 1C       		.uleb128 0x1c
 3886 0b79 647900   		.ascii	"dy\000"
 3887 0b7c 01       		.byte	0x1
 3888 0b7d A704     		.2byte	0x4a7
 3889 0b7f 83000000 		.4byte	0x83
 3890 0b83 03090000 		.4byte	.LLST54
 3891 0b87 0E       		.uleb128 0xe
 3892 0b88 23050000 		.4byte	.LASF61
 3893 0b8c 01       		.byte	0x1
 3894 0b8d A804     		.2byte	0x4a8
 3895 0b8f 83000000 		.4byte	0x83
 3896 0b93 45090000 		.4byte	.LLST55
 3897 0b97 0E       		.uleb128 0xe
 3898 0b98 A6020000 		.4byte	.LASF62
 3899 0b9c 01       		.byte	0x1
 3900 0b9d A904     		.2byte	0x4a9
 3901 0b9f 83000000 		.4byte	0x83
 3902 0ba3 86090000 		.4byte	.LLST56
 3903 0ba7 0E       		.uleb128 0xe
 3904 0ba8 06030000 		.4byte	.LASF63
 3905 0bac 01       		.byte	0x1
ARM GAS  C:\Users\JAMESS~1\AppData\Local\Temp\ccSFa4Kp.s 			page 93


 3906 0bad A904     		.2byte	0x4a9
 3907 0baf 83000000 		.4byte	0x83
 3908 0bb3 99090000 		.4byte	.LLST57
 3909 0bb7 12       		.uleb128 0x12
 3910 0bb8 34000000 		.4byte	.LVL196
 3911 0bbc 03040000 		.4byte	0x403
 3912 0bc0 D20B0000 		.4byte	0xbd2
 3913 0bc4 13       		.uleb128 0x13
 3914 0bc5 01       		.uleb128 0x1
 3915 0bc6 50       		.byte	0x50
 3916 0bc7 02       		.uleb128 0x2
 3917 0bc8 74       		.byte	0x74
 3918 0bc9 00       		.sleb128 0
 3919 0bca 13       		.uleb128 0x13
 3920 0bcb 01       		.uleb128 0x1
 3921 0bcc 51       		.byte	0x51
 3922 0bcd 03       		.uleb128 0x3
 3923 0bce 7D       		.byte	0x7d
 3924 0bcf 00       		.sleb128 0
 3925 0bd0 06       		.byte	0x6
 3926 0bd1 00       		.byte	0
 3927 0bd2 15       		.uleb128 0x15
 3928 0bd3 58000000 		.4byte	.LVL203
 3929 0bd7 96010000 		.4byte	0x196
 3930 0bdb 13       		.uleb128 0x13
 3931 0bdc 01       		.uleb128 0x1
 3932 0bdd 50       		.byte	0x50
 3933 0bde 01       		.uleb128 0x1
 3934 0bdf 31       		.byte	0x31
 3935 0be0 00       		.byte	0
 3936 0be1 00       		.byte	0
 3937 0be2 06       		.uleb128 0x6
 3938 0be3 04       		.byte	0x4
 3939 0be4 77000000 		.4byte	0x77
 3940 0be8 18       		.uleb128 0x18
 3941 0be9 B1050000 		.4byte	.LASF65
 3942 0bed 01       		.byte	0x1
 3943 0bee C604     		.2byte	0x4c6
 3944 0bf0 77000000 		.4byte	0x77
 3945 0bf4 00000000 		.4byte	.LFB54
 3946 0bf8 74000000 		.4byte	.LFE54-.LFB54
 3947 0bfc 01       		.uleb128 0x1
 3948 0bfd 9C       		.byte	0x9c
 3949 0bfe 430C0000 		.4byte	0xc43
 3950 0c02 11       		.uleb128 0x11
 3951 0c03 3A020000 		.4byte	.LASF66
 3952 0c07 01       		.byte	0x1
 3953 0c08 C604     		.2byte	0x4c6
 3954 0c0a 77000000 		.4byte	0x77
 3955 0c0e AC090000 		.4byte	.LLST58
 3956 0c12 11       		.uleb128 0x11
 3957 0c13 22030000 		.4byte	.LASF67
 3958 0c17 01       		.byte	0x1
 3959 0c18 C604     		.2byte	0x4c6
 3960 0c1a 77000000 		.4byte	0x77
 3961 0c1e D8090000 		.4byte	.LLST59
 3962 0c22 0D       		.uleb128 0xd
ARM GAS  C:\Users\JAMESS~1\AppData\Local\Temp\ccSFa4Kp.s 			page 94


 3963 0c23 70637400 		.ascii	"pct\000"
 3964 0c27 01       		.byte	0x1
 3965 0c28 C604     		.2byte	0x4c6
 3966 0c2a 77000000 		.4byte	0x77
 3967 0c2e 040A0000 		.4byte	.LLST60
 3968 0c32 0E       		.uleb128 0xe
 3969 0c33 8C050000 		.4byte	.LASF68
 3970 0c37 01       		.byte	0x1
 3971 0c38 C804     		.2byte	0x4c8
 3972 0c3a 77000000 		.4byte	0x77
 3973 0c3e 300A0000 		.4byte	.LLST61
 3974 0c42 00       		.byte	0
 3975 0c43 20       		.uleb128 0x20
 3976 0c44 4A0C0000 		.4byte	0xc4a
 3977 0c48 21       		.uleb128 0x21
 3978 0c49 00       		.byte	0
 3979 0c4a 22       		.uleb128 0x22
 3980 0c4b FD000000 		.4byte	.LASF69
 3981 0c4f 01       		.byte	0x1
 3982 0c50 19       		.byte	0x19
 3983 0c51 5B0C0000 		.4byte	0xc5b
 3984 0c55 05       		.uleb128 0x5
 3985 0c56 03       		.byte	0x3
 3986 0c57 00000000 		.4byte	StripLights_EnterCritical
 3987 0c5b 06       		.uleb128 0x6
 3988 0c5c 04       		.byte	0x4
 3989 0c5d 430C0000 		.4byte	0xc43
 3990 0c61 22       		.uleb128 0x22
 3991 0c62 37040000 		.4byte	.LASF70
 3992 0c66 01       		.byte	0x1
 3993 0c67 1A       		.byte	0x1a
 3994 0c68 5B0C0000 		.4byte	0xc5b
 3995 0c6c 05       		.uleb128 0x5
 3996 0c6d 03       		.byte	0x3
 3997 0c6e 00000000 		.4byte	StripLights_ExitCritical
 3998 0c72 22       		.uleb128 0x22
 3999 0c73 12020000 		.4byte	.LASF57
 4000 0c77 01       		.byte	0x1
 4001 0c78 1D       		.byte	0x1d
 4002 0c79 6B000000 		.4byte	0x6b
 4003 0c7d 05       		.uleb128 0x5
 4004 0c7e 03       		.byte	0x3
 4005 0c7f 00000000 		.4byte	StripLights_initvar
 4006 0c83 19       		.uleb128 0x19
 4007 0c84 77000000 		.4byte	0x77
 4008 0c88 990C0000 		.4byte	0xc99
 4009 0c8c 1A       		.uleb128 0x1a
 4010 0c8d C7000000 		.4byte	0xc7
 4011 0c91 00       		.byte	0
 4012 0c92 1A       		.uleb128 0x1a
 4013 0c93 C7000000 		.4byte	0xc7
 4014 0c97 0D       		.byte	0xd
 4015 0c98 00       		.byte	0
 4016 0c99 22       		.uleb128 0x22
 4017 0c9a C9000000 		.4byte	.LASF71
 4018 0c9e 01       		.byte	0x1
 4019 0c9f 20       		.byte	0x20
ARM GAS  C:\Users\JAMESS~1\AppData\Local\Temp\ccSFa4Kp.s 			page 95


 4020 0ca0 830C0000 		.4byte	0xc83
 4021 0ca4 05       		.uleb128 0x5
 4022 0ca5 03       		.byte	0x3
 4023 0ca6 00000000 		.4byte	StripLights_ledArray
 4024 0caa 22       		.uleb128 0x22
 4025 0cab 84030000 		.4byte	.LASF72
 4026 0caf 01       		.byte	0x1
 4027 0cb0 25       		.byte	0x25
 4028 0cb1 77000000 		.4byte	0x77
 4029 0cb5 05       		.uleb128 0x5
 4030 0cb6 03       		.byte	0x3
 4031 0cb7 00000000 		.4byte	StripLights_ledIndex
 4032 0cbb 22       		.uleb128 0x22
 4033 0cbc 74050000 		.4byte	.LASF73
 4034 0cc0 01       		.byte	0x1
 4035 0cc1 26       		.byte	0x26
 4036 0cc2 77000000 		.4byte	0x77
 4037 0cc6 05       		.uleb128 0x5
 4038 0cc7 03       		.byte	0x3
 4039 0cc8 00000000 		.4byte	StripLights_row
 4040 0ccc 23       		.uleb128 0x23
 4041 0ccd 5F000000 		.4byte	.LASF24
 4042 0cd1 01       		.byte	0x1
 4043 0cd2 8B02     		.2byte	0x28b
 4044 0cd4 77000000 		.4byte	0x77
 4045 0cd8 05       		.uleb128 0x5
 4046 0cd9 03       		.byte	0x3
 4047 0cda 00000000 		.4byte	StripLights_refreshComplete
 4048 0cde 23       		.uleb128 0x23
 4049 0cdf BC010000 		.4byte	.LASF19
 4050 0ce3 01       		.byte	0x1
 4051 0ce4 5004     		.2byte	0x450
 4052 0ce6 77000000 		.4byte	0x77
 4053 0cea 05       		.uleb128 0x5
 4054 0ceb 03       		.byte	0x3
 4055 0cec 00000000 		.4byte	StripLights_DimMask
 4056 0cf0 23       		.uleb128 0x23
 4057 0cf1 3A000000 		.4byte	.LASF20
 4058 0cf5 01       		.byte	0x1
 4059 0cf6 5104     		.2byte	0x451
 4060 0cf8 77000000 		.4byte	0x77
 4061 0cfc 05       		.uleb128 0x5
 4062 0cfd 03       		.byte	0x3
 4063 0cfe 00000000 		.4byte	StripLights_DimShift
 4064 0d02 19       		.uleb128 0x19
 4065 0d03 120D0000 		.4byte	0xd12
 4066 0d07 120D0000 		.4byte	0xd12
 4067 0d0b 1A       		.uleb128 0x1a
 4068 0d0c C7000000 		.4byte	0xc7
 4069 0d10 FF       		.byte	0xff
 4070 0d11 00       		.byte	0
 4071 0d12 1B       		.uleb128 0x1b
 4072 0d13 6B000000 		.4byte	0x6b
 4073 0d17 22       		.uleb128 0x22
 4074 0d18 17010000 		.4byte	.LASF74
 4075 0d1c 01       		.byte	0x1
 4076 0d1d 2D       		.byte	0x2d
ARM GAS  C:\Users\JAMESS~1\AppData\Local\Temp\ccSFa4Kp.s 			page 96


 4077 0d1e 280D0000 		.4byte	0xd28
 4078 0d22 05       		.uleb128 0x5
 4079 0d23 03       		.byte	0x3
 4080 0d24 00000000 		.4byte	StripLights_gamma
 4081 0d28 1B       		.uleb128 0x1b
 4082 0d29 020D0000 		.4byte	0xd02
 4083 0d2d 22       		.uleb128 0x22
 4084 0d2e 00000000 		.4byte	.LASF36
 4085 0d32 01       		.byte	0x1
 4086 0d33 57       		.byte	0x57
 4087 0d34 3E0D0000 		.4byte	0xd3e
 4088 0d38 05       		.uleb128 0x5
 4089 0d39 03       		.byte	0x3
 4090 0d3a 00000000 		.4byte	StripLights_CLUT
 4091 0d3e 1B       		.uleb128 0x1b
 4092 0d3f 32030000 		.4byte	0x332
 4093 0d43 24       		.uleb128 0x24
 4094 0d44 B7020000 		.4byte	.LASF75
 4095 0d48 B7020000 		.4byte	.LASF75
 4096 0d4c 04       		.byte	0x4
 4097 0d4d DA       		.byte	0xda
 4098 0d4e 24       		.uleb128 0x24
 4099 0d4f 7B000000 		.4byte	.LASF76
 4100 0d53 7B000000 		.4byte	.LASF76
 4101 0d57 05       		.byte	0x5
 4102 0d58 1B       		.byte	0x1b
 4103 0d59 24       		.uleb128 0x24
 4104 0d5a DE000000 		.4byte	.LASF77
 4105 0d5e DE000000 		.4byte	.LASF77
 4106 0d62 06       		.byte	0x6
 4107 0d63 18       		.byte	0x18
 4108 0d64 24       		.uleb128 0x24
 4109 0d65 62040000 		.4byte	.LASF78
 4110 0d69 62040000 		.4byte	.LASF78
 4111 0d6d 07       		.byte	0x7
 4112 0d6e 18       		.byte	0x18
 4113 0d6f 24       		.uleb128 0x24
 4114 0d70 2A030000 		.4byte	.LASF79
 4115 0d74 2A030000 		.4byte	.LASF79
 4116 0d78 06       		.byte	0x6
 4117 0d79 20       		.byte	0x20
 4118 0d7a 24       		.uleb128 0x24
 4119 0d7b CD040000 		.4byte	.LASF80
 4120 0d7f CD040000 		.4byte	.LASF80
 4121 0d83 07       		.byte	0x7
 4122 0d84 20       		.byte	0x20
 4123 0d85 00       		.byte	0
 4124              		.section	.debug_abbrev,"",%progbits
 4125              	.Ldebug_abbrev0:
 4126 0000 01       		.uleb128 0x1
 4127 0001 11       		.uleb128 0x11
 4128 0002 01       		.byte	0x1
 4129 0003 25       		.uleb128 0x25
 4130 0004 0E       		.uleb128 0xe
 4131 0005 13       		.uleb128 0x13
 4132 0006 0B       		.uleb128 0xb
 4133 0007 03       		.uleb128 0x3
ARM GAS  C:\Users\JAMESS~1\AppData\Local\Temp\ccSFa4Kp.s 			page 97


 4134 0008 0E       		.uleb128 0xe
 4135 0009 1B       		.uleb128 0x1b
 4136 000a 0E       		.uleb128 0xe
 4137 000b 55       		.uleb128 0x55
 4138 000c 17       		.uleb128 0x17
 4139 000d 11       		.uleb128 0x11
 4140 000e 01       		.uleb128 0x1
 4141 000f 10       		.uleb128 0x10
 4142 0010 17       		.uleb128 0x17
 4143 0011 00       		.byte	0
 4144 0012 00       		.byte	0
 4145 0013 02       		.uleb128 0x2
 4146 0014 24       		.uleb128 0x24
 4147 0015 00       		.byte	0
 4148 0016 0B       		.uleb128 0xb
 4149 0017 0B       		.uleb128 0xb
 4150 0018 3E       		.uleb128 0x3e
 4151 0019 0B       		.uleb128 0xb
 4152 001a 03       		.uleb128 0x3
 4153 001b 0E       		.uleb128 0xe
 4154 001c 00       		.byte	0
 4155 001d 00       		.byte	0
 4156 001e 03       		.uleb128 0x3
 4157 001f 24       		.uleb128 0x24
 4158 0020 00       		.byte	0
 4159 0021 0B       		.uleb128 0xb
 4160 0022 0B       		.uleb128 0xb
 4161 0023 3E       		.uleb128 0x3e
 4162 0024 0B       		.uleb128 0xb
 4163 0025 03       		.uleb128 0x3
 4164 0026 08       		.uleb128 0x8
 4165 0027 00       		.byte	0
 4166 0028 00       		.byte	0
 4167 0029 04       		.uleb128 0x4
 4168 002a 16       		.uleb128 0x16
 4169 002b 00       		.byte	0
 4170 002c 03       		.uleb128 0x3
 4171 002d 0E       		.uleb128 0xe
 4172 002e 3A       		.uleb128 0x3a
 4173 002f 0B       		.uleb128 0xb
 4174 0030 3B       		.uleb128 0x3b
 4175 0031 05       		.uleb128 0x5
 4176 0032 49       		.uleb128 0x49
 4177 0033 13       		.uleb128 0x13
 4178 0034 00       		.byte	0
 4179 0035 00       		.byte	0
 4180 0036 05       		.uleb128 0x5
 4181 0037 35       		.uleb128 0x35
 4182 0038 00       		.byte	0
 4183 0039 49       		.uleb128 0x49
 4184 003a 13       		.uleb128 0x13
 4185 003b 00       		.byte	0
 4186 003c 00       		.byte	0
 4187 003d 06       		.uleb128 0x6
 4188 003e 0F       		.uleb128 0xf
 4189 003f 00       		.byte	0
 4190 0040 0B       		.uleb128 0xb
ARM GAS  C:\Users\JAMESS~1\AppData\Local\Temp\ccSFa4Kp.s 			page 98


 4191 0041 0B       		.uleb128 0xb
 4192 0042 49       		.uleb128 0x49
 4193 0043 13       		.uleb128 0x13
 4194 0044 00       		.byte	0
 4195 0045 00       		.byte	0
 4196 0046 07       		.uleb128 0x7
 4197 0047 15       		.uleb128 0x15
 4198 0048 00       		.byte	0
 4199 0049 27       		.uleb128 0x27
 4200 004a 19       		.uleb128 0x19
 4201 004b 00       		.byte	0
 4202 004c 00       		.byte	0
 4203 004d 08       		.uleb128 0x8
 4204 004e 16       		.uleb128 0x16
 4205 004f 00       		.byte	0
 4206 0050 03       		.uleb128 0x3
 4207 0051 0E       		.uleb128 0xe
 4208 0052 3A       		.uleb128 0x3a
 4209 0053 0B       		.uleb128 0xb
 4210 0054 3B       		.uleb128 0x3b
 4211 0055 0B       		.uleb128 0xb
 4212 0056 49       		.uleb128 0x49
 4213 0057 13       		.uleb128 0x13
 4214 0058 00       		.byte	0
 4215 0059 00       		.byte	0
 4216 005a 09       		.uleb128 0x9
 4217 005b 2E       		.uleb128 0x2e
 4218 005c 01       		.byte	0x1
 4219 005d 3F       		.uleb128 0x3f
 4220 005e 19       		.uleb128 0x19
 4221 005f 03       		.uleb128 0x3
 4222 0060 0E       		.uleb128 0xe
 4223 0061 3A       		.uleb128 0x3a
 4224 0062 0B       		.uleb128 0xb
 4225 0063 3B       		.uleb128 0x3b
 4226 0064 05       		.uleb128 0x5
 4227 0065 27       		.uleb128 0x27
 4228 0066 19       		.uleb128 0x19
 4229 0067 11       		.uleb128 0x11
 4230 0068 01       		.uleb128 0x1
 4231 0069 12       		.uleb128 0x12
 4232 006a 06       		.uleb128 0x6
 4233 006b 40       		.uleb128 0x40
 4234 006c 18       		.uleb128 0x18
 4235 006d 9742     		.uleb128 0x2117
 4236 006f 19       		.uleb128 0x19
 4237 0070 01       		.uleb128 0x1
 4238 0071 13       		.uleb128 0x13
 4239 0072 00       		.byte	0
 4240 0073 00       		.byte	0
 4241 0074 0A       		.uleb128 0xa
 4242 0075 34       		.uleb128 0x34
 4243 0076 00       		.byte	0
 4244 0077 03       		.uleb128 0x3
 4245 0078 0E       		.uleb128 0xe
 4246 0079 3A       		.uleb128 0x3a
 4247 007a 0B       		.uleb128 0xb
ARM GAS  C:\Users\JAMESS~1\AppData\Local\Temp\ccSFa4Kp.s 			page 99


 4248 007b 3B       		.uleb128 0x3b
 4249 007c 05       		.uleb128 0x5
 4250 007d 49       		.uleb128 0x49
 4251 007e 13       		.uleb128 0x13
 4252 007f 3F       		.uleb128 0x3f
 4253 0080 19       		.uleb128 0x19
 4254 0081 3C       		.uleb128 0x3c
 4255 0082 19       		.uleb128 0x19
 4256 0083 00       		.byte	0
 4257 0084 00       		.byte	0
 4258 0085 0B       		.uleb128 0xb
 4259 0086 34       		.uleb128 0x34
 4260 0087 00       		.byte	0
 4261 0088 03       		.uleb128 0x3
 4262 0089 0E       		.uleb128 0xe
 4263 008a 3A       		.uleb128 0x3a
 4264 008b 0B       		.uleb128 0xb
 4265 008c 3B       		.uleb128 0x3b
 4266 008d 05       		.uleb128 0x5
 4267 008e 49       		.uleb128 0x49
 4268 008f 13       		.uleb128 0x13
 4269 0090 02       		.uleb128 0x2
 4270 0091 18       		.uleb128 0x18
 4271 0092 00       		.byte	0
 4272 0093 00       		.byte	0
 4273 0094 0C       		.uleb128 0xc
 4274 0095 05       		.uleb128 0x5
 4275 0096 00       		.byte	0
 4276 0097 03       		.uleb128 0x3
 4277 0098 0E       		.uleb128 0xe
 4278 0099 3A       		.uleb128 0x3a
 4279 009a 0B       		.uleb128 0xb
 4280 009b 3B       		.uleb128 0x3b
 4281 009c 05       		.uleb128 0x5
 4282 009d 49       		.uleb128 0x49
 4283 009e 13       		.uleb128 0x13
 4284 009f 02       		.uleb128 0x2
 4285 00a0 18       		.uleb128 0x18
 4286 00a1 00       		.byte	0
 4287 00a2 00       		.byte	0
 4288 00a3 0D       		.uleb128 0xd
 4289 00a4 05       		.uleb128 0x5
 4290 00a5 00       		.byte	0
 4291 00a6 03       		.uleb128 0x3
 4292 00a7 08       		.uleb128 0x8
 4293 00a8 3A       		.uleb128 0x3a
 4294 00a9 0B       		.uleb128 0xb
 4295 00aa 3B       		.uleb128 0x3b
 4296 00ab 05       		.uleb128 0x5
 4297 00ac 49       		.uleb128 0x49
 4298 00ad 13       		.uleb128 0x13
 4299 00ae 02       		.uleb128 0x2
 4300 00af 17       		.uleb128 0x17
 4301 00b0 00       		.byte	0
 4302 00b1 00       		.byte	0
 4303 00b2 0E       		.uleb128 0xe
 4304 00b3 34       		.uleb128 0x34
ARM GAS  C:\Users\JAMESS~1\AppData\Local\Temp\ccSFa4Kp.s 			page 100


 4305 00b4 00       		.byte	0
 4306 00b5 03       		.uleb128 0x3
 4307 00b6 0E       		.uleb128 0xe
 4308 00b7 3A       		.uleb128 0x3a
 4309 00b8 0B       		.uleb128 0xb
 4310 00b9 3B       		.uleb128 0x3b
 4311 00ba 05       		.uleb128 0x5
 4312 00bb 49       		.uleb128 0x49
 4313 00bc 13       		.uleb128 0x13
 4314 00bd 02       		.uleb128 0x2
 4315 00be 17       		.uleb128 0x17
 4316 00bf 00       		.byte	0
 4317 00c0 00       		.byte	0
 4318 00c1 0F       		.uleb128 0xf
 4319 00c2 2E       		.uleb128 0x2e
 4320 00c3 00       		.byte	0
 4321 00c4 3F       		.uleb128 0x3f
 4322 00c5 19       		.uleb128 0x19
 4323 00c6 03       		.uleb128 0x3
 4324 00c7 0E       		.uleb128 0xe
 4325 00c8 3A       		.uleb128 0x3a
 4326 00c9 0B       		.uleb128 0xb
 4327 00ca 3B       		.uleb128 0x3b
 4328 00cb 05       		.uleb128 0x5
 4329 00cc 27       		.uleb128 0x27
 4330 00cd 19       		.uleb128 0x19
 4331 00ce 49       		.uleb128 0x49
 4332 00cf 13       		.uleb128 0x13
 4333 00d0 11       		.uleb128 0x11
 4334 00d1 01       		.uleb128 0x1
 4335 00d2 12       		.uleb128 0x12
 4336 00d3 06       		.uleb128 0x6
 4337 00d4 40       		.uleb128 0x40
 4338 00d5 18       		.uleb128 0x18
 4339 00d6 9742     		.uleb128 0x2117
 4340 00d8 19       		.uleb128 0x19
 4341 00d9 00       		.byte	0
 4342 00da 00       		.byte	0
 4343 00db 10       		.uleb128 0x10
 4344 00dc 2E       		.uleb128 0x2e
 4345 00dd 01       		.byte	0x1
 4346 00de 3F       		.uleb128 0x3f
 4347 00df 19       		.uleb128 0x19
 4348 00e0 03       		.uleb128 0x3
 4349 00e1 0E       		.uleb128 0xe
 4350 00e2 3A       		.uleb128 0x3a
 4351 00e3 0B       		.uleb128 0xb
 4352 00e4 3B       		.uleb128 0x3b
 4353 00e5 05       		.uleb128 0x5
 4354 00e6 27       		.uleb128 0x27
 4355 00e7 19       		.uleb128 0x19
 4356 00e8 11       		.uleb128 0x11
 4357 00e9 01       		.uleb128 0x1
 4358 00ea 12       		.uleb128 0x12
 4359 00eb 06       		.uleb128 0x6
 4360 00ec 40       		.uleb128 0x40
 4361 00ed 18       		.uleb128 0x18
ARM GAS  C:\Users\JAMESS~1\AppData\Local\Temp\ccSFa4Kp.s 			page 101


 4362 00ee 9642     		.uleb128 0x2116
 4363 00f0 19       		.uleb128 0x19
 4364 00f1 01       		.uleb128 0x1
 4365 00f2 13       		.uleb128 0x13
 4366 00f3 00       		.byte	0
 4367 00f4 00       		.byte	0
 4368 00f5 11       		.uleb128 0x11
 4369 00f6 05       		.uleb128 0x5
 4370 00f7 00       		.byte	0
 4371 00f8 03       		.uleb128 0x3
 4372 00f9 0E       		.uleb128 0xe
 4373 00fa 3A       		.uleb128 0x3a
 4374 00fb 0B       		.uleb128 0xb
 4375 00fc 3B       		.uleb128 0x3b
 4376 00fd 05       		.uleb128 0x5
 4377 00fe 49       		.uleb128 0x49
 4378 00ff 13       		.uleb128 0x13
 4379 0100 02       		.uleb128 0x2
 4380 0101 17       		.uleb128 0x17
 4381 0102 00       		.byte	0
 4382 0103 00       		.byte	0
 4383 0104 12       		.uleb128 0x12
 4384 0105 898201   		.uleb128 0x4109
 4385 0108 01       		.byte	0x1
 4386 0109 11       		.uleb128 0x11
 4387 010a 01       		.uleb128 0x1
 4388 010b 31       		.uleb128 0x31
 4389 010c 13       		.uleb128 0x13
 4390 010d 01       		.uleb128 0x1
 4391 010e 13       		.uleb128 0x13
 4392 010f 00       		.byte	0
 4393 0110 00       		.byte	0
 4394 0111 13       		.uleb128 0x13
 4395 0112 8A8201   		.uleb128 0x410a
 4396 0115 00       		.byte	0
 4397 0116 02       		.uleb128 0x2
 4398 0117 18       		.uleb128 0x18
 4399 0118 9142     		.uleb128 0x2111
 4400 011a 18       		.uleb128 0x18
 4401 011b 00       		.byte	0
 4402 011c 00       		.byte	0
 4403 011d 14       		.uleb128 0x14
 4404 011e 898201   		.uleb128 0x4109
 4405 0121 00       		.byte	0
 4406 0122 11       		.uleb128 0x11
 4407 0123 01       		.uleb128 0x1
 4408 0124 31       		.uleb128 0x31
 4409 0125 13       		.uleb128 0x13
 4410 0126 00       		.byte	0
 4411 0127 00       		.byte	0
 4412 0128 15       		.uleb128 0x15
 4413 0129 898201   		.uleb128 0x4109
 4414 012c 01       		.byte	0x1
 4415 012d 11       		.uleb128 0x11
 4416 012e 01       		.uleb128 0x1
 4417 012f 31       		.uleb128 0x31
 4418 0130 13       		.uleb128 0x13
ARM GAS  C:\Users\JAMESS~1\AppData\Local\Temp\ccSFa4Kp.s 			page 102


 4419 0131 00       		.byte	0
 4420 0132 00       		.byte	0
 4421 0133 16       		.uleb128 0x16
 4422 0134 2E       		.uleb128 0x2e
 4423 0135 00       		.byte	0
 4424 0136 3F       		.uleb128 0x3f
 4425 0137 19       		.uleb128 0x19
 4426 0138 03       		.uleb128 0x3
 4427 0139 0E       		.uleb128 0xe
 4428 013a 3A       		.uleb128 0x3a
 4429 013b 0B       		.uleb128 0xb
 4430 013c 3B       		.uleb128 0x3b
 4431 013d 05       		.uleb128 0x5
 4432 013e 27       		.uleb128 0x27
 4433 013f 19       		.uleb128 0x19
 4434 0140 11       		.uleb128 0x11
 4435 0141 01       		.uleb128 0x1
 4436 0142 12       		.uleb128 0x12
 4437 0143 06       		.uleb128 0x6
 4438 0144 40       		.uleb128 0x40
 4439 0145 18       		.uleb128 0x18
 4440 0146 9742     		.uleb128 0x2117
 4441 0148 19       		.uleb128 0x19
 4442 0149 00       		.byte	0
 4443 014a 00       		.byte	0
 4444 014b 17       		.uleb128 0x17
 4445 014c 2E       		.uleb128 0x2e
 4446 014d 01       		.byte	0x1
 4447 014e 3F       		.uleb128 0x3f
 4448 014f 19       		.uleb128 0x19
 4449 0150 03       		.uleb128 0x3
 4450 0151 0E       		.uleb128 0xe
 4451 0152 3A       		.uleb128 0x3a
 4452 0153 0B       		.uleb128 0xb
 4453 0154 3B       		.uleb128 0x3b
 4454 0155 05       		.uleb128 0x5
 4455 0156 27       		.uleb128 0x27
 4456 0157 19       		.uleb128 0x19
 4457 0158 49       		.uleb128 0x49
 4458 0159 13       		.uleb128 0x13
 4459 015a 11       		.uleb128 0x11
 4460 015b 01       		.uleb128 0x1
 4461 015c 12       		.uleb128 0x12
 4462 015d 06       		.uleb128 0x6
 4463 015e 40       		.uleb128 0x40
 4464 015f 18       		.uleb128 0x18
 4465 0160 9742     		.uleb128 0x2117
 4466 0162 19       		.uleb128 0x19
 4467 0163 01       		.uleb128 0x1
 4468 0164 13       		.uleb128 0x13
 4469 0165 00       		.byte	0
 4470 0166 00       		.byte	0
 4471 0167 18       		.uleb128 0x18
 4472 0168 2E       		.uleb128 0x2e
 4473 0169 01       		.byte	0x1
 4474 016a 3F       		.uleb128 0x3f
 4475 016b 19       		.uleb128 0x19
ARM GAS  C:\Users\JAMESS~1\AppData\Local\Temp\ccSFa4Kp.s 			page 103


 4476 016c 03       		.uleb128 0x3
 4477 016d 0E       		.uleb128 0xe
 4478 016e 3A       		.uleb128 0x3a
 4479 016f 0B       		.uleb128 0xb
 4480 0170 3B       		.uleb128 0x3b
 4481 0171 05       		.uleb128 0x5
 4482 0172 27       		.uleb128 0x27
 4483 0173 19       		.uleb128 0x19
 4484 0174 49       		.uleb128 0x49
 4485 0175 13       		.uleb128 0x13
 4486 0176 11       		.uleb128 0x11
 4487 0177 01       		.uleb128 0x1
 4488 0178 12       		.uleb128 0x12
 4489 0179 06       		.uleb128 0x6
 4490 017a 40       		.uleb128 0x40
 4491 017b 18       		.uleb128 0x18
 4492 017c 9642     		.uleb128 0x2116
 4493 017e 19       		.uleb128 0x19
 4494 017f 01       		.uleb128 0x1
 4495 0180 13       		.uleb128 0x13
 4496 0181 00       		.byte	0
 4497 0182 00       		.byte	0
 4498 0183 19       		.uleb128 0x19
 4499 0184 01       		.uleb128 0x1
 4500 0185 01       		.byte	0x1
 4501 0186 49       		.uleb128 0x49
 4502 0187 13       		.uleb128 0x13
 4503 0188 01       		.uleb128 0x1
 4504 0189 13       		.uleb128 0x13
 4505 018a 00       		.byte	0
 4506 018b 00       		.byte	0
 4507 018c 1A       		.uleb128 0x1a
 4508 018d 21       		.uleb128 0x21
 4509 018e 00       		.byte	0
 4510 018f 49       		.uleb128 0x49
 4511 0190 13       		.uleb128 0x13
 4512 0191 2F       		.uleb128 0x2f
 4513 0192 0B       		.uleb128 0xb
 4514 0193 00       		.byte	0
 4515 0194 00       		.byte	0
 4516 0195 1B       		.uleb128 0x1b
 4517 0196 26       		.uleb128 0x26
 4518 0197 00       		.byte	0
 4519 0198 49       		.uleb128 0x49
 4520 0199 13       		.uleb128 0x13
 4521 019a 00       		.byte	0
 4522 019b 00       		.byte	0
 4523 019c 1C       		.uleb128 0x1c
 4524 019d 34       		.uleb128 0x34
 4525 019e 00       		.byte	0
 4526 019f 03       		.uleb128 0x3
 4527 01a0 08       		.uleb128 0x8
 4528 01a1 3A       		.uleb128 0x3a
 4529 01a2 0B       		.uleb128 0xb
 4530 01a3 3B       		.uleb128 0x3b
 4531 01a4 05       		.uleb128 0x5
 4532 01a5 49       		.uleb128 0x49
ARM GAS  C:\Users\JAMESS~1\AppData\Local\Temp\ccSFa4Kp.s 			page 104


 4533 01a6 13       		.uleb128 0x13
 4534 01a7 02       		.uleb128 0x2
 4535 01a8 17       		.uleb128 0x17
 4536 01a9 00       		.byte	0
 4537 01aa 00       		.byte	0
 4538 01ab 1D       		.uleb128 0x1d
 4539 01ac 0B       		.uleb128 0xb
 4540 01ad 01       		.byte	0x1
 4541 01ae 11       		.uleb128 0x11
 4542 01af 01       		.uleb128 0x1
 4543 01b0 12       		.uleb128 0x12
 4544 01b1 06       		.uleb128 0x6
 4545 01b2 01       		.uleb128 0x1
 4546 01b3 13       		.uleb128 0x13
 4547 01b4 00       		.byte	0
 4548 01b5 00       		.byte	0
 4549 01b6 1E       		.uleb128 0x1e
 4550 01b7 2E       		.uleb128 0x2e
 4551 01b8 01       		.byte	0x1
 4552 01b9 3F       		.uleb128 0x3f
 4553 01ba 19       		.uleb128 0x19
 4554 01bb 03       		.uleb128 0x3
 4555 01bc 0E       		.uleb128 0xe
 4556 01bd 3A       		.uleb128 0x3a
 4557 01be 0B       		.uleb128 0xb
 4558 01bf 3B       		.uleb128 0x3b
 4559 01c0 0B       		.uleb128 0xb
 4560 01c1 27       		.uleb128 0x27
 4561 01c2 19       		.uleb128 0x19
 4562 01c3 11       		.uleb128 0x11
 4563 01c4 01       		.uleb128 0x1
 4564 01c5 12       		.uleb128 0x12
 4565 01c6 06       		.uleb128 0x6
 4566 01c7 40       		.uleb128 0x40
 4567 01c8 18       		.uleb128 0x18
 4568 01c9 9742     		.uleb128 0x2117
 4569 01cb 19       		.uleb128 0x19
 4570 01cc 01       		.uleb128 0x1
 4571 01cd 13       		.uleb128 0x13
 4572 01ce 00       		.byte	0
 4573 01cf 00       		.byte	0
 4574 01d0 1F       		.uleb128 0x1f
 4575 01d1 34       		.uleb128 0x34
 4576 01d2 00       		.byte	0
 4577 01d3 03       		.uleb128 0x3
 4578 01d4 0E       		.uleb128 0xe
 4579 01d5 3A       		.uleb128 0x3a
 4580 01d6 0B       		.uleb128 0xb
 4581 01d7 3B       		.uleb128 0x3b
 4582 01d8 0B       		.uleb128 0xb
 4583 01d9 49       		.uleb128 0x49
 4584 01da 13       		.uleb128 0x13
 4585 01db 3F       		.uleb128 0x3f
 4586 01dc 19       		.uleb128 0x19
 4587 01dd 3C       		.uleb128 0x3c
 4588 01de 19       		.uleb128 0x19
 4589 01df 00       		.byte	0
ARM GAS  C:\Users\JAMESS~1\AppData\Local\Temp\ccSFa4Kp.s 			page 105


 4590 01e0 00       		.byte	0
 4591 01e1 20       		.uleb128 0x20
 4592 01e2 15       		.uleb128 0x15
 4593 01e3 01       		.byte	0x1
 4594 01e4 01       		.uleb128 0x1
 4595 01e5 13       		.uleb128 0x13
 4596 01e6 00       		.byte	0
 4597 01e7 00       		.byte	0
 4598 01e8 21       		.uleb128 0x21
 4599 01e9 18       		.uleb128 0x18
 4600 01ea 00       		.byte	0
 4601 01eb 00       		.byte	0
 4602 01ec 00       		.byte	0
 4603 01ed 22       		.uleb128 0x22
 4604 01ee 34       		.uleb128 0x34
 4605 01ef 00       		.byte	0
 4606 01f0 03       		.uleb128 0x3
 4607 01f1 0E       		.uleb128 0xe
 4608 01f2 3A       		.uleb128 0x3a
 4609 01f3 0B       		.uleb128 0xb
 4610 01f4 3B       		.uleb128 0x3b
 4611 01f5 0B       		.uleb128 0xb
 4612 01f6 49       		.uleb128 0x49
 4613 01f7 13       		.uleb128 0x13
 4614 01f8 3F       		.uleb128 0x3f
 4615 01f9 19       		.uleb128 0x19
 4616 01fa 02       		.uleb128 0x2
 4617 01fb 18       		.uleb128 0x18
 4618 01fc 00       		.byte	0
 4619 01fd 00       		.byte	0
 4620 01fe 23       		.uleb128 0x23
 4621 01ff 34       		.uleb128 0x34
 4622 0200 00       		.byte	0
 4623 0201 03       		.uleb128 0x3
 4624 0202 0E       		.uleb128 0xe
 4625 0203 3A       		.uleb128 0x3a
 4626 0204 0B       		.uleb128 0xb
 4627 0205 3B       		.uleb128 0x3b
 4628 0206 05       		.uleb128 0x5
 4629 0207 49       		.uleb128 0x49
 4630 0208 13       		.uleb128 0x13
 4631 0209 3F       		.uleb128 0x3f
 4632 020a 19       		.uleb128 0x19
 4633 020b 02       		.uleb128 0x2
 4634 020c 18       		.uleb128 0x18
 4635 020d 00       		.byte	0
 4636 020e 00       		.byte	0
 4637 020f 24       		.uleb128 0x24
 4638 0210 2E       		.uleb128 0x2e
 4639 0211 00       		.byte	0
 4640 0212 3F       		.uleb128 0x3f
 4641 0213 19       		.uleb128 0x19
 4642 0214 3C       		.uleb128 0x3c
 4643 0215 19       		.uleb128 0x19
 4644 0216 6E       		.uleb128 0x6e
 4645 0217 0E       		.uleb128 0xe
 4646 0218 03       		.uleb128 0x3
ARM GAS  C:\Users\JAMESS~1\AppData\Local\Temp\ccSFa4Kp.s 			page 106


 4647 0219 0E       		.uleb128 0xe
 4648 021a 3A       		.uleb128 0x3a
 4649 021b 0B       		.uleb128 0xb
 4650 021c 3B       		.uleb128 0x3b
 4651 021d 0B       		.uleb128 0xb
 4652 021e 00       		.byte	0
 4653 021f 00       		.byte	0
 4654 0220 00       		.byte	0
 4655              		.section	.debug_loc,"",%progbits
 4656              	.Ldebug_loc0:
 4657              	.LLST0:
 4658 0000 00000000 		.4byte	.LVL1
 4659 0004 2C000000 		.4byte	.LVL5
 4660 0008 0100     		.2byte	0x1
 4661 000a 50       		.byte	0x50
 4662 000b 2C000000 		.4byte	.LVL5
 4663 000f 80000000 		.4byte	.LFE36
 4664 0013 0400     		.2byte	0x4
 4665 0015 F3       		.byte	0xf3
 4666 0016 01       		.uleb128 0x1
 4667 0017 50       		.byte	0x50
 4668 0018 9F       		.byte	0x9f
 4669 0019 00000000 		.4byte	0
 4670 001d 00000000 		.4byte	0
 4671              	.LLST1:
 4672 0021 1E000000 		.4byte	.LVL2
 4673 0025 24000000 		.4byte	.LVL3
 4674 0029 0100     		.2byte	0x1
 4675 002b 53       		.byte	0x53
 4676 002c 24000000 		.4byte	.LVL3
 4677 0030 2A000000 		.4byte	.LVL4
 4678 0034 1700     		.2byte	0x17
 4679 0036 03       		.byte	0x3
 4680 0037 00000000 		.4byte	StripLights_row
 4681 003b 06       		.byte	0x6
 4682 003c 33       		.byte	0x33
 4683 003d 24       		.byte	0x24
 4684 003e 03       		.byte	0x3
 4685 003f 00000000 		.4byte	StripLights_row
 4686 0043 06       		.byte	0x6
 4687 0044 1C       		.byte	0x1c
 4688 0045 33       		.byte	0x33
 4689 0046 24       		.byte	0x24
 4690 0047 03       		.byte	0x3
 4691 0048 00000000 		.4byte	StripLights_ledArray
 4692 004c 22       		.byte	0x22
 4693 004d 2A000000 		.4byte	.LVL4
 4694 0051 3A000000 		.4byte	.LVL6
 4695 0055 0100     		.2byte	0x1
 4696 0057 53       		.byte	0x53
 4697 0058 3A000000 		.4byte	.LVL6
 4698 005c 3C000000 		.4byte	.LVL7
 4699 0060 0100     		.2byte	0x1
 4700 0062 54       		.byte	0x54
 4701 0063 3C000000 		.4byte	.LVL7
 4702 0067 42000000 		.4byte	.LVL8
 4703 006b 0500     		.2byte	0x5
ARM GAS  C:\Users\JAMESS~1\AppData\Local\Temp\ccSFa4Kp.s 			page 107


 4704 006d 73       		.byte	0x73
 4705 006e 00       		.sleb128 0
 4706 006f 38       		.byte	0x38
 4707 0070 25       		.byte	0x25
 4708 0071 9F       		.byte	0x9f
 4709 0072 42000000 		.4byte	.LVL8
 4710 0076 44000000 		.4byte	.LVL9
 4711 007a 0100     		.2byte	0x1
 4712 007c 53       		.byte	0x53
 4713 007d 00000000 		.4byte	0
 4714 0081 00000000 		.4byte	0
 4715              	.LLST2:
 4716 0085 00000000 		.4byte	.LVL10
 4717 0089 0D000000 		.4byte	.LVL12-1
 4718 008d 0100     		.2byte	0x1
 4719 008f 50       		.byte	0x50
 4720 0090 0D000000 		.4byte	.LVL12-1
 4721 0094 4E000000 		.4byte	.LVL22
 4722 0098 0100     		.2byte	0x1
 4723 009a 55       		.byte	0x55
 4724 009b 4E000000 		.4byte	.LVL22
 4725 009f 54000000 		.4byte	.LFE34
 4726 00a3 0400     		.2byte	0x4
 4727 00a5 F3       		.byte	0xf3
 4728 00a6 01       		.uleb128 0x1
 4729 00a7 50       		.byte	0x50
 4730 00a8 9F       		.byte	0x9f
 4731 00a9 00000000 		.4byte	0
 4732 00ad 00000000 		.4byte	0
 4733              	.LLST3:
 4734 00b1 04000000 		.4byte	.LVL11
 4735 00b5 18000000 		.4byte	.LVL14
 4736 00b9 0200     		.2byte	0x2
 4737 00bb 30       		.byte	0x30
 4738 00bc 9F       		.byte	0x9f
 4739 00bd 18000000 		.4byte	.LVL14
 4740 00c1 4E000000 		.4byte	.LVL21
 4741 00c5 0100     		.2byte	0x1
 4742 00c7 54       		.byte	0x54
 4743 00c8 00000000 		.4byte	0
 4744 00cc 00000000 		.4byte	0
 4745              	.LLST4:
 4746 00d0 00000000 		.4byte	.LVL23
 4747 00d4 0D000000 		.4byte	.LVL24-1
 4748 00d8 0100     		.2byte	0x1
 4749 00da 50       		.byte	0x50
 4750 00db 0D000000 		.4byte	.LVL24-1
 4751 00df 26000000 		.4byte	.LVL28
 4752 00e3 0100     		.2byte	0x1
 4753 00e5 54       		.byte	0x54
 4754 00e6 26000000 		.4byte	.LVL28
 4755 00ea 2C000000 		.4byte	.LFE35
 4756 00ee 0400     		.2byte	0x4
 4757 00f0 F3       		.byte	0xf3
 4758 00f1 01       		.uleb128 0x1
 4759 00f2 50       		.byte	0x50
 4760 00f3 9F       		.byte	0x9f
ARM GAS  C:\Users\JAMESS~1\AppData\Local\Temp\ccSFa4Kp.s 			page 108


 4761 00f4 00000000 		.4byte	0
 4762 00f8 00000000 		.4byte	0
 4763              	.LLST5:
 4764 00fc 00000000 		.4byte	.LVL29
 4765 0100 02000000 		.4byte	.LVL30
 4766 0104 0100     		.2byte	0x1
 4767 0106 50       		.byte	0x50
 4768 0107 02000000 		.4byte	.LVL30
 4769 010b 06000000 		.4byte	.LVL31
 4770 010f 0400     		.2byte	0x4
 4771 0111 F3       		.byte	0xf3
 4772 0112 01       		.uleb128 0x1
 4773 0113 50       		.byte	0x50
 4774 0114 9F       		.byte	0x9f
 4775 0115 06000000 		.4byte	.LVL31
 4776 0119 0C000000 		.4byte	.LFE39
 4777 011d 0100     		.2byte	0x1
 4778 011f 50       		.byte	0x50
 4779 0120 00000000 		.4byte	0
 4780 0124 00000000 		.4byte	0
 4781              	.LLST6:
 4782 0128 00000000 		.4byte	.LVL32
 4783 012c 0A000000 		.4byte	.LVL33
 4784 0130 0100     		.2byte	0x1
 4785 0132 50       		.byte	0x50
 4786 0133 0A000000 		.4byte	.LVL33
 4787 0137 24000000 		.4byte	.LFE40
 4788 013b 0400     		.2byte	0x4
 4789 013d F3       		.byte	0xf3
 4790 013e 01       		.uleb128 0x1
 4791 013f 50       		.byte	0x50
 4792 0140 9F       		.byte	0x9f
 4793 0141 00000000 		.4byte	0
 4794 0145 00000000 		.4byte	0
 4795              	.LLST7:
 4796 0149 02000000 		.4byte	.LVL37
 4797 014d 06000000 		.4byte	.LVL38
 4798 0151 0200     		.2byte	0x2
 4799 0153 30       		.byte	0x30
 4800 0154 9F       		.byte	0x9f
 4801 0155 06000000 		.4byte	.LVL38
 4802 0159 24000000 		.4byte	.LVL43
 4803 015d 0100     		.2byte	0x1
 4804 015f 54       		.byte	0x54
 4805 0160 00000000 		.4byte	0
 4806 0164 00000000 		.4byte	0
 4807              	.LLST8:
 4808 0168 06000000 		.4byte	.LVL38
 4809 016c 18000000 		.4byte	.LVL40
 4810 0170 0100     		.2byte	0x1
 4811 0172 51       		.byte	0x51
 4812 0173 1A000000 		.4byte	.LVL41
 4813 0177 20000000 		.4byte	.LVL42
 4814 017b 0100     		.2byte	0x1
 4815 017d 51       		.byte	0x51
 4816 017e 00000000 		.4byte	0
 4817 0182 00000000 		.4byte	0
ARM GAS  C:\Users\JAMESS~1\AppData\Local\Temp\ccSFa4Kp.s 			page 109


 4818              	.LLST9:
 4819 0186 00000000 		.4byte	.LVL44
 4820 018a 05000000 		.4byte	.LVL45-1
 4821 018e 0100     		.2byte	0x1
 4822 0190 50       		.byte	0x50
 4823 0191 05000000 		.4byte	.LVL45-1
 4824 0195 0E000000 		.4byte	.LFE43
 4825 0199 0400     		.2byte	0x4
 4826 019b F3       		.byte	0xf3
 4827 019c 01       		.uleb128 0x1
 4828 019d 50       		.byte	0x50
 4829 019e 9F       		.byte	0x9f
 4830 019f 00000000 		.4byte	0
 4831 01a3 00000000 		.4byte	0
 4832              	.LLST10:
 4833 01a7 00000000 		.4byte	.LVL47
 4834 01ab 10000000 		.4byte	.LVL48
 4835 01af 0100     		.2byte	0x1
 4836 01b1 50       		.byte	0x50
 4837 01b2 10000000 		.4byte	.LVL48
 4838 01b6 12000000 		.4byte	.LVL49
 4839 01ba 0100     		.2byte	0x1
 4840 01bc 52       		.byte	0x52
 4841 01bd 12000000 		.4byte	.LVL49
 4842 01c1 16000000 		.4byte	.LVL50
 4843 01c5 0500     		.2byte	0x5
 4844 01c7 70       		.byte	0x70
 4845 01c8 00       		.sleb128 0
 4846 01c9 38       		.byte	0x38
 4847 01ca 25       		.byte	0x25
 4848 01cb 9F       		.byte	0x9f
 4849 01cc 16000000 		.4byte	.LVL50
 4850 01d0 18000000 		.4byte	.LVL51
 4851 01d4 0100     		.2byte	0x1
 4852 01d6 50       		.byte	0x50
 4853 01d7 18000000 		.4byte	.LVL51
 4854 01db 24000000 		.4byte	.LFE45
 4855 01df 0600     		.2byte	0x6
 4856 01e1 F3       		.byte	0xf3
 4857 01e2 01       		.uleb128 0x1
 4858 01e3 50       		.byte	0x50
 4859 01e4 40       		.byte	0x40
 4860 01e5 25       		.byte	0x25
 4861 01e6 9F       		.byte	0x9f
 4862 01e7 00000000 		.4byte	0
 4863 01eb 00000000 		.4byte	0
 4864              	.LLST11:
 4865 01ef 00000000 		.4byte	.LVL52
 4866 01f3 18000000 		.4byte	.LVL54
 4867 01f7 0100     		.2byte	0x1
 4868 01f9 50       		.byte	0x50
 4869 01fa 18000000 		.4byte	.LVL54
 4870 01fe 24000000 		.4byte	.LFE46
 4871 0202 0400     		.2byte	0x4
 4872 0204 F3       		.byte	0xf3
 4873 0205 01       		.uleb128 0x1
 4874 0206 50       		.byte	0x50
ARM GAS  C:\Users\JAMESS~1\AppData\Local\Temp\ccSFa4Kp.s 			page 110


 4875 0207 9F       		.byte	0x9f
 4876 0208 00000000 		.4byte	0
 4877 020c 00000000 		.4byte	0
 4878              	.LLST12:
 4879 0210 00000000 		.4byte	.LVL52
 4880 0214 14000000 		.4byte	.LVL53
 4881 0218 0100     		.2byte	0x1
 4882 021a 51       		.byte	0x51
 4883 021b 14000000 		.4byte	.LVL53
 4884 021f 24000000 		.4byte	.LFE46
 4885 0223 0400     		.2byte	0x4
 4886 0225 F3       		.byte	0xf3
 4887 0226 01       		.uleb128 0x1
 4888 0227 51       		.byte	0x51
 4889 0228 9F       		.byte	0x9f
 4890 0229 00000000 		.4byte	0
 4891 022d 00000000 		.4byte	0
 4892              	.LLST13:
 4893 0231 00000000 		.4byte	.LVL55
 4894 0235 18000000 		.4byte	.LVL57
 4895 0239 0100     		.2byte	0x1
 4896 023b 50       		.byte	0x50
 4897 023c 18000000 		.4byte	.LVL57
 4898 0240 20000000 		.4byte	.LVL59
 4899 0244 0400     		.2byte	0x4
 4900 0246 F3       		.byte	0xf3
 4901 0247 01       		.uleb128 0x1
 4902 0248 50       		.byte	0x50
 4903 0249 9F       		.byte	0x9f
 4904 024a 20000000 		.4byte	.LVL59
 4905 024e 22000000 		.4byte	.LVL60
 4906 0252 0100     		.2byte	0x1
 4907 0254 50       		.byte	0x50
 4908 0255 22000000 		.4byte	.LVL60
 4909 0259 24000000 		.4byte	.LVL61
 4910 025d 0400     		.2byte	0x4
 4911 025f F3       		.byte	0xf3
 4912 0260 01       		.uleb128 0x1
 4913 0261 50       		.byte	0x50
 4914 0262 9F       		.byte	0x9f
 4915 0263 24000000 		.4byte	.LVL61
 4916 0267 26000000 		.4byte	.LVL62
 4917 026b 0100     		.2byte	0x1
 4918 026d 50       		.byte	0x50
 4919 026e 26000000 		.4byte	.LVL62
 4920 0272 28000000 		.4byte	.LVL63
 4921 0276 0400     		.2byte	0x4
 4922 0278 F3       		.byte	0xf3
 4923 0279 01       		.uleb128 0x1
 4924 027a 50       		.byte	0x50
 4925 027b 9F       		.byte	0x9f
 4926 027c 28000000 		.4byte	.LVL63
 4927 0280 2A000000 		.4byte	.LVL64
 4928 0284 0100     		.2byte	0x1
 4929 0286 50       		.byte	0x50
 4930 0287 2A000000 		.4byte	.LVL64
 4931 028b 2C000000 		.4byte	.LVL65
ARM GAS  C:\Users\JAMESS~1\AppData\Local\Temp\ccSFa4Kp.s 			page 111


 4932 028f 0400     		.2byte	0x4
 4933 0291 F3       		.byte	0xf3
 4934 0292 01       		.uleb128 0x1
 4935 0293 50       		.byte	0x50
 4936 0294 9F       		.byte	0x9f
 4937 0295 2C000000 		.4byte	.LVL65
 4938 0299 2E000000 		.4byte	.LVL66
 4939 029d 0100     		.2byte	0x1
 4940 029f 50       		.byte	0x50
 4941 02a0 2E000000 		.4byte	.LVL66
 4942 02a4 34000000 		.4byte	.LFE47
 4943 02a8 0400     		.2byte	0x4
 4944 02aa F3       		.byte	0xf3
 4945 02ab 01       		.uleb128 0x1
 4946 02ac 50       		.byte	0x50
 4947 02ad 9F       		.byte	0x9f
 4948 02ae 00000000 		.4byte	0
 4949 02b2 00000000 		.4byte	0
 4950              	.LLST14:
 4951 02b6 00000000 		.4byte	.LVL55
 4952 02ba 14000000 		.4byte	.LVL56
 4953 02be 0100     		.2byte	0x1
 4954 02c0 51       		.byte	0x51
 4955 02c1 14000000 		.4byte	.LVL56
 4956 02c5 20000000 		.4byte	.LVL59
 4957 02c9 0400     		.2byte	0x4
 4958 02cb F3       		.byte	0xf3
 4959 02cc 01       		.uleb128 0x1
 4960 02cd 51       		.byte	0x51
 4961 02ce 9F       		.byte	0x9f
 4962 02cf 20000000 		.4byte	.LVL59
 4963 02d3 2E000000 		.4byte	.LVL66
 4964 02d7 0100     		.2byte	0x1
 4965 02d9 51       		.byte	0x51
 4966 02da 2E000000 		.4byte	.LVL66
 4967 02de 34000000 		.4byte	.LFE47
 4968 02e2 0400     		.2byte	0x4
 4969 02e4 F3       		.byte	0xf3
 4970 02e5 01       		.uleb128 0x1
 4971 02e6 51       		.byte	0x51
 4972 02e7 9F       		.byte	0x9f
 4973 02e8 00000000 		.4byte	0
 4974 02ec 00000000 		.4byte	0
 4975              	.LLST15:
 4976 02f0 00000000 		.4byte	.LVL55
 4977 02f4 1E000000 		.4byte	.LVL58
 4978 02f8 0200     		.2byte	0x2
 4979 02fa 30       		.byte	0x30
 4980 02fb 9F       		.byte	0x9f
 4981 02fc 1E000000 		.4byte	.LVL58
 4982 0300 20000000 		.4byte	.LVL59
 4983 0304 0100     		.2byte	0x1
 4984 0306 50       		.byte	0x50
 4985 0307 20000000 		.4byte	.LVL59
 4986 030b 2E000000 		.4byte	.LVL66
 4987 030f 0200     		.2byte	0x2
 4988 0311 30       		.byte	0x30
ARM GAS  C:\Users\JAMESS~1\AppData\Local\Temp\ccSFa4Kp.s 			page 112


 4989 0312 9F       		.byte	0x9f
 4990 0313 2E000000 		.4byte	.LVL66
 4991 0317 34000000 		.4byte	.LFE47
 4992 031b 0100     		.2byte	0x1
 4993 031d 50       		.byte	0x50
 4994 031e 00000000 		.4byte	0
 4995 0322 00000000 		.4byte	0
 4996              	.LLST16:
 4997 0326 00000000 		.4byte	.LVL67
 4998 032a 2D000000 		.4byte	.LVL75-1
 4999 032e 0100     		.2byte	0x1
 5000 0330 50       		.byte	0x50
 5001 0331 2D000000 		.4byte	.LVL75-1
 5002 0335 F0000000 		.4byte	.LVL103
 5003 0339 0100     		.2byte	0x1
 5004 033b 5B       		.byte	0x5b
 5005 033c F0000000 		.4byte	.LVL103
 5006 0340 FC000000 		.4byte	.LFE48
 5007 0344 0400     		.2byte	0x4
 5008 0346 F3       		.byte	0xf3
 5009 0347 01       		.uleb128 0x1
 5010 0348 50       		.byte	0x50
 5011 0349 9F       		.byte	0x9f
 5012 034a 00000000 		.4byte	0
 5013 034e 00000000 		.4byte	0
 5014              	.LLST17:
 5015 0352 00000000 		.4byte	.LVL67
 5016 0356 28000000 		.4byte	.LVL73
 5017 035a 0100     		.2byte	0x1
 5018 035c 51       		.byte	0x51
 5019 035d 28000000 		.4byte	.LVL73
 5020 0361 F0000000 		.4byte	.LVL100
 5021 0365 0100     		.2byte	0x1
 5022 0367 58       		.byte	0x58
 5023 0368 F0000000 		.4byte	.LVL100
 5024 036c FC000000 		.4byte	.LFE48
 5025 0370 0400     		.2byte	0x4
 5026 0372 F3       		.byte	0xf3
 5027 0373 01       		.uleb128 0x1
 5028 0374 51       		.byte	0x51
 5029 0375 9F       		.byte	0x9f
 5030 0376 00000000 		.4byte	0
 5031 037a 00000000 		.4byte	0
 5032              	.LLST18:
 5033 037e 00000000 		.4byte	.LVL67
 5034 0382 24000000 		.4byte	.LVL71
 5035 0386 0100     		.2byte	0x1
 5036 0388 52       		.byte	0x52
 5037 0389 24000000 		.4byte	.LVL71
 5038 038d 58000000 		.4byte	.LVL79
 5039 0391 0100     		.2byte	0x1
 5040 0393 54       		.byte	0x54
 5041 0394 58000000 		.4byte	.LVL79
 5042 0398 FC000000 		.4byte	.LFE48
 5043 039c 0400     		.2byte	0x4
 5044 039e F3       		.byte	0xf3
 5045 039f 01       		.uleb128 0x1
ARM GAS  C:\Users\JAMESS~1\AppData\Local\Temp\ccSFa4Kp.s 			page 113


 5046 03a0 52       		.byte	0x52
 5047 03a1 9F       		.byte	0x9f
 5048 03a2 00000000 		.4byte	0
 5049 03a6 00000000 		.4byte	0
 5050              	.LLST19:
 5051 03aa 00000000 		.4byte	.LVL67
 5052 03ae 1A000000 		.4byte	.LVL68
 5053 03b2 0100     		.2byte	0x1
 5054 03b4 53       		.byte	0x53
 5055 03b5 1A000000 		.4byte	.LVL68
 5056 03b9 58000000 		.4byte	.LVL79
 5057 03bd 0100     		.2byte	0x1
 5058 03bf 55       		.byte	0x55
 5059 03c0 58000000 		.4byte	.LVL79
 5060 03c4 FC000000 		.4byte	.LFE48
 5061 03c8 0200     		.2byte	0x2
 5062 03ca 91       		.byte	0x91
 5063 03cb 4C       		.sleb128 -52
 5064 03cc 00000000 		.4byte	0
 5065 03d0 00000000 		.4byte	0
 5066              	.LLST20:
 5067 03d4 1E000000 		.4byte	.LVL69
 5068 03d8 20000000 		.4byte	.LVL70
 5069 03dc 0100     		.2byte	0x1
 5070 03de 53       		.byte	0x53
 5071 03df 20000000 		.4byte	.LVL70
 5072 03e3 5E000000 		.4byte	.LVL80
 5073 03e7 0100     		.2byte	0x1
 5074 03e9 59       		.byte	0x59
 5075 03ea 5E000000 		.4byte	.LVL80
 5076 03ee 62000000 		.4byte	.LVL82
 5077 03f2 0100     		.2byte	0x1
 5078 03f4 52       		.byte	0x52
 5079 03f5 62000000 		.4byte	.LVL82
 5080 03f9 F0000000 		.4byte	.LVL101
 5081 03fd 0100     		.2byte	0x1
 5082 03ff 59       		.byte	0x59
 5083 0400 00000000 		.4byte	0
 5084 0404 00000000 		.4byte	0
 5085              	.LLST21:
 5086 0408 1E000000 		.4byte	.LVL69
 5087 040c 58000000 		.4byte	.LVL79
 5088 0410 0200     		.2byte	0x2
 5089 0412 30       		.byte	0x30
 5090 0413 9F       		.byte	0x9f
 5091 0414 58000000 		.4byte	.LVL79
 5092 0418 6E000000 		.4byte	.LVL86
 5093 041c 0100     		.2byte	0x1
 5094 041e 53       		.byte	0x53
 5095 041f 6E000000 		.4byte	.LVL86
 5096 0423 7C000000 		.4byte	.LVL88
 5097 0427 0100     		.2byte	0x1
 5098 0429 52       		.byte	0x52
 5099 042a 7C000000 		.4byte	.LVL88
 5100 042e EA000000 		.4byte	.LVL97
 5101 0432 0200     		.2byte	0x2
 5102 0434 91       		.byte	0x91
ARM GAS  C:\Users\JAMESS~1\AppData\Local\Temp\ccSFa4Kp.s 			page 114


 5103 0435 50       		.sleb128 -48
 5104 0436 EA000000 		.4byte	.LVL97
 5105 043a FC000000 		.4byte	.LFE48
 5106 043e 0100     		.2byte	0x1
 5107 0440 53       		.byte	0x53
 5108 0441 00000000 		.4byte	0
 5109 0445 00000000 		.4byte	0
 5110              	.LLST22:
 5111 0449 26000000 		.4byte	.LVL72
 5112 044d 2A000000 		.4byte	.LVL74
 5113 0451 0100     		.2byte	0x1
 5114 0453 52       		.byte	0x52
 5115 0454 2A000000 		.4byte	.LVL74
 5116 0458 F0000000 		.4byte	.LVL102
 5117 045c 0100     		.2byte	0x1
 5118 045e 5A       		.byte	0x5a
 5119 045f 00000000 		.4byte	0
 5120 0463 00000000 		.4byte	0
 5121              	.LLST23:
 5122 0467 26000000 		.4byte	.LVL72
 5123 046b 58000000 		.4byte	.LVL79
 5124 046f 0200     		.2byte	0x2
 5125 0471 30       		.byte	0x30
 5126 0472 9F       		.byte	0x9f
 5127 0473 58000000 		.4byte	.LVL79
 5128 0477 F0000000 		.4byte	.LVL99
 5129 047b 0100     		.2byte	0x1
 5130 047d 56       		.byte	0x56
 5131 047e 00000000 		.4byte	0
 5132 0482 00000000 		.4byte	0
 5133              	.LLST24:
 5134 0486 26000000 		.4byte	.LVL72
 5135 048a F0000000 		.4byte	.LVL98
 5136 048e 0100     		.2byte	0x1
 5137 0490 54       		.byte	0x54
 5138 0491 00000000 		.4byte	0
 5139 0495 00000000 		.4byte	0
 5140              	.LLST25:
 5141 0499 00000000 		.4byte	.LVL104
 5142 049d 4A000000 		.4byte	.LVL119
 5143 04a1 0100     		.2byte	0x1
 5144 04a3 50       		.byte	0x50
 5145 04a4 4A000000 		.4byte	.LVL119
 5146 04a8 9E000000 		.4byte	.LVL135
 5147 04ac 0100     		.2byte	0x1
 5148 04ae 54       		.byte	0x54
 5149 04af 00000000 		.4byte	0
 5150 04b3 00000000 		.4byte	0
 5151              	.LLST26:
 5152 04b7 00000000 		.4byte	.LVL104
 5153 04bb 48000000 		.4byte	.LVL118
 5154 04bf 0100     		.2byte	0x1
 5155 04c1 51       		.byte	0x51
 5156 04c2 48000000 		.4byte	.LVL118
 5157 04c6 9E000000 		.4byte	.LVL136
 5158 04ca 0100     		.2byte	0x1
 5159 04cc 55       		.byte	0x55
ARM GAS  C:\Users\JAMESS~1\AppData\Local\Temp\ccSFa4Kp.s 			page 115


 5160 04cd 00000000 		.4byte	0
 5161 04d1 00000000 		.4byte	0
 5162              	.LLST27:
 5163 04d5 00000000 		.4byte	.LVL104
 5164 04d9 22000000 		.4byte	.LVL108
 5165 04dd 0100     		.2byte	0x1
 5166 04df 52       		.byte	0x52
 5167 04e0 22000000 		.4byte	.LVL108
 5168 04e4 28000000 		.4byte	.LVL109
 5169 04e8 0200     		.2byte	0x2
 5170 04ea 91       		.byte	0x91
 5171 04eb 54       		.sleb128 -44
 5172 04ec 28000000 		.4byte	.LVL109
 5173 04f0 2A000000 		.4byte	.LVL110
 5174 04f4 0100     		.2byte	0x1
 5175 04f6 52       		.byte	0x52
 5176 04f7 2A000000 		.4byte	.LVL110
 5177 04fb AA000000 		.4byte	.LFE49
 5178 04ff 0200     		.2byte	0x2
 5179 0501 91       		.byte	0x91
 5180 0502 54       		.sleb128 -44
 5181 0503 00000000 		.4byte	0
 5182 0507 00000000 		.4byte	0
 5183              	.LLST28:
 5184 050b 00000000 		.4byte	.LVL104
 5185 050f 18000000 		.4byte	.LVL105
 5186 0513 0100     		.2byte	0x1
 5187 0515 53       		.byte	0x53
 5188 0516 18000000 		.4byte	.LVL105
 5189 051a 9E000000 		.4byte	.LVL141
 5190 051e 0100     		.2byte	0x1
 5191 0520 5B       		.byte	0x5b
 5192 0521 9E000000 		.4byte	.LVL141
 5193 0525 AA000000 		.4byte	.LFE49
 5194 0529 0400     		.2byte	0x4
 5195 052b F3       		.byte	0xf3
 5196 052c 01       		.uleb128 0x1
 5197 052d 53       		.byte	0x53
 5198 052e 9F       		.byte	0x9f
 5199 052f 00000000 		.4byte	0
 5200 0533 00000000 		.4byte	0
 5201              	.LLST29:
 5202 0537 18000000 		.4byte	.LVL105
 5203 053b 40000000 		.4byte	.LVL115
 5204 053f 0100     		.2byte	0x1
 5205 0541 53       		.byte	0x53
 5206 0542 42000000 		.4byte	.LVL116
 5207 0546 4D000000 		.4byte	.LVL120-1
 5208 054a 0100     		.2byte	0x1
 5209 054c 53       		.byte	0x53
 5210 054d 4D000000 		.4byte	.LVL120-1
 5211 0551 9E000000 		.4byte	.LVL138
 5212 0555 0100     		.2byte	0x1
 5213 0557 58       		.byte	0x58
 5214 0558 00000000 		.4byte	0
 5215 055c 00000000 		.4byte	0
 5216              	.LLST30:
ARM GAS  C:\Users\JAMESS~1\AppData\Local\Temp\ccSFa4Kp.s 			page 116


 5217 0560 1A000000 		.4byte	.LVL106
 5218 0564 9E000000 		.4byte	.LVL137
 5219 0568 0100     		.2byte	0x1
 5220 056a 57       		.byte	0x57
 5221 056b 00000000 		.4byte	0
 5222 056f 00000000 		.4byte	0
 5223              	.LLST31:
 5224 0573 32000000 		.4byte	.LVL112
 5225 0577 3A000000 		.4byte	.LVL113
 5226 057b 0300     		.2byte	0x3
 5227 057d 09       		.byte	0x9
 5228 057e FF       		.byte	0xff
 5229 057f 9F       		.byte	0x9f
 5230 0580 3E000000 		.4byte	.LVL114
 5231 0584 9E000000 		.4byte	.LVL139
 5232 0588 0100     		.2byte	0x1
 5233 058a 59       		.byte	0x59
 5234 058b 00000000 		.4byte	0
 5235 058f 00000000 		.4byte	0
 5236              	.LLST32:
 5237 0593 20000000 		.4byte	.LVL107
 5238 0597 28000000 		.4byte	.LVL109
 5239 059b 0300     		.2byte	0x3
 5240 059d 09       		.byte	0x9
 5241 059e FF       		.byte	0xff
 5242 059f 9F       		.byte	0x9f
 5243 05a0 2C000000 		.4byte	.LVL111
 5244 05a4 9E000000 		.4byte	.LVL140
 5245 05a8 0100     		.2byte	0x1
 5246 05aa 5A       		.byte	0x5a
 5247 05ab 00000000 		.4byte	0
 5248 05af 00000000 		.4byte	0
 5249              	.LLST33:
 5250 05b3 58000000 		.4byte	.LVL121
 5251 05b7 78000000 		.4byte	.LVL127
 5252 05bb 0100     		.2byte	0x1
 5253 05bd 56       		.byte	0x56
 5254 05be 00000000 		.4byte	0
 5255 05c2 00000000 		.4byte	0
 5256              	.LLST34:
 5257 05c6 7E000000 		.4byte	.LVL128
 5258 05ca 9C000000 		.4byte	.LVL134
 5259 05ce 0100     		.2byte	0x1
 5260 05d0 56       		.byte	0x56
 5261 05d1 00000000 		.4byte	0
 5262 05d5 00000000 		.4byte	0
 5263              	.LLST35:
 5264 05d9 00000000 		.4byte	.LVL142
 5265 05dd 20000000 		.4byte	.LVL147
 5266 05e1 0100     		.2byte	0x1
 5267 05e3 50       		.byte	0x50
 5268 05e4 20000000 		.4byte	.LVL147
 5269 05e8 40000000 		.4byte	.LVL152
 5270 05ec 0100     		.2byte	0x1
 5271 05ee 54       		.byte	0x54
 5272 05ef 40000000 		.4byte	.LVL152
 5273 05f3 4B000000 		.4byte	.LVL154-1
ARM GAS  C:\Users\JAMESS~1\AppData\Local\Temp\ccSFa4Kp.s 			page 117


 5274 05f7 0100     		.2byte	0x1
 5275 05f9 50       		.byte	0x50
 5276 05fa 4B000000 		.4byte	.LVL154-1
 5277 05fe 78000000 		.4byte	.LVL158
 5278 0602 0100     		.2byte	0x1
 5279 0604 54       		.byte	0x54
 5280 0605 00000000 		.4byte	0
 5281 0609 00000000 		.4byte	0
 5282              	.LLST36:
 5283 060d 00000000 		.4byte	.LVL142
 5284 0611 20000000 		.4byte	.LVL147
 5285 0615 0100     		.2byte	0x1
 5286 0617 51       		.byte	0x51
 5287 0618 20000000 		.4byte	.LVL147
 5288 061c 40000000 		.4byte	.LVL152
 5289 0620 0200     		.2byte	0x2
 5290 0622 91       		.byte	0x91
 5291 0623 64       		.sleb128 -28
 5292 0624 40000000 		.4byte	.LVL152
 5293 0628 48000000 		.4byte	.LVL153
 5294 062c 0100     		.2byte	0x1
 5295 062e 51       		.byte	0x51
 5296 062f 48000000 		.4byte	.LVL153
 5297 0633 7A000000 		.4byte	.LFE50
 5298 0637 0200     		.2byte	0x2
 5299 0639 91       		.byte	0x91
 5300 063a 64       		.sleb128 -28
 5301 063b 00000000 		.4byte	0
 5302 063f 00000000 		.4byte	0
 5303              	.LLST37:
 5304 0643 00000000 		.4byte	.LVL142
 5305 0647 20000000 		.4byte	.LVL147
 5306 064b 0100     		.2byte	0x1
 5307 064d 52       		.byte	0x52
 5308 064e 20000000 		.4byte	.LVL147
 5309 0652 40000000 		.4byte	.LVL152
 5310 0656 0100     		.2byte	0x1
 5311 0658 56       		.byte	0x56
 5312 0659 40000000 		.4byte	.LVL152
 5313 065d 4B000000 		.4byte	.LVL154-1
 5314 0661 0100     		.2byte	0x1
 5315 0663 52       		.byte	0x52
 5316 0664 4B000000 		.4byte	.LVL154-1
 5317 0668 78000000 		.4byte	.LVL159
 5318 066c 0100     		.2byte	0x1
 5319 066e 56       		.byte	0x56
 5320 066f 78000000 		.4byte	.LVL159
 5321 0673 7A000000 		.4byte	.LFE50
 5322 0677 0400     		.2byte	0x4
 5323 0679 F3       		.byte	0xf3
 5324 067a 01       		.uleb128 0x1
 5325 067b 52       		.byte	0x52
 5326 067c 9F       		.byte	0x9f
 5327 067d 00000000 		.4byte	0
 5328 0681 00000000 		.4byte	0
 5329              	.LLST38:
 5330 0685 00000000 		.4byte	.LVL142
ARM GAS  C:\Users\JAMESS~1\AppData\Local\Temp\ccSFa4Kp.s 			page 118


 5331 0689 10000000 		.4byte	.LVL143
 5332 068d 0100     		.2byte	0x1
 5333 068f 53       		.byte	0x53
 5334 0690 10000000 		.4byte	.LVL143
 5335 0694 7A000000 		.4byte	.LFE50
 5336 0698 0200     		.2byte	0x2
 5337 069a 91       		.byte	0x91
 5338 069b 60       		.sleb128 -32
 5339 069c 00000000 		.4byte	0
 5340 06a0 00000000 		.4byte	0
 5341              	.LLST39:
 5342 06a4 1A000000 		.4byte	.LVL144
 5343 06a8 1C000000 		.4byte	.LVL145
 5344 06ac 0100     		.2byte	0x1
 5345 06ae 55       		.byte	0x55
 5346 06af 1E000000 		.4byte	.LVL146
 5347 06b3 40000000 		.4byte	.LVL152
 5348 06b7 0100     		.2byte	0x1
 5349 06b9 55       		.byte	0x55
 5350 06ba 00000000 		.4byte	0
 5351 06be 00000000 		.4byte	0
 5352              	.LLST40:
 5353 06c2 00000000 		.4byte	.LVL169
 5354 06c6 20000000 		.4byte	.LVL174
 5355 06ca 0100     		.2byte	0x1
 5356 06cc 50       		.byte	0x50
 5357 06cd 20000000 		.4byte	.LVL174
 5358 06d1 5A000000 		.4byte	.LFE52
 5359 06d5 0200     		.2byte	0x2
 5360 06d7 91       		.byte	0x91
 5361 06d8 5C       		.sleb128 -36
 5362 06d9 00000000 		.4byte	0
 5363 06dd 00000000 		.4byte	0
 5364              	.LLST41:
 5365 06e1 00000000 		.4byte	.LVL169
 5366 06e5 20000000 		.4byte	.LVL174
 5367 06e9 0100     		.2byte	0x1
 5368 06eb 51       		.byte	0x51
 5369 06ec 20000000 		.4byte	.LVL174
 5370 06f0 5A000000 		.4byte	.LFE52
 5371 06f4 0400     		.2byte	0x4
 5372 06f6 F3       		.byte	0xf3
 5373 06f7 01       		.uleb128 0x1
 5374 06f8 51       		.byte	0x51
 5375 06f9 9F       		.byte	0x9f
 5376 06fa 00000000 		.4byte	0
 5377 06fe 00000000 		.4byte	0
 5378              	.LLST42:
 5379 0702 00000000 		.4byte	.LVL169
 5380 0706 20000000 		.4byte	.LVL174
 5381 070a 0100     		.2byte	0x1
 5382 070c 52       		.byte	0x52
 5383 070d 20000000 		.4byte	.LVL174
 5384 0711 52000000 		.4byte	.LVL186
 5385 0715 0100     		.2byte	0x1
 5386 0717 57       		.byte	0x57
 5387 0718 52000000 		.4byte	.LVL186
ARM GAS  C:\Users\JAMESS~1\AppData\Local\Temp\ccSFa4Kp.s 			page 119


 5388 071c 5A000000 		.4byte	.LFE52
 5389 0720 0400     		.2byte	0x4
 5390 0722 F3       		.byte	0xf3
 5391 0723 01       		.uleb128 0x1
 5392 0724 52       		.byte	0x52
 5393 0725 9F       		.byte	0x9f
 5394 0726 00000000 		.4byte	0
 5395 072a 00000000 		.4byte	0
 5396              	.LLST43:
 5397 072e 00000000 		.4byte	.LVL169
 5398 0732 14000000 		.4byte	.LVL171
 5399 0736 0100     		.2byte	0x1
 5400 0738 53       		.byte	0x53
 5401 0739 14000000 		.4byte	.LVL171
 5402 073d 4A000000 		.4byte	.LVL182
 5403 0741 0100     		.2byte	0x1
 5404 0743 5B       		.byte	0x5b
 5405 0744 4A000000 		.4byte	.LVL182
 5406 0748 4F000000 		.4byte	.LVL183-1
 5407 074c 0100     		.2byte	0x1
 5408 074e 53       		.byte	0x53
 5409 074f 4F000000 		.4byte	.LVL183-1
 5410 0753 52000000 		.4byte	.LVL188
 5411 0757 0100     		.2byte	0x1
 5412 0759 5B       		.byte	0x5b
 5413 075a 52000000 		.4byte	.LVL188
 5414 075e 5A000000 		.4byte	.LFE52
 5415 0762 0400     		.2byte	0x4
 5416 0764 F3       		.byte	0xf3
 5417 0765 01       		.uleb128 0x1
 5418 0766 53       		.byte	0x53
 5419 0767 9F       		.byte	0x9f
 5420 0768 00000000 		.4byte	0
 5421 076c 00000000 		.4byte	0
 5422              	.LLST44:
 5423 0770 20000000 		.4byte	.LVL174
 5424 0774 32000000 		.4byte	.LVL178
 5425 0778 0100     		.2byte	0x1
 5426 077a 54       		.byte	0x54
 5427 077b 34000000 		.4byte	.LVL179
 5428 077f 3E000000 		.4byte	.LVL180
 5429 0783 0100     		.2byte	0x1
 5430 0785 54       		.byte	0x54
 5431 0786 00000000 		.4byte	0
 5432 078a 00000000 		.4byte	0
 5433              	.LLST45:
 5434 078e 1C000000 		.4byte	.LVL173
 5435 0792 20000000 		.4byte	.LVL174
 5436 0796 0100     		.2byte	0x1
 5437 0798 51       		.byte	0x51
 5438 0799 20000000 		.4byte	.LVL174
 5439 079d 32000000 		.4byte	.LVL178
 5440 07a1 0200     		.2byte	0x2
 5441 07a3 7D       		.byte	0x7d
 5442 07a4 00       		.sleb128 0
 5443 07a5 32000000 		.4byte	.LVL178
 5444 07a9 34000000 		.4byte	.LVL179
ARM GAS  C:\Users\JAMESS~1\AppData\Local\Temp\ccSFa4Kp.s 			page 120


 5445 07ad 0100     		.2byte	0x1
 5446 07af 52       		.byte	0x52
 5447 07b0 34000000 		.4byte	.LVL179
 5448 07b4 52000000 		.4byte	.LVL184
 5449 07b8 0200     		.2byte	0x2
 5450 07ba 7D       		.byte	0x7d
 5451 07bb 00       		.sleb128 0
 5452 07bc 52000000 		.4byte	.LVL184
 5453 07c0 5A000000 		.4byte	.LFE52
 5454 07c4 0200     		.2byte	0x2
 5455 07c6 91       		.byte	0x91
 5456 07c7 58       		.sleb128 -40
 5457 07c8 00000000 		.4byte	0
 5458 07cc 00000000 		.4byte	0
 5459              	.LLST46:
 5460 07d0 12000000 		.4byte	.LVL170
 5461 07d4 16000000 		.4byte	.LVL172
 5462 07d8 0200     		.2byte	0x2
 5463 07da 31       		.byte	0x31
 5464 07db 9F       		.byte	0x9f
 5465 07dc 16000000 		.4byte	.LVL172
 5466 07e0 20000000 		.4byte	.LVL174
 5467 07e4 0200     		.2byte	0x2
 5468 07e6 32       		.byte	0x32
 5469 07e7 9F       		.byte	0x9f
 5470 07e8 20000000 		.4byte	.LVL174
 5471 07ec 22000000 		.4byte	.LVL175
 5472 07f0 0100     		.2byte	0x1
 5473 07f2 53       		.byte	0x53
 5474 07f3 22000000 		.4byte	.LVL175
 5475 07f7 32000000 		.4byte	.LVL178
 5476 07fb 0100     		.2byte	0x1
 5477 07fd 55       		.byte	0x55
 5478 07fe 32000000 		.4byte	.LVL178
 5479 0802 46000000 		.4byte	.LVL181
 5480 0806 0100     		.2byte	0x1
 5481 0808 53       		.byte	0x53
 5482 0809 00000000 		.4byte	0
 5483 080d 00000000 		.4byte	0
 5484              	.LLST47:
 5485 0811 16000000 		.4byte	.LVL172
 5486 0815 52000000 		.4byte	.LVL185
 5487 0819 0100     		.2byte	0x1
 5488 081b 56       		.byte	0x56
 5489 081c 00000000 		.4byte	0
 5490 0820 00000000 		.4byte	0
 5491              	.LLST48:
 5492 0824 1C000000 		.4byte	.LVL173
 5493 0828 52000000 		.4byte	.LVL187
 5494 082c 0100     		.2byte	0x1
 5495 082e 58       		.byte	0x58
 5496 082f 00000000 		.4byte	0
 5497 0833 00000000 		.4byte	0
 5498              	.LLST49:
 5499 0837 00000000 		.4byte	.LVL189
 5500 083b 26000000 		.4byte	.LVL194
 5501 083f 0100     		.2byte	0x1
ARM GAS  C:\Users\JAMESS~1\AppData\Local\Temp\ccSFa4Kp.s 			page 121


 5502 0841 50       		.byte	0x50
 5503 0842 26000000 		.4byte	.LVL194
 5504 0846 62000000 		.4byte	.LFE53
 5505 084a 0200     		.2byte	0x2
 5506 084c 91       		.byte	0x91
 5507 084d 5C       		.sleb128 -36
 5508 084e 00000000 		.4byte	0
 5509 0852 00000000 		.4byte	0
 5510              	.LLST50:
 5511 0856 00000000 		.4byte	.LVL189
 5512 085a 26000000 		.4byte	.LVL194
 5513 085e 0100     		.2byte	0x1
 5514 0860 51       		.byte	0x51
 5515 0861 26000000 		.4byte	.LVL194
 5516 0865 62000000 		.4byte	.LFE53
 5517 0869 0400     		.2byte	0x4
 5518 086b F3       		.byte	0xf3
 5519 086c 01       		.uleb128 0x1
 5520 086d 51       		.byte	0x51
 5521 086e 9F       		.byte	0x9f
 5522 086f 00000000 		.4byte	0
 5523 0873 00000000 		.4byte	0
 5524              	.LLST51:
 5525 0877 00000000 		.4byte	.LVL189
 5526 087b 26000000 		.4byte	.LVL194
 5527 087f 0100     		.2byte	0x1
 5528 0881 52       		.byte	0x52
 5529 0882 26000000 		.4byte	.LVL194
 5530 0886 5A000000 		.4byte	.LVL206
 5531 088a 0100     		.2byte	0x1
 5532 088c 57       		.byte	0x57
 5533 088d 5A000000 		.4byte	.LVL206
 5534 0891 62000000 		.4byte	.LFE53
 5535 0895 0400     		.2byte	0x4
 5536 0897 F3       		.byte	0xf3
 5537 0898 01       		.uleb128 0x1
 5538 0899 52       		.byte	0x52
 5539 089a 9F       		.byte	0x9f
 5540 089b 00000000 		.4byte	0
 5541 089f 00000000 		.4byte	0
 5542              	.LLST52:
 5543 08a3 00000000 		.4byte	.LVL189
 5544 08a7 14000000 		.4byte	.LVL191
 5545 08ab 0100     		.2byte	0x1
 5546 08ad 53       		.byte	0x53
 5547 08ae 14000000 		.4byte	.LVL191
 5548 08b2 52000000 		.4byte	.LVL202
 5549 08b6 0100     		.2byte	0x1
 5550 08b8 5B       		.byte	0x5b
 5551 08b9 52000000 		.4byte	.LVL202
 5552 08bd 57000000 		.4byte	.LVL203-1
 5553 08c1 0100     		.2byte	0x1
 5554 08c3 53       		.byte	0x53
 5555 08c4 57000000 		.4byte	.LVL203-1
 5556 08c8 5A000000 		.4byte	.LVL208
 5557 08cc 0100     		.2byte	0x1
 5558 08ce 5B       		.byte	0x5b
ARM GAS  C:\Users\JAMESS~1\AppData\Local\Temp\ccSFa4Kp.s 			page 122


 5559 08cf 5A000000 		.4byte	.LVL208
 5560 08d3 62000000 		.4byte	.LFE53
 5561 08d7 0400     		.2byte	0x4
 5562 08d9 F3       		.byte	0xf3
 5563 08da 01       		.uleb128 0x1
 5564 08db 53       		.byte	0x53
 5565 08dc 9F       		.byte	0x9f
 5566 08dd 00000000 		.4byte	0
 5567 08e1 00000000 		.4byte	0
 5568              	.LLST53:
 5569 08e5 26000000 		.4byte	.LVL194
 5570 08e9 3A000000 		.4byte	.LVL198
 5571 08ed 0100     		.2byte	0x1
 5572 08ef 54       		.byte	0x54
 5573 08f0 3C000000 		.4byte	.LVL199
 5574 08f4 46000000 		.4byte	.LVL200
 5575 08f8 0100     		.2byte	0x1
 5576 08fa 54       		.byte	0x54
 5577 08fb 00000000 		.4byte	0
 5578 08ff 00000000 		.4byte	0
 5579              	.LLST54:
 5580 0903 22000000 		.4byte	.LVL193
 5581 0907 26000000 		.4byte	.LVL194
 5582 090b 0100     		.2byte	0x1
 5583 090d 51       		.byte	0x51
 5584 090e 26000000 		.4byte	.LVL194
 5585 0912 3A000000 		.4byte	.LVL198
 5586 0916 0200     		.2byte	0x2
 5587 0918 7D       		.byte	0x7d
 5588 0919 00       		.sleb128 0
 5589 091a 3A000000 		.4byte	.LVL198
 5590 091e 3C000000 		.4byte	.LVL199
 5591 0922 0100     		.2byte	0x1
 5592 0924 52       		.byte	0x52
 5593 0925 3C000000 		.4byte	.LVL199
 5594 0929 5A000000 		.4byte	.LVL204
 5595 092d 0200     		.2byte	0x2
 5596 092f 7D       		.byte	0x7d
 5597 0930 00       		.sleb128 0
 5598 0931 5A000000 		.4byte	.LVL204
 5599 0935 62000000 		.4byte	.LFE53
 5600 0939 0200     		.2byte	0x2
 5601 093b 91       		.byte	0x91
 5602 093c 58       		.sleb128 -40
 5603 093d 00000000 		.4byte	0
 5604 0941 00000000 		.4byte	0
 5605              	.LLST55:
 5606 0945 12000000 		.4byte	.LVL190
 5607 0949 1A000000 		.4byte	.LVL192
 5608 094d 0200     		.2byte	0x2
 5609 094f 31       		.byte	0x31
 5610 0950 9F       		.byte	0x9f
 5611 0951 1A000000 		.4byte	.LVL192
 5612 0955 26000000 		.4byte	.LVL194
 5613 0959 0200     		.2byte	0x2
 5614 095b 32       		.byte	0x32
 5615 095c 9F       		.byte	0x9f
ARM GAS  C:\Users\JAMESS~1\AppData\Local\Temp\ccSFa4Kp.s 			page 123


 5616 095d 26000000 		.4byte	.LVL194
 5617 0961 28000000 		.4byte	.LVL195
 5618 0965 0100     		.2byte	0x1
 5619 0967 53       		.byte	0x53
 5620 0968 28000000 		.4byte	.LVL195
 5621 096c 3A000000 		.4byte	.LVL198
 5622 0970 0100     		.2byte	0x1
 5623 0972 55       		.byte	0x55
 5624 0973 3A000000 		.4byte	.LVL198
 5625 0977 4E000000 		.4byte	.LVL201
 5626 097b 0100     		.2byte	0x1
 5627 097d 53       		.byte	0x53
 5628 097e 00000000 		.4byte	0
 5629 0982 00000000 		.4byte	0
 5630              	.LLST56:
 5631 0986 1A000000 		.4byte	.LVL192
 5632 098a 5A000000 		.4byte	.LVL205
 5633 098e 0100     		.2byte	0x1
 5634 0990 56       		.byte	0x56
 5635 0991 00000000 		.4byte	0
 5636 0995 00000000 		.4byte	0
 5637              	.LLST57:
 5638 0999 22000000 		.4byte	.LVL193
 5639 099d 5A000000 		.4byte	.LVL207
 5640 09a1 0100     		.2byte	0x1
 5641 09a3 58       		.byte	0x58
 5642 09a4 00000000 		.4byte	0
 5643 09a8 00000000 		.4byte	0
 5644              	.LLST58:
 5645 09ac 00000000 		.4byte	.LVL209
 5646 09b0 14000000 		.4byte	.LVL211
 5647 09b4 0100     		.2byte	0x1
 5648 09b6 50       		.byte	0x50
 5649 09b7 14000000 		.4byte	.LVL211
 5650 09bb 5C000000 		.4byte	.LVL218
 5651 09bf 0100     		.2byte	0x1
 5652 09c1 54       		.byte	0x54
 5653 09c2 5C000000 		.4byte	.LVL218
 5654 09c6 74000000 		.4byte	.LFE54
 5655 09ca 0400     		.2byte	0x4
 5656 09cc F3       		.byte	0xf3
 5657 09cd 01       		.uleb128 0x1
 5658 09ce 50       		.byte	0x50
 5659 09cf 9F       		.byte	0x9f
 5660 09d0 00000000 		.4byte	0
 5661 09d4 00000000 		.4byte	0
 5662              	.LLST59:
 5663 09d8 00000000 		.4byte	.LVL209
 5664 09dc 2A000000 		.4byte	.LVL213
 5665 09e0 0100     		.2byte	0x1
 5666 09e2 51       		.byte	0x51
 5667 09e3 2A000000 		.4byte	.LVL213
 5668 09e7 6C000000 		.4byte	.LVL221
 5669 09eb 0100     		.2byte	0x1
 5670 09ed 56       		.byte	0x56
 5671 09ee 6C000000 		.4byte	.LVL221
 5672 09f2 74000000 		.4byte	.LFE54
ARM GAS  C:\Users\JAMESS~1\AppData\Local\Temp\ccSFa4Kp.s 			page 124


 5673 09f6 0400     		.2byte	0x4
 5674 09f8 F3       		.byte	0xf3
 5675 09f9 01       		.uleb128 0x1
 5676 09fa 51       		.byte	0x51
 5677 09fb 9F       		.byte	0x9f
 5678 09fc 00000000 		.4byte	0
 5679 0a00 00000000 		.4byte	0
 5680              	.LLST60:
 5681 0a04 00000000 		.4byte	.LVL209
 5682 0a08 24000000 		.4byte	.LVL212
 5683 0a0c 0100     		.2byte	0x1
 5684 0a0e 52       		.byte	0x52
 5685 0a0f 24000000 		.4byte	.LVL212
 5686 0a13 6C000000 		.4byte	.LVL222
 5687 0a17 0100     		.2byte	0x1
 5688 0a19 59       		.byte	0x59
 5689 0a1a 6C000000 		.4byte	.LVL222
 5690 0a1e 74000000 		.4byte	.LFE54
 5691 0a22 0400     		.2byte	0x4
 5692 0a24 F3       		.byte	0xf3
 5693 0a25 01       		.uleb128 0x1
 5694 0a26 52       		.byte	0x52
 5695 0a27 9F       		.byte	0x9f
 5696 0a28 00000000 		.4byte	0
 5697 0a2c 00000000 		.4byte	0
 5698              	.LLST61:
 5699 0a30 0E000000 		.4byte	.LVL210
 5700 0a34 30000000 		.4byte	.LVL215
 5701 0a38 0200     		.2byte	0x2
 5702 0a3a 30       		.byte	0x30
 5703 0a3b 9F       		.byte	0x9f
 5704 0a3c 30000000 		.4byte	.LVL215
 5705 0a40 6C000000 		.4byte	.LVL220
 5706 0a44 0100     		.2byte	0x1
 5707 0a46 55       		.byte	0x55
 5708 0a47 6C000000 		.4byte	.LVL220
 5709 0a4b 74000000 		.4byte	.LFE54
 5710 0a4f 0100     		.2byte	0x1
 5711 0a51 50       		.byte	0x50
 5712 0a52 00000000 		.4byte	0
 5713 0a56 00000000 		.4byte	0
 5714              		.section	.debug_aranges,"",%progbits
 5715 0000 CC000000 		.4byte	0xcc
 5716 0004 0200     		.2byte	0x2
 5717 0006 00000000 		.4byte	.Ldebug_info0
 5718 000a 04       		.byte	0x4
 5719 000b 00       		.byte	0
 5720 000c 0000     		.2byte	0
 5721 000e 0000     		.2byte	0
 5722 0010 00000000 		.4byte	.LFB41
 5723 0014 70000000 		.4byte	.LFE41-.LFB41
 5724 0018 00000000 		.4byte	.LFB42
 5725 001c 8C000000 		.4byte	.LFE42-.LFB42
 5726 0020 00000000 		.4byte	.LFB33
 5727 0024 0C000000 		.4byte	.LFE33-.LFB33
 5728 0028 00000000 		.4byte	.LFB36
 5729 002c 80000000 		.4byte	.LFE36-.LFB36
ARM GAS  C:\Users\JAMESS~1\AppData\Local\Temp\ccSFa4Kp.s 			page 125


 5730 0030 00000000 		.4byte	.LFB37
 5731 0034 1C000000 		.4byte	.LFE37-.LFB37
 5732 0038 00000000 		.4byte	.LFB34
 5733 003c 54000000 		.4byte	.LFE34-.LFB34
 5734 0040 00000000 		.4byte	.LFB35
 5735 0044 2C000000 		.4byte	.LFE35-.LFB35
 5736 0048 00000000 		.4byte	.LFB38
 5737 004c 0C000000 		.4byte	.LFE38-.LFB38
 5738 0050 00000000 		.4byte	.LFB39
 5739 0054 0C000000 		.4byte	.LFE39-.LFB39
 5740 0058 00000000 		.4byte	.LFB40
 5741 005c 24000000 		.4byte	.LFE40-.LFB40
 5742 0060 00000000 		.4byte	.LFB44
 5743 0064 2C000000 		.4byte	.LFE44-.LFB44
 5744 0068 00000000 		.4byte	.LFB43
 5745 006c 0E000000 		.4byte	.LFE43-.LFB43
 5746 0070 00000000 		.4byte	.LFB45
 5747 0074 24000000 		.4byte	.LFE45-.LFB45
 5748 0078 00000000 		.4byte	.LFB46
 5749 007c 24000000 		.4byte	.LFE46-.LFB46
 5750 0080 00000000 		.4byte	.LFB47
 5751 0084 34000000 		.4byte	.LFE47-.LFB47
 5752 0088 00000000 		.4byte	.LFB48
 5753 008c FC000000 		.4byte	.LFE48-.LFB48
 5754 0090 00000000 		.4byte	.LFB49
 5755 0094 AA000000 		.4byte	.LFE49-.LFB49
 5756 0098 00000000 		.4byte	.LFB50
 5757 009c 7A000000 		.4byte	.LFE50-.LFB50
 5758 00a0 00000000 		.4byte	.LFB51
 5759 00a4 78000000 		.4byte	.LFE51-.LFB51
 5760 00a8 00000000 		.4byte	.LFB32
 5761 00ac 8C000000 		.4byte	.LFE32-.LFB32
 5762 00b0 00000000 		.4byte	.LFB52
 5763 00b4 5A000000 		.4byte	.LFE52-.LFB52
 5764 00b8 00000000 		.4byte	.LFB53
 5765 00bc 62000000 		.4byte	.LFE53-.LFB53
 5766 00c0 00000000 		.4byte	.LFB54
 5767 00c4 74000000 		.4byte	.LFE54-.LFB54
 5768 00c8 00000000 		.4byte	0
 5769 00cc 00000000 		.4byte	0
 5770              		.section	.debug_ranges,"",%progbits
 5771              	.Ldebug_ranges0:
 5772 0000 00000000 		.4byte	.LFB41
 5773 0004 70000000 		.4byte	.LFE41
 5774 0008 00000000 		.4byte	.LFB42
 5775 000c 8C000000 		.4byte	.LFE42
 5776 0010 00000000 		.4byte	.LFB33
 5777 0014 0C000000 		.4byte	.LFE33
 5778 0018 00000000 		.4byte	.LFB36
 5779 001c 80000000 		.4byte	.LFE36
 5780 0020 00000000 		.4byte	.LFB37
 5781 0024 1C000000 		.4byte	.LFE37
 5782 0028 00000000 		.4byte	.LFB34
 5783 002c 54000000 		.4byte	.LFE34
 5784 0030 00000000 		.4byte	.LFB35
 5785 0034 2C000000 		.4byte	.LFE35
 5786 0038 00000000 		.4byte	.LFB38
ARM GAS  C:\Users\JAMESS~1\AppData\Local\Temp\ccSFa4Kp.s 			page 126


 5787 003c 0C000000 		.4byte	.LFE38
 5788 0040 00000000 		.4byte	.LFB39
 5789 0044 0C000000 		.4byte	.LFE39
 5790 0048 00000000 		.4byte	.LFB40
 5791 004c 24000000 		.4byte	.LFE40
 5792 0050 00000000 		.4byte	.LFB44
 5793 0054 2C000000 		.4byte	.LFE44
 5794 0058 00000000 		.4byte	.LFB43
 5795 005c 0E000000 		.4byte	.LFE43
 5796 0060 00000000 		.4byte	.LFB45
 5797 0064 24000000 		.4byte	.LFE45
 5798 0068 00000000 		.4byte	.LFB46
 5799 006c 24000000 		.4byte	.LFE46
 5800 0070 00000000 		.4byte	.LFB47
 5801 0074 34000000 		.4byte	.LFE47
 5802 0078 00000000 		.4byte	.LFB48
 5803 007c FC000000 		.4byte	.LFE48
 5804 0080 00000000 		.4byte	.LFB49
 5805 0084 AA000000 		.4byte	.LFE49
 5806 0088 00000000 		.4byte	.LFB50
 5807 008c 7A000000 		.4byte	.LFE50
 5808 0090 00000000 		.4byte	.LFB51
 5809 0094 78000000 		.4byte	.LFE51
 5810 0098 00000000 		.4byte	.LFB32
 5811 009c 8C000000 		.4byte	.LFE32
 5812 00a0 00000000 		.4byte	.LFB52
 5813 00a4 5A000000 		.4byte	.LFE52
 5814 00a8 00000000 		.4byte	.LFB53
 5815 00ac 62000000 		.4byte	.LFE53
 5816 00b0 00000000 		.4byte	.LFB54
 5817 00b4 74000000 		.4byte	.LFE54
 5818 00b8 00000000 		.4byte	0
 5819 00bc 00000000 		.4byte	0
 5820              		.section	.debug_line,"",%progbits
 5821              	.Ldebug_line0:
 5822 0000 C3030000 		.section	.debug_str,"MS",%progbits,1
 5822      0200A700 
 5822      00000201 
 5822      FB0E0D00 
 5822      01010101 
 5823              	.LASF36:
 5824 0000 53747269 		.ascii	"StripLights_CLUT\000"
 5824      704C6967 
 5824      6874735F 
 5824      434C5554 
 5824      00
 5825              	.LASF27:
 5826 0011 45784372 		.ascii	"ExCriticalFunc\000"
 5826      69746963 
 5826      616C4675 
 5826      6E6300
 5827              	.LASF14:
 5828 0020 63686172 		.ascii	"char\000"
 5828      00
 5829              	.LASF42:
 5830 0025 53747269 		.ascii	"StripLights_GetPixel\000"
 5830      704C6967 
ARM GAS  C:\Users\JAMESS~1\AppData\Local\Temp\ccSFa4Kp.s 			page 127


 5830      6874735F 
 5830      47657450 
 5830      6978656C 
 5831              	.LASF20:
 5832 003a 53747269 		.ascii	"StripLights_DimShift\000"
 5832      704C6967 
 5832      6874735F 
 5832      44696D53 
 5832      68696674 
 5833              	.LASF2:
 5834 004f 73686F72 		.ascii	"short int\000"
 5834      7420696E 
 5834      7400
 5835              	.LASF23:
 5836 0059 636F6C6F 		.ascii	"color\000"
 5836      7200
 5837              	.LASF24:
 5838 005f 53747269 		.ascii	"StripLights_refreshComplete\000"
 5838      704C6967 
 5838      6874735F 
 5838      72656672 
 5838      65736843 
 5839              	.LASF76:
 5840 007b 53747269 		.ascii	"StripLights_SetFont\000"
 5840      704C6967 
 5840      6874735F 
 5840      53657446 
 5840      6F6E7400 
 5841              	.LASF51:
 5842 008f 53747269 		.ascii	"StripLights_DrawRect\000"
 5842      704C6967 
 5842      6874735F 
 5842      44726177 
 5842      52656374 
 5843              	.LASF82:
 5844 00a4 47656E65 		.ascii	"Generated_Source\\PSoC4\\StripLights.c\000"
 5844      72617465 
 5844      645F536F 
 5844      75726365 
 5844      5C50536F 
 5845              	.LASF71:
 5846 00c9 53747269 		.ascii	"StripLights_ledArray\000"
 5846      704C6967 
 5846      6874735F 
 5846      6C656441 
 5846      72726179 
 5847              	.LASF77:
 5848 00de 53747269 		.ascii	"StripLights_cisr_StartEx\000"
 5848      704C6967 
 5848      6874735F 
 5848      63697372 
 5848      5F537461 
 5849              	.LASF30:
 5850 00f7 64656C61 		.ascii	"delay\000"
 5850      7900
 5851              	.LASF69:
 5852 00fd 53747269 		.ascii	"StripLights_EnterCritical\000"
ARM GAS  C:\Users\JAMESS~1\AppData\Local\Temp\ccSFa4Kp.s 			page 128


 5852      704C6967 
 5852      6874735F 
 5852      456E7465 
 5852      72437269 
 5853              	.LASF74:
 5854 0117 53747269 		.ascii	"StripLights_gamma\000"
 5854      704C6967 
 5854      6874735F 
 5854      67616D6D 
 5854      6100
 5855              	.LASF52:
 5856 0129 66696C6C 		.ascii	"fill\000"
 5856      00
 5857              	.LASF81:
 5858 012e 474E5520 		.ascii	"GNU C11 5.4.1 20160609 (release) [ARM/embedded-5-br"
 5858      43313120 
 5858      352E342E 
 5858      31203230 
 5858      31363036 
 5859 0161 616E6368 		.ascii	"anch revision 237715] -mcpu=cortex-m0 -mthumb -g -O"
 5859      20726576 
 5859      6973696F 
 5859      6E203233 
 5859      37373135 
 5860 0194 67202D66 		.ascii	"g -ffunction-sections -ffat-lto-objects\000"
 5860      66756E63 
 5860      74696F6E 
 5860      2D736563 
 5860      74696F6E 
 5861              	.LASF19:
 5862 01bc 53747269 		.ascii	"StripLights_DimMask\000"
 5862      704C6967 
 5862      6874735F 
 5862      44696D4D 
 5862      61736B00 
 5863              	.LASF40:
 5864 01d0 53747269 		.ascii	"StripLights_WriteColor\000"
 5864      704C6967 
 5864      6874735F 
 5864      57726974 
 5864      65436F6C 
 5865              	.LASF31:
 5866 01e7 746F436F 		.ascii	"toCount\000"
 5866      756E7400 
 5867              	.LASF9:
 5868 01ef 75696E74 		.ascii	"uint8\000"
 5868      3800
 5869              	.LASF29:
 5870 01f5 53747269 		.ascii	"StripLights_TriggerWaitDelay\000"
 5870      704C6967 
 5870      6874735F 
 5870      54726967 
 5870      67657257 
 5871              	.LASF57:
 5872 0212 53747269 		.ascii	"StripLights_initvar\000"
 5872      704C6967 
 5872      6874735F 
ARM GAS  C:\Users\JAMESS~1\AppData\Local\Temp\ccSFa4Kp.s 			page 129


 5872      696E6974 
 5872      76617200 
 5873              	.LASF28:
 5874 0226 53747269 		.ascii	"StripLights_Trigger\000"
 5874      704C6967 
 5874      6874735F 
 5874      54726967 
 5874      67657200 
 5875              	.LASF66:
 5876 023a 66726F6D 		.ascii	"fromColor\000"
 5876      436F6C6F 
 5876      7200
 5877              	.LASF0:
 5878 0244 7369676E 		.ascii	"signed char\000"
 5878      65642063 
 5878      68617200 
 5879              	.LASF12:
 5880 0250 666C6F61 		.ascii	"float\000"
 5880      7400
 5881              	.LASF32:
 5882 0256 53747269 		.ascii	"StripLights_TriggerWait\000"
 5882      704C6967 
 5882      6874735F 
 5882      54726967 
 5882      67657257 
 5883              	.LASF6:
 5884 026e 6C6F6E67 		.ascii	"long long int\000"
 5884      206C6F6E 
 5884      6720696E 
 5884      7400
 5885              	.LASF46:
 5886 027c 6464465F 		.ascii	"ddF_y\000"
 5886      7900
 5887              	.LASF60:
 5888 0282 75706461 		.ascii	"update\000"
 5888      746500
 5889              	.LASF4:
 5890 0289 6C6F6E67 		.ascii	"long int\000"
 5890      20696E74 
 5890      00
 5891              	.LASF64:
 5892 0292 53747269 		.ascii	"StripLights_Bplot32\000"
 5892      704C6967 
 5892      6874735F 
 5892      42706C6F 
 5892      74333200 
 5893              	.LASF62:
 5894 02a6 6D617858 		.ascii	"maxX\000"
 5894      00
 5895              	.LASF18:
 5896 02ab 6C6F6E67 		.ascii	"long double\000"
 5896      20646F75 
 5896      626C6500 
 5897              	.LASF75:
 5898 02b7 43794465 		.ascii	"CyDelayUs\000"
 5898      6C617955 
 5898      7300
ARM GAS  C:\Users\JAMESS~1\AppData\Local\Temp\ccSFa4Kp.s 			page 130


 5899              	.LASF1:
 5900 02c1 756E7369 		.ascii	"unsigned char\000"
 5900      676E6564 
 5900      20636861 
 5900      7200
 5901              	.LASF34:
 5902 02cf 53747269 		.ascii	"StripLights_ColorInc\000"
 5902      704C6967 
 5902      6874735F 
 5902      436F6C6F 
 5902      72496E63 
 5903              	.LASF43:
 5904 02e4 53747269 		.ascii	"StripLights_DrawCircle\000"
 5904      704C6967 
 5904      6874735F 
 5904      44726177 
 5904      43697263 
 5905              	.LASF37:
 5906 02fb 636F6C6F 		.ascii	"colorIndex\000"
 5906      72496E64 
 5906      657800
 5907              	.LASF63:
 5908 0306 6D617859 		.ascii	"maxY\000"
 5908      00
 5909              	.LASF7:
 5910 030b 6C6F6E67 		.ascii	"long long unsigned int\000"
 5910      206C6F6E 
 5910      6720756E 
 5910      7369676E 
 5910      65642069 
 5911              	.LASF67:
 5912 0322 746F436F 		.ascii	"toColor\000"
 5912      6C6F7200 
 5913              	.LASF79:
 5914 032a 53747269 		.ascii	"StripLights_cisr_SetPriority\000"
 5914      704C6967 
 5914      6874735F 
 5914      63697372 
 5914      5F536574 
 5915              	.LASF8:
 5916 0347 756E7369 		.ascii	"unsigned int\000"
 5916      676E6564 
 5916      20696E74 
 5916      00
 5917              	.LASF5:
 5918 0354 6C6F6E67 		.ascii	"long unsigned int\000"
 5918      20756E73 
 5918      69676E65 
 5918      6420696E 
 5918      7400
 5919              	.LASF55:
 5920 0366 64696D4C 		.ascii	"dimLevel\000"
 5920      6576656C 
 5920      00
 5921              	.LASF38:
 5922 036f 53747269 		.ascii	"StripLights_MemClear\000"
 5922      704C6967 
ARM GAS  C:\Users\JAMESS~1\AppData\Local\Temp\ccSFa4Kp.s 			page 131


 5922      6874735F 
 5922      4D656D43 
 5922      6C656172 
 5923              	.LASF72:
 5924 0384 53747269 		.ascii	"StripLights_ledIndex\000"
 5924      704C6967 
 5924      6874735F 
 5924      6C656449 
 5924      6E646578 
 5925              	.LASF54:
 5926 0399 53747269 		.ascii	"StripLights_Dim\000"
 5926      704C6967 
 5926      6874735F 
 5926      44696D00 
 5927              	.LASF50:
 5928 03a9 66726163 		.ascii	"fraction\000"
 5928      74696F6E 
 5928      00
 5929              	.LASF48:
 5930 03b2 73746570 		.ascii	"stepx\000"
 5930      7800
 5931              	.LASF49:
 5932 03b8 73746570 		.ascii	"stepy\000"
 5932      7900
 5933              	.LASF84:
 5934 03be 53747269 		.ascii	"StripLights_Ready\000"
 5934      704C6967 
 5934      6874735F 
 5934      52656164 
 5934      7900
 5935              	.LASF33:
 5936 03d0 53747269 		.ascii	"StripLights_getColor\000"
 5936      704C6967 
 5936      6874735F 
 5936      67657443 
 5936      6F6C6F72 
 5937              	.LASF3:
 5938 03e5 73686F72 		.ascii	"short unsigned int\000"
 5938      7420756E 
 5938      7369676E 
 5938      65642069 
 5938      6E7400
 5939              	.LASF39:
 5940 03f8 53747269 		.ascii	"StripLights_DisplayClear\000"
 5940      704C6967 
 5940      6874735F 
 5940      44697370 
 5940      6C617943 
 5941              	.LASF35:
 5942 0411 696E6356 		.ascii	"incValue\000"
 5942      616C7565 
 5942      00
 5943              	.LASF25:
 5944 041a 53747269 		.ascii	"StripLights_SetCriticalFuncs\000"
 5944      704C6967 
 5944      6874735F 
 5944      53657443 
ARM GAS  C:\Users\JAMESS~1\AppData\Local\Temp\ccSFa4Kp.s 			page 132


 5944      72697469 
 5945              	.LASF70:
 5946 0437 53747269 		.ascii	"StripLights_ExitCritical\000"
 5946      704C6967 
 5946      6874735F 
 5946      45786974 
 5946      43726974 
 5947              	.LASF10:
 5948 0450 75696E74 		.ascii	"uint32\000"
 5948      333200
 5949              	.LASF53:
 5950 0457 78446966 		.ascii	"xDiff\000"
 5950      6600
 5951              	.LASF15:
 5952 045d 72656738 		.ascii	"reg8\000"
 5952      00
 5953              	.LASF78:
 5954 0462 53747269 		.ascii	"StripLights_fisr_StartEx\000"
 5954      704C6967 
 5954      6874735F 
 5954      66697372 
 5954      5F537461 
 5955              	.LASF45:
 5956 047b 6464465F 		.ascii	"ddF_x\000"
 5956      7800
 5957              	.LASF11:
 5958 0481 696E7433 		.ascii	"int32\000"
 5958      3200
 5959              	.LASF58:
 5960 0487 53747269 		.ascii	"StripLights_Bplot8\000"
 5960      704C6967 
 5960      6874735F 
 5960      42706C6F 
 5960      743800
 5961              	.LASF22:
 5962 049a 53747269 		.ascii	"StripLights_CISR\000"
 5962      704C6967 
 5962      6874735F 
 5962      43495352 
 5962      00
 5963              	.LASF85:
 5964 04ab 53747269 		.ascii	"StripLights_Stop\000"
 5964      704C6967 
 5964      6874735F 
 5964      53746F70 
 5964      00
 5965              	.LASF21:
 5966 04bc 53747269 		.ascii	"StripLights_FISR\000"
 5966      704C6967 
 5966      6874735F 
 5966      46495352 
 5966      00
 5967              	.LASF80:
 5968 04cd 53747269 		.ascii	"StripLights_fisr_SetPriority\000"
 5968      704C6967 
 5968      6874735F 
 5968      66697372 
ARM GAS  C:\Users\JAMESS~1\AppData\Local\Temp\ccSFa4Kp.s 			page 133


 5968      5F536574 
 5969              	.LASF83:
 5970 04ea 433A5C55 		.ascii	"C:\\Users\\James Sun\\Desktop\\FunWithLEDs\\EX2_1St"
 5970      73657273 
 5970      5C4A616D 
 5970      65732053 
 5970      756E5C44 
 5971 0518 72696E67 		.ascii	"ring.cydsn\000"
 5971      2E637964 
 5971      736E00
 5972              	.LASF61:
 5973 0523 61696E64 		.ascii	"aindex\000"
 5973      657800
 5974              	.LASF41:
 5975 052a 53747269 		.ascii	"StripLights_Pixel\000"
 5975      704C6967 
 5975      6874735F 
 5975      50697865 
 5975      6C00
 5976              	.LASF17:
 5977 053c 73697A65 		.ascii	"sizetype\000"
 5977      74797065 
 5977      00
 5978              	.LASF26:
 5979 0545 456E4372 		.ascii	"EnCriticalFunc\000"
 5979      69746963 
 5979      616C4675 
 5979      6E6300
 5980              	.LASF13:
 5981 0554 646F7562 		.ascii	"double\000"
 5981      6C6500
 5982              	.LASF56:
 5983 055b 53747269 		.ascii	"StripLights_Start\000"
 5983      704C6967 
 5983      6874735F 
 5983      53746172 
 5983      7400
 5984              	.LASF44:
 5985 056d 72616469 		.ascii	"radius\000"
 5985      757300
 5986              	.LASF73:
 5987 0574 53747269 		.ascii	"StripLights_row\000"
 5987      704C6967 
 5987      6874735F 
 5987      726F7700 
 5988              	.LASF16:
 5989 0584 66756E63 		.ascii	"funcPtr\000"
 5989      50747200 
 5990              	.LASF68:
 5991 058c 6E657743 		.ascii	"newColor\000"
 5991      6F6C6F72 
 5991      00
 5992              	.LASF59:
 5993 0595 6269744D 		.ascii	"bitMap\000"
 5993      617000
 5994              	.LASF47:
 5995 059c 53747269 		.ascii	"StripLights_DrawLine\000"
ARM GAS  C:\Users\JAMESS~1\AppData\Local\Temp\ccSFa4Kp.s 			page 134


 5995      704C6967 
 5995      6874735F 
 5995      44726177 
 5995      4C696E65 
 5996              	.LASF65:
 5997 05b1 53747269 		.ascii	"StripLights_RgbBlend\000"
 5997      704C6967 
 5997      6874735F 
 5997      52676242 
 5997      6C656E64 
 5998              		.ident	"GCC: (GNU Tools for ARM Embedded Processors) 5.4.1 20160609 (release) [ARM/embedded-5-bran
