ARM GAS  C:\Users\JAMESS~1\AppData\Local\Temp\cctbQCCl.s 			page 1


   1              		.syntax unified
   2              		.cpu cortex-m0
   3              		.fpu softvfp
   4              		.eabi_attribute 20, 1
   5              		.eabi_attribute 21, 1
   6              		.eabi_attribute 23, 3
   7              		.eabi_attribute 24, 1
   8              		.eabi_attribute 25, 1
   9              		.eabi_attribute 26, 1
  10              		.eabi_attribute 30, 1
  11              		.eabi_attribute 34, 0
  12              		.eabi_attribute 18, 4
  13              		.thumb
  14              		.syntax unified
  15              		.file	"Button.c"
  16              		.text
  17              	.Ltext0:
  18              		.cfi_sections	.debug_frame
  19              		.section	.text.Button_Write,"ax",%progbits
  20              		.align	2
  21              		.global	Button_Write
  22              		.code	16
  23              		.thumb_func
  24              		.type	Button_Write, %function
  25              	Button_Write:
  26              	.LFB0:
  27              		.file 1 "Generated_Source\\PSoC4\\Button.c"
   1:Generated_Source\PSoC4/Button.c **** /*******************************************************************************
   2:Generated_Source\PSoC4/Button.c **** * File Name: Button.c  
   3:Generated_Source\PSoC4/Button.c **** * Version 1.90
   4:Generated_Source\PSoC4/Button.c **** *
   5:Generated_Source\PSoC4/Button.c **** * Description:
   6:Generated_Source\PSoC4/Button.c **** *  This file contains API to enable firmware control of a Pins component.
   7:Generated_Source\PSoC4/Button.c **** *
   8:Generated_Source\PSoC4/Button.c **** * Note:
   9:Generated_Source\PSoC4/Button.c **** *
  10:Generated_Source\PSoC4/Button.c **** ********************************************************************************
  11:Generated_Source\PSoC4/Button.c **** * Copyright 2008-2012, Cypress Semiconductor Corporation.  All rights reserved.
  12:Generated_Source\PSoC4/Button.c **** * You may use this file only in accordance with the license, terms, conditions, 
  13:Generated_Source\PSoC4/Button.c **** * disclaimers, and limitations in the end user license agreement accompanying 
  14:Generated_Source\PSoC4/Button.c **** * the software package with which this file was provided.
  15:Generated_Source\PSoC4/Button.c **** *******************************************************************************/
  16:Generated_Source\PSoC4/Button.c **** 
  17:Generated_Source\PSoC4/Button.c **** #include "cytypes.h"
  18:Generated_Source\PSoC4/Button.c **** #include "Button.h"
  19:Generated_Source\PSoC4/Button.c **** 
  20:Generated_Source\PSoC4/Button.c **** #define SetP4PinDriveMode(shift, mode)  \
  21:Generated_Source\PSoC4/Button.c ****     do { \
  22:Generated_Source\PSoC4/Button.c ****         Button_PC =   (Button_PC & \
  23:Generated_Source\PSoC4/Button.c ****                                 (uint32)(~(uint32)(Button_DRIVE_MODE_IND_MASK << (Button_DRIVE_MODE
  24:Generated_Source\PSoC4/Button.c ****                                 (uint32)((uint32)(mode) << (Button_DRIVE_MODE_BITS * (shift))); \
  25:Generated_Source\PSoC4/Button.c ****     } while (0)
  26:Generated_Source\PSoC4/Button.c **** 
  27:Generated_Source\PSoC4/Button.c **** 
  28:Generated_Source\PSoC4/Button.c **** /*******************************************************************************
  29:Generated_Source\PSoC4/Button.c **** * Function Name: Button_Write
  30:Generated_Source\PSoC4/Button.c **** ********************************************************************************
ARM GAS  C:\Users\JAMESS~1\AppData\Local\Temp\cctbQCCl.s 			page 2


  31:Generated_Source\PSoC4/Button.c **** *
  32:Generated_Source\PSoC4/Button.c **** * Summary:
  33:Generated_Source\PSoC4/Button.c **** *  Assign a new value to the digital port's data output register.  
  34:Generated_Source\PSoC4/Button.c **** *
  35:Generated_Source\PSoC4/Button.c **** * Parameters:  
  36:Generated_Source\PSoC4/Button.c **** *  prtValue:  The value to be assigned to the Digital Port. 
  37:Generated_Source\PSoC4/Button.c **** *
  38:Generated_Source\PSoC4/Button.c **** * Return: 
  39:Generated_Source\PSoC4/Button.c **** *  None 
  40:Generated_Source\PSoC4/Button.c **** *  
  41:Generated_Source\PSoC4/Button.c **** *******************************************************************************/
  42:Generated_Source\PSoC4/Button.c **** void Button_Write(uint8 value) 
  43:Generated_Source\PSoC4/Button.c **** {
  28              		.loc 1 43 0
  29              		.cfi_startproc
  30              		@ args = 0, pretend = 0, frame = 0
  31              		@ frame_needed = 0, uses_anonymous_args = 0
  32              		@ link register save eliminated.
  33              	.LVL0:
  44:Generated_Source\PSoC4/Button.c ****     uint8 drVal = (uint8)(Button_DR & (uint8)(~Button_MASK));
  34              		.loc 1 44 0
  35 0000 0449     		ldr	r1, .L2
  36 0002 0A68     		ldr	r2, [r1]
  37 0004 7F23     		movs	r3, #127
  38 0006 1A40     		ands	r2, r3
  39              	.LVL1:
  45:Generated_Source\PSoC4/Button.c ****     drVal = (drVal | ((uint8)(value << Button_SHIFT) & Button_MASK));
  40              		.loc 1 45 0
  41 0008 C301     		lsls	r3, r0, #7
  42 000a D8B2     		uxtb	r0, r3
  43              	.LVL2:
  44 000c 1043     		orrs	r0, r2
  45              	.LVL3:
  46:Generated_Source\PSoC4/Button.c ****     Button_DR = (uint32)drVal;
  46              		.loc 1 46 0
  47 000e 0860     		str	r0, [r1]
  47:Generated_Source\PSoC4/Button.c **** }
  48              		.loc 1 47 0
  49              		@ sp needed
  50 0010 7047     		bx	lr
  51              	.L3:
  52 0012 C046     		.align	2
  53              	.L2:
  54 0014 00000440 		.word	1074003968
  55              		.cfi_endproc
  56              	.LFE0:
  57              		.size	Button_Write, .-Button_Write
  58              		.section	.text.Button_SetDriveMode,"ax",%progbits
  59              		.align	2
  60              		.global	Button_SetDriveMode
  61              		.code	16
  62              		.thumb_func
  63              		.type	Button_SetDriveMode, %function
  64              	Button_SetDriveMode:
  65              	.LFB1:
  48:Generated_Source\PSoC4/Button.c **** 
  49:Generated_Source\PSoC4/Button.c **** 
ARM GAS  C:\Users\JAMESS~1\AppData\Local\Temp\cctbQCCl.s 			page 3


  50:Generated_Source\PSoC4/Button.c **** /*******************************************************************************
  51:Generated_Source\PSoC4/Button.c **** * Function Name: Button_SetDriveMode
  52:Generated_Source\PSoC4/Button.c **** ********************************************************************************
  53:Generated_Source\PSoC4/Button.c **** *
  54:Generated_Source\PSoC4/Button.c **** * Summary:
  55:Generated_Source\PSoC4/Button.c **** *  Change the drive mode on the pins of the port.
  56:Generated_Source\PSoC4/Button.c **** * 
  57:Generated_Source\PSoC4/Button.c **** * Parameters:  
  58:Generated_Source\PSoC4/Button.c **** *  mode:  Change the pins to this drive mode.
  59:Generated_Source\PSoC4/Button.c **** *
  60:Generated_Source\PSoC4/Button.c **** * Return: 
  61:Generated_Source\PSoC4/Button.c **** *  None
  62:Generated_Source\PSoC4/Button.c **** *
  63:Generated_Source\PSoC4/Button.c **** *******************************************************************************/
  64:Generated_Source\PSoC4/Button.c **** void Button_SetDriveMode(uint8 mode) 
  65:Generated_Source\PSoC4/Button.c **** {
  66              		.loc 1 65 0
  67              		.cfi_startproc
  68              		@ args = 0, pretend = 0, frame = 0
  69              		@ frame_needed = 0, uses_anonymous_args = 0
  70              		@ link register save eliminated.
  71              	.LVL4:
  66:Generated_Source\PSoC4/Button.c **** 	SetP4PinDriveMode(Button__0__SHIFT, mode);
  72              		.loc 1 66 0
  73 0000 034A     		ldr	r2, .L5
  74 0002 1168     		ldr	r1, [r2]
  75 0004 034B     		ldr	r3, .L5+4
  76 0006 0B40     		ands	r3, r1
  77 0008 4005     		lsls	r0, r0, #21
  78              	.LVL5:
  79 000a 1843     		orrs	r0, r3
  80 000c 1060     		str	r0, [r2]
  67:Generated_Source\PSoC4/Button.c **** }
  81              		.loc 1 67 0
  82              		@ sp needed
  83 000e 7047     		bx	lr
  84              	.L6:
  85              		.align	2
  86              	.L5:
  87 0010 08000440 		.word	1074003976
  88 0014 FFFF1FFF 		.word	-14680065
  89              		.cfi_endproc
  90              	.LFE1:
  91              		.size	Button_SetDriveMode, .-Button_SetDriveMode
  92              		.section	.text.Button_Read,"ax",%progbits
  93              		.align	2
  94              		.global	Button_Read
  95              		.code	16
  96              		.thumb_func
  97              		.type	Button_Read, %function
  98              	Button_Read:
  99              	.LFB2:
  68:Generated_Source\PSoC4/Button.c **** 
  69:Generated_Source\PSoC4/Button.c **** 
  70:Generated_Source\PSoC4/Button.c **** /*******************************************************************************
  71:Generated_Source\PSoC4/Button.c **** * Function Name: Button_Read
  72:Generated_Source\PSoC4/Button.c **** ********************************************************************************
ARM GAS  C:\Users\JAMESS~1\AppData\Local\Temp\cctbQCCl.s 			page 4


  73:Generated_Source\PSoC4/Button.c **** *
  74:Generated_Source\PSoC4/Button.c **** * Summary:
  75:Generated_Source\PSoC4/Button.c **** *  Read the current value on the pins of the Digital Port in right justified 
  76:Generated_Source\PSoC4/Button.c **** *  form.
  77:Generated_Source\PSoC4/Button.c **** *
  78:Generated_Source\PSoC4/Button.c **** * Parameters:  
  79:Generated_Source\PSoC4/Button.c **** *  None 
  80:Generated_Source\PSoC4/Button.c **** *
  81:Generated_Source\PSoC4/Button.c **** * Return: 
  82:Generated_Source\PSoC4/Button.c **** *  Returns the current value of the Digital Port as a right justified number
  83:Generated_Source\PSoC4/Button.c **** *  
  84:Generated_Source\PSoC4/Button.c **** * Note:
  85:Generated_Source\PSoC4/Button.c **** *  Macro Button_ReadPS calls this function. 
  86:Generated_Source\PSoC4/Button.c **** *  
  87:Generated_Source\PSoC4/Button.c **** *******************************************************************************/
  88:Generated_Source\PSoC4/Button.c **** uint8 Button_Read(void) 
  89:Generated_Source\PSoC4/Button.c **** {
 100              		.loc 1 89 0
 101              		.cfi_startproc
 102              		@ args = 0, pretend = 0, frame = 0
 103              		@ frame_needed = 0, uses_anonymous_args = 0
 104              		@ link register save eliminated.
  90:Generated_Source\PSoC4/Button.c ****     return (uint8)((Button_PS & Button_MASK) >> Button_SHIFT);
 105              		.loc 1 90 0
 106 0000 024B     		ldr	r3, .L8
 107 0002 1868     		ldr	r0, [r3]
 108 0004 C009     		lsrs	r0, r0, #7
 109 0006 0123     		movs	r3, #1
 110 0008 1840     		ands	r0, r3
  91:Generated_Source\PSoC4/Button.c **** }
 111              		.loc 1 91 0
 112              		@ sp needed
 113 000a 7047     		bx	lr
 114              	.L9:
 115              		.align	2
 116              	.L8:
 117 000c 04000440 		.word	1074003972
 118              		.cfi_endproc
 119              	.LFE2:
 120              		.size	Button_Read, .-Button_Read
 121              		.section	.text.Button_ReadDataReg,"ax",%progbits
 122              		.align	2
 123              		.global	Button_ReadDataReg
 124              		.code	16
 125              		.thumb_func
 126              		.type	Button_ReadDataReg, %function
 127              	Button_ReadDataReg:
 128              	.LFB3:
  92:Generated_Source\PSoC4/Button.c **** 
  93:Generated_Source\PSoC4/Button.c **** 
  94:Generated_Source\PSoC4/Button.c **** /*******************************************************************************
  95:Generated_Source\PSoC4/Button.c **** * Function Name: Button_ReadDataReg
  96:Generated_Source\PSoC4/Button.c **** ********************************************************************************
  97:Generated_Source\PSoC4/Button.c **** *
  98:Generated_Source\PSoC4/Button.c **** * Summary:
  99:Generated_Source\PSoC4/Button.c **** *  Read the current value assigned to a Digital Port's data output register
 100:Generated_Source\PSoC4/Button.c **** *
ARM GAS  C:\Users\JAMESS~1\AppData\Local\Temp\cctbQCCl.s 			page 5


 101:Generated_Source\PSoC4/Button.c **** * Parameters:  
 102:Generated_Source\PSoC4/Button.c **** *  None 
 103:Generated_Source\PSoC4/Button.c **** *
 104:Generated_Source\PSoC4/Button.c **** * Return: 
 105:Generated_Source\PSoC4/Button.c **** *  Returns the current value assigned to the Digital Port's data output register
 106:Generated_Source\PSoC4/Button.c **** *  
 107:Generated_Source\PSoC4/Button.c **** *******************************************************************************/
 108:Generated_Source\PSoC4/Button.c **** uint8 Button_ReadDataReg(void) 
 109:Generated_Source\PSoC4/Button.c **** {
 129              		.loc 1 109 0
 130              		.cfi_startproc
 131              		@ args = 0, pretend = 0, frame = 0
 132              		@ frame_needed = 0, uses_anonymous_args = 0
 133              		@ link register save eliminated.
 110:Generated_Source\PSoC4/Button.c ****     return (uint8)((Button_DR & Button_MASK) >> Button_SHIFT);
 134              		.loc 1 110 0
 135 0000 024B     		ldr	r3, .L11
 136 0002 1868     		ldr	r0, [r3]
 137 0004 C009     		lsrs	r0, r0, #7
 138 0006 0123     		movs	r3, #1
 139 0008 1840     		ands	r0, r3
 111:Generated_Source\PSoC4/Button.c **** }
 140              		.loc 1 111 0
 141              		@ sp needed
 142 000a 7047     		bx	lr
 143              	.L12:
 144              		.align	2
 145              	.L11:
 146 000c 00000440 		.word	1074003968
 147              		.cfi_endproc
 148              	.LFE3:
 149              		.size	Button_ReadDataReg, .-Button_ReadDataReg
 150              		.section	.text.Button_ClearInterrupt,"ax",%progbits
 151              		.align	2
 152              		.global	Button_ClearInterrupt
 153              		.code	16
 154              		.thumb_func
 155              		.type	Button_ClearInterrupt, %function
 156              	Button_ClearInterrupt:
 157              	.LFB4:
 112:Generated_Source\PSoC4/Button.c **** 
 113:Generated_Source\PSoC4/Button.c **** 
 114:Generated_Source\PSoC4/Button.c **** /* If Interrupts Are Enabled for this Pins component */ 
 115:Generated_Source\PSoC4/Button.c **** #if defined(Button_INTSTAT) 
 116:Generated_Source\PSoC4/Button.c **** 
 117:Generated_Source\PSoC4/Button.c ****     /*******************************************************************************
 118:Generated_Source\PSoC4/Button.c ****     * Function Name: Button_ClearInterrupt
 119:Generated_Source\PSoC4/Button.c ****     ********************************************************************************
 120:Generated_Source\PSoC4/Button.c ****     *
 121:Generated_Source\PSoC4/Button.c ****     * Summary:
 122:Generated_Source\PSoC4/Button.c ****     *  Clears any active interrupts attached to port and returns the value of the 
 123:Generated_Source\PSoC4/Button.c ****     *  interrupt status register.
 124:Generated_Source\PSoC4/Button.c ****     *
 125:Generated_Source\PSoC4/Button.c ****     * Parameters:  
 126:Generated_Source\PSoC4/Button.c ****     *  None 
 127:Generated_Source\PSoC4/Button.c ****     *
 128:Generated_Source\PSoC4/Button.c ****     * Return: 
ARM GAS  C:\Users\JAMESS~1\AppData\Local\Temp\cctbQCCl.s 			page 6


 129:Generated_Source\PSoC4/Button.c ****     *  Returns the value of the interrupt status register
 130:Generated_Source\PSoC4/Button.c ****     *  
 131:Generated_Source\PSoC4/Button.c ****     *******************************************************************************/
 132:Generated_Source\PSoC4/Button.c ****     uint8 Button_ClearInterrupt(void) 
 133:Generated_Source\PSoC4/Button.c ****     {
 158              		.loc 1 133 0
 159              		.cfi_startproc
 160              		@ args = 0, pretend = 0, frame = 0
 161              		@ frame_needed = 0, uses_anonymous_args = 0
 162              		@ link register save eliminated.
 134:Generated_Source\PSoC4/Button.c **** 		uint8 maskedStatus = (uint8)(Button_INTSTAT & Button_MASK);
 163              		.loc 1 134 0
 164 0000 034B     		ldr	r3, .L14
 165 0002 1868     		ldr	r0, [r3]
 166 0004 C0B2     		uxtb	r0, r0
 167 0006 7F22     		movs	r2, #127
 168 0008 9043     		bics	r0, r2
 169              	.LVL6:
 135:Generated_Source\PSoC4/Button.c **** 		Button_INTSTAT = maskedStatus;
 170              		.loc 1 135 0
 171 000a 1860     		str	r0, [r3]
 136:Generated_Source\PSoC4/Button.c ****         return maskedStatus >> Button_SHIFT;
 172              		.loc 1 136 0
 173 000c C009     		lsrs	r0, r0, #7
 174              	.LVL7:
 137:Generated_Source\PSoC4/Button.c ****     }
 175              		.loc 1 137 0
 176              		@ sp needed
 177 000e 7047     		bx	lr
 178              	.L15:
 179              		.align	2
 180              	.L14:
 181 0010 10000440 		.word	1074003984
 182              		.cfi_endproc
 183              	.LFE4:
 184              		.size	Button_ClearInterrupt, .-Button_ClearInterrupt
 185              		.text
 186              	.Letext0:
 187              		.file 2 "Generated_Source\\PSoC4\\cytypes.h"