ARM GAS  C:\Users\JAMESS~1\AppData\Local\Temp\ccbhs4Fp.s 			page 1


   1              		.syntax unified
   2              		.cpu cortex-m0
   3              		.fpu softvfp
   4              		.eabi_attribute 20, 1
   5              		.eabi_attribute 21, 1
   6              		.eabi_attribute 23, 3
   7              		.eabi_attribute 24, 1
   8              		.eabi_attribute 25, 1
   9              		.eabi_attribute 26, 1
  10              		.eabi_attribute 30, 1
  11              		.eabi_attribute 34, 0
  12              		.eabi_attribute 18, 4
  13              		.thumb
  14              		.syntax unified
  15              		.file	"main.c"
  16              		.text
  17              	.Ltext0:
  18              		.cfi_sections	.debug_frame
  19              		.section	.text.SetTileColor,"ax",%progbits
  20              		.align	2
  21              		.global	SetTileColor
  22              		.code	16
  23              		.thumb_func
  24              		.type	SetTileColor, %function
  25              	SetTileColor:
  26              	.LFB36:
  27              		.file 1 "main.c"
   1:main.c        **** //#include "whackamole.h"
   2:main.c        **** 
   3:main.c        **** 
   4:main.c        **** #include "project.h"
   5:main.c        **** #include <stdlib.h>
   6:main.c        **** #include <time.h>
   7:main.c        ****     
   8:main.c        **** const int LEDS_PER_TILE = 60;
   9:main.c        **** uint8 button;
  10:main.c        **** uint8 flex0;
  11:main.c        **** uint8 flex1;
  12:main.c        **** uint8 flex2;
  13:main.c        **** uint8 flex3;
  14:main.c        **** int currentSet; //0 = fantastic floor, 1 = flood random lights throughout the board
  15:main.c        ****     
  16:main.c        **** void FantasticFloor();
  17:main.c        **** void DisplayNumber(int position, int number);
  18:main.c        **** void FancyLights();
  19:main.c        **** uint32 IncrementColor(uint32 color);
  20:main.c        **** void RunPattern();
  21:main.c        **** void SetTileColor(int tile_number, uint32 color);
  22:main.c        **** void ResetBlock();
  23:main.c        **** uint32 GetRandomColor();
  24:main.c        ****     
  25:main.c        **** 
  26:main.c        **** int main(void)
  27:main.c        **** {
  28:main.c        **** 	CyGlobalIntEnable; /* Enable global interrupts. */
  29:main.c        **** 
  30:main.c        ****     //start the interrupts
ARM GAS  C:\Users\JAMESS~1\AppData\Local\Temp\ccbhs4Fp.s 			page 2


  31:main.c        **** 	StripLights_Start();
  32:main.c        **** 	StripLights_Dim(1);
  33:main.c        ****     srand(time(NULL)); // seed the randomness with time
  34:main.c        ****     
  35:main.c        **** 
  36:main.c        ****     
  37:main.c        ****     for(int i = 0; i < 15; i++){
  38:main.c        ****         StripLights_Pixel(i, 0, StripLights_BLACK);
  39:main.c        ****     }
  40:main.c        ****     while (StripLights_Ready() == 0);
  41:main.c        **** 	StripLights_Trigger(1);
  42:main.c        **** 	CyDelay(10);
  43:main.c        ****     
  44:main.c        ****     
  45:main.c        ****     int i = 0;
  46:main.c        ****     while(1){
  47:main.c        ****         DisplayNumber(0, i);
  48:main.c        ****         i++;
  49:main.c        ****         CyDelay(1000);
  50:main.c        ****         if(i == 10)
  51:main.c        ****             i = 0;
  52:main.c        ****     }
  53:main.c        ****     
  54:main.c        **** //    ResetBlock();
  55:main.c        **** //    FantasticFloor();
  56:main.c        **** }
  57:main.c        **** 
  58:main.c        **** /**
  59:main.c        ****     OOH SHINEY LIGHTSSSS
  60:main.c        **** */
  61:main.c        **** void FancyLights(){
  62:main.c        ****     for(;;){
  63:main.c        ****         
  64:main.c        ****         //First sequence of lights
  65:main.c        ****         for(int i = 0; i < 4; i++){
  66:main.c        ****             SetTileColor(i, GetRandomColor());
  67:main.c        ****             button = Button_Read();
  68:main.c        ****             //leave function if toggle button is set
  69:main.c        ****             if(!button){
  70:main.c        ****                 currentSet = 0;
  71:main.c        ****                 return;
  72:main.c        ****             }
  73:main.c        ****             CyDelay(800);
  74:main.c        ****         }
  75:main.c        ****         
  76:main.c        ****         //Second sequence
  77:main.c        ****         for(int k = 0; k < 2; k++){
  78:main.c        ****             for(int i = 0; i < 4; i++){
  79:main.c        ****                 for(int j = 0; j < LEDS_PER_TILE; j++){
  80:main.c        ****                     StripLights_Pixel(j, i, GetRandomColor());
  81:main.c        ****                     while (StripLights_Ready() == 0);
  82:main.c        ****             	    StripLights_Trigger(1);
  83:main.c        ****                     CyDelay(30);
  84:main.c        ****                     
  85:main.c        ****                     button = Button_Read();
  86:main.c        ****                     //leave function if toggle button is set
  87:main.c        ****                     if(!button){
ARM GAS  C:\Users\JAMESS~1\AppData\Local\Temp\ccbhs4Fp.s 			page 3


  88:main.c        ****                         currentSet = 0;
  89:main.c        ****                         return;
  90:main.c        ****                     }
  91:main.c        ****                 }
  92:main.c        ****             }
  93:main.c        ****         }
  94:main.c        ****         
  95:main.c        ****         //Last Sequence
  96:main.c        ****         uint32 color = StripLights_RED;
  97:main.c        ****         for(int j = 0; j < 7; j++){
  98:main.c        ****             for(int i = 0; i < 4; i++){
  99:main.c        ****                 SetTileColor(i, color);
 100:main.c        ****             }
 101:main.c        ****             color = IncrementColor(color);
 102:main.c        ****             CyDelay(100);
 103:main.c        ****             button = Button_Read();
 104:main.c        ****             //leave function if toggle button is set
 105:main.c        ****             if(!button){
 106:main.c        ****                 currentSet = 0;
 107:main.c        ****                 return;
 108:main.c        ****             }
 109:main.c        ****         }
 110:main.c        ****     }
 111:main.c        **** }
 112:main.c        **** 
 113:main.c        **** /**
 114:main.c        **** When a block is pressed, light it up with a random color from the rainbow
 115:main.c        **** Break and leave function if the p0.7 button is pressed
 116:main.c        **** */
 117:main.c        **** void FantasticFloor(){
 118:main.c        ****     for(;;){
 119:main.c        ****         //read the digital inputs
 120:main.c        ****         button = Button_Read();
 121:main.c        ****         flex0 = flex0_Read();
 122:main.c        ****         flex1 = flex1_Read();
 123:main.c        ****         flex2 = flex2_Read();
 124:main.c        ****         flex3 = flex3_Read();
 125:main.c        ****         
 126:main.c        ****         //leave function if toggle button is set
 127:main.c        ****         if(!button){
 128:main.c        ****             currentSet = 1;
 129:main.c        **** //            return;
 130:main.c        ****         }
 131:main.c        ****         
 132:main.c        ****         //otherwise, light the tiles that read flex inputs with a random color
 133:main.c        ****         if(!flex0)
 134:main.c        ****             SetTileColor(0, GetRandomColor());
 135:main.c        ****         else
 136:main.c        ****             SetTileColor(0, StripLights_DIM_WHITE);
 137:main.c        ****         if(!flex1)
 138:main.c        ****             SetTileColor(1, GetRandomColor());
 139:main.c        ****         else
 140:main.c        ****             SetTileColor(1, StripLights_DIM_WHITE);
 141:main.c        ****         if(!flex2)
 142:main.c        ****             SetTileColor(2, GetRandomColor());
 143:main.c        ****         else
 144:main.c        ****             SetTileColor(2, StripLights_DIM_WHITE);
ARM GAS  C:\Users\JAMESS~1\AppData\Local\Temp\ccbhs4Fp.s 			page 4


 145:main.c        ****         if(!flex3)
 146:main.c        ****             SetTileColor(3, GetRandomColor());
 147:main.c        ****         else
 148:main.c        ****             SetTileColor(3, StripLights_DIM_WHITE);
 149:main.c        ****         
 150:main.c        ****     }
 151:main.c        **** }
 152:main.c        **** 
 153:main.c        **** 
 154:main.c        **** 
 155:main.c        **** /**
 156:main.c        **** Runs the LED pattern where light moves along the line
 157:main.c        **** And then goes back, changes colors every time it gets to an edge
 158:main.c        **** */
 159:main.c        **** void RunPattern(){
 160:main.c        ****     //start the pattern at red
 161:main.c        ****     uint32 current_color = StripLights_RED;
 162:main.c        ****     for(;;){
 163:main.c        ****         //going forward
 164:main.c        ****         for(int i = 0; i < 15; i++){
 165:main.c        ****             //reset the colors for both strips
 166:main.c        ****         	SetTileColor(0, 0);
 167:main.c        ****         	SetTileColor(1, 0);
 168:main.c        ****             CyDelay(10);
 169:main.c        ****         	StripLights_Pixel(i, 0, current_color);
 170:main.c        ****         	StripLights_Pixel(i, 1, current_color);
 171:main.c        ****         	while (StripLights_Ready() == 0);
 172:main.c        ****         	StripLights_Trigger(1);
 173:main.c        ****         }
 174:main.c        ****         current_color = IncrementColor(current_color);
 175:main.c        ****         //coming back
 176:main.c        ****         for(int i = 13; i >= 1; i--){
 177:main.c        ****             SetTileColor(0, 0);
 178:main.c        ****         	SetTileColor(1, 0);
 179:main.c        ****             CyDelay(10);
 180:main.c        ****         	StripLights_Pixel(i, 0, current_color);
 181:main.c        ****         	StripLights_Pixel(i, 1, current_color);
 182:main.c        ****         	while (StripLights_Ready() == 0);
 183:main.c        ****         	StripLights_Trigger(1);
 184:main.c        ****         }
 185:main.c        ****         current_color = IncrementColor(current_color);
 186:main.c        ****     }
 187:main.c        **** }
 188:main.c        **** 
 189:main.c        **** 
 190:main.c        **** /**
 191:main.c        **** This function will set the lights inside the block number to be a certain color.
 192:main.c        **** Changes are assumemd to be the first 60 LEDs, 
 193:main.c        **** The block number is set to be the "y" coordinate in the top down design
 194:main.c        **** Remember to put a CyDelay after setting colors
 195:main.c        **** */
 196:main.c        **** void SetTileColor(int tile_number, uint32 color) {
  28              		.loc 1 196 0
  29              		.cfi_startproc
  30              		@ args = 0, pretend = 0, frame = 0
  31              		@ frame_needed = 0, uses_anonymous_args = 0
  32              	.LVL0:
ARM GAS  C:\Users\JAMESS~1\AppData\Local\Temp\ccbhs4Fp.s 			page 5


  33 0000 70B5     		push	{r4, r5, r6, lr}
  34              		.cfi_def_cfa_offset 16
  35              		.cfi_offset 4, -16
  36              		.cfi_offset 5, -12
  37              		.cfi_offset 6, -8
  38              		.cfi_offset 14, -4
  39 0002 0600     		movs	r6, r0
  40 0004 0D00     		movs	r5, r1
  41              	.LVL1:
  42              	.LBB2:
 197:main.c        **** 	for (uint32 led = 0; led < LEDS_PER_TILE; led++) {
  43              		.loc 1 197 0
  44 0006 0024     		movs	r4, #0
  45 0008 05E0     		b	.L2
  46              	.LVL2:
  47              	.L3:
 198:main.c        **** 		StripLights_Pixel(led, tile_number, color);
  48              		.loc 1 198 0 discriminator 3
  49 000a 2A00     		movs	r2, r5
  50 000c 3100     		movs	r1, r6
  51 000e 2000     		movs	r0, r4
  52 0010 FFF7FEFF 		bl	StripLights_Pixel
  53              	.LVL3:
 197:main.c        **** 	for (uint32 led = 0; led < LEDS_PER_TILE; led++) {
  54              		.loc 1 197 0 discriminator 3
  55 0014 0134     		adds	r4, r4, #1
  56              	.LVL4:
  57              	.L2:
 197:main.c        **** 	for (uint32 led = 0; led < LEDS_PER_TILE; led++) {
  58              		.loc 1 197 0 is_stmt 0 discriminator 1
  59 0016 3B2C     		cmp	r4, #59
  60 0018 F7D9     		bls	.L3
  61              	.L4:
  62              	.LBE2:
 199:main.c        **** 	}
 200:main.c        **** 
 201:main.c        ****     while (StripLights_Ready() == 0);
  63              		.loc 1 201 0 is_stmt 1 discriminator 1
  64 001a FFF7FEFF 		bl	StripLights_Ready
  65              	.LVL5:
  66 001e 0028     		cmp	r0, #0
  67 0020 FBD0     		beq	.L4
 202:main.c        **** 	StripLights_Trigger(1);
  68              		.loc 1 202 0
  69 0022 0120     		movs	r0, #1
  70 0024 FFF7FEFF 		bl	StripLights_Trigger
  71              	.LVL6:
 203:main.c        **** 	CyDelay(10);
  72              		.loc 1 203 0
  73 0028 0A20     		movs	r0, #10
  74 002a FFF7FEFF 		bl	CyDelay
  75              	.LVL7:
 204:main.c        **** }
  76              		.loc 1 204 0
  77              		@ sp needed
  78              	.LVL8:
  79              	.LVL9:
ARM GAS  C:\Users\JAMESS~1\AppData\Local\Temp\ccbhs4Fp.s 			page 6


  80              	.LVL10:
  81 002e 70BD     		pop	{r4, r5, r6, pc}
  82              		.cfi_endproc
  83              	.LFE36:
  84              		.size	SetTileColor, .-SetTileColor
  85              		.section	.text.IncrementColor,"ax",%progbits
  86              		.align	2
  87              		.global	IncrementColor
  88              		.code	16
  89              		.thumb_func
  90              		.type	IncrementColor, %function
  91              	IncrementColor:
  92              	.LFB37:
 205:main.c        **** 
 206:main.c        **** /**
 207:main.c        **** This function will "increment" the color such that it goes through the rainbow
 208:main.c        **** Then it will return the color as a uint32
 209:main.c        **** */
 210:main.c        **** uint32 IncrementColor(uint32 color){
  93              		.loc 1 210 0
  94              		.cfi_startproc
  95              		@ args = 0, pretend = 0, frame = 16
  96              		@ frame_needed = 0, uses_anonymous_args = 0
  97              	.LVL11:
  98 0000 F0B5     		push	{r4, r5, r6, r7, lr}
  99              		.cfi_def_cfa_offset 20
 100              		.cfi_offset 4, -20
 101              		.cfi_offset 5, -16
 102              		.cfi_offset 6, -12
 103              		.cfi_offset 7, -8
 104              		.cfi_offset 14, -4
 105 0002 85B0     		sub	sp, sp, #20
 106              		.cfi_def_cfa_offset 40
 107 0004 0600     		movs	r6, r0
 211:main.c        ****     //the colors of the rainbow
 212:main.c        **** 	uint32 color1 = StripLights_RED;
 108              		.loc 1 212 0
 109 0006 4820     		movs	r0, #72
 110              	.LVL12:
 111 0008 FFF7FEFF 		bl	StripLights_getColor
 112              	.LVL13:
 113 000c 0700     		movs	r7, r0
 114              	.LVL14:
 213:main.c        **** 	uint32 color2 = StripLights_ORANGE;
 115              		.loc 1 213 0
 116 000e 1420     		movs	r0, #20
 117              	.LVL15:
 118 0010 FFF7FEFF 		bl	StripLights_getColor
 119              	.LVL16:
 120 0014 0400     		movs	r4, r0
 121              	.LVL17:
 214:main.c        ****     uint32 color3 = StripLights_YELLOW;
 122              		.loc 1 214 0
 123 0016 0120     		movs	r0, #1
 124              	.LVL18:
 125 0018 FFF7FEFF 		bl	StripLights_getColor
 126              	.LVL19:
ARM GAS  C:\Users\JAMESS~1\AppData\Local\Temp\ccbhs4Fp.s 			page 7


 127 001c 0500     		movs	r5, r0
 128              	.LVL20:
 215:main.c        ****     uint32 color4 = StripLights_GREEN;
 129              		.loc 1 215 0
 130 001e 5E20     		movs	r0, #94
 131              	.LVL21:
 132 0020 FFF7FEFF 		bl	StripLights_getColor
 133              	.LVL22:
 134 0024 0190     		str	r0, [sp, #4]
 135              	.LVL23:
 216:main.c        ****     uint32 color5 = StripLights_BLUE;
 136              		.loc 1 216 0
 137 0026 1B20     		movs	r0, #27
 138              	.LVL24:
 139 0028 FFF7FEFF 		bl	StripLights_getColor
 140              	.LVL25:
 141 002c 0290     		str	r0, [sp, #8]
 142              	.LVL26:
 217:main.c        ****     uint32 color6 = StripLights_VIOLET;
 143              		.loc 1 217 0
 144 002e 5C20     		movs	r0, #92
 145              	.LVL27:
 146 0030 FFF7FEFF 		bl	StripLights_getColor
 147              	.LVL28:
 148 0034 0390     		str	r0, [sp, #12]
 149              	.LVL29:
 218:main.c        ****     uint32 color7 = StripLights_WHITE;
 150              		.loc 1 218 0
 151 0036 5720     		movs	r0, #87
 152              	.LVL30:
 153 0038 FFF7FEFF 		bl	StripLights_getColor
 154              	.LVL31:
 219:main.c        ****     
 220:main.c        ****     if(color == color1)return color2;
 155              		.loc 1 220 0
 156 003c B742     		cmp	r7, r6
 157 003e 0DD0     		beq	.L7
 221:main.c        ****     else if(color == color2)return color3;
 158              		.loc 1 221 0
 159 0040 B442     		cmp	r4, r6
 160 0042 0DD0     		beq	.L8
 222:main.c        ****     else if(color == color3)return color4;
 161              		.loc 1 222 0
 162 0044 B542     		cmp	r5, r6
 163 0046 0DD0     		beq	.L9
 223:main.c        ****     else if(color == color4)return color5;
 164              		.loc 1 223 0
 165 0048 019B     		ldr	r3, [sp, #4]
 166 004a B342     		cmp	r3, r6
 167 004c 0CD0     		beq	.L10
 224:main.c        ****     else if(color == color5)return color6;
 168              		.loc 1 224 0
 169 004e 029B     		ldr	r3, [sp, #8]
 170 0050 B342     		cmp	r3, r6
 171 0052 0BD0     		beq	.L11
 225:main.c        ****     else if (color == color6) return color7;
 172              		.loc 1 225 0
ARM GAS  C:\Users\JAMESS~1\AppData\Local\Temp\ccbhs4Fp.s 			page 8


 173 0054 039B     		ldr	r3, [sp, #12]
 174 0056 B342     		cmp	r3, r6
 175 0058 0AD1     		bne	.L12
 176 005a 0AE0     		b	.L6
 177              	.L7:
 220:main.c        ****     else if(color == color2)return color3;
 178              		.loc 1 220 0
 179 005c 2000     		movs	r0, r4
 180              	.LVL32:
 181 005e 08E0     		b	.L6
 182              	.LVL33:
 183              	.L8:
 221:main.c        ****     else if(color == color3)return color4;
 184              		.loc 1 221 0
 185 0060 2800     		movs	r0, r5
 186              	.LVL34:
 187 0062 06E0     		b	.L6
 188              	.LVL35:
 189              	.L9:
 222:main.c        ****     else if(color == color4)return color5;
 190              		.loc 1 222 0
 191 0064 0198     		ldr	r0, [sp, #4]
 192              	.LVL36:
 193 0066 04E0     		b	.L6
 194              	.LVL37:
 195              	.L10:
 223:main.c        ****     else if(color == color5)return color6;
 196              		.loc 1 223 0
 197 0068 0298     		ldr	r0, [sp, #8]
 198              	.LVL38:
 199 006a 02E0     		b	.L6
 200              	.LVL39:
 201              	.L11:
 224:main.c        ****     else if (color == color6) return color7;
 202              		.loc 1 224 0
 203 006c 0398     		ldr	r0, [sp, #12]
 204              	.LVL40:
 205 006e 00E0     		b	.L6
 206              	.LVL41:
 207              	.L12:
 226:main.c        ****     else return color1;
 208              		.loc 1 226 0
 209 0070 3800     		movs	r0, r7
 210              	.LVL42:
 211              	.L6:
 227:main.c        **** }
 212              		.loc 1 227 0
 213 0072 05B0     		add	sp, sp, #20
 214              		@ sp needed
 215              	.LVL43:
 216              	.LVL44:
 217              	.LVL45:
 218              	.LVL46:
 219 0074 F0BD     		pop	{r4, r5, r6, r7, pc}
 220              		.cfi_endproc
 221              	.LFE37:
 222              		.size	IncrementColor, .-IncrementColor
ARM GAS  C:\Users\JAMESS~1\AppData\Local\Temp\ccbhs4Fp.s 			page 9


 223 0076 C046     		.section	.text.RunPattern,"ax",%progbits
 224              		.align	2
 225              		.global	RunPattern
 226              		.code	16
 227              		.thumb_func
 228              		.type	RunPattern, %function
 229              	RunPattern:
 230              	.LFB35:
 159:main.c        ****     //start the pattern at red
 231              		.loc 1 159 0
 232              		.cfi_startproc
 233              		@ args = 0, pretend = 0, frame = 0
 234              		@ frame_needed = 0, uses_anonymous_args = 0
 235 0000 70B5     		push	{r4, r5, r6, lr}
 236              		.cfi_def_cfa_offset 16
 237              		.cfi_offset 4, -16
 238              		.cfi_offset 5, -12
 239              		.cfi_offset 6, -8
 240              		.cfi_offset 14, -4
 161:main.c        ****     for(;;){
 241              		.loc 1 161 0
 242 0002 4820     		movs	r0, #72
 243 0004 FFF7FEFF 		bl	StripLights_getColor
 244              	.LVL47:
 245 0008 0500     		movs	r5, r0
 246              	.LVL48:
 247              	.L20:
 248              	.LBB3:
 164:main.c        ****             //reset the colors for both strips
 249              		.loc 1 164 0
 250 000a 0024     		movs	r4, #0
 251 000c 1CE0     		b	.L14
 252              	.LVL49:
 253              	.L16:
 166:main.c        ****         	SetTileColor(1, 0);
 254              		.loc 1 166 0
 255 000e 0021     		movs	r1, #0
 256 0010 0020     		movs	r0, #0
 257 0012 FFF7FEFF 		bl	SetTileColor
 258              	.LVL50:
 167:main.c        ****             CyDelay(10);
 259              		.loc 1 167 0
 260 0016 0021     		movs	r1, #0
 261 0018 0120     		movs	r0, #1
 262 001a FFF7FEFF 		bl	SetTileColor
 263              	.LVL51:
 168:main.c        ****         	StripLights_Pixel(i, 0, current_color);
 264              		.loc 1 168 0
 265 001e 0A20     		movs	r0, #10
 266 0020 FFF7FEFF 		bl	CyDelay
 267              	.LVL52:
 169:main.c        ****         	StripLights_Pixel(i, 1, current_color);
 268              		.loc 1 169 0
 269 0024 2A00     		movs	r2, r5
 270 0026 0021     		movs	r1, #0
 271 0028 2000     		movs	r0, r4
 272 002a FFF7FEFF 		bl	StripLights_Pixel
ARM GAS  C:\Users\JAMESS~1\AppData\Local\Temp\ccbhs4Fp.s 			page 10


 273              	.LVL53:
 170:main.c        ****         	while (StripLights_Ready() == 0);
 274              		.loc 1 170 0
 275 002e 2A00     		movs	r2, r5
 276 0030 0121     		movs	r1, #1
 277 0032 2000     		movs	r0, r4
 278 0034 FFF7FEFF 		bl	StripLights_Pixel
 279              	.LVL54:
 280              	.L15:
 171:main.c        ****         	StripLights_Trigger(1);
 281              		.loc 1 171 0 discriminator 1
 282 0038 FFF7FEFF 		bl	StripLights_Ready
 283              	.LVL55:
 284 003c 0028     		cmp	r0, #0
 285 003e FBD0     		beq	.L15
 172:main.c        ****         }
 286              		.loc 1 172 0 discriminator 2
 287 0040 0120     		movs	r0, #1
 288 0042 FFF7FEFF 		bl	StripLights_Trigger
 289              	.LVL56:
 164:main.c        ****             //reset the colors for both strips
 290              		.loc 1 164 0 discriminator 2
 291 0046 0134     		adds	r4, r4, #1
 292              	.LVL57:
 293              	.L14:
 164:main.c        ****             //reset the colors for both strips
 294              		.loc 1 164 0 is_stmt 0 discriminator 1
 295 0048 0E2C     		cmp	r4, #14
 296 004a E0DD     		ble	.L16
 297              	.LBE3:
 174:main.c        ****         //coming back
 298              		.loc 1 174 0 is_stmt 1
 299 004c 2800     		movs	r0, r5
 300 004e FFF7FEFF 		bl	IncrementColor
 301              	.LVL58:
 302 0052 0500     		movs	r5, r0
 303              	.LVL59:
 304              	.LBB4:
 176:main.c        ****             SetTileColor(0, 0);
 305              		.loc 1 176 0
 306 0054 0D24     		movs	r4, #13
 307              	.LVL60:
 308 0056 1CE0     		b	.L17
 309              	.LVL61:
 310              	.L19:
 177:main.c        ****         	SetTileColor(1, 0);
 311              		.loc 1 177 0
 312 0058 0021     		movs	r1, #0
 313 005a 0020     		movs	r0, #0
 314 005c FFF7FEFF 		bl	SetTileColor
 315              	.LVL62:
 178:main.c        ****             CyDelay(10);
 316              		.loc 1 178 0
 317 0060 0021     		movs	r1, #0
 318 0062 0120     		movs	r0, #1
 319 0064 FFF7FEFF 		bl	SetTileColor
 320              	.LVL63:
ARM GAS  C:\Users\JAMESS~1\AppData\Local\Temp\ccbhs4Fp.s 			page 11


 179:main.c        ****         	StripLights_Pixel(i, 0, current_color);
 321              		.loc 1 179 0
 322 0068 0A20     		movs	r0, #10
 323 006a FFF7FEFF 		bl	CyDelay
 324              	.LVL64:
 180:main.c        ****         	StripLights_Pixel(i, 1, current_color);
 325              		.loc 1 180 0
 326 006e 2A00     		movs	r2, r5
 327 0070 0021     		movs	r1, #0
 328 0072 2000     		movs	r0, r4
 329 0074 FFF7FEFF 		bl	StripLights_Pixel
 330              	.LVL65:
 181:main.c        ****         	while (StripLights_Ready() == 0);
 331              		.loc 1 181 0
 332 0078 2A00     		movs	r2, r5
 333 007a 0121     		movs	r1, #1
 334 007c 2000     		movs	r0, r4
 335 007e FFF7FEFF 		bl	StripLights_Pixel
 336              	.LVL66:
 337              	.L18:
 182:main.c        ****         	StripLights_Trigger(1);
 338              		.loc 1 182 0 discriminator 1
 339 0082 FFF7FEFF 		bl	StripLights_Ready
 340              	.LVL67:
 341 0086 0028     		cmp	r0, #0
 342 0088 FBD0     		beq	.L18
 183:main.c        ****         }
 343              		.loc 1 183 0 discriminator 2
 344 008a 0120     		movs	r0, #1
 345 008c FFF7FEFF 		bl	StripLights_Trigger
 346              	.LVL68:
 176:main.c        ****             SetTileColor(0, 0);
 347              		.loc 1 176 0 discriminator 2
 348 0090 013C     		subs	r4, r4, #1
 349              	.LVL69:
 350              	.L17:
 176:main.c        ****             SetTileColor(0, 0);
 351              		.loc 1 176 0 is_stmt 0 discriminator 1
 352 0092 002C     		cmp	r4, #0
 353 0094 E0DC     		bgt	.L19
 354              	.LBE4:
 185:main.c        ****     }
 355              		.loc 1 185 0 is_stmt 1
 356 0096 2800     		movs	r0, r5
 357 0098 FFF7FEFF 		bl	IncrementColor
 358              	.LVL70:
 359 009c 0500     		movs	r5, r0
 360              	.LVL71:
 186:main.c        **** }
 361              		.loc 1 186 0
 362 009e B4E7     		b	.L20
 363              		.cfi_endproc
 364              	.LFE35:
 365              		.size	RunPattern, .-RunPattern
 366              		.global	__aeabi_idivmod
 367              		.section	.text.GetRandomColor,"ax",%progbits
 368              		.align	2
ARM GAS  C:\Users\JAMESS~1\AppData\Local\Temp\ccbhs4Fp.s 			page 12


 369              		.global	GetRandomColor
 370              		.code	16
 371              		.thumb_func
 372              		.type	GetRandomColor, %function
 373              	GetRandomColor:
 374              	.LFB38:
 228:main.c        **** 
 229:main.c        **** //Returns a random color
 230:main.c        **** uint32 GetRandomColor(){
 375              		.loc 1 230 0
 376              		.cfi_startproc
 377              		@ args = 0, pretend = 0, frame = 0
 378              		@ frame_needed = 0, uses_anonymous_args = 0
 379 0000 10B5     		push	{r4, lr}
 380              		.cfi_def_cfa_offset 8
 381              		.cfi_offset 4, -8
 382              		.cfi_offset 14, -4
 231:main.c        ****     int random = rand() % 7;
 383              		.loc 1 231 0
 384 0002 FFF7FEFF 		bl	rand
 385              	.LVL72:
 386 0006 0721     		movs	r1, #7
 387 0008 FFF7FEFF 		bl	__aeabi_idivmod
 388              	.LVL73:
 232:main.c        ****     
 233:main.c        ****     switch(random){
 389              		.loc 1 233 0
 390 000c 0629     		cmp	r1, #6
 391 000e 1FD8     		bhi	.L31
 392 0010 8900     		lsls	r1, r1, #2
 393              	.LVL74:
 394 0012 104B     		ldr	r3, .L32
 395 0014 5B58     		ldr	r3, [r3, r1]
 396 0016 9F46     		mov	pc, r3
 397              		.section	.rodata
 398              		.align	2
 399              	.L24:
 400 0000 18000000 		.word	.L23
 401 0004 20000000 		.word	.L25
 402 0008 28000000 		.word	.L26
 403 000c 30000000 		.word	.L27
 404 0010 38000000 		.word	.L28
 405 0014 40000000 		.word	.L29
 406 0018 48000000 		.word	.L30
 407              		.section	.text.GetRandomColor
 408              	.L23:
 234:main.c        ****         case 0:
 235:main.c        ****             return StripLights_RED;
 409              		.loc 1 235 0
 410 0018 4820     		movs	r0, #72
 411 001a FFF7FEFF 		bl	StripLights_getColor
 412              	.LVL75:
 413 001e 18E0     		b	.L22
 414              	.L25:
 236:main.c        ****         case 1:
 237:main.c        ****             return StripLights_ORANGE;
 415              		.loc 1 237 0
ARM GAS  C:\Users\JAMESS~1\AppData\Local\Temp\ccbhs4Fp.s 			page 13


 416 0020 1420     		movs	r0, #20
 417 0022 FFF7FEFF 		bl	StripLights_getColor
 418              	.LVL76:
 419 0026 14E0     		b	.L22
 420              	.L26:
 238:main.c        ****         case 2:
 239:main.c        ****             return StripLights_YELLOW;
 421              		.loc 1 239 0
 422 0028 0120     		movs	r0, #1
 423 002a FFF7FEFF 		bl	StripLights_getColor
 424              	.LVL77:
 425 002e 10E0     		b	.L22
 426              	.L27:
 240:main.c        ****         case 3:
 241:main.c        ****             return StripLights_GREEN;
 427              		.loc 1 241 0
 428 0030 5E20     		movs	r0, #94
 429 0032 FFF7FEFF 		bl	StripLights_getColor
 430              	.LVL78:
 431 0036 0CE0     		b	.L22
 432              	.L28:
 242:main.c        ****         case 4:
 243:main.c        ****             return StripLights_BLUE;
 433              		.loc 1 243 0
 434 0038 1B20     		movs	r0, #27
 435 003a FFF7FEFF 		bl	StripLights_getColor
 436              	.LVL79:
 437 003e 08E0     		b	.L22
 438              	.L29:
 244:main.c        ****         case 5:
 245:main.c        ****             return StripLights_VIOLET;
 439              		.loc 1 245 0
 440 0040 5C20     		movs	r0, #92
 441 0042 FFF7FEFF 		bl	StripLights_getColor
 442              	.LVL80:
 443 0046 04E0     		b	.L22
 444              	.L30:
 246:main.c        ****         case 6:
 247:main.c        ****             return StripLights_WHITE;
 445              		.loc 1 247 0
 446 0048 5720     		movs	r0, #87
 447 004a FFF7FEFF 		bl	StripLights_getColor
 448              	.LVL81:
 449 004e 00E0     		b	.L22
 450              	.LVL82:
 451              	.L31:
 248:main.c        ****         default:
 249:main.c        ****             return 0;
 452              		.loc 1 249 0
 453 0050 0020     		movs	r0, #0
 454              	.LVL83:
 455              	.L22:
 250:main.c        ****     }
 251:main.c        **** }
 456              		.loc 1 251 0
 457              		@ sp needed
 458 0052 10BD     		pop	{r4, pc}
ARM GAS  C:\Users\JAMESS~1\AppData\Local\Temp\ccbhs4Fp.s 			page 14


 459              	.L33:
 460              		.align	2
 461              	.L32:
 462 0054 00000000 		.word	.L24
 463              		.cfi_endproc
 464              	.LFE38:
 465              		.size	GetRandomColor, .-GetRandomColor
 466              		.section	.text.FancyLights,"ax",%progbits
 467              		.align	2
 468              		.global	FancyLights
 469              		.code	16
 470              		.thumb_func
 471              		.type	FancyLights, %function
 472              	FancyLights:
 473              	.LFB33:
  61:main.c        ****     for(;;){
 474              		.loc 1 61 0
 475              		.cfi_startproc
 476              		@ args = 0, pretend = 0, frame = 0
 477              		@ frame_needed = 0, uses_anonymous_args = 0
 478 0000 70B5     		push	{r4, r5, r6, lr}
 479              		.cfi_def_cfa_offset 16
 480              		.cfi_offset 4, -16
 481              		.cfi_offset 5, -12
 482              		.cfi_offset 6, -8
 483              		.cfi_offset 14, -4
 484              	.L49:
 485              	.LVL84:
 486              	.LBB5:
 487              	.LBB6:
  65:main.c        ****             SetTileColor(i, GetRandomColor());
 488              		.loc 1 65 0
 489 0002 0024     		movs	r4, #0
 490 0004 14E0     		b	.L35
 491              	.LVL85:
 492              	.L38:
  66:main.c        ****             button = Button_Read();
 493              		.loc 1 66 0
 494 0006 FFF7FEFF 		bl	GetRandomColor
 495              	.LVL86:
 496 000a 0100     		movs	r1, r0
 497 000c 2000     		movs	r0, r4
 498 000e FFF7FEFF 		bl	SetTileColor
 499              	.LVL87:
  67:main.c        ****             //leave function if toggle button is set
 500              		.loc 1 67 0
 501 0012 FFF7FEFF 		bl	Button_Read
 502              	.LVL88:
 503 0016 2F4B     		ldr	r3, .L53
 504 0018 1870     		strb	r0, [r3]
  69:main.c        ****                 currentSet = 0;
 505              		.loc 1 69 0
 506 001a 0028     		cmp	r0, #0
 507 001c 03D1     		bne	.L36
  70:main.c        ****                 return;
 508              		.loc 1 70 0
 509 001e 0022     		movs	r2, #0
ARM GAS  C:\Users\JAMESS~1\AppData\Local\Temp\ccbhs4Fp.s 			page 15


 510 0020 2D4B     		ldr	r3, .L53+4
 511 0022 1A60     		str	r2, [r3]
  71:main.c        ****             }
 512              		.loc 1 71 0
 513 0024 54E0     		b	.L34
 514              	.L36:
  73:main.c        ****         }
 515              		.loc 1 73 0 discriminator 2
 516 0026 C820     		movs	r0, #200
 517 0028 8000     		lsls	r0, r0, #2
 518 002a FFF7FEFF 		bl	CyDelay
 519              	.LVL89:
  65:main.c        ****             SetTileColor(i, GetRandomColor());
 520              		.loc 1 65 0 discriminator 2
 521 002e 0134     		adds	r4, r4, #1
 522              	.LVL90:
 523              	.L35:
  65:main.c        ****             SetTileColor(i, GetRandomColor());
 524              		.loc 1 65 0 is_stmt 0 discriminator 1
 525 0030 032C     		cmp	r4, #3
 526 0032 E8DD     		ble	.L38
 527 0034 0026     		movs	r6, #0
 528 0036 25E0     		b	.L39
 529              	.LVL91:
 530              	.L42:
 531              	.LBE6:
 532              	.LBB7:
 533              	.LBB8:
 534              	.LBB9:
  80:main.c        ****                     while (StripLights_Ready() == 0);
 535              		.loc 1 80 0 is_stmt 1
 536 0038 FFF7FEFF 		bl	GetRandomColor
 537              	.LVL92:
 538 003c 0200     		movs	r2, r0
 539 003e 2900     		movs	r1, r5
 540 0040 2000     		movs	r0, r4
 541 0042 FFF7FEFF 		bl	StripLights_Pixel
 542              	.LVL93:
 543              	.L40:
  81:main.c        ****             	    StripLights_Trigger(1);
 544              		.loc 1 81 0 discriminator 1
 545 0046 FFF7FEFF 		bl	StripLights_Ready
 546              	.LVL94:
 547 004a 0028     		cmp	r0, #0
 548 004c FBD0     		beq	.L40
  82:main.c        ****                     CyDelay(30);
 549              		.loc 1 82 0
 550 004e 0120     		movs	r0, #1
 551 0050 FFF7FEFF 		bl	StripLights_Trigger
 552              	.LVL95:
  83:main.c        ****                     
 553              		.loc 1 83 0
 554 0054 1E20     		movs	r0, #30
 555 0056 FFF7FEFF 		bl	CyDelay
 556              	.LVL96:
  85:main.c        ****                     //leave function if toggle button is set
 557              		.loc 1 85 0
ARM GAS  C:\Users\JAMESS~1\AppData\Local\Temp\ccbhs4Fp.s 			page 16


 558 005a FFF7FEFF 		bl	Button_Read
 559              	.LVL97:
 560 005e 1D4B     		ldr	r3, .L53
 561 0060 1870     		strb	r0, [r3]
  87:main.c        ****                         currentSet = 0;
 562              		.loc 1 87 0
 563 0062 0028     		cmp	r0, #0
 564 0064 03D1     		bne	.L41
  88:main.c        ****                         return;
 565              		.loc 1 88 0
 566 0066 0022     		movs	r2, #0
 567 0068 1B4B     		ldr	r3, .L53+4
 568 006a 1A60     		str	r2, [r3]
  89:main.c        ****                     }
 569              		.loc 1 89 0
 570 006c 30E0     		b	.L34
 571              	.L41:
  79:main.c        ****                     StripLights_Pixel(j, i, GetRandomColor());
 572              		.loc 1 79 0 discriminator 2
 573 006e 0134     		adds	r4, r4, #1
 574              	.LVL98:
 575 0070 00E0     		b	.L43
 576              	.LVL99:
 577              	.L50:
 578              	.LBE9:
 579 0072 0024     		movs	r4, #0
 580              	.L43:
 581              	.LVL100:
 582              	.LBB10:
  79:main.c        ****                     StripLights_Pixel(j, i, GetRandomColor());
 583              		.loc 1 79 0 is_stmt 0 discriminator 1
 584 0074 3B2C     		cmp	r4, #59
 585 0076 DFDD     		ble	.L42
 586              	.LBE10:
  78:main.c        ****                 for(int j = 0; j < LEDS_PER_TILE; j++){
 587              		.loc 1 78 0 is_stmt 1 discriminator 2
 588 0078 0135     		adds	r5, r5, #1
 589              	.LVL101:
 590 007a 00E0     		b	.L44
 591              	.LVL102:
 592              	.L51:
 593              	.LBE8:
 594 007c 0025     		movs	r5, #0
 595              	.L44:
 596              	.LVL103:
 597              	.LBB11:
  78:main.c        ****                 for(int j = 0; j < LEDS_PER_TILE; j++){
 598              		.loc 1 78 0 is_stmt 0 discriminator 1
 599 007e 032D     		cmp	r5, #3
 600 0080 F7DD     		ble	.L50
 601              	.LBE11:
  77:main.c        ****             for(int i = 0; i < 4; i++){
 602              		.loc 1 77 0 is_stmt 1 discriminator 2
 603 0082 0136     		adds	r6, r6, #1
 604              	.LVL104:
 605              	.L39:
  77:main.c        ****             for(int i = 0; i < 4; i++){
ARM GAS  C:\Users\JAMESS~1\AppData\Local\Temp\ccbhs4Fp.s 			page 17


 606              		.loc 1 77 0 is_stmt 0 discriminator 1
 607 0084 012E     		cmp	r6, #1
 608 0086 F9DD     		ble	.L51
 609              	.LBE7:
  96:main.c        ****         for(int j = 0; j < 7; j++){
 610              		.loc 1 96 0 is_stmt 1
 611 0088 4820     		movs	r0, #72
 612 008a FFF7FEFF 		bl	StripLights_getColor
 613              	.LVL105:
 614 008e 0500     		movs	r5, r0
 615              	.LVL106:
 616              	.LBB12:
  97:main.c        ****             for(int i = 0; i < 4; i++){
 617              		.loc 1 97 0
 618 0090 0026     		movs	r6, #0
 619              	.LVL107:
 620 0092 1AE0     		b	.L45
 621              	.LVL108:
 622              	.L46:
 623              	.LBB13:
  99:main.c        ****             }
 624              		.loc 1 99 0 discriminator 3
 625 0094 2900     		movs	r1, r5
 626 0096 2000     		movs	r0, r4
 627 0098 FFF7FEFF 		bl	SetTileColor
 628              	.LVL109:
  98:main.c        ****                 SetTileColor(i, color);
 629              		.loc 1 98 0 discriminator 3
 630 009c 0134     		adds	r4, r4, #1
 631              	.LVL110:
 632 009e 00E0     		b	.L48
 633              	.LVL111:
 634              	.L52:
 635              	.LBE13:
 636 00a0 0024     		movs	r4, #0
 637              	.L48:
 638              	.LVL112:
 639              	.LBB14:
  98:main.c        ****                 SetTileColor(i, color);
 640              		.loc 1 98 0 is_stmt 0 discriminator 1
 641 00a2 032C     		cmp	r4, #3
 642 00a4 F6DD     		ble	.L46
 643              	.LBE14:
 101:main.c        ****             CyDelay(100);
 644              		.loc 1 101 0 is_stmt 1
 645 00a6 2800     		movs	r0, r5
 646 00a8 FFF7FEFF 		bl	IncrementColor
 647              	.LVL113:
 648 00ac 0500     		movs	r5, r0
 649              	.LVL114:
 102:main.c        ****             button = Button_Read();
 650              		.loc 1 102 0
 651 00ae 6420     		movs	r0, #100
 652              	.LVL115:
 653 00b0 FFF7FEFF 		bl	CyDelay
 654              	.LVL116:
 103:main.c        ****             //leave function if toggle button is set
ARM GAS  C:\Users\JAMESS~1\AppData\Local\Temp\ccbhs4Fp.s 			page 18


 655              		.loc 1 103 0
 656 00b4 FFF7FEFF 		bl	Button_Read
 657              	.LVL117:
 658 00b8 064B     		ldr	r3, .L53
 659 00ba 1870     		strb	r0, [r3]
 105:main.c        ****                 currentSet = 0;
 660              		.loc 1 105 0
 661 00bc 0028     		cmp	r0, #0
 662 00be 03D1     		bne	.L47
 106:main.c        ****                 return;
 663              		.loc 1 106 0
 664 00c0 0022     		movs	r2, #0
 665 00c2 054B     		ldr	r3, .L53+4
 666 00c4 1A60     		str	r2, [r3]
 107:main.c        ****             }
 667              		.loc 1 107 0
 668 00c6 03E0     		b	.L34
 669              	.L47:
  97:main.c        ****             for(int i = 0; i < 4; i++){
 670              		.loc 1 97 0 discriminator 2
 671 00c8 0136     		adds	r6, r6, #1
 672              	.LVL118:
 673              	.L45:
  97:main.c        ****             for(int i = 0; i < 4; i++){
 674              		.loc 1 97 0 is_stmt 0 discriminator 1
 675 00ca 062E     		cmp	r6, #6
 676 00cc E8DD     		ble	.L52
 677 00ce 98E7     		b	.L49
 678              	.LVL119:
 679              	.L34:
 680              	.LBE12:
 681              	.LBE5:
 111:main.c        **** 
 682              		.loc 1 111 0 is_stmt 1
 683              		@ sp needed
 684 00d0 70BD     		pop	{r4, r5, r6, pc}
 685              	.L54:
 686 00d2 C046     		.align	2
 687              	.L53:
 688 00d4 00000000 		.word	button
 689 00d8 00000000 		.word	currentSet
 690              		.cfi_endproc
 691              	.LFE33:
 692              		.size	FancyLights, .-FancyLights
 693              		.section	.text.FantasticFloor,"ax",%progbits
 694              		.align	2
 695              		.global	FantasticFloor
 696              		.code	16
 697              		.thumb_func
 698              		.type	FantasticFloor, %function
 699              	FantasticFloor:
 700              	.LFB34:
 117:main.c        ****     for(;;){
 701              		.loc 1 117 0
 702              		.cfi_startproc
 703              		@ Volatile: function does not return.
 704              		@ args = 0, pretend = 0, frame = 0
ARM GAS  C:\Users\JAMESS~1\AppData\Local\Temp\ccbhs4Fp.s 			page 19


 705              		@ frame_needed = 0, uses_anonymous_args = 0
 706 0000 10B5     		push	{r4, lr}
 707              		.cfi_def_cfa_offset 8
 708              		.cfi_offset 4, -8
 709              		.cfi_offset 14, -4
 710              	.L56:
 120:main.c        ****         flex0 = flex0_Read();
 711              		.loc 1 120 0
 712 0002 FFF7FEFF 		bl	Button_Read
 713              	.LVL120:
 714 0006 304C     		ldr	r4, .L66
 715 0008 2070     		strb	r0, [r4]
 121:main.c        ****         flex1 = flex1_Read();
 716              		.loc 1 121 0
 717 000a FFF7FEFF 		bl	flex0_Read
 718              	.LVL121:
 719 000e 2F4B     		ldr	r3, .L66+4
 720 0010 1870     		strb	r0, [r3]
 122:main.c        ****         flex2 = flex2_Read();
 721              		.loc 1 122 0
 722 0012 FFF7FEFF 		bl	flex1_Read
 723              	.LVL122:
 724 0016 2E4B     		ldr	r3, .L66+8
 725 0018 1870     		strb	r0, [r3]
 123:main.c        ****         flex3 = flex3_Read();
 726              		.loc 1 123 0
 727 001a FFF7FEFF 		bl	flex2_Read
 728              	.LVL123:
 729 001e 2D4B     		ldr	r3, .L66+12
 730 0020 1870     		strb	r0, [r3]
 124:main.c        ****         
 731              		.loc 1 124 0
 732 0022 FFF7FEFF 		bl	flex3_Read
 733              	.LVL124:
 734 0026 2C4B     		ldr	r3, .L66+16
 735 0028 1870     		strb	r0, [r3]
 127:main.c        ****             currentSet = 1;
 736              		.loc 1 127 0
 737 002a 2378     		ldrb	r3, [r4]
 738 002c 002B     		cmp	r3, #0
 739 002e 02D1     		bne	.L57
 128:main.c        **** //            return;
 740              		.loc 1 128 0
 741 0030 0122     		movs	r2, #1
 742 0032 2A4B     		ldr	r3, .L66+20
 743 0034 1A60     		str	r2, [r3]
 744              	.L57:
 133:main.c        ****             SetTileColor(0, GetRandomColor());
 745              		.loc 1 133 0
 746 0036 254B     		ldr	r3, .L66+4
 747 0038 1B78     		ldrb	r3, [r3]
 748 003a 002B     		cmp	r3, #0
 749 003c 06D1     		bne	.L58
 134:main.c        ****         else
 750              		.loc 1 134 0
 751 003e FFF7FEFF 		bl	GetRandomColor
 752              	.LVL125:
ARM GAS  C:\Users\JAMESS~1\AppData\Local\Temp\ccbhs4Fp.s 			page 20


 753 0042 0100     		movs	r1, r0
 754 0044 0020     		movs	r0, #0
 755 0046 FFF7FEFF 		bl	SetTileColor
 756              	.LVL126:
 757 004a 06E0     		b	.L59
 758              	.L58:
 136:main.c        ****         if(!flex1)
 759              		.loc 1 136 0
 760 004c 5F20     		movs	r0, #95
 761 004e FFF7FEFF 		bl	StripLights_getColor
 762              	.LVL127:
 763 0052 0100     		movs	r1, r0
 764 0054 0020     		movs	r0, #0
 765 0056 FFF7FEFF 		bl	SetTileColor
 766              	.LVL128:
 767              	.L59:
 137:main.c        ****             SetTileColor(1, GetRandomColor());
 768              		.loc 1 137 0
 769 005a 1D4B     		ldr	r3, .L66+8
 770 005c 1B78     		ldrb	r3, [r3]
 771 005e 002B     		cmp	r3, #0
 772 0060 06D1     		bne	.L60
 138:main.c        ****         else
 773              		.loc 1 138 0
 774 0062 FFF7FEFF 		bl	GetRandomColor
 775              	.LVL129:
 776 0066 0100     		movs	r1, r0
 777 0068 0120     		movs	r0, #1
 778 006a FFF7FEFF 		bl	SetTileColor
 779              	.LVL130:
 780 006e 06E0     		b	.L61
 781              	.L60:
 140:main.c        ****         if(!flex2)
 782              		.loc 1 140 0
 783 0070 5F20     		movs	r0, #95
 784 0072 FFF7FEFF 		bl	StripLights_getColor
 785              	.LVL131:
 786 0076 0100     		movs	r1, r0
 787 0078 0120     		movs	r0, #1
 788 007a FFF7FEFF 		bl	SetTileColor
 789              	.LVL132:
 790              	.L61:
 141:main.c        ****             SetTileColor(2, GetRandomColor());
 791              		.loc 1 141 0
 792 007e 154B     		ldr	r3, .L66+12
 793 0080 1B78     		ldrb	r3, [r3]
 794 0082 002B     		cmp	r3, #0
 795 0084 06D1     		bne	.L62
 142:main.c        ****         else
 796              		.loc 1 142 0
 797 0086 FFF7FEFF 		bl	GetRandomColor
 798              	.LVL133:
 799 008a 0100     		movs	r1, r0
 800 008c 0220     		movs	r0, #2
 801 008e FFF7FEFF 		bl	SetTileColor
 802              	.LVL134:
 803 0092 06E0     		b	.L63
ARM GAS  C:\Users\JAMESS~1\AppData\Local\Temp\ccbhs4Fp.s 			page 21


 804              	.L62:
 144:main.c        ****         if(!flex3)
 805              		.loc 1 144 0
 806 0094 5F20     		movs	r0, #95
 807 0096 FFF7FEFF 		bl	StripLights_getColor
 808              	.LVL135:
 809 009a 0100     		movs	r1, r0
 810 009c 0220     		movs	r0, #2
 811 009e FFF7FEFF 		bl	SetTileColor
 812              	.LVL136:
 813              	.L63:
 145:main.c        ****             SetTileColor(3, GetRandomColor());
 814              		.loc 1 145 0
 815 00a2 0D4B     		ldr	r3, .L66+16
 816 00a4 1B78     		ldrb	r3, [r3]
 817 00a6 002B     		cmp	r3, #0
 818 00a8 06D1     		bne	.L64
 146:main.c        ****         else
 819              		.loc 1 146 0
 820 00aa FFF7FEFF 		bl	GetRandomColor
 821              	.LVL137:
 822 00ae 0100     		movs	r1, r0
 823 00b0 0320     		movs	r0, #3
 824 00b2 FFF7FEFF 		bl	SetTileColor
 825              	.LVL138:
 826 00b6 A4E7     		b	.L56
 827              	.L64:
 148:main.c        ****         
 828              		.loc 1 148 0
 829 00b8 5F20     		movs	r0, #95
 830 00ba FFF7FEFF 		bl	StripLights_getColor
 831              	.LVL139:
 832 00be 0100     		movs	r1, r0
 833 00c0 0320     		movs	r0, #3
 834 00c2 FFF7FEFF 		bl	SetTileColor
 835              	.LVL140:
 836 00c6 9CE7     		b	.L56
 837              	.L67:
 838              		.align	2
 839              	.L66:
 840 00c8 00000000 		.word	button
 841 00cc 00000000 		.word	flex0
 842 00d0 00000000 		.word	flex1
 843 00d4 00000000 		.word	flex2
 844 00d8 00000000 		.word	flex3
 845 00dc 00000000 		.word	currentSet
 846              		.cfi_endproc
 847              	.LFE34:
 848              		.size	FantasticFloor, .-FantasticFloor
 849              		.section	.text.DisplayNumber,"ax",%progbits
 850              		.align	2
 851              		.global	DisplayNumber
 852              		.code	16
 853              		.thumb_func
 854              		.type	DisplayNumber, %function
 855              	DisplayNumber:
 856              	.LFB39:
ARM GAS  C:\Users\JAMESS~1\AppData\Local\Temp\ccbhs4Fp.s 			page 22


 252:main.c        **** 
 253:main.c        **** /*This function will display a number on the LEDs on the score display
 254:main.c        **** Parameters: 
 255:main.c        ****     position: which block to display it on
 256:main.c        ****     number: number to be shown
 257:main.c        **** */
 258:main.c        **** void DisplayNumber(int position, int number){
 857              		.loc 1 258 0
 858              		.cfi_startproc
 859              		@ args = 0, pretend = 0, frame = 600
 860              		@ frame_needed = 0, uses_anonymous_args = 0
 861              	.LVL141:
 862 0000 70B5     		push	{r4, r5, r6, lr}
 863              		.cfi_def_cfa_offset 16
 864              		.cfi_offset 4, -16
 865              		.cfi_offset 5, -12
 866              		.cfi_offset 6, -8
 867              		.cfi_offset 14, -4
 868 0002 CA4C     		ldr	r4, .L139
 869 0004 A544     		add	sp, sp, r4
 870              		.cfi_def_cfa_offset 616
 871 0006 0400     		movs	r4, r0
 872 0008 0E00     		movs	r6, r1
 259:main.c        ****     int zero[] = {1, 1, 1, 1, 1, 1, 0, 0, 0, 1, 1, 1, 1, 1, 1};
 873              		.loc 1 259 0
 874 000a C94D     		ldr	r5, .L139+4
 875 000c 3C22     		movs	r2, #60
 876 000e 2900     		movs	r1, r5
 877              	.LVL142:
 878 0010 87A8     		add	r0, sp, #540
 879              	.LVL143:
 880 0012 FFF7FEFF 		bl	memcpy
 881              	.LVL144:
 260:main.c        ****     int one[] = {1, 0, 0, 0, 1, 1, 1, 1, 1, 1, 1, 0, 0, 0, 0};
 882              		.loc 1 260 0
 883 0016 2900     		movs	r1, r5
 884 0018 3C31     		adds	r1, r1, #60
 885 001a 3C22     		movs	r2, #60
 886 001c 78A8     		add	r0, sp, #480
 887 001e FFF7FEFF 		bl	memcpy
 888              	.LVL145:
 261:main.c        ****     int two[] = {1, 1, 1, 0, 1, 1, 0, 1, 0, 1, 1, 0, 1, 1, 1};
 889              		.loc 1 261 0
 890 0022 2900     		movs	r1, r5
 891 0024 7831     		adds	r1, r1, #120
 892 0026 3C22     		movs	r2, #60
 893 0028 69A8     		add	r0, sp, #420
 894 002a FFF7FEFF 		bl	memcpy
 895              	.LVL146:
 262:main.c        ****     int three[] = {1, 0, 1, 0, 1, 1, 0, 1, 0, 1, 1, 1, 1, 1, 1};
 896              		.loc 1 262 0
 897 002e C14D     		ldr	r5, .L139+8
 898 0030 2900     		movs	r1, r5
 899 0032 3431     		adds	r1, r1, #52
 900 0034 3C22     		movs	r2, #60
 901 0036 5AA8     		add	r0, sp, #360
 902 0038 FFF7FEFF 		bl	memcpy
ARM GAS  C:\Users\JAMESS~1\AppData\Local\Temp\ccbhs4Fp.s 			page 23


 903              	.LVL147:
 263:main.c        ****     int four[] = {0, 0, 1, 1, 1, 0, 0, 1, 0, 0, 1, 1, 1, 1, 1};
 904              		.loc 1 263 0
 905 003c 2900     		movs	r1, r5
 906 003e 7031     		adds	r1, r1, #112
 907 0040 3C22     		movs	r2, #60
 908 0042 4BA8     		add	r0, sp, #300
 909 0044 FFF7FEFF 		bl	memcpy
 910              	.LVL148:
 264:main.c        ****     int five[] = {1, 0, 1, 1, 1, 1, 0, 1, 0, 1, 1, 1, 1, 0, 1};
 911              		.loc 1 264 0
 912 0048 BB4D     		ldr	r5, .L139+12
 913 004a 2900     		movs	r1, r5
 914 004c 2C31     		adds	r1, r1, #44
 915 004e 3C22     		movs	r2, #60
 916 0050 3CA8     		add	r0, sp, #240
 917 0052 FFF7FEFF 		bl	memcpy
 918              	.LVL149:
 265:main.c        ****     int six[] = {1, 1, 1, 1, 1, 1, 0, 1, 0, 1, 1, 1, 1, 0, 1};
 919              		.loc 1 265 0
 920 0056 2900     		movs	r1, r5
 921 0058 6831     		adds	r1, r1, #104
 922 005a 3C22     		movs	r2, #60
 923 005c 2DA8     		add	r0, sp, #180
 924 005e FFF7FEFF 		bl	memcpy
 925              	.LVL150:
 266:main.c        ****     int seven[] = {0, 0, 0, 1, 1, 0, 0, 0, 0, 1, 1, 1, 1, 1, 1};
 926              		.loc 1 266 0
 927 0062 B64D     		ldr	r5, .L139+16
 928 0064 2900     		movs	r1, r5
 929 0066 2431     		adds	r1, r1, #36
 930 0068 3C22     		movs	r2, #60
 931 006a 1EA8     		add	r0, sp, #120
 932 006c FFF7FEFF 		bl	memcpy
 933              	.LVL151:
 267:main.c        ****     int eight[] = {1, 1, 1, 1, 1, 1, 0, 1, 0, 1, 1, 1, 1, 1, 1};
 934              		.loc 1 267 0
 935 0070 2900     		movs	r1, r5
 936 0072 6031     		adds	r1, r1, #96
 937 0074 3C22     		movs	r2, #60
 938 0076 0FA8     		add	r0, sp, #60
 939 0078 FFF7FEFF 		bl	memcpy
 940              	.LVL152:
 268:main.c        ****     int nine[] = {1, 0, 1, 1, 1, 1, 0, 1, 0, 1, 1, 1, 1, 1, 1};
 941              		.loc 1 268 0
 942 007c 3C22     		movs	r2, #60
 943 007e B049     		ldr	r1, .L139+20
 944 0080 1C31     		adds	r1, r1, #28
 945 0082 6846     		mov	r0, sp
 946 0084 FFF7FEFF 		bl	memcpy
 947              	.LVL153:
 269:main.c        ****     
 270:main.c        ****     int arrayLen = 15;
 271:main.c        ****     if(number == 0){
 948              		.loc 1 271 0
 949 0088 002E     		cmp	r6, #0
 950 008a 18D0     		beq	.L129
ARM GAS  C:\Users\JAMESS~1\AppData\Local\Temp\ccbhs4Fp.s 			page 24


 951 008c 24E0     		b	.L70
 952              	.LVL154:
 953              	.L73:
 954              	.LBB15:
 272:main.c        ****             for(int i = 0; i < arrayLen; i++){
 273:main.c        ****                 if(zero[i] == 1){
 955              		.loc 1 273 0
 956 008e AB00     		lsls	r3, r5, #2
 957 0090 87AA     		add	r2, sp, #540
 958 0092 9B58     		ldr	r3, [r3, r2]
 959 0094 012B     		cmp	r3, #1
 960 0096 08D1     		bne	.L71
 274:main.c        ****                     StripLights_Pixel(i, position, StripLights_WHITE);
 961              		.loc 1 274 0
 962 0098 5720     		movs	r0, #87
 963 009a FFF7FEFF 		bl	StripLights_getColor
 964              	.LVL155:
 965 009e 0200     		movs	r2, r0
 966 00a0 2100     		movs	r1, r4
 967 00a2 2800     		movs	r0, r5
 968 00a4 FFF7FEFF 		bl	StripLights_Pixel
 969              	.LVL156:
 970 00a8 07E0     		b	.L72
 971              	.L71:
 275:main.c        ****                 }
 276:main.c        ****                 else{
 277:main.c        ****                     StripLights_Pixel(i, position, StripLights_BLACK);
 972              		.loc 1 277 0
 973 00aa 1820     		movs	r0, #24
 974 00ac FFF7FEFF 		bl	StripLights_getColor
 975              	.LVL157:
 976 00b0 0200     		movs	r2, r0
 977 00b2 2100     		movs	r1, r4
 978 00b4 2800     		movs	r0, r5
 979 00b6 FFF7FEFF 		bl	StripLights_Pixel
 980              	.LVL158:
 981              	.L72:
 272:main.c        ****                 if(zero[i] == 1){
 982              		.loc 1 272 0 discriminator 2
 983 00ba 0135     		adds	r5, r5, #1
 984              	.LVL159:
 985 00bc 00E0     		b	.L69
 986              	.LVL160:
 987              	.L129:
 988              	.LBE15:
 989 00be 0025     		movs	r5, #0
 990              	.L69:
 991              	.LVL161:
 992              	.LBB16:
 272:main.c        ****                 if(zero[i] == 1){
 993              		.loc 1 272 0 is_stmt 0 discriminator 1
 994 00c0 0E2D     		cmp	r5, #14
 995 00c2 E4DD     		ble	.L73
 996              	.L74:
 997              	.LBE16:
 278:main.c        ****                 }
 279:main.c        ****             }
ARM GAS  C:\Users\JAMESS~1\AppData\Local\Temp\ccbhs4Fp.s 			page 25


 280:main.c        ****             while (StripLights_Ready() == 0);
 998              		.loc 1 280 0 is_stmt 1 discriminator 1
 999 00c4 FFF7FEFF 		bl	StripLights_Ready
 1000              	.LVL162:
 1001 00c8 0028     		cmp	r0, #0
 1002 00ca FBD0     		beq	.L74
 281:main.c        ****         	StripLights_Trigger(1);
 1003              		.loc 1 281 0
 1004 00cc 0120     		movs	r0, #1
 1005 00ce FFF7FEFF 		bl	StripLights_Trigger
 1006              	.LVL163:
 282:main.c        ****         	CyDelay(10);
 1007              		.loc 1 282 0
 1008 00d2 0A20     		movs	r0, #10
 1009 00d4 FFF7FEFF 		bl	CyDelay
 1010              	.LVL164:
 1011              	.L70:
 283:main.c        ****     }
 284:main.c        ****     if(number == 1){
 1012              		.loc 1 284 0
 1013 00d8 012E     		cmp	r6, #1
 1014 00da 25D1     		bne	.L76
 1015 00dc 17E0     		b	.L130
 1016              	.LVL165:
 1017              	.L79:
 1018              	.LBB17:
 285:main.c        ****             for(int i = 0; i < arrayLen; i++){
 286:main.c        ****                 if(one[i] == 1){
 1019              		.loc 1 286 0
 1020 00de AB00     		lsls	r3, r5, #2
 1021 00e0 78AA     		add	r2, sp, #480
 1022 00e2 9B58     		ldr	r3, [r3, r2]
 1023 00e4 012B     		cmp	r3, #1
 1024 00e6 08D1     		bne	.L77
 287:main.c        ****                     StripLights_Pixel(i, position, StripLights_WHITE);
 1025              		.loc 1 287 0
 1026 00e8 5720     		movs	r0, #87
 1027 00ea FFF7FEFF 		bl	StripLights_getColor
 1028              	.LVL166:
 1029 00ee 0200     		movs	r2, r0
 1030 00f0 2100     		movs	r1, r4
 1031 00f2 2800     		movs	r0, r5
 1032 00f4 FFF7FEFF 		bl	StripLights_Pixel
 1033              	.LVL167:
 1034 00f8 07E0     		b	.L78
 1035              	.L77:
 288:main.c        ****                 }
 289:main.c        ****                 else{
 290:main.c        ****                     StripLights_Pixel(i, position, StripLights_BLACK);
 1036              		.loc 1 290 0
 1037 00fa 1820     		movs	r0, #24
 1038 00fc FFF7FEFF 		bl	StripLights_getColor
 1039              	.LVL168:
 1040 0100 0200     		movs	r2, r0
 1041 0102 2100     		movs	r1, r4
 1042 0104 2800     		movs	r0, r5
 1043 0106 FFF7FEFF 		bl	StripLights_Pixel
ARM GAS  C:\Users\JAMESS~1\AppData\Local\Temp\ccbhs4Fp.s 			page 26


 1044              	.LVL169:
 1045              	.L78:
 285:main.c        ****                 if(one[i] == 1){
 1046              		.loc 1 285 0 discriminator 2
 1047 010a 0135     		adds	r5, r5, #1
 1048              	.LVL170:
 1049 010c 00E0     		b	.L75
 1050              	.LVL171:
 1051              	.L130:
 1052              	.LBE17:
 1053 010e 0025     		movs	r5, #0
 1054              	.L75:
 1055              	.LVL172:
 1056              	.LBB18:
 285:main.c        ****                 if(one[i] == 1){
 1057              		.loc 1 285 0 is_stmt 0 discriminator 1
 1058 0110 0E2D     		cmp	r5, #14
 1059 0112 E4DD     		ble	.L79
 1060              	.L80:
 1061              	.LBE18:
 291:main.c        ****                 }
 292:main.c        ****             }
 293:main.c        ****             while (StripLights_Ready() == 0);
 1062              		.loc 1 293 0 is_stmt 1 discriminator 1
 1063 0114 FFF7FEFF 		bl	StripLights_Ready
 1064              	.LVL173:
 1065 0118 0028     		cmp	r0, #0
 1066 011a FBD0     		beq	.L80
 294:main.c        ****         	StripLights_Trigger(1);
 1067              		.loc 1 294 0
 1068 011c 0120     		movs	r0, #1
 1069 011e FFF7FEFF 		bl	StripLights_Trigger
 1070              	.LVL174:
 295:main.c        ****         	CyDelay(10);
 1071              		.loc 1 295 0
 1072 0122 0A20     		movs	r0, #10
 1073 0124 FFF7FEFF 		bl	CyDelay
 1074              	.LVL175:
 1075              	.L76:
 296:main.c        ****     }
 297:main.c        ****     if(number == 2){
 1076              		.loc 1 297 0
 1077 0128 022E     		cmp	r6, #2
 1078 012a 25D1     		bne	.L82
 1079 012c 17E0     		b	.L131
 1080              	.LVL176:
 1081              	.L85:
 1082              	.LBB19:
 298:main.c        ****             for(int i = 0; i < arrayLen; i++){
 299:main.c        ****                 if(two[i] == 1){
 1083              		.loc 1 299 0
 1084 012e AB00     		lsls	r3, r5, #2
 1085 0130 69AA     		add	r2, sp, #420
 1086 0132 9B58     		ldr	r3, [r3, r2]
 1087 0134 012B     		cmp	r3, #1
 1088 0136 08D1     		bne	.L83
 300:main.c        ****                     StripLights_Pixel(i, position, StripLights_WHITE);
ARM GAS  C:\Users\JAMESS~1\AppData\Local\Temp\ccbhs4Fp.s 			page 27


 1089              		.loc 1 300 0
 1090 0138 5720     		movs	r0, #87
 1091 013a FFF7FEFF 		bl	StripLights_getColor
 1092              	.LVL177:
 1093 013e 0200     		movs	r2, r0
 1094 0140 2100     		movs	r1, r4
 1095 0142 2800     		movs	r0, r5
 1096 0144 FFF7FEFF 		bl	StripLights_Pixel
 1097              	.LVL178:
 1098 0148 07E0     		b	.L84
 1099              	.L83:
 301:main.c        ****                 }
 302:main.c        ****                 else{
 303:main.c        ****                     StripLights_Pixel(i, position, StripLights_BLACK);
 1100              		.loc 1 303 0
 1101 014a 1820     		movs	r0, #24
 1102 014c FFF7FEFF 		bl	StripLights_getColor
 1103              	.LVL179:
 1104 0150 0200     		movs	r2, r0
 1105 0152 2100     		movs	r1, r4
 1106 0154 2800     		movs	r0, r5
 1107 0156 FFF7FEFF 		bl	StripLights_Pixel
 1108              	.LVL180:
 1109              	.L84:
 298:main.c        ****                 if(two[i] == 1){
 1110              		.loc 1 298 0 discriminator 2
 1111 015a 0135     		adds	r5, r5, #1
 1112              	.LVL181:
 1113 015c 00E0     		b	.L81
 1114              	.LVL182:
 1115              	.L131:
 1116              	.LBE19:
 1117 015e 0025     		movs	r5, #0
 1118              	.L81:
 1119              	.LVL183:
 1120              	.LBB20:
 298:main.c        ****                 if(two[i] == 1){
 1121              		.loc 1 298 0 is_stmt 0 discriminator 1
 1122 0160 0E2D     		cmp	r5, #14
 1123 0162 E4DD     		ble	.L85
 1124              	.L86:
 1125              	.LBE20:
 304:main.c        ****                 }
 305:main.c        ****             }
 306:main.c        ****             while (StripLights_Ready() == 0);
 1126              		.loc 1 306 0 is_stmt 1 discriminator 1
 1127 0164 FFF7FEFF 		bl	StripLights_Ready
 1128              	.LVL184:
 1129 0168 0028     		cmp	r0, #0
 1130 016a FBD0     		beq	.L86
 307:main.c        ****         	StripLights_Trigger(1);
 1131              		.loc 1 307 0
 1132 016c 0120     		movs	r0, #1
 1133 016e FFF7FEFF 		bl	StripLights_Trigger
 1134              	.LVL185:
 308:main.c        ****         	CyDelay(10);
 1135              		.loc 1 308 0
ARM GAS  C:\Users\JAMESS~1\AppData\Local\Temp\ccbhs4Fp.s 			page 28


 1136 0172 0A20     		movs	r0, #10
 1137 0174 FFF7FEFF 		bl	CyDelay
 1138              	.LVL186:
 1139              	.L82:
 309:main.c        ****             
 310:main.c        ****     }
 311:main.c        ****     if(number == 3){
 1140              		.loc 1 311 0
 1141 0178 032E     		cmp	r6, #3
 1142 017a 25D1     		bne	.L88
 1143 017c 17E0     		b	.L132
 1144              	.LVL187:
 1145              	.L91:
 1146              	.LBB21:
 312:main.c        ****             for(int i = 0; i < arrayLen; i++){
 313:main.c        ****                 if(three[i] == 1){
 1147              		.loc 1 313 0
 1148 017e AB00     		lsls	r3, r5, #2
 1149 0180 5AAA     		add	r2, sp, #360
 1150 0182 9B58     		ldr	r3, [r3, r2]
 1151 0184 012B     		cmp	r3, #1
 1152 0186 08D1     		bne	.L89
 314:main.c        ****                     StripLights_Pixel(i, position, StripLights_WHITE);
 1153              		.loc 1 314 0
 1154 0188 5720     		movs	r0, #87
 1155 018a FFF7FEFF 		bl	StripLights_getColor
 1156              	.LVL188:
 1157 018e 0200     		movs	r2, r0
 1158 0190 2100     		movs	r1, r4
 1159 0192 2800     		movs	r0, r5
 1160 0194 FFF7FEFF 		bl	StripLights_Pixel
 1161              	.LVL189:
 1162 0198 07E0     		b	.L90
 1163              	.L89:
 315:main.c        ****                 }
 316:main.c        ****                 else{
 317:main.c        ****                     StripLights_Pixel(i, position, StripLights_BLACK);
 1164              		.loc 1 317 0
 1165 019a 1820     		movs	r0, #24
 1166 019c FFF7FEFF 		bl	StripLights_getColor
 1167              	.LVL190:
 1168 01a0 0200     		movs	r2, r0
 1169 01a2 2100     		movs	r1, r4
 1170 01a4 2800     		movs	r0, r5
 1171 01a6 FFF7FEFF 		bl	StripLights_Pixel
 1172              	.LVL191:
 1173              	.L90:
 312:main.c        ****                 if(three[i] == 1){
 1174              		.loc 1 312 0 discriminator 2
 1175 01aa 0135     		adds	r5, r5, #1
 1176              	.LVL192:
 1177 01ac 00E0     		b	.L87
 1178              	.LVL193:
 1179              	.L132:
 1180              	.LBE21:
 1181 01ae 0025     		movs	r5, #0
 1182              	.L87:
ARM GAS  C:\Users\JAMESS~1\AppData\Local\Temp\ccbhs4Fp.s 			page 29


 1183              	.LVL194:
 1184              	.LBB22:
 312:main.c        ****                 if(three[i] == 1){
 1185              		.loc 1 312 0 is_stmt 0 discriminator 1
 1186 01b0 0E2D     		cmp	r5, #14
 1187 01b2 E4DD     		ble	.L91
 1188              	.L92:
 1189              	.LBE22:
 318:main.c        ****                 }
 319:main.c        ****             }
 320:main.c        ****             while (StripLights_Ready() == 0);
 1190              		.loc 1 320 0 is_stmt 1 discriminator 1
 1191 01b4 FFF7FEFF 		bl	StripLights_Ready
 1192              	.LVL195:
 1193 01b8 0028     		cmp	r0, #0
 1194 01ba FBD0     		beq	.L92
 321:main.c        ****         	StripLights_Trigger(1);
 1195              		.loc 1 321 0
 1196 01bc 0120     		movs	r0, #1
 1197 01be FFF7FEFF 		bl	StripLights_Trigger
 1198              	.LVL196:
 322:main.c        ****         	CyDelay(10);
 1199              		.loc 1 322 0
 1200 01c2 0A20     		movs	r0, #10
 1201 01c4 FFF7FEFF 		bl	CyDelay
 1202              	.LVL197:
 1203              	.L88:
 323:main.c        ****     }
 324:main.c        ****     if(number == 4){
 1204              		.loc 1 324 0
 1205 01c8 042E     		cmp	r6, #4
 1206 01ca 25D1     		bne	.L94
 1207 01cc 17E0     		b	.L133
 1208              	.LVL198:
 1209              	.L97:
 1210              	.LBB23:
 325:main.c        ****             for(int i = 0; i < arrayLen; i++){
 326:main.c        ****                 if(four[i] == 1){
 1211              		.loc 1 326 0
 1212 01ce AB00     		lsls	r3, r5, #2
 1213 01d0 4BAA     		add	r2, sp, #300
 1214 01d2 9B58     		ldr	r3, [r3, r2]
 1215 01d4 012B     		cmp	r3, #1
 1216 01d6 08D1     		bne	.L95
 327:main.c        ****                     StripLights_Pixel(i, position, StripLights_WHITE);
 1217              		.loc 1 327 0
 1218 01d8 5720     		movs	r0, #87
 1219 01da FFF7FEFF 		bl	StripLights_getColor
 1220              	.LVL199:
 1221 01de 0200     		movs	r2, r0
 1222 01e0 2100     		movs	r1, r4
 1223 01e2 2800     		movs	r0, r5
 1224 01e4 FFF7FEFF 		bl	StripLights_Pixel
 1225              	.LVL200:
 1226 01e8 07E0     		b	.L96
 1227              	.L95:
 328:main.c        ****                 }
ARM GAS  C:\Users\JAMESS~1\AppData\Local\Temp\ccbhs4Fp.s 			page 30


 329:main.c        ****                 else{
 330:main.c        ****                     StripLights_Pixel(i, position, StripLights_BLACK);
 1228              		.loc 1 330 0
 1229 01ea 1820     		movs	r0, #24
 1230 01ec FFF7FEFF 		bl	StripLights_getColor
 1231              	.LVL201:
 1232 01f0 0200     		movs	r2, r0
 1233 01f2 2100     		movs	r1, r4
 1234 01f4 2800     		movs	r0, r5
 1235 01f6 FFF7FEFF 		bl	StripLights_Pixel
 1236              	.LVL202:
 1237              	.L96:
 325:main.c        ****                 if(four[i] == 1){
 1238              		.loc 1 325 0 discriminator 2
 1239 01fa 0135     		adds	r5, r5, #1
 1240              	.LVL203:
 1241 01fc 00E0     		b	.L93
 1242              	.LVL204:
 1243              	.L133:
 1244              	.LBE23:
 1245 01fe 0025     		movs	r5, #0
 1246              	.L93:
 1247              	.LVL205:
 1248              	.LBB24:
 325:main.c        ****                 if(four[i] == 1){
 1249              		.loc 1 325 0 is_stmt 0 discriminator 1
 1250 0200 0E2D     		cmp	r5, #14
 1251 0202 E4DD     		ble	.L97
 1252              	.L98:
 1253              	.LBE24:
 331:main.c        ****                 }
 332:main.c        ****             }
 333:main.c        ****             while (StripLights_Ready() == 0);
 1254              		.loc 1 333 0 is_stmt 1 discriminator 1
 1255 0204 FFF7FEFF 		bl	StripLights_Ready
 1256              	.LVL206:
 1257 0208 0028     		cmp	r0, #0
 1258 020a FBD0     		beq	.L98
 334:main.c        ****         	StripLights_Trigger(1);
 1259              		.loc 1 334 0
 1260 020c 0120     		movs	r0, #1
 1261 020e FFF7FEFF 		bl	StripLights_Trigger
 1262              	.LVL207:
 335:main.c        ****         	CyDelay(10);
 1263              		.loc 1 335 0
 1264 0212 0A20     		movs	r0, #10
 1265 0214 FFF7FEFF 		bl	CyDelay
 1266              	.LVL208:
 1267              	.L94:
 336:main.c        ****     }
 337:main.c        ****     if(number == 5){
 1268              		.loc 1 337 0
 1269 0218 052E     		cmp	r6, #5
 1270 021a 25D1     		bne	.L100
 1271 021c 17E0     		b	.L134
 1272              	.LVL209:
 1273              	.L103:
ARM GAS  C:\Users\JAMESS~1\AppData\Local\Temp\ccbhs4Fp.s 			page 31


 1274              	.LBB25:
 338:main.c        ****             for(int i = 0; i < arrayLen; i++){
 339:main.c        ****                 if(five[i] == 1){
 1275              		.loc 1 339 0
 1276 021e AB00     		lsls	r3, r5, #2
 1277 0220 3CAA     		add	r2, sp, #240
 1278 0222 9B58     		ldr	r3, [r3, r2]
 1279 0224 012B     		cmp	r3, #1
 1280 0226 08D1     		bne	.L101
 340:main.c        ****                     StripLights_Pixel(i, position, StripLights_WHITE);
 1281              		.loc 1 340 0
 1282 0228 5720     		movs	r0, #87
 1283 022a FFF7FEFF 		bl	StripLights_getColor
 1284              	.LVL210:
 1285 022e 0200     		movs	r2, r0
 1286 0230 2100     		movs	r1, r4
 1287 0232 2800     		movs	r0, r5
 1288 0234 FFF7FEFF 		bl	StripLights_Pixel
 1289              	.LVL211:
 1290 0238 07E0     		b	.L102
 1291              	.L101:
 341:main.c        ****                 }
 342:main.c        ****                 else{
 343:main.c        ****                     StripLights_Pixel(i, position, StripLights_BLACK);
 1292              		.loc 1 343 0
 1293 023a 1820     		movs	r0, #24
 1294 023c FFF7FEFF 		bl	StripLights_getColor
 1295              	.LVL212:
 1296 0240 0200     		movs	r2, r0
 1297 0242 2100     		movs	r1, r4
 1298 0244 2800     		movs	r0, r5
 1299 0246 FFF7FEFF 		bl	StripLights_Pixel
 1300              	.LVL213:
 1301              	.L102:
 338:main.c        ****                 if(five[i] == 1){
 1302              		.loc 1 338 0 discriminator 2
 1303 024a 0135     		adds	r5, r5, #1
 1304              	.LVL214:
 1305 024c 00E0     		b	.L99
 1306              	.LVL215:
 1307              	.L134:
 1308              	.LBE25:
 1309 024e 0025     		movs	r5, #0
 1310              	.L99:
 1311              	.LVL216:
 1312              	.LBB26:
 338:main.c        ****                 if(five[i] == 1){
 1313              		.loc 1 338 0 is_stmt 0 discriminator 1
 1314 0250 0E2D     		cmp	r5, #14
 1315 0252 E4DD     		ble	.L103
 1316              	.L104:
 1317              	.LBE26:
 344:main.c        ****                 }
 345:main.c        ****             }
 346:main.c        ****             while (StripLights_Ready() == 0);
 1318              		.loc 1 346 0 is_stmt 1 discriminator 1
 1319 0254 FFF7FEFF 		bl	StripLights_Ready
ARM GAS  C:\Users\JAMESS~1\AppData\Local\Temp\ccbhs4Fp.s 			page 32


 1320              	.LVL217:
 1321 0258 0028     		cmp	r0, #0
 1322 025a FBD0     		beq	.L104
 347:main.c        ****         	StripLights_Trigger(1);
 1323              		.loc 1 347 0
 1324 025c 0120     		movs	r0, #1
 1325 025e FFF7FEFF 		bl	StripLights_Trigger
 1326              	.LVL218:
 348:main.c        ****         	CyDelay(10);
 1327              		.loc 1 348 0
 1328 0262 0A20     		movs	r0, #10
 1329 0264 FFF7FEFF 		bl	CyDelay
 1330              	.LVL219:
 1331              	.L100:
 349:main.c        ****     }
 350:main.c        ****     if(number == 6){
 1332              		.loc 1 350 0
 1333 0268 062E     		cmp	r6, #6
 1334 026a 25D1     		bne	.L106
 1335 026c 17E0     		b	.L135
 1336              	.LVL220:
 1337              	.L109:
 1338              	.LBB27:
 351:main.c        ****             for(int i = 0; i < arrayLen; i++){
 352:main.c        ****                 if(six[i] == 1){
 1339              		.loc 1 352 0
 1340 026e AB00     		lsls	r3, r5, #2
 1341 0270 2DAA     		add	r2, sp, #180
 1342 0272 9B58     		ldr	r3, [r3, r2]
 1343 0274 012B     		cmp	r3, #1
 1344 0276 08D1     		bne	.L107
 353:main.c        ****                     StripLights_Pixel(i, position, StripLights_WHITE);
 1345              		.loc 1 353 0
 1346 0278 5720     		movs	r0, #87
 1347 027a FFF7FEFF 		bl	StripLights_getColor
 1348              	.LVL221:
 1349 027e 0200     		movs	r2, r0
 1350 0280 2100     		movs	r1, r4
 1351 0282 2800     		movs	r0, r5
 1352 0284 FFF7FEFF 		bl	StripLights_Pixel
 1353              	.LVL222:
 1354 0288 07E0     		b	.L108
 1355              	.L107:
 354:main.c        ****                 }
 355:main.c        ****                 else{
 356:main.c        ****                     StripLights_Pixel(i, position, StripLights_BLACK);
 1356              		.loc 1 356 0
 1357 028a 1820     		movs	r0, #24
 1358 028c FFF7FEFF 		bl	StripLights_getColor
 1359              	.LVL223:
 1360 0290 0200     		movs	r2, r0
 1361 0292 2100     		movs	r1, r4
 1362 0294 2800     		movs	r0, r5
 1363 0296 FFF7FEFF 		bl	StripLights_Pixel
 1364              	.LVL224:
 1365              	.L108:
 351:main.c        ****                 if(six[i] == 1){
ARM GAS  C:\Users\JAMESS~1\AppData\Local\Temp\ccbhs4Fp.s 			page 33


 1366              		.loc 1 351 0 discriminator 2
 1367 029a 0135     		adds	r5, r5, #1
 1368              	.LVL225:
 1369 029c 00E0     		b	.L105
 1370              	.LVL226:
 1371              	.L135:
 1372              	.LBE27:
 1373 029e 0025     		movs	r5, #0
 1374              	.L105:
 1375              	.LVL227:
 1376              	.LBB28:
 351:main.c        ****                 if(six[i] == 1){
 1377              		.loc 1 351 0 is_stmt 0 discriminator 1
 1378 02a0 0E2D     		cmp	r5, #14
 1379 02a2 E4DD     		ble	.L109
 1380              	.L110:
 1381              	.LBE28:
 357:main.c        ****                 }
 358:main.c        ****             }
 359:main.c        ****             while (StripLights_Ready() == 0);
 1382              		.loc 1 359 0 is_stmt 1 discriminator 1
 1383 02a4 FFF7FEFF 		bl	StripLights_Ready
 1384              	.LVL228:
 1385 02a8 0028     		cmp	r0, #0
 1386 02aa FBD0     		beq	.L110
 360:main.c        ****         	StripLights_Trigger(1);
 1387              		.loc 1 360 0
 1388 02ac 0120     		movs	r0, #1
 1389 02ae FFF7FEFF 		bl	StripLights_Trigger
 1390              	.LVL229:
 361:main.c        ****         	CyDelay(10);
 1391              		.loc 1 361 0
 1392 02b2 0A20     		movs	r0, #10
 1393 02b4 FFF7FEFF 		bl	CyDelay
 1394              	.LVL230:
 1395              	.L106:
 362:main.c        ****     }
 363:main.c        ****     if(number == 7){
 1396              		.loc 1 363 0
 1397 02b8 072E     		cmp	r6, #7
 1398 02ba 25D1     		bne	.L112
 1399 02bc 17E0     		b	.L136
 1400              	.LVL231:
 1401              	.L115:
 1402              	.LBB29:
 364:main.c        ****             for(int i = 0; i < arrayLen; i++){
 365:main.c        ****                 if(seven[i] == 1){
 1403              		.loc 1 365 0
 1404 02be AB00     		lsls	r3, r5, #2
 1405 02c0 1EAA     		add	r2, sp, #120
 1406 02c2 9B58     		ldr	r3, [r3, r2]
 1407 02c4 012B     		cmp	r3, #1
 1408 02c6 08D1     		bne	.L113
 366:main.c        ****                     StripLights_Pixel(i, position, StripLights_WHITE);
 1409              		.loc 1 366 0
 1410 02c8 5720     		movs	r0, #87
 1411 02ca FFF7FEFF 		bl	StripLights_getColor
ARM GAS  C:\Users\JAMESS~1\AppData\Local\Temp\ccbhs4Fp.s 			page 34


 1412              	.LVL232:
 1413 02ce 0200     		movs	r2, r0
 1414 02d0 2100     		movs	r1, r4
 1415 02d2 2800     		movs	r0, r5
 1416 02d4 FFF7FEFF 		bl	StripLights_Pixel
 1417              	.LVL233:
 1418 02d8 07E0     		b	.L114
 1419              	.L113:
 367:main.c        ****                 }
 368:main.c        ****                 else{
 369:main.c        ****                     StripLights_Pixel(i, position, StripLights_BLACK);
 1420              		.loc 1 369 0
 1421 02da 1820     		movs	r0, #24
 1422 02dc FFF7FEFF 		bl	StripLights_getColor
 1423              	.LVL234:
 1424 02e0 0200     		movs	r2, r0
 1425 02e2 2100     		movs	r1, r4
 1426 02e4 2800     		movs	r0, r5
 1427 02e6 FFF7FEFF 		bl	StripLights_Pixel
 1428              	.LVL235:
 1429              	.L114:
 364:main.c        ****                 if(seven[i] == 1){
 1430              		.loc 1 364 0 discriminator 2
 1431 02ea 0135     		adds	r5, r5, #1
 1432              	.LVL236:
 1433 02ec 00E0     		b	.L111
 1434              	.LVL237:
 1435              	.L136:
 1436              	.LBE29:
 1437 02ee 0025     		movs	r5, #0
 1438              	.L111:
 1439              	.LVL238:
 1440              	.LBB30:
 364:main.c        ****                 if(seven[i] == 1){
 1441              		.loc 1 364 0 is_stmt 0 discriminator 1
 1442 02f0 0E2D     		cmp	r5, #14
 1443 02f2 E4DD     		ble	.L115
 1444              	.L116:
 1445              	.LBE30:
 370:main.c        ****                 }
 371:main.c        ****             }
 372:main.c        ****             while (StripLights_Ready() == 0);
 1446              		.loc 1 372 0 is_stmt 1 discriminator 1
 1447 02f4 FFF7FEFF 		bl	StripLights_Ready
 1448              	.LVL239:
 1449 02f8 0028     		cmp	r0, #0
 1450 02fa FBD0     		beq	.L116
 373:main.c        ****         	StripLights_Trigger(1);
 1451              		.loc 1 373 0
 1452 02fc 0120     		movs	r0, #1
 1453 02fe FFF7FEFF 		bl	StripLights_Trigger
 1454              	.LVL240:
 374:main.c        ****         	CyDelay(10);
 1455              		.loc 1 374 0
 1456 0302 0A20     		movs	r0, #10
 1457 0304 FFF7FEFF 		bl	CyDelay
 1458              	.LVL241:
ARM GAS  C:\Users\JAMESS~1\AppData\Local\Temp\ccbhs4Fp.s 			page 35


 1459              	.L112:
 375:main.c        ****     }   
 376:main.c        ****     if(number == 8){
 1460              		.loc 1 376 0
 1461 0308 082E     		cmp	r6, #8
 1462 030a 32D1     		bne	.L118
 1463 030c 24E0     		b	.L137
 1464              	.LVL242:
 1465              	.L121:
 1466              	.LBB31:
 377:main.c        ****             for(int i = 0; i < arrayLen; i++){
 378:main.c        ****                 if(eight[i] == 1){
 1467              		.loc 1 378 0
 1468 030e AB00     		lsls	r3, r5, #2
 1469 0310 0FAA     		add	r2, sp, #60
 1470 0312 9B58     		ldr	r3, [r3, r2]
 1471 0314 012B     		cmp	r3, #1
 1472 0316 15D1     		bne	.L119
 379:main.c        ****                     StripLights_Pixel(i, position, StripLights_WHITE);
 1473              		.loc 1 379 0
 1474 0318 5720     		movs	r0, #87
 1475 031a FFF7FEFF 		bl	StripLights_getColor
 1476              	.LVL243:
 1477 031e 0200     		movs	r2, r0
 1478 0320 2100     		movs	r1, r4
 1479 0322 2800     		movs	r0, r5
 1480 0324 FFF7FEFF 		bl	StripLights_Pixel
 1481              	.LVL244:
 1482 0328 14E0     		b	.L120
 1483              	.L140:
 1484 032a C046     		.align	2
 1485              	.L139:
 1486 032c A8FDFFFF 		.word	-600
 1487 0330 1C000000 		.word	.LANCHOR0
 1488 0334 9C000000 		.word	.LANCHOR1
 1489 0338 1C010000 		.word	.LANCHOR2
 1490 033c 9C010000 		.word	.LANCHOR3
 1491 0340 1C020000 		.word	.LANCHOR4
 1492              	.L119:
 380:main.c        ****                 }
 381:main.c        ****                 else{
 382:main.c        ****                     StripLights_Pixel(i, position, StripLights_BLACK);
 1493              		.loc 1 382 0
 1494 0344 1820     		movs	r0, #24
 1495 0346 FFF7FEFF 		bl	StripLights_getColor
 1496              	.LVL245:
 1497 034a 0200     		movs	r2, r0
 1498 034c 2100     		movs	r1, r4
 1499 034e 2800     		movs	r0, r5
 1500 0350 FFF7FEFF 		bl	StripLights_Pixel
 1501              	.LVL246:
 1502              	.L120:
 377:main.c        ****                 if(eight[i] == 1){
 1503              		.loc 1 377 0 discriminator 2
 1504 0354 0135     		adds	r5, r5, #1
 1505              	.LVL247:
 1506 0356 00E0     		b	.L117
ARM GAS  C:\Users\JAMESS~1\AppData\Local\Temp\ccbhs4Fp.s 			page 36


 1507              	.LVL248:
 1508              	.L137:
 1509              	.LBE31:
 1510 0358 0025     		movs	r5, #0
 1511              	.L117:
 1512              	.LVL249:
 1513              	.LBB32:
 377:main.c        ****                 if(eight[i] == 1){
 1514              		.loc 1 377 0 is_stmt 0 discriminator 1
 1515 035a 0E2D     		cmp	r5, #14
 1516 035c D7DD     		ble	.L121
 1517              	.L122:
 1518              	.LBE32:
 383:main.c        ****                 }
 384:main.c        ****             }
 385:main.c        ****             while (StripLights_Ready() == 0);
 1519              		.loc 1 385 0 is_stmt 1 discriminator 1
 1520 035e FFF7FEFF 		bl	StripLights_Ready
 1521              	.LVL250:
 1522 0362 0028     		cmp	r0, #0
 1523 0364 FBD0     		beq	.L122
 386:main.c        ****         	StripLights_Trigger(1);
 1524              		.loc 1 386 0
 1525 0366 0120     		movs	r0, #1
 1526 0368 FFF7FEFF 		bl	StripLights_Trigger
 1527              	.LVL251:
 387:main.c        ****         	CyDelay(10);
 1528              		.loc 1 387 0
 1529 036c 0A20     		movs	r0, #10
 1530 036e FFF7FEFF 		bl	CyDelay
 1531              	.LVL252:
 1532              	.L118:
 388:main.c        ****     }
 389:main.c        ****     if(number == 9){
 1533              		.loc 1 389 0
 1534 0372 092E     		cmp	r6, #9
 1535 0374 25D1     		bne	.L68
 1536 0376 17E0     		b	.L138
 1537              	.LVL253:
 1538              	.L127:
 1539              	.LBB33:
 390:main.c        ****             for(int i = 0; i < arrayLen; i++){
 391:main.c        ****                 if(nine[i] == 1){
 1540              		.loc 1 391 0
 1541 0378 AB00     		lsls	r3, r5, #2
 1542 037a 6A46     		mov	r2, sp
 1543 037c 9B58     		ldr	r3, [r3, r2]
 1544 037e 012B     		cmp	r3, #1
 1545 0380 08D1     		bne	.L125
 392:main.c        ****                     StripLights_Pixel(i, position, StripLights_WHITE);
 1546              		.loc 1 392 0
 1547 0382 5720     		movs	r0, #87
 1548 0384 FFF7FEFF 		bl	StripLights_getColor
 1549              	.LVL254:
 1550 0388 0200     		movs	r2, r0
 1551 038a 2100     		movs	r1, r4
 1552 038c 2800     		movs	r0, r5
ARM GAS  C:\Users\JAMESS~1\AppData\Local\Temp\ccbhs4Fp.s 			page 37


 1553 038e FFF7FEFF 		bl	StripLights_Pixel
 1554              	.LVL255:
 1555 0392 07E0     		b	.L126
 1556              	.L125:
 393:main.c        ****                 }
 394:main.c        ****                 else{
 395:main.c        ****                     StripLights_Pixel(i, position, StripLights_BLACK);
 1557              		.loc 1 395 0
 1558 0394 1820     		movs	r0, #24
 1559 0396 FFF7FEFF 		bl	StripLights_getColor
 1560              	.LVL256:
 1561 039a 0200     		movs	r2, r0
 1562 039c 2100     		movs	r1, r4
 1563 039e 2800     		movs	r0, r5
 1564 03a0 FFF7FEFF 		bl	StripLights_Pixel
 1565              	.LVL257:
 1566              	.L126:
 390:main.c        ****                 if(nine[i] == 1){
 1567              		.loc 1 390 0 discriminator 2
 1568 03a4 0135     		adds	r5, r5, #1
 1569              	.LVL258:
 1570 03a6 00E0     		b	.L123
 1571              	.LVL259:
 1572              	.L138:
 1573              	.LBE33:
 1574 03a8 0025     		movs	r5, #0
 1575              	.L123:
 1576              	.LVL260:
 1577              	.LBB34:
 390:main.c        ****                 if(nine[i] == 1){
 1578              		.loc 1 390 0 is_stmt 0 discriminator 1
 1579 03aa 0E2D     		cmp	r5, #14
 1580 03ac E4DD     		ble	.L127
 1581              	.L128:
 1582              	.LBE34:
 396:main.c        ****                 }
 397:main.c        ****             }
 398:main.c        ****             while (StripLights_Ready() == 0);
 1583              		.loc 1 398 0 is_stmt 1 discriminator 1
 1584 03ae FFF7FEFF 		bl	StripLights_Ready
 1585              	.LVL261:
 1586 03b2 0028     		cmp	r0, #0
 1587 03b4 FBD0     		beq	.L128
 399:main.c        ****         	StripLights_Trigger(1);
 1588              		.loc 1 399 0
 1589 03b6 0120     		movs	r0, #1
 1590 03b8 FFF7FEFF 		bl	StripLights_Trigger
 1591              	.LVL262:
 400:main.c        ****         	CyDelay(10);
 1592              		.loc 1 400 0
 1593 03bc 0A20     		movs	r0, #10
 1594 03be FFF7FEFF 		bl	CyDelay
 1595              	.LVL263:
 1596              	.L68:
 401:main.c        ****     }
 402:main.c        **** 
 403:main.c        **** }
ARM GAS  C:\Users\JAMESS~1\AppData\Local\Temp\ccbhs4Fp.s 			page 38


 1597              		.loc 1 403 0
 1598 03c2 9623     		movs	r3, #150
 1599 03c4 9B00     		lsls	r3, r3, #2
 1600 03c6 9D44     		add	sp, sp, r3
 1601              		@ sp needed
 1602              	.LVL264:
 1603              	.LVL265:
 1604 03c8 70BD     		pop	{r4, r5, r6, pc}
 1605              		.cfi_endproc
 1606              	.LFE39:
 1607              		.size	DisplayNumber, .-DisplayNumber
 1608 03ca C046     		.section	.text.main,"ax",%progbits
 1609              		.align	2
 1610              		.global	main
 1611              		.code	16
 1612              		.thumb_func
 1613              		.type	main, %function
 1614              	main:
 1615              	.LFB32:
  27:main.c        **** 	CyGlobalIntEnable; /* Enable global interrupts. */
 1616              		.loc 1 27 0
 1617              		.cfi_startproc
 1618              		@ args = 0, pretend = 0, frame = 0
 1619              		@ frame_needed = 0, uses_anonymous_args = 0
 1620 0000 10B5     		push	{r4, lr}
 1621              		.cfi_def_cfa_offset 8
 1622              		.cfi_offset 4, -8
 1623              		.cfi_offset 14, -4
  28:main.c        **** 
 1624              		.loc 1 28 0
 1625              		.syntax divided
 1626              	@ 28 "main.c" 1
 1627 0002 62B6     		CPSIE   i
 1628              	@ 0 "" 2
  31:main.c        **** 	StripLights_Dim(1);
 1629              		.loc 1 31 0
 1630              		.thumb
 1631              		.syntax unified
 1632 0004 FFF7FEFF 		bl	StripLights_Start
 1633              	.LVL266:
  32:main.c        ****     srand(time(NULL)); // seed the randomness with time
 1634              		.loc 1 32 0
 1635 0008 0120     		movs	r0, #1
 1636 000a FFF7FEFF 		bl	StripLights_Dim
 1637              	.LVL267:
  33:main.c        ****     
 1638              		.loc 1 33 0
 1639 000e 0020     		movs	r0, #0
 1640 0010 FFF7FEFF 		bl	time
 1641              	.LVL268:
 1642 0014 FFF7FEFF 		bl	srand
 1643              	.LVL269:
 1644              	.LBB35:
  37:main.c        ****         StripLights_Pixel(i, 0, StripLights_BLACK);
 1645              		.loc 1 37 0
 1646 0018 0024     		movs	r4, #0
 1647 001a 08E0     		b	.L142
ARM GAS  C:\Users\JAMESS~1\AppData\Local\Temp\ccbhs4Fp.s 			page 39


 1648              	.LVL270:
 1649              	.L143:
  38:main.c        ****     }
 1650              		.loc 1 38 0 discriminator 3
 1651 001c 1820     		movs	r0, #24
 1652 001e FFF7FEFF 		bl	StripLights_getColor
 1653              	.LVL271:
 1654 0022 0200     		movs	r2, r0
 1655 0024 0021     		movs	r1, #0
 1656 0026 2000     		movs	r0, r4
 1657 0028 FFF7FEFF 		bl	StripLights_Pixel
 1658              	.LVL272:
  37:main.c        ****         StripLights_Pixel(i, 0, StripLights_BLACK);
 1659              		.loc 1 37 0 discriminator 3
 1660 002c 0134     		adds	r4, r4, #1
 1661              	.LVL273:
 1662              	.L142:
  37:main.c        ****         StripLights_Pixel(i, 0, StripLights_BLACK);
 1663              		.loc 1 37 0 is_stmt 0 discriminator 1
 1664 002e 0E2C     		cmp	r4, #14
 1665 0030 F4DD     		ble	.L143
 1666              	.L144:
 1667              	.LBE35:
  40:main.c        **** 	StripLights_Trigger(1);
 1668              		.loc 1 40 0 is_stmt 1 discriminator 1
 1669 0032 FFF7FEFF 		bl	StripLights_Ready
 1670              	.LVL274:
 1671 0036 0028     		cmp	r0, #0
 1672 0038 FBD0     		beq	.L144
  41:main.c        **** 	CyDelay(10);
 1673              		.loc 1 41 0
 1674 003a 0120     		movs	r0, #1
 1675 003c FFF7FEFF 		bl	StripLights_Trigger
 1676              	.LVL275:
  42:main.c        ****     
 1677              		.loc 1 42 0
 1678 0040 0A20     		movs	r0, #10
 1679 0042 FFF7FEFF 		bl	CyDelay
 1680              	.LVL276:
  45:main.c        ****     while(1){
 1681              		.loc 1 45 0
 1682 0046 0024     		movs	r4, #0
 1683              	.LVL277:
 1684 0048 00E0     		b	.L145
 1685              	.LVL278:
 1686              	.L148:
  51:main.c        ****     }
 1687              		.loc 1 51 0
 1688 004a 0024     		movs	r4, #0
 1689              	.LVL279:
 1690              	.L145:
  47:main.c        ****         i++;
 1691              		.loc 1 47 0
 1692 004c 2100     		movs	r1, r4
 1693 004e 0020     		movs	r0, #0
 1694 0050 FFF7FEFF 		bl	DisplayNumber
 1695              	.LVL280:
ARM GAS  C:\Users\JAMESS~1\AppData\Local\Temp\ccbhs4Fp.s 			page 40


  48:main.c        ****         CyDelay(1000);
 1696              		.loc 1 48 0
 1697 0054 0134     		adds	r4, r4, #1
 1698              	.LVL281:
  49:main.c        ****         if(i == 10)
 1699              		.loc 1 49 0
 1700 0056 FA20     		movs	r0, #250
 1701 0058 8000     		lsls	r0, r0, #2
 1702 005a FFF7FEFF 		bl	CyDelay
 1703              	.LVL282:
  50:main.c        ****             i = 0;
 1704              		.loc 1 50 0
 1705 005e 0A2C     		cmp	r4, #10
 1706 0060 F4D1     		bne	.L145
 1707 0062 F2E7     		b	.L148
 1708              		.cfi_endproc
 1709              	.LFE32:
 1710              		.size	main, .-main
 1711              		.section	.text.ResetBlock,"ax",%progbits
 1712              		.align	2
 1713              		.global	ResetBlock
 1714              		.code	16
 1715              		.thumb_func
 1716              		.type	ResetBlock, %function
 1717              	ResetBlock:
 1718              	.LFB40:
 404:main.c        **** 
 405:main.c        **** //Resets all the tile colors to blank
 406:main.c        **** void ResetBlock(){
 1719              		.loc 1 406 0
 1720              		.cfi_startproc
 1721              		@ args = 0, pretend = 0, frame = 0
 1722              		@ frame_needed = 0, uses_anonymous_args = 0
 1723 0000 10B5     		push	{r4, lr}
 1724              		.cfi_def_cfa_offset 8
 1725              		.cfi_offset 4, -8
 1726              		.cfi_offset 14, -4
 407:main.c        ****     SetTileColor(0, 0);
 1727              		.loc 1 407 0
 1728 0002 0021     		movs	r1, #0
 1729 0004 0020     		movs	r0, #0
 1730 0006 FFF7FEFF 		bl	SetTileColor
 1731              	.LVL283:
 408:main.c        ****     SetTileColor(1, 0);
 1732              		.loc 1 408 0
 1733 000a 0021     		movs	r1, #0
 1734 000c 0120     		movs	r0, #1
 1735 000e FFF7FEFF 		bl	SetTileColor
 1736              	.LVL284:
 409:main.c        ****     SetTileColor(2, 0);
 1737              		.loc 1 409 0
 1738 0012 0021     		movs	r1, #0
 1739 0014 0220     		movs	r0, #2
 1740 0016 FFF7FEFF 		bl	SetTileColor
 1741              	.LVL285:
 410:main.c        ****     SetTileColor(3, 0);
 1742              		.loc 1 410 0
ARM GAS  C:\Users\JAMESS~1\AppData\Local\Temp\ccbhs4Fp.s 			page 41


 1743 001a 0021     		movs	r1, #0
 1744 001c 0320     		movs	r0, #3
 1745 001e FFF7FEFF 		bl	SetTileColor
 1746              	.LVL286:
 411:main.c        **** }...
 1747              		.loc 1 411 0
 1748              		@ sp needed
 1749 0022 10BD     		pop	{r4, pc}
 1750              		.cfi_endproc
 1751              	.LFE40:
 1752              		.size	ResetBlock, .-ResetBlock
 1753              		.comm	currentSet,4,4
 1754              		.comm	flex3,1,1
 1755              		.comm	flex2,1,1
 1756              		.comm	flex1,1,1
 1757              		.comm	flex0,1,1
 1758              		.comm	button,1,1
 1759              		.global	LEDS_PER_TILE
 1760              		.section	.rodata
 1761              		.align	2
 1762              		.set	.LANCHOR0,. + 0
 1763              		.set	.LANCHOR1,. + 128
 1764              		.set	.LANCHOR2,. + 256
 1765              		.set	.LANCHOR3,. + 384
 1766              		.set	.LANCHOR4,. + 512
 1767              	.LC0:
 1768 001c 01000000 		.word	1
 1769 0020 01000000 		.word	1
 1770 0024 01000000 		.word	1
 1771 0028 01000000 		.word	1
 1772 002c 01000000 		.word	1
 1773 0030 01000000 		.word	1
 1774 0034 00000000 		.word	0
 1775 0038 00000000 		.word	0
 1776 003c 00000000 		.word	0
 1777 0040 01000000 		.word	1
 1778 0044 01000000 		.word	1
 1779 0048 01000000 		.word	1
 1780 004c 01000000 		.word	1
 1781 0050 01000000 		.word	1
 1782 0054 01000000 		.word	1
 1783              	.LC1:
 1784 0058 01000000 		.word	1
 1785 005c 00000000 		.word	0
 1786 0060 00000000 		.word	0
 1787 0064 00000000 		.word	0
 1788 0068 01000000 		.word	1
 1789 006c 01000000 		.word	1
 1790 0070 01000000 		.word	1
 1791 0074 01000000 		.word	1
 1792 0078 01000000 		.word	1
 1793 007c 01000000 		.word	1
 1794 0080 01000000 		.word	1
 1795 0084 00000000 		.word	0
 1796 0088 00000000 		.word	0
 1797 008c 00000000 		.word	0
 1798 0090 00000000 		.word	0
ARM GAS  C:\Users\JAMESS~1\AppData\Local\Temp\ccbhs4Fp.s 			page 42


 1799              	.LC2:
 1800 0094 01000000 		.word	1
 1801 0098 01000000 		.word	1
 1802 009c 01000000 		.word	1
 1803 00a0 00000000 		.word	0
 1804 00a4 01000000 		.word	1
 1805 00a8 01000000 		.word	1
 1806 00ac 00000000 		.word	0
 1807 00b0 01000000 		.word	1
 1808 00b4 00000000 		.word	0
 1809 00b8 01000000 		.word	1
 1810 00bc 01000000 		.word	1
 1811 00c0 00000000 		.word	0
 1812 00c4 01000000 		.word	1
 1813 00c8 01000000 		.word	1
 1814 00cc 01000000 		.word	1
 1815              	.LC3:
 1816 00d0 01000000 		.word	1
 1817 00d4 00000000 		.word	0
 1818 00d8 01000000 		.word	1
 1819 00dc 00000000 		.word	0
 1820 00e0 01000000 		.word	1
 1821 00e4 01000000 		.word	1
 1822 00e8 00000000 		.word	0
 1823 00ec 01000000 		.word	1
 1824 00f0 00000000 		.word	0
 1825 00f4 01000000 		.word	1
 1826 00f8 01000000 		.word	1
 1827 00fc 01000000 		.word	1
 1828 0100 01000000 		.word	1
 1829 0104 01000000 		.word	1
 1830 0108 01000000 		.word	1
 1831              	.LC4:
 1832 010c 00000000 		.word	0
 1833 0110 00000000 		.word	0
 1834 0114 01000000 		.word	1
 1835 0118 01000000 		.word	1
 1836 011c 01000000 		.word	1
 1837 0120 00000000 		.word	0
 1838 0124 00000000 		.word	0
 1839 0128 01000000 		.word	1
 1840 012c 00000000 		.word	0
 1841 0130 00000000 		.word	0
 1842 0134 01000000 		.word	1
 1843 0138 01000000 		.word	1
 1844 013c 01000000 		.word	1
 1845 0140 01000000 		.word	1
 1846 0144 01000000 		.word	1
 1847              	.LC5:
 1848 0148 01000000 		.word	1
 1849 014c 00000000 		.word	0
 1850 0150 01000000 		.word	1
 1851 0154 01000000 		.word	1
 1852 0158 01000000 		.word	1
 1853 015c 01000000 		.word	1
 1854 0160 00000000 		.word	0
 1855 0164 01000000 		.word	1
ARM GAS  C:\Users\JAMESS~1\AppData\Local\Temp\ccbhs4Fp.s 			page 43


 1856 0168 00000000 		.word	0
 1857 016c 01000000 		.word	1
 1858 0170 01000000 		.word	1
 1859 0174 01000000 		.word	1
 1860 0178 01000000 		.word	1
 1861 017c 00000000 		.word	0
 1862 0180 01000000 		.word	1
 1863              	.LC6:
 1864 0184 01000000 		.word	1
 1865 0188 01000000 		.word	1
 1866 018c 01000000 		.word	1
 1867 0190 01000000 		.word	1
 1868 0194 01000000 		.word	1
 1869 0198 01000000 		.word	1
 1870 019c 00000000 		.word	0
 1871 01a0 01000000 		.word	1
 1872 01a4 00000000 		.word	0
 1873 01a8 01000000 		.word	1
 1874 01ac 01000000 		.word	1
 1875 01b0 01000000 		.word	1
 1876 01b4 01000000 		.word	1
 1877 01b8 00000000 		.word	0
 1878 01bc 01000000 		.word	1
 1879              	.LC7:
 1880 01c0 00000000 		.word	0
 1881 01c4 00000000 		.word	0
 1882 01c8 00000000 		.word	0
 1883 01cc 01000000 		.word	1
 1884 01d0 01000000 		.word	1
 1885 01d4 00000000 		.word	0
 1886 01d8 00000000 		.word	0
 1887 01dc 00000000 		.word	0
 1888 01e0 00000000 		.word	0
 1889 01e4 01000000 		.word	1
 1890 01e8 01000000 		.word	1
 1891 01ec 01000000 		.word	1
 1892 01f0 01000000 		.word	1
 1893 01f4 01000000 		.word	1
 1894 01f8 01000000 		.word	1
 1895              	.LC8:
 1896 01fc 01000000 		.word	1
 1897 0200 01000000 		.word	1
 1898 0204 01000000 		.word	1
 1899 0208 01000000 		.word	1
 1900 020c 01000000 		.word	1
 1901 0210 01000000 		.word	1
 1902 0214 00000000 		.word	0
 1903 0218 01000000 		.word	1
 1904 021c 00000000 		.word	0
 1905 0220 01000000 		.word	1
 1906 0224 01000000 		.word	1
 1907 0228 01000000 		.word	1
 1908 022c 01000000 		.word	1
 1909 0230 01000000 		.word	1
 1910 0234 01000000 		.word	1
 1911              	.LC9:
 1912 0238 01000000 		.word	1
ARM GAS  C:\Users\JAMESS~1\AppData\Local\Temp\ccbhs4Fp.s 			page 44


 1913 023c 00000000 		.word	0
 1914 0240 01000000 		.word	1
 1915 0244 01000000 		.word	1
 1916 0248 01000000 		.word	1
 1917 024c 01000000 		.word	1
 1918 0250 00000000 		.word	0
 1919 0254 01000000 		.word	1
 1920 0258 00000000 		.word	0
 1921 025c 01000000 		.word	1
 1922 0260 01000000 		.word	1
 1923 0264 01000000 		.word	1
 1924 0268 01000000 		.word	1
 1925 026c 01000000 		.word	1
 1926 0270 01000000 		.word	1
 1927              		.align	2
 1928              		.type	LEDS_PER_TILE, %object
 1929              		.size	LEDS_PER_TILE, 4
 1930              	LEDS_PER_TILE:
 1931 0274 3C000000 		.word	60
 1932              		.text
 1933              	.Letext0:
 1934              		.file 2 "Generated_Source\\PSoC4/cytypes.h"
 1935              		.file 3 "Generated_Source\\PSoC4/StripLights.h"
 1936              		.file 4 "Generated_Source\\PSoC4/CyLib.h"
 1937              		.file 5 "c:\\program files (x86)\\cypress\\psoc creator\\4.1\\psoc creator\\import\\gnu\\arm\\5.4.
 1938              		.file 6 "Generated_Source\\PSoC4/Button.h"
 1939              		.file 7 "Generated_Source\\PSoC4/flex0.h"
 1940              		.file 8 "Generated_Source\\PSoC4/flex1.h"
 1941              		.file 9 "Generated_Source\\PSoC4/flex2.h"
 1942              		.file 10 "Generated_Source\\PSoC4/flex3.h"
 1943              		.file 11 "c:\\program files (x86)\\cypress\\psoc creator\\4.1\\psoc creator\\import\\gnu\\arm\\5.4