ARM GAS  C:\Users\JAMESS~1\AppData\Local\Temp\ccWH4kxb.s 			page 1


   1              		.syntax unified
   2              		.cpu cortex-m0
   3              		.fpu softvfp
   4              		.eabi_attribute 20, 1
   5              		.eabi_attribute 21, 1
   6              		.eabi_attribute 23, 3
   7              		.eabi_attribute 24, 1
   8              		.eabi_attribute 25, 1
   9              		.eabi_attribute 26, 1
  10              		.eabi_attribute 30, 1
  11              		.eabi_attribute 34, 0
  12              		.eabi_attribute 18, 4
  13              		.thumb
  14              		.syntax unified
  15              		.file	"StripLights.c"
  16              		.text
  17              	.Ltext0:
  18              		.cfi_sections	.debug_frame
  19              		.section	.text.StripLights_FISR,"ax",%progbits
  20              		.align	2
  21              		.global	StripLights_FISR
  22              		.code	16
  23              		.thumb_func
  24              		.type	StripLights_FISR, %function
  25              	StripLights_FISR:
  26              	.LFB41:
  27              		.file 1 "Generated_Source\\PSoC4\\StripLights.c"
   1:Generated_Source\PSoC4/StripLights.c **** /* =========================================================
   2:Generated_Source\PSoC4/StripLights.c ****  *
   3:Generated_Source\PSoC4/StripLights.c ****  * Strip Light Controller
   4:Generated_Source\PSoC4/StripLights.c ****  * By Mark Hastings
   5:Generated_Source\PSoC4/StripLights.c ****  *
   6:Generated_Source\PSoC4/StripLights.c ****  * 10/28/2015 MEH Added support for SF2812RGBW
   7:Generated_Source\PSoC4/StripLights.c ****  *                Allow for a more flexible bus clock selection
   8:Generated_Source\PSoC4/StripLights.c ****  * 12/12/2015 MEH Fixed a bug that may cause the interface
   9:Generated_Source\PSoC4/StripLights.c ****  *                to hang when many other ISRs are running.
  10:Generated_Source\PSoC4/StripLights.c ****  *
  11:Generated_Source\PSoC4/StripLights.c ****  * This file contains the functions required to control each
  12:Generated_Source\PSoC4/StripLights.c ****  * lighting control channel.
  13:Generated_Source\PSoC4/StripLights.c ****  *
  14:Generated_Source\PSoC4/StripLights.c ****  * =========================================================
  15:Generated_Source\PSoC4/StripLights.c **** */
  16:Generated_Source\PSoC4/StripLights.c **** 
  17:Generated_Source\PSoC4/StripLights.c **** #include <project.h>
  18:Generated_Source\PSoC4/StripLights.c **** #include "cytypes.h"
  19:Generated_Source\PSoC4/StripLights.c **** #include "stdlib.h"
  20:Generated_Source\PSoC4/StripLights.c **** #include "cyfitter.h"
  21:Generated_Source\PSoC4/StripLights.c **** #include "StripLights.h"
  22:Generated_Source\PSoC4/StripLights.c **** #include "StripLights_fonts.h"
  23:Generated_Source\PSoC4/StripLights.c **** 
  24:Generated_Source\PSoC4/StripLights.c **** 
  25:Generated_Source\PSoC4/StripLights.c **** void   (*StripLights_EnterCritical)() = (funcPtr)0;
  26:Generated_Source\PSoC4/StripLights.c **** void   (*StripLights_ExitCritical)() = (funcPtr)0;
  27:Generated_Source\PSoC4/StripLights.c **** 
  28:Generated_Source\PSoC4/StripLights.c **** 
  29:Generated_Source\PSoC4/StripLights.c **** uint8  StripLights_initvar = 0;
  30:Generated_Source\PSoC4/StripLights.c **** 
ARM GAS  C:\Users\JAMESS~1\AppData\Local\Temp\ccWH4kxb.s 			page 2


  31:Generated_Source\PSoC4/StripLights.c **** #if(StripLights_MEMORY_TYPE == StripLights_MEMORY_RGB)
  32:Generated_Source\PSoC4/StripLights.c **** uint32  StripLights_ledArray[StripLights_ARRAY_ROWS][StripLights_ARRAY_COLS];
  33:Generated_Source\PSoC4/StripLights.c **** #else
  34:Generated_Source\PSoC4/StripLights.c **** uint8   StripLights_ledArray[StripLights_ARRAY_ROWS][StripLights_ARRAY_COLS];
  35:Generated_Source\PSoC4/StripLights.c **** #endif
  36:Generated_Source\PSoC4/StripLights.c **** 
  37:Generated_Source\PSoC4/StripLights.c **** uint32  StripLights_ledIndex = 0;  
  38:Generated_Source\PSoC4/StripLights.c **** uint32  StripLights_row = 0;
  39:Generated_Source\PSoC4/StripLights.c **** uint32  StripLights_refreshComplete;
  40:Generated_Source\PSoC4/StripLights.c **** 
  41:Generated_Source\PSoC4/StripLights.c **** uint32  StripLights_DimMask;
  42:Generated_Source\PSoC4/StripLights.c **** uint32  StripLights_DimShift;
  43:Generated_Source\PSoC4/StripLights.c **** 
  44:Generated_Source\PSoC4/StripLights.c **** #if( StripLights_GAMMA_CORRECTION == StripLights_GAMMA_ON )
  45:Generated_Source\PSoC4/StripLights.c **** const uint8 StripLights_gamma[] = {
  46:Generated_Source\PSoC4/StripLights.c ****     0,  0,  0,  0,  0,  0,  0,  0,  0,  0,  0,  0,  0,  0,  0,  0,
  47:Generated_Source\PSoC4/StripLights.c ****     0,  0,  0,  0,  0,  0,  0,  0,  0,  0,  0,  0,  1,  1,  1,  1,
  48:Generated_Source\PSoC4/StripLights.c ****     1,  1,  1,  1,  1,  1,  1,  1,  1,  2,  2,  2,  2,  2,  2,  2,
  49:Generated_Source\PSoC4/StripLights.c ****     2,  3,  3,  3,  3,  3,  3,  3,  4,  4,  4,  4,  4,  5,  5,  5,
  50:Generated_Source\PSoC4/StripLights.c ****     5,  6,  6,  6,  6,  7,  7,  7,  7,  8,  8,  8,  9,  9,  9, 10,
  51:Generated_Source\PSoC4/StripLights.c ****    10, 10, 11, 11, 11, 12, 12, 13, 13, 13, 14, 14, 15, 15, 16, 16,
  52:Generated_Source\PSoC4/StripLights.c ****    17, 17, 18, 18, 19, 19, 20, 20, 21, 21, 22, 22, 23, 24, 24, 25,
  53:Generated_Source\PSoC4/StripLights.c ****    25, 26, 27, 27, 28, 29, 29, 30, 31, 32, 32, 33, 34, 35, 35, 36,
  54:Generated_Source\PSoC4/StripLights.c ****    37, 38, 39, 39, 40, 41, 42, 43, 44, 45, 46, 47, 48, 49, 50, 50,
  55:Generated_Source\PSoC4/StripLights.c ****    51, 52, 54, 55, 56, 57, 58, 59, 60, 61, 62, 63, 64, 66, 67, 68,
  56:Generated_Source\PSoC4/StripLights.c ****    69, 70, 72, 73, 74, 75, 77, 78, 79, 81, 82, 83, 85, 86, 87, 89,
  57:Generated_Source\PSoC4/StripLights.c ****    90, 92, 93, 95, 96, 98, 99,101,102,104,105,107,109,110,112,114,
  58:Generated_Source\PSoC4/StripLights.c ****   115,117,119,120,122,124,126,127,129,131,133,135,137,138,140,142,
  59:Generated_Source\PSoC4/StripLights.c ****   144,146,148,150,152,154,156,158,160,162,164,167,169,171,173,175,
  60:Generated_Source\PSoC4/StripLights.c ****   177,180,182,184,186,189,191,193,196,198,200,203,205,208,210,213,
  61:Generated_Source\PSoC4/StripLights.c ****   215,218,220,223,225,228,231,233,236,239,241,244,247,249,252,255 };
  62:Generated_Source\PSoC4/StripLights.c **** 
  63:Generated_Source\PSoC4/StripLights.c **** #endif
  64:Generated_Source\PSoC4/StripLights.c **** 
  65:Generated_Source\PSoC4/StripLights.c **** #if (StripLights_LED_LAYOUT == StripLights_LED_LAYOUT_GRID16X16)
  66:Generated_Source\PSoC4/StripLights.c ****  uint8 const StripLights_cTrans[16][16] =  {
  67:Generated_Source\PSoC4/StripLights.c **** 	/*  0  */  {  0,  1,  2,  3,  4,  5,  6,  7,  8,  9, 10, 11, 12, 13, 14, 15},
  68:Generated_Source\PSoC4/StripLights.c ****     /*  1  */  { 31, 30, 29, 28, 27, 26, 25, 24, 23, 22, 21, 20, 19, 18, 17, 16},
  69:Generated_Source\PSoC4/StripLights.c **** 	/*  2  */  { 32, 33, 34, 35, 36, 37, 38, 39, 40, 41, 42, 43, 44, 45, 46, 47},
  70:Generated_Source\PSoC4/StripLights.c **** 	/*  3  */  { 63, 62, 61, 60, 59, 58, 57, 56, 55, 54, 53, 52, 51, 50, 49, 48}, 
  71:Generated_Source\PSoC4/StripLights.c **** 	/*  4  */  { 64, 65, 66, 67, 68, 69, 70, 71, 72, 73, 74, 75, 76, 77, 78, 79},
  72:Generated_Source\PSoC4/StripLights.c **** 	/*  5  */  { 95, 94, 93, 92, 91, 90, 89, 88, 87, 86, 85, 84, 83, 82, 81, 80},
  73:Generated_Source\PSoC4/StripLights.c **** 	/*  6  */  { 96, 97, 98, 99,100,101,102,103,104,105,106,107,108,109,110,111},
  74:Generated_Source\PSoC4/StripLights.c **** 	/*  7  */  {127,126,125,124,123,122,121,120,119,118,117,116,115,114,113,112},
  75:Generated_Source\PSoC4/StripLights.c **** 	/*  8  */  {128,129,130,131,132,133,134,135,136,137,138,139,140,141,142,143},
  76:Generated_Source\PSoC4/StripLights.c **** 	/*  9  */  {159,158,157,156,155,154,153,152,151,150,149,148,147,146,145,144},
  77:Generated_Source\PSoC4/StripLights.c **** 	/* 10  */  {160,161,162,163,164,165,166,167,168,169,170,171,172,173,174,175},
  78:Generated_Source\PSoC4/StripLights.c **** 	/* 11  */  {191,190,189,188,187,186,185,184,183,182,181,180,179,178,177,176},
  79:Generated_Source\PSoC4/StripLights.c **** 	/* 12  */  {192,193,194,195,196,197,198,199,200,201,202,203,204,205,206,207},
  80:Generated_Source\PSoC4/StripLights.c **** 	/* 13  */  {223,222,221,220,219,218,217,216,215,214,213,212,211,210,209,208},
  81:Generated_Source\PSoC4/StripLights.c **** 	/* 14  */  {224,225,226,227,228,229,230,231,232,233,234,235,236,237,238,239},
  82:Generated_Source\PSoC4/StripLights.c **** 	/* 15  */  {255,254,253,252,251,250,249,248,247,246,245,244,243,242,241,240}};   
  83:Generated_Source\PSoC4/StripLights.c **** #endif
  84:Generated_Source\PSoC4/StripLights.c **** 
  85:Generated_Source\PSoC4/StripLights.c **** 
  86:Generated_Source\PSoC4/StripLights.c **** #if((StripLights_CHIP == StripLights_CHIP_WS2812) || (StripLights_CHIP == StripLights_CHIP_SF2812RG
  87:Generated_Source\PSoC4/StripLights.c **** const uint32 StripLights_CLUT[ ] = {
ARM GAS  C:\Users\JAMESS~1\AppData\Local\Temp\ccWH4kxb.s 			page 3


  88:Generated_Source\PSoC4/StripLights.c **** //xxBBRRGG (WS2812)
  89:Generated_Source\PSoC4/StripLights.c **** //     (24)   [ Index = 0 ]
  90:Generated_Source\PSoC4/StripLights.c **** 0x0000FFFF,  // 0 Yellow
  91:Generated_Source\PSoC4/StripLights.c **** 0x0000CCFF,
  92:Generated_Source\PSoC4/StripLights.c **** 0x000099FF,
  93:Generated_Source\PSoC4/StripLights.c **** 0x000033FF,
  94:Generated_Source\PSoC4/StripLights.c **** 0x000000FF,  // 5  Green
  95:Generated_Source\PSoC4/StripLights.c **** 0x006600B3,
  96:Generated_Source\PSoC4/StripLights.c **** 0x00990099, 
  97:Generated_Source\PSoC4/StripLights.c **** 0x00B30066, 
  98:Generated_Source\PSoC4/StripLights.c **** 0x00CC0033,  // 9 Blue
  99:Generated_Source\PSoC4/StripLights.c **** 0x00B31919, 
 100:Generated_Source\PSoC4/StripLights.c **** 0x00993300, 
 101:Generated_Source\PSoC4/StripLights.c **** 0x00994000, 
 102:Generated_Source\PSoC4/StripLights.c **** 0x00996600, 
 103:Generated_Source\PSoC4/StripLights.c **** 0x00999900, 
 104:Generated_Source\PSoC4/StripLights.c **** 0x0099CC00, 
 105:Generated_Source\PSoC4/StripLights.c **** 0x0066E600, 
 106:Generated_Source\PSoC4/StripLights.c **** 0x0000FF00, // Red
 107:Generated_Source\PSoC4/StripLights.c **** 0x0000FF33, 
 108:Generated_Source\PSoC4/StripLights.c **** 0x0000FF66, 
 109:Generated_Source\PSoC4/StripLights.c **** 0x0000FF80, 
 110:Generated_Source\PSoC4/StripLights.c **** 0x0000FF99,  // 20 Orange
 111:Generated_Source\PSoC4/StripLights.c **** 0x0000FFB2, 
 112:Generated_Source\PSoC4/StripLights.c **** 0x0000FFCC, 
 113:Generated_Source\PSoC4/StripLights.c **** 0x0000FFE5,
 114:Generated_Source\PSoC4/StripLights.c **** // #24
 115:Generated_Source\PSoC4/StripLights.c **** 
 116:Generated_Source\PSoC4/StripLights.c **** //xxBBRRGG  (64)  [ Index = 24 ]
 117:Generated_Source\PSoC4/StripLights.c **** 0x00000000, 0x00550000, 0x00AA0000, 0x00FF0000,  // 0, Black,  LtBlue, MBlue, Blue
 118:Generated_Source\PSoC4/StripLights.c **** 0x00000055, 0x00550055, 0x00AA0055, 0x00FF0055,  // 4, LtGreen
 119:Generated_Source\PSoC4/StripLights.c **** 0x000000AA, 0x005500AA, 0x00AA00AA, 0x00FF00AA,  // 8, MGreen
 120:Generated_Source\PSoC4/StripLights.c **** 0x000000FF, 0x005500FF, 0x00AA00FF, 0x00FF00FF,  // 12 Green
 121:Generated_Source\PSoC4/StripLights.c **** 
 122:Generated_Source\PSoC4/StripLights.c **** 0x00005500, 0x00555500, 0x00AA5500, 0x00FF5500,  // 16, LtRed
 123:Generated_Source\PSoC4/StripLights.c **** 0x00005555, 0x00555555, 0x00AA5555, 0x00FF5555,  // 20, LtYellow
 124:Generated_Source\PSoC4/StripLights.c **** 0x000055AA, 0x005555AA, 0x00AA55AA, 0x00FF55AA,  // 24, 
 125:Generated_Source\PSoC4/StripLights.c **** 0x000055FF, 0x005555FF, 0x00AA55FF, 0x00FF55FF,  // 28,
 126:Generated_Source\PSoC4/StripLights.c **** 
 127:Generated_Source\PSoC4/StripLights.c **** 0x0000AA00, 0x0055AA00, 0x00AAAA00, 0x00FFAA00,  // 32, MRed
 128:Generated_Source\PSoC4/StripLights.c **** 0x0000AA55, 0x0055AA55, 0x00AAAA55, 0x00FFAA55,  // 36, 
 129:Generated_Source\PSoC4/StripLights.c **** 0x0000AAAA, 0x0055AAAA, 0x00AAAAAA, 0x00FFAAAA,  // 55, 
 130:Generated_Source\PSoC4/StripLights.c **** 0x0000AAFF, 0x0055AAFF, 0x00AAAAFF, 0x00FFAAFF,  // 44, 
 131:Generated_Source\PSoC4/StripLights.c **** 
 132:Generated_Source\PSoC4/StripLights.c **** 0x0000FF00, 0x0055FF00, 0x00AAFF00, 0x00FFFF00,  // 48, Red, ??, ??, Magenta
 133:Generated_Source\PSoC4/StripLights.c **** 0x0000FF55, 0x0055FF55, 0x00AAFF55, 0x00FFFF55,  // 52,
 134:Generated_Source\PSoC4/StripLights.c **** 0x0000FFAA, 0x0055FFAA, 0x00AAFFAA, 0x00FFFFAA,  // 56,
 135:Generated_Source\PSoC4/StripLights.c **** 0x0000FFFF, 0x0055FFFF, 0x00AAFFFF, 0x00FFFFFF,  // 60, Yellow,??, ??, White
 136:Generated_Source\PSoC4/StripLights.c **** 
 137:Generated_Source\PSoC4/StripLights.c **** // Misc ( 16 )  [ Index = 88 ]
 138:Generated_Source\PSoC4/StripLights.c **** 0x000080FF,  // SPRING_GREEN
 139:Generated_Source\PSoC4/StripLights.c **** 0x008000FF,  // TURQUOSE
 140:Generated_Source\PSoC4/StripLights.c **** 0x00FF00FF,  // CYAN
 141:Generated_Source\PSoC4/StripLights.c **** 0x00FF0080,  // OCEAN
 142:Generated_Source\PSoC4/StripLights.c **** 0x00FF8000,  // VIOLET
 143:Generated_Source\PSoC4/StripLights.c **** 0x0080FF00,  // RASPBERRY
 144:Generated_Source\PSoC4/StripLights.c **** 0x000000FF,  // GREEN
ARM GAS  C:\Users\JAMESS~1\AppData\Local\Temp\ccWH4kxb.s 			page 4


 145:Generated_Source\PSoC4/StripLights.c **** 0x00202020,  // DIM WHITE
 146:Generated_Source\PSoC4/StripLights.c **** 0x00200000,  // DIM BLUE
 147:Generated_Source\PSoC4/StripLights.c **** 0x10000000,  // INVISIBLE
 148:Generated_Source\PSoC4/StripLights.c **** 0x0000FF00,  // Fire_Dark
 149:Generated_Source\PSoC4/StripLights.c **** 0x0000FF30,  // Fire_Light  // 00FF80
 150:Generated_Source\PSoC4/StripLights.c **** 0xFFFFFFFF,  // Full White
 151:Generated_Source\PSoC4/StripLights.c **** 0xFF000000,  // LED_WHITE
 152:Generated_Source\PSoC4/StripLights.c **** 0xFF808080,  // WHITE_RGB50
 153:Generated_Source\PSoC4/StripLights.c **** 0xFF404040,  // WHITE_RGB25
 154:Generated_Source\PSoC4/StripLights.c **** 
 155:Generated_Source\PSoC4/StripLights.c **** // Temperture Color Blue to Red (16) [ Index = 104 ]
 156:Generated_Source\PSoC4/StripLights.c **** 0x00FF0000, 0x00F01000, 0x00E02000, 0x00D03000,
 157:Generated_Source\PSoC4/StripLights.c **** 0x00C04000, 0x00B05000, 0x00A06000, 0x00907000,
 158:Generated_Source\PSoC4/StripLights.c **** 0x00808000, 0x00709000, 0x0060A000, 0x0050B000,
 159:Generated_Source\PSoC4/StripLights.c **** 0x0040C000, 0x0030D000, 0x0020E000, 0x0000FF00
 160:Generated_Source\PSoC4/StripLights.c **** };
 161:Generated_Source\PSoC4/StripLights.c **** #else  //xxBBGGRR (WS2811)
 162:Generated_Source\PSoC4/StripLights.c **** const uint32 StripLights_CLUT[ ] = {
 163:Generated_Source\PSoC4/StripLights.c **** //     (24)   [ Index = 0 ]
 164:Generated_Source\PSoC4/StripLights.c **** 0x0000FFFF,  // 0 Yellow
 165:Generated_Source\PSoC4/StripLights.c **** 0x0000FFCC,
 166:Generated_Source\PSoC4/StripLights.c **** 0x0000FF99,
 167:Generated_Source\PSoC4/StripLights.c **** 0x0000FF33,
 168:Generated_Source\PSoC4/StripLights.c **** 0x0000FF00,  // 5  Green
 169:Generated_Source\PSoC4/StripLights.c **** 0x0066B300,
 170:Generated_Source\PSoC4/StripLights.c **** 0x00999900, 
 171:Generated_Source\PSoC4/StripLights.c **** 0x00B36600, 
 172:Generated_Source\PSoC4/StripLights.c **** 0x00CC3300,  // 9 Blue
 173:Generated_Source\PSoC4/StripLights.c **** 0x00B31919, 
 174:Generated_Source\PSoC4/StripLights.c **** 0x00990033, 
 175:Generated_Source\PSoC4/StripLights.c **** 0x00990040, 
 176:Generated_Source\PSoC4/StripLights.c **** 0x00990066, 
 177:Generated_Source\PSoC4/StripLights.c **** 0x00990099, 
 178:Generated_Source\PSoC4/StripLights.c **** 0x009900CC, 
 179:Generated_Source\PSoC4/StripLights.c **** 0x006600E6, 
 180:Generated_Source\PSoC4/StripLights.c **** 0x000000FF, 
 181:Generated_Source\PSoC4/StripLights.c **** 0x000033FF, 
 182:Generated_Source\PSoC4/StripLights.c **** 0x000066FF, 
 183:Generated_Source\PSoC4/StripLights.c **** 0x000080FF, 
 184:Generated_Source\PSoC4/StripLights.c **** 0x000080FF,  // 20 Orange
 185:Generated_Source\PSoC4/StripLights.c **** 0x0000B2FF, 
 186:Generated_Source\PSoC4/StripLights.c **** 0x0000CCFF, 
 187:Generated_Source\PSoC4/StripLights.c **** 0x0000E5FF,
 188:Generated_Source\PSoC4/StripLights.c **** // #24
 189:Generated_Source\PSoC4/StripLights.c **** 
 190:Generated_Source\PSoC4/StripLights.c **** //xxBBGGRR  (64)  [ Index = 24 ]
 191:Generated_Source\PSoC4/StripLights.c **** 0x00000000, 0x00550000, 0x00AA0000, 0x00FF0000,  // 0, Black,  LtBlue, MBlue, Blue
 192:Generated_Source\PSoC4/StripLights.c **** 0x00005500, 0x00555500, 0x00AA5500, 0x00FF5500,  // 4, LtGreen
 193:Generated_Source\PSoC4/StripLights.c **** 0x0000AA00, 0x0055AA00, 0x00AAAA00, 0x00FFAA00,  // 8, MGreen
 194:Generated_Source\PSoC4/StripLights.c **** 0x0000FF00, 0x0055FF00, 0x00AAFF00, 0x00FFFF00,  // 12 Green
 195:Generated_Source\PSoC4/StripLights.c **** 
 196:Generated_Source\PSoC4/StripLights.c **** 0x00000055, 0x00550055, 0x00AA0055, 0x00FF0055,  // 16, LtRed
 197:Generated_Source\PSoC4/StripLights.c **** 0x00005555, 0x00555555, 0x00AA5555, 0x00FF5555,  // 20, LtYellow
 198:Generated_Source\PSoC4/StripLights.c **** 0x0000AA55, 0x0055AA55, 0x00AAAA55, 0x00FFAA55,  // 24, 
 199:Generated_Source\PSoC4/StripLights.c **** 0x0000FF55, 0x0055FF55, 0x00AAFF55, 0x00FFFF55,  // 28,
 200:Generated_Source\PSoC4/StripLights.c **** 
 201:Generated_Source\PSoC4/StripLights.c **** 0x000000AA, 0x005500AA, 0x00AA00AA, 0x00FF00AA,  // 32, MRed
ARM GAS  C:\Users\JAMESS~1\AppData\Local\Temp\ccWH4kxb.s 			page 5


 202:Generated_Source\PSoC4/StripLights.c **** 0x000055AA, 0x005555AA, 0x00AA55AA, 0x00FF55AA,  // 36, 
 203:Generated_Source\PSoC4/StripLights.c **** 0x0000AAAA, 0x0055AAAA, 0x00AAAAAA, 0x00FFAAAA,  // 55, 
 204:Generated_Source\PSoC4/StripLights.c **** 0x0000FFAA, 0x0055FFAA, 0x00AAFFAA, 0x00FFFFAA,  // 44, 
 205:Generated_Source\PSoC4/StripLights.c **** 
 206:Generated_Source\PSoC4/StripLights.c **** 0x000000FF, 0x005500FF, 0x00AA00FF, 0x00F00FFF,  // 48, Red, ??, ??, Magenta
 207:Generated_Source\PSoC4/StripLights.c **** 0x000055FF, 0x005555FF, 0x00AA55FF, 0x00FF55FF,  // 52,
 208:Generated_Source\PSoC4/StripLights.c **** 0x0000AAFF, 0x0055AAFF, 0x00AAAAFF, 0x00FFAAFF,  // 56,
 209:Generated_Source\PSoC4/StripLights.c **** 0x0000FFFF, 0x0055FFFF, 0x00AAFFFF, 0x00FFFFFF,  // 60, Yellow,??, ??, White
 210:Generated_Source\PSoC4/StripLights.c **** 
 211:Generated_Source\PSoC4/StripLights.c **** // Misc ( 16 )  [ Index = 88 ]   //xxBBGGRR
 212:Generated_Source\PSoC4/StripLights.c **** 0x0000FF80,  // SPRING_GREEN
 213:Generated_Source\PSoC4/StripLights.c **** 0x0080FF00,  // TURQUOSE
 214:Generated_Source\PSoC4/StripLights.c **** 0x00FFFF00,  // CYAN
 215:Generated_Source\PSoC4/StripLights.c **** 0x00FF8000,  // OCEAN
 216:Generated_Source\PSoC4/StripLights.c **** 0x00FF0080,  // VIOLET
 217:Generated_Source\PSoC4/StripLights.c **** 0x008000FF,  // RASPBERRY
 218:Generated_Source\PSoC4/StripLights.c **** 0x0000FF00,  // GREEN
 219:Generated_Source\PSoC4/StripLights.c **** 0x00202020,  // DIM WHITE
 220:Generated_Source\PSoC4/StripLights.c **** 0x00200000,  // DIM BLUE
 221:Generated_Source\PSoC4/StripLights.c **** 0x10000000,  // INVISIBLE
 222:Generated_Source\PSoC4/StripLights.c **** 0x000000FF,  // Fire_Dark
 223:Generated_Source\PSoC4/StripLights.c **** 0x000030FF,  // Fire_Light  // 0080FF
 224:Generated_Source\PSoC4/StripLights.c **** 0xFFFFFFFF,  // Full White
 225:Generated_Source\PSoC4/StripLights.c **** 0xFF000000,  // White_LED
 226:Generated_Source\PSoC4/StripLights.c **** 0xFF808080,  // WHITE_RGB50
 227:Generated_Source\PSoC4/StripLights.c **** 0xFF404040,  // WHITE_RGB25
 228:Generated_Source\PSoC4/StripLights.c **** 
 229:Generated_Source\PSoC4/StripLights.c **** // Temperture Color Blue to Red (16) [ Index = 104 ]
 230:Generated_Source\PSoC4/StripLights.c **** 0x00FF0000, 0x00F00010, 0x00E00020, 0x00D00030,
 231:Generated_Source\PSoC4/StripLights.c **** 0x00C00040, 0x00B00050, 0x00A00060, 0x00900070,
 232:Generated_Source\PSoC4/StripLights.c **** 0x00800080, 0x00700090, 0x006000A0, 0x005000B0,
 233:Generated_Source\PSoC4/StripLights.c **** 0x004000C0, 0x003000D0, 0x002000E0, 0x000000FF
 234:Generated_Source\PSoC4/StripLights.c **** };
 235:Generated_Source\PSoC4/StripLights.c **** #endif
 236:Generated_Source\PSoC4/StripLights.c **** 
 237:Generated_Source\PSoC4/StripLights.c **** 
 238:Generated_Source\PSoC4/StripLights.c **** 
 239:Generated_Source\PSoC4/StripLights.c **** /*******************************************************************************
 240:Generated_Source\PSoC4/StripLights.c **** * Function Name: StripLights_Start
 241:Generated_Source\PSoC4/StripLights.c **** ********************************************************************************
 242:Generated_Source\PSoC4/StripLights.c **** * Summary:
 243:Generated_Source\PSoC4/StripLights.c **** *  Initialize the hardware. 
 244:Generated_Source\PSoC4/StripLights.c **** *
 245:Generated_Source\PSoC4/StripLights.c **** * Parameters:  
 246:Generated_Source\PSoC4/StripLights.c **** *  void  
 247:Generated_Source\PSoC4/StripLights.c **** *
 248:Generated_Source\PSoC4/StripLights.c **** * Return: 
 249:Generated_Source\PSoC4/StripLights.c **** *  void
 250:Generated_Source\PSoC4/StripLights.c **** *
 251:Generated_Source\PSoC4/StripLights.c **** *******************************************************************************/
 252:Generated_Source\PSoC4/StripLights.c **** void StripLights_Start()
 253:Generated_Source\PSoC4/StripLights.c **** {
 254:Generated_Source\PSoC4/StripLights.c ****     extern uint8 StripLights_initvar;
 255:Generated_Source\PSoC4/StripLights.c ****     extern uint32 StripLights_refreshComplete;
 256:Generated_Source\PSoC4/StripLights.c **** 
 257:Generated_Source\PSoC4/StripLights.c ****     #if (CY_PSOC3 || CY_PSOC5LP)
 258:Generated_Source\PSoC4/StripLights.c ****         int32   StripLights_realClock; 
ARM GAS  C:\Users\JAMESS~1\AppData\Local\Temp\ccWH4kxb.s 			page 6


 259:Generated_Source\PSoC4/StripLights.c ****         int16   StripLights_period;
 260:Generated_Source\PSoC4/StripLights.c ****         int16   StripLights_dataZero;
 261:Generated_Source\PSoC4/StripLights.c ****         int16   StripLights_dataOne;
 262:Generated_Source\PSoC4/StripLights.c ****     #endif /* CY_PSOC5A */
 263:Generated_Source\PSoC4/StripLights.c **** 
 264:Generated_Source\PSoC4/StripLights.c ****     StripLights_ACTL0_REG = StripLights_DISABLE_FIFO;
 265:Generated_Source\PSoC4/StripLights.c **** 
 266:Generated_Source\PSoC4/StripLights.c ****     #if (CY_PSOC3 || CY_PSOC5LP)
 267:Generated_Source\PSoC4/StripLights.c ****         StripLights_realClock = (int32)StripLights_INPUT_CLOCK / (int32)(StripLights_Clock_DIV_LSB 
 268:Generated_Source\PSoC4/StripLights.c ****         StripLights_period    = (int16)(StripLights_realClock/StripLights_WS281X_CLOCK );
 269:Generated_Source\PSoC4/StripLights.c ****         
 270:Generated_Source\PSoC4/StripLights.c ****         StripLights_dataZero  = ((StripLights_period * StripLights_TIME_T0H)/StripLights_TIME_TL_TH
 271:Generated_Source\PSoC4/StripLights.c ****         StripLights_dataOne   = ((StripLights_period * StripLights_TIME_T1H)/StripLights_TIME_TL_TH
 272:Generated_Source\PSoC4/StripLights.c ****         
 273:Generated_Source\PSoC4/StripLights.c ****         StripLights_Period    = (uint8)(StripLights_period - 1);
 274:Generated_Source\PSoC4/StripLights.c ****         StripLights_Compare0  = (uint8)(StripLights_period - StripLights_dataZero);
 275:Generated_Source\PSoC4/StripLights.c ****         StripLights_Compare1  = (uint8)(StripLights_period - StripLights_dataOne);
 276:Generated_Source\PSoC4/StripLights.c **** 
 277:Generated_Source\PSoC4/StripLights.c ****     #elif (CY_PSOC4)
 278:Generated_Source\PSoC4/StripLights.c ****  
 279:Generated_Source\PSoC4/StripLights.c ****         StripLights_Period   = (uint8)StripLights_PERIOD-1;
 280:Generated_Source\PSoC4/StripLights.c ****         StripLights_Compare0 = (uint8)StripLights_COMPARE_ZERO;
 281:Generated_Source\PSoC4/StripLights.c ****         StripLights_Compare1 = (uint8)StripLights_COMPARE_ONE;        
 282:Generated_Source\PSoC4/StripLights.c ****     #endif /* CY_PSOC5A */
 283:Generated_Source\PSoC4/StripLights.c **** 
 284:Generated_Source\PSoC4/StripLights.c ****     
 285:Generated_Source\PSoC4/StripLights.c ****     StripLights_CONTROL = StripLights_ENABLE;
 286:Generated_Source\PSoC4/StripLights.c ****     StripLights_MemClear(StripLights_OFF);
 287:Generated_Source\PSoC4/StripLights.c ****     StripLights_CONTROL = StripLights_DISABLE;
 288:Generated_Source\PSoC4/StripLights.c ****     
 289:Generated_Source\PSoC4/StripLights.c ****     StripLights_SetFont( StripLights_FONT_5X7);
 290:Generated_Source\PSoC4/StripLights.c ****     
 291:Generated_Source\PSoC4/StripLights.c ****     /* Set no dimming, full brightness */
 292:Generated_Source\PSoC4/StripLights.c ****     StripLights_Dim(0); 
 293:Generated_Source\PSoC4/StripLights.c **** 
 294:Generated_Source\PSoC4/StripLights.c ****     if(StripLights_initvar == 0)
 295:Generated_Source\PSoC4/StripLights.c ****     {
 296:Generated_Source\PSoC4/StripLights.c **** 
 297:Generated_Source\PSoC4/StripLights.c ****         StripLights_initvar = 1;
 298:Generated_Source\PSoC4/StripLights.c ****  
 299:Generated_Source\PSoC4/StripLights.c ****          /* Start and set interrupt vector */
 300:Generated_Source\PSoC4/StripLights.c **** 
 301:Generated_Source\PSoC4/StripLights.c **** #if(StripLights_TRANSFER == StripLights_TRANSFER_ISR)
 302:Generated_Source\PSoC4/StripLights.c ****        {
 303:Generated_Source\PSoC4/StripLights.c ****            StripLights_cisr_StartEx(StripLights_CISR);
 304:Generated_Source\PSoC4/StripLights.c **** 		   StripLights_fisr_StartEx(StripLights_FISR);
 305:Generated_Source\PSoC4/StripLights.c ****         
 306:Generated_Source\PSoC4/StripLights.c ****            /* Set the ISRs to the highest priority */
 307:Generated_Source\PSoC4/StripLights.c ****            StripLights_cisr_SetPriority(1u);
 308:Generated_Source\PSoC4/StripLights.c ****            StripLights_fisr_SetPriority(0u);
 309:Generated_Source\PSoC4/StripLights.c ****        }
 310:Generated_Source\PSoC4/StripLights.c **** #endif       
 311:Generated_Source\PSoC4/StripLights.c ****        if(StripLights_TRANSFER == StripLights_TRANSFER_FIRMWARE)
 312:Generated_Source\PSoC4/StripLights.c ****        {
 313:Generated_Source\PSoC4/StripLights.c ****            StripLights_CONTROL = StripLights_ENABLE;    
 314:Generated_Source\PSoC4/StripLights.c ****        }
 315:Generated_Source\PSoC4/StripLights.c ****     }
ARM GAS  C:\Users\JAMESS~1\AppData\Local\Temp\ccWH4kxb.s 			page 7


 316:Generated_Source\PSoC4/StripLights.c ****     StripLights_refreshComplete = 1;
 317:Generated_Source\PSoC4/StripLights.c **** }
 318:Generated_Source\PSoC4/StripLights.c **** 
 319:Generated_Source\PSoC4/StripLights.c **** /*******************************************************************************
 320:Generated_Source\PSoC4/StripLights.c **** * Function Name: StripLights_SetCriticalFuncs
 321:Generated_Source\PSoC4/StripLights.c **** ********************************************************************************
 322:Generated_Source\PSoC4/StripLights.c **** * Summary:
 323:Generated_Source\PSoC4/StripLights.c **** *   Set the enter and exit critical functions
 324:Generated_Source\PSoC4/StripLights.c **** *
 325:Generated_Source\PSoC4/StripLights.c **** * Parameters:  
 326:Generated_Source\PSoC4/StripLights.c **** *  void  
 327:Generated_Source\PSoC4/StripLights.c **** *
 328:Generated_Source\PSoC4/StripLights.c **** * Return: 
 329:Generated_Source\PSoC4/StripLights.c **** *  void
 330:Generated_Source\PSoC4/StripLights.c **** *
 331:Generated_Source\PSoC4/StripLights.c **** *******************************************************************************/
 332:Generated_Source\PSoC4/StripLights.c **** void StripLights_SetCriticalFuncs(funcPtr EnCriticalFunc, funcPtr ExCriticalFunc)
 333:Generated_Source\PSoC4/StripLights.c **** {
 334:Generated_Source\PSoC4/StripLights.c ****     StripLights_EnterCritical = EnCriticalFunc;
 335:Generated_Source\PSoC4/StripLights.c ****     StripLights_ExitCritical  = ExCriticalFunc;   
 336:Generated_Source\PSoC4/StripLights.c **** }
 337:Generated_Source\PSoC4/StripLights.c **** 
 338:Generated_Source\PSoC4/StripLights.c **** /*******************************************************************************
 339:Generated_Source\PSoC4/StripLights.c **** * Function Name: StripLights_TriggerWaitDelay
 340:Generated_Source\PSoC4/StripLights.c **** ********************************************************************************
 341:Generated_Source\PSoC4/StripLights.c **** * Summary:
 342:Generated_Source\PSoC4/StripLights.c **** *   Update the LEDs then wait for completion.
 343:Generated_Source\PSoC4/StripLights.c **** *
 344:Generated_Source\PSoC4/StripLights.c **** * Parameters:  
 345:Generated_Source\PSoC4/StripLights.c **** *  void  
 346:Generated_Source\PSoC4/StripLights.c **** *
 347:Generated_Source\PSoC4/StripLights.c **** * Return: 
 348:Generated_Source\PSoC4/StripLights.c **** *  void
 349:Generated_Source\PSoC4/StripLights.c **** *
 350:Generated_Source\PSoC4/StripLights.c **** *******************************************************************************/
 351:Generated_Source\PSoC4/StripLights.c **** void StripLights_TriggerWaitDelay(uint32 delay)
 352:Generated_Source\PSoC4/StripLights.c **** {
 353:Generated_Source\PSoC4/StripLights.c **** 
 354:Generated_Source\PSoC4/StripLights.c ****     uint32 toCount = 0;
 355:Generated_Source\PSoC4/StripLights.c ****     
 356:Generated_Source\PSoC4/StripLights.c ****     // Call Critical section function here
 357:Generated_Source\PSoC4/StripLights.c ****     if(StripLights_EnterCritical != (funcPtr)0)
 358:Generated_Source\PSoC4/StripLights.c ****     {
 359:Generated_Source\PSoC4/StripLights.c ****         StripLights_EnterCritical();    
 360:Generated_Source\PSoC4/StripLights.c ****     }
 361:Generated_Source\PSoC4/StripLights.c ****     
 362:Generated_Source\PSoC4/StripLights.c ****     StripLights_Trigger(1);           // Trigger the LED update
 363:Generated_Source\PSoC4/StripLights.c ****     
 364:Generated_Source\PSoC4/StripLights.c ****     while( StripLights_Ready() == 0)
 365:Generated_Source\PSoC4/StripLights.c ****     {
 366:Generated_Source\PSoC4/StripLights.c ****         if(toCount > (StripLights_READY_TIMEOUT  * 10)) break; 
 367:Generated_Source\PSoC4/StripLights.c ****         CyDelayUs(100);  
 368:Generated_Source\PSoC4/StripLights.c ****         toCount++;
 369:Generated_Source\PSoC4/StripLights.c ****     }
 370:Generated_Source\PSoC4/StripLights.c ****     
 371:Generated_Source\PSoC4/StripLights.c ****     while(toCount < (delay*10)) 
 372:Generated_Source\PSoC4/StripLights.c ****     {
ARM GAS  C:\Users\JAMESS~1\AppData\Local\Temp\ccWH4kxb.s 			page 8


 373:Generated_Source\PSoC4/StripLights.c ****         toCount++;
 374:Generated_Source\PSoC4/StripLights.c ****         CyDelayUs(100); 
 375:Generated_Source\PSoC4/StripLights.c ****     }
 376:Generated_Source\PSoC4/StripLights.c ****     
 377:Generated_Source\PSoC4/StripLights.c ****     
 378:Generated_Source\PSoC4/StripLights.c ****     // Call undo critical function here
 379:Generated_Source\PSoC4/StripLights.c ****       if(StripLights_ExitCritical != (funcPtr)0)
 380:Generated_Source\PSoC4/StripLights.c ****     {
 381:Generated_Source\PSoC4/StripLights.c ****         StripLights_ExitCritical();    
 382:Generated_Source\PSoC4/StripLights.c ****     }
 383:Generated_Source\PSoC4/StripLights.c ****     
 384:Generated_Source\PSoC4/StripLights.c ****     
 385:Generated_Source\PSoC4/StripLights.c **** }
 386:Generated_Source\PSoC4/StripLights.c **** 
 387:Generated_Source\PSoC4/StripLights.c **** /*******************************************************************************
 388:Generated_Source\PSoC4/StripLights.c **** * Function Name: StripLights_TriggerWait
 389:Generated_Source\PSoC4/StripLights.c **** ********************************************************************************
 390:Generated_Source\PSoC4/StripLights.c **** * Summary:
 391:Generated_Source\PSoC4/StripLights.c **** *   Update the LEDs then waits for completion.
 392:Generated_Source\PSoC4/StripLights.c **** *
 393:Generated_Source\PSoC4/StripLights.c **** * Parameters:  
 394:Generated_Source\PSoC4/StripLights.c ****   rst: Resets the row and column parameters.    
 395:Generated_Source\PSoC4/StripLights.c **** *
 396:Generated_Source\PSoC4/StripLights.c **** * Return: 
 397:Generated_Source\PSoC4/StripLights.c **** *  void
 398:Generated_Source\PSoC4/StripLights.c **** *
 399:Generated_Source\PSoC4/StripLights.c **** *******************************************************************************/
 400:Generated_Source\PSoC4/StripLights.c **** void StripLights_TriggerWait(uint32 rst)
 401:Generated_Source\PSoC4/StripLights.c **** {
 402:Generated_Source\PSoC4/StripLights.c **** 
 403:Generated_Source\PSoC4/StripLights.c ****     
 404:Generated_Source\PSoC4/StripLights.c ****     // Call Critical section function here
 405:Generated_Source\PSoC4/StripLights.c ****     if(StripLights_EnterCritical != (funcPtr)0)
 406:Generated_Source\PSoC4/StripLights.c ****     {
 407:Generated_Source\PSoC4/StripLights.c ****         StripLights_EnterCritical();    
 408:Generated_Source\PSoC4/StripLights.c ****     }
 409:Generated_Source\PSoC4/StripLights.c ****     
 410:Generated_Source\PSoC4/StripLights.c ****     StripLights_Trigger(rst);
 411:Generated_Source\PSoC4/StripLights.c ****     
 412:Generated_Source\PSoC4/StripLights.c ****     while( StripLights_Ready() == 0);
 413:Generated_Source\PSoC4/StripLights.c ****     
 414:Generated_Source\PSoC4/StripLights.c ****     
 415:Generated_Source\PSoC4/StripLights.c ****     // Call undo critical function here
 416:Generated_Source\PSoC4/StripLights.c ****       if(StripLights_ExitCritical != (funcPtr)0)
 417:Generated_Source\PSoC4/StripLights.c ****     {
 418:Generated_Source\PSoC4/StripLights.c ****         StripLights_ExitCritical();    
 419:Generated_Source\PSoC4/StripLights.c ****     }
 420:Generated_Source\PSoC4/StripLights.c ****     
 421:Generated_Source\PSoC4/StripLights.c ****     
 422:Generated_Source\PSoC4/StripLights.c **** }
 423:Generated_Source\PSoC4/StripLights.c **** 
 424:Generated_Source\PSoC4/StripLights.c **** 
 425:Generated_Source\PSoC4/StripLights.c **** /*******************************************************************************
 426:Generated_Source\PSoC4/StripLights.c **** * Function Name: StripLights_Trigger
 427:Generated_Source\PSoC4/StripLights.c **** ********************************************************************************
 428:Generated_Source\PSoC4/StripLights.c **** * Summary:
 429:Generated_Source\PSoC4/StripLights.c **** *   Update the LEDs with graphics memory.
ARM GAS  C:\Users\JAMESS~1\AppData\Local\Temp\ccWH4kxb.s 			page 9


 430:Generated_Source\PSoC4/StripLights.c **** *
 431:Generated_Source\PSoC4/StripLights.c **** * Parameters:  
 432:Generated_Source\PSoC4/StripLights.c **** *  rst: Resets the row and column parameters.  
 433:Generated_Source\PSoC4/StripLights.c **** *
 434:Generated_Source\PSoC4/StripLights.c **** * Return: 
 435:Generated_Source\PSoC4/StripLights.c **** *  void
 436:Generated_Source\PSoC4/StripLights.c **** *
 437:Generated_Source\PSoC4/StripLights.c **** *******************************************************************************/
 438:Generated_Source\PSoC4/StripLights.c **** void StripLights_Trigger(uint32 rst)
 439:Generated_Source\PSoC4/StripLights.c **** {
 440:Generated_Source\PSoC4/StripLights.c ****     uint32 color;
 441:Generated_Source\PSoC4/StripLights.c ****     
 442:Generated_Source\PSoC4/StripLights.c ****     if(rst) 
 443:Generated_Source\PSoC4/StripLights.c ****     {
 444:Generated_Source\PSoC4/StripLights.c ****         StripLights_row = 0;  /* Reset the row */
 445:Generated_Source\PSoC4/StripLights.c ****         StripLights_Channel = 0;
 446:Generated_Source\PSoC4/StripLights.c ****     }
 447:Generated_Source\PSoC4/StripLights.c ****     
 448:Generated_Source\PSoC4/StripLights.c ****     #if(StripLights_MEMORY_TYPE == StripLights_MEMORY_RGB)
 449:Generated_Source\PSoC4/StripLights.c ****        color = StripLights_ledArray[StripLights_row][0];
 450:Generated_Source\PSoC4/StripLights.c ****     #else  /* Else use lookup table */
 451:Generated_Source\PSoC4/StripLights.c ****        color = StripLights_CLUT[ (StripLights_ledArray[StripLights_row][0]) ];
 452:Generated_Source\PSoC4/StripLights.c ****     #endif
 453:Generated_Source\PSoC4/StripLights.c ****     
 454:Generated_Source\PSoC4/StripLights.c ****      color = (color >> StripLights_DimShift) & StripLights_DimMask;
 455:Generated_Source\PSoC4/StripLights.c ****      
 456:Generated_Source\PSoC4/StripLights.c ****     #if(StripLights_GAMMA_CORRECTION == StripLights_GAMMA_ON)
 457:Generated_Source\PSoC4/StripLights.c ****         StripLights_DATA = StripLights_gamma[color & 0x000000FF];  // Write Green
 458:Generated_Source\PSoC4/StripLights.c ****         color = color >> 8;
 459:Generated_Source\PSoC4/StripLights.c ****         StripLights_DATA = StripLights_gamma[color & 0x000000FF];  // Write Red
 460:Generated_Source\PSoC4/StripLights.c ****         color = color >> 8;
 461:Generated_Source\PSoC4/StripLights.c ****         StripLights_DATA = StripLights_gamma[color & 0x000000FF];  // Write Blue
 462:Generated_Source\PSoC4/StripLights.c ****         #if(StripLights_CHIP == StripLights_CHIP_SF2812RGBW)
 463:Generated_Source\PSoC4/StripLights.c ****             color = color >> 8;
 464:Generated_Source\PSoC4/StripLights.c ****             StripLights_DATA = StripLights_gamma[color & 0x000000FF];  // Write White
 465:Generated_Source\PSoC4/StripLights.c ****         #endif
 466:Generated_Source\PSoC4/StripLights.c ****     #else
 467:Generated_Source\PSoC4/StripLights.c ****         StripLights_DATA = (uint8)(color & 0x000000FF);  // Write Green
 468:Generated_Source\PSoC4/StripLights.c ****         color = color >> 8;
 469:Generated_Source\PSoC4/StripLights.c ****         StripLights_DATA = (uint8)(color & 0x000000FF);  // Write Red
 470:Generated_Source\PSoC4/StripLights.c ****         color = color >> 8;
 471:Generated_Source\PSoC4/StripLights.c ****         StripLights_DATA = (uint8)(color & 0x000000FF);  // Write Blue  
 472:Generated_Source\PSoC4/StripLights.c ****         #if(StripLights_CHIP == StripLights_CHIP_SF2812RGBW)
 473:Generated_Source\PSoC4/StripLights.c ****             color = color >> 8;
 474:Generated_Source\PSoC4/StripLights.c ****         StripLights_DATA = (uint8)(color & 0x000000FF);  // Write White 
 475:Generated_Source\PSoC4/StripLights.c ****         #endif
 476:Generated_Source\PSoC4/StripLights.c ****     #endif
 477:Generated_Source\PSoC4/StripLights.c ****   
 478:Generated_Source\PSoC4/StripLights.c ****     StripLights_ledIndex = 1;
 479:Generated_Source\PSoC4/StripLights.c **** 	
 480:Generated_Source\PSoC4/StripLights.c **** 	StripLights_CONTROL = StripLights_ENABLE | StripLights_XFRCMPT_IRQ_EN | StripLights_FIFO_IRQ_EN; 
 481:Generated_Source\PSoC4/StripLights.c ****     StripLights_refreshComplete = 0;
 482:Generated_Source\PSoC4/StripLights.c **** }
 483:Generated_Source\PSoC4/StripLights.c **** 
 484:Generated_Source\PSoC4/StripLights.c **** /*******************************************************************************
 485:Generated_Source\PSoC4/StripLights.c **** * Function Name: StripLights_Ready
 486:Generated_Source\PSoC4/StripLights.c **** ********************************************************************************
ARM GAS  C:\Users\JAMESS~1\AppData\Local\Temp\ccWH4kxb.s 			page 10


 487:Generated_Source\PSoC4/StripLights.c **** * Summary:
 488:Generated_Source\PSoC4/StripLights.c **** *  Checks to see if transfer is complete.
 489:Generated_Source\PSoC4/StripLights.c **** *
 490:Generated_Source\PSoC4/StripLights.c **** * Parameters:  
 491:Generated_Source\PSoC4/StripLights.c **** *  none  
 492:Generated_Source\PSoC4/StripLights.c **** *
 493:Generated_Source\PSoC4/StripLights.c **** * Return: 
 494:Generated_Source\PSoC4/StripLights.c **** *  Zero if not complete, non-zero if transfer complete.
 495:Generated_Source\PSoC4/StripLights.c **** *
 496:Generated_Source\PSoC4/StripLights.c **** *******************************************************************************/
 497:Generated_Source\PSoC4/StripLights.c **** uint32 StripLights_Ready(void)
 498:Generated_Source\PSoC4/StripLights.c **** {
 499:Generated_Source\PSoC4/StripLights.c ****     if(StripLights_refreshComplete )
 500:Generated_Source\PSoC4/StripLights.c ****     {
 501:Generated_Source\PSoC4/StripLights.c ****         StripLights_CONTROL = StripLights_DISABLE;
 502:Generated_Source\PSoC4/StripLights.c ****         return((uint32)1);
 503:Generated_Source\PSoC4/StripLights.c ****     }
 504:Generated_Source\PSoC4/StripLights.c ****     else
 505:Generated_Source\PSoC4/StripLights.c ****     {
 506:Generated_Source\PSoC4/StripLights.c ****          return((uint32)0);
 507:Generated_Source\PSoC4/StripLights.c ****     }
 508:Generated_Source\PSoC4/StripLights.c **** }
 509:Generated_Source\PSoC4/StripLights.c **** 
 510:Generated_Source\PSoC4/StripLights.c **** 
 511:Generated_Source\PSoC4/StripLights.c **** /*******************************************************************************
 512:Generated_Source\PSoC4/StripLights.c **** * Function Name: StripLights_Stop
 513:Generated_Source\PSoC4/StripLights.c **** ********************************************************************************
 514:Generated_Source\PSoC4/StripLights.c **** * Summary:
 515:Generated_Source\PSoC4/StripLights.c **** *  Stop all transfers.
 516:Generated_Source\PSoC4/StripLights.c **** *
 517:Generated_Source\PSoC4/StripLights.c **** * Parameters:  
 518:Generated_Source\PSoC4/StripLights.c **** *  None 
 519:Generated_Source\PSoC4/StripLights.c **** *
 520:Generated_Source\PSoC4/StripLights.c **** * Return: 
 521:Generated_Source\PSoC4/StripLights.c **** *  void
 522:Generated_Source\PSoC4/StripLights.c **** *
 523:Generated_Source\PSoC4/StripLights.c **** *******************************************************************************/
 524:Generated_Source\PSoC4/StripLights.c **** void StripLights_Stop()
 525:Generated_Source\PSoC4/StripLights.c **** {
 526:Generated_Source\PSoC4/StripLights.c ****     StripLights_CONTROL = StripLights_DISABLE;
 527:Generated_Source\PSoC4/StripLights.c **** }
 528:Generated_Source\PSoC4/StripLights.c **** 
 529:Generated_Source\PSoC4/StripLights.c **** uint32 StripLights_getColor( uint32 color)
 530:Generated_Source\PSoC4/StripLights.c **** {
 531:Generated_Source\PSoC4/StripLights.c ****     #if(StripLights_MEMORY_TYPE == StripLights_MEMORY_RGB)
 532:Generated_Source\PSoC4/StripLights.c ****     color = StripLights_CLUT[color];
 533:Generated_Source\PSoC4/StripLights.c ****     #endif
 534:Generated_Source\PSoC4/StripLights.c **** 
 535:Generated_Source\PSoC4/StripLights.c ****     return(color);
 536:Generated_Source\PSoC4/StripLights.c **** }
 537:Generated_Source\PSoC4/StripLights.c **** 
 538:Generated_Source\PSoC4/StripLights.c **** /*******************************************************************************
 539:Generated_Source\PSoC4/StripLights.c **** * Function Name: StripLights_ColorInc
 540:Generated_Source\PSoC4/StripLights.c **** ********************************************************************************
 541:Generated_Source\PSoC4/StripLights.c **** * Summary:
 542:Generated_Source\PSoC4/StripLights.c **** *  Increment color throught the color lookup table.
 543:Generated_Source\PSoC4/StripLights.c **** *
ARM GAS  C:\Users\JAMESS~1\AppData\Local\Temp\ccWH4kxb.s 			page 11


 544:Generated_Source\PSoC4/StripLights.c **** * Parameters:  
 545:Generated_Source\PSoC4/StripLights.c **** *  uint32 incValue: Increment through color table by incValue. 
 546:Generated_Source\PSoC4/StripLights.c **** *
 547:Generated_Source\PSoC4/StripLights.c **** * Return: Color at next location.
 548:Generated_Source\PSoC4/StripLights.c **** *  
 549:Generated_Source\PSoC4/StripLights.c **** *
 550:Generated_Source\PSoC4/StripLights.c **** *******************************************************************************/
 551:Generated_Source\PSoC4/StripLights.c **** uint32 StripLights_ColorInc(uint32 incValue)
 552:Generated_Source\PSoC4/StripLights.c **** {
 553:Generated_Source\PSoC4/StripLights.c ****     uint32 color;
 554:Generated_Source\PSoC4/StripLights.c ****     extern const uint32 StripLights_CLUT[];
 555:Generated_Source\PSoC4/StripLights.c ****     static uint32 colorIndex = 0;
 556:Generated_Source\PSoC4/StripLights.c ****     
 557:Generated_Source\PSoC4/StripLights.c ****     colorIndex += incValue;
 558:Generated_Source\PSoC4/StripLights.c ****     colorIndex = colorIndex % StripLights_COLOR_WHEEL_SIZE;
 559:Generated_Source\PSoC4/StripLights.c **** 
 560:Generated_Source\PSoC4/StripLights.c ****     #if(StripLights_MEMORY_TYPE == StripLights_MEMORY_RGB)
 561:Generated_Source\PSoC4/StripLights.c ****        color = StripLights_CLUT[ colorIndex ];
 562:Generated_Source\PSoC4/StripLights.c ****     #else
 563:Generated_Source\PSoC4/StripLights.c ****         color = colorIndex;
 564:Generated_Source\PSoC4/StripLights.c ****     #endif
 565:Generated_Source\PSoC4/StripLights.c ****     return(color);
 566:Generated_Source\PSoC4/StripLights.c **** }
 567:Generated_Source\PSoC4/StripLights.c **** /*****************************************************************************
 568:Generated_Source\PSoC4/StripLights.c **** * Function Name: StripLights_FISR
 569:Generated_Source\PSoC4/StripLights.c **** ******************************************************************************
 570:Generated_Source\PSoC4/StripLights.c **** *
 571:Generated_Source\PSoC4/StripLights.c **** * Summary:
 572:Generated_Source\PSoC4/StripLights.c **** *  Interrupt service handler for data transfer for each LED 
 573:Generated_Source\PSoC4/StripLights.c **** *
 574:Generated_Source\PSoC4/StripLights.c **** * Parameters:  
 575:Generated_Source\PSoC4/StripLights.c **** *  void
 576:Generated_Source\PSoC4/StripLights.c **** *
 577:Generated_Source\PSoC4/StripLights.c **** * Return: 
 578:Generated_Source\PSoC4/StripLights.c **** *  void 
 579:Generated_Source\PSoC4/StripLights.c **** *
 580:Generated_Source\PSoC4/StripLights.c **** * Reentrant: 
 581:Generated_Source\PSoC4/StripLights.c **** *  No
 582:Generated_Source\PSoC4/StripLights.c **** *
 583:Generated_Source\PSoC4/StripLights.c **** *****************************************************************************/
 584:Generated_Source\PSoC4/StripLights.c **** CY_ISR( StripLights_FISR)
 585:Generated_Source\PSoC4/StripLights.c **** {
  28              		.loc 1 585 0
  29              		.cfi_startproc
  30              		@ args = 0, pretend = 0, frame = 0
  31              		@ frame_needed = 0, uses_anonymous_args = 0
  32 0000 70B5     		push	{r4, r5, r6, lr}
  33              		.cfi_def_cfa_offset 16
  34              		.cfi_offset 4, -16
  35              		.cfi_offset 5, -12
  36              		.cfi_offset 6, -8
  37              		.cfi_offset 14, -4
 586:Generated_Source\PSoC4/StripLights.c ****     extern uint32  StripLights_DimMask;
 587:Generated_Source\PSoC4/StripLights.c ****     extern uint32  StripLights_DimShift;
 588:Generated_Source\PSoC4/StripLights.c ****     uint32 static color;
 589:Generated_Source\PSoC4/StripLights.c ****    
 590:Generated_Source\PSoC4/StripLights.c ****     #if(StripLights_MEMORY_TYPE == StripLights_MEMORY_RGB)
ARM GAS  C:\Users\JAMESS~1\AppData\Local\Temp\ccWH4kxb.s 			page 12


 591:Generated_Source\PSoC4/StripLights.c ****         color = StripLights_ledArray[StripLights_row][StripLights_ledIndex];
  38              		.loc 1 591 0
  39 0002 1449     		ldr	r1, .L3
  40 0004 0A68     		ldr	r2, [r1]
  41 0006 5300     		lsls	r3, r2, #1
  42 0008 9B18     		adds	r3, r3, r2
  43 000a 1A01     		lsls	r2, r3, #4
  44 000c D31A     		subs	r3, r2, r3
  45 000e 4A68     		ldr	r2, [r1, #4]
  46 0010 9B18     		adds	r3, r3, r2
  47 0012 9B00     		lsls	r3, r3, #2
  48 0014 1048     		ldr	r0, .L3+4
  49 0016 1B58     		ldr	r3, [r3, r0]
 592:Generated_Source\PSoC4/StripLights.c ****     #else  /* Else use lookup table */
 593:Generated_Source\PSoC4/StripLights.c ****         color = StripLights_CLUT[ (StripLights_ledArray[StripLights_row][StripLights_ledIndex]) ];
 594:Generated_Source\PSoC4/StripLights.c ****     #endif
 595:Generated_Source\PSoC4/StripLights.c **** 
 596:Generated_Source\PSoC4/StripLights.c ****     color = (color >> StripLights_DimShift) & StripLights_DimMask;  
  50              		.loc 1 596 0
  51 0018 1048     		ldr	r0, .L3+8
  52 001a 0068     		ldr	r0, [r0]
  53 001c C340     		lsrs	r3, r3, r0
  54 001e 1048     		ldr	r0, .L3+12
  55 0020 0068     		ldr	r0, [r0]
  56 0022 0340     		ands	r3, r0
 597:Generated_Source\PSoC4/StripLights.c **** 
 598:Generated_Source\PSoC4/StripLights.c ****     #if(StripLights_GAMMA_CORRECTION == StripLights_GAMMA_ON)
 599:Generated_Source\PSoC4/StripLights.c **** 
 600:Generated_Source\PSoC4/StripLights.c ****         StripLights_DATA = StripLights_gamma[color & 0x000000FF];  // Write Green
  57              		.loc 1 600 0
  58 0024 FF25     		movs	r5, #255
  59 0026 2800     		movs	r0, r5
  60 0028 1840     		ands	r0, r3
  61 002a 0E4C     		ldr	r4, .L3+16
  62 002c 265C     		ldrb	r6, [r4, r0]
  63 002e 0E48     		ldr	r0, .L3+20
  64 0030 0670     		strb	r6, [r0]
 601:Generated_Source\PSoC4/StripLights.c ****         color = color >> 8;
  65              		.loc 1 601 0
  66 0032 1E0A     		lsrs	r6, r3, #8
 602:Generated_Source\PSoC4/StripLights.c ****         StripLights_DATA = StripLights_gamma[color & 0x000000FF];  // Write Red
  67              		.loc 1 602 0
  68 0034 2E40     		ands	r6, r5
  69 0036 A65D     		ldrb	r6, [r4, r6]
  70 0038 0670     		strb	r6, [r0]
 603:Generated_Source\PSoC4/StripLights.c ****         color = color >> 8;
  71              		.loc 1 603 0
  72 003a 1B0C     		lsrs	r3, r3, #16
  73 003c 8B60     		str	r3, [r1, #8]
 604:Generated_Source\PSoC4/StripLights.c ****         StripLights_DATA = StripLights_gamma[color & 0x000000FF];  // Write Blue
  74              		.loc 1 604 0
  75 003e 2B40     		ands	r3, r5
  76 0040 E35C     		ldrb	r3, [r4, r3]
  77 0042 0370     		strb	r3, [r0]
 605:Generated_Source\PSoC4/StripLights.c ****         #if(StripLights_CHIP == StripLights_CHIP_SF2812RGBW)
 606:Generated_Source\PSoC4/StripLights.c ****             color = color >> 8;
 607:Generated_Source\PSoC4/StripLights.c ****             StripLights_DATA = StripLights_gamma[color & 0x000000FF];  // Write White 
ARM GAS  C:\Users\JAMESS~1\AppData\Local\Temp\ccWH4kxb.s 			page 13


 608:Generated_Source\PSoC4/StripLights.c ****         #endif
 609:Generated_Source\PSoC4/StripLights.c ****     #else
 610:Generated_Source\PSoC4/StripLights.c **** 
 611:Generated_Source\PSoC4/StripLights.c ****         StripLights_DATA = (uint8)(color & 0x000000FF);  // Write Green
 612:Generated_Source\PSoC4/StripLights.c ****         color = color >> 8;
 613:Generated_Source\PSoC4/StripLights.c ****         StripLights_DATA = (uint8)(color & 0x000000FF);  // Write Red
 614:Generated_Source\PSoC4/StripLights.c ****         color = color >> 8;
 615:Generated_Source\PSoC4/StripLights.c ****         StripLights_DATA = (uint8)(color & 0x000000FF);  // Write Blue    
 616:Generated_Source\PSoC4/StripLights.c ****          #if(StripLights_CHIP == StripLights_CHIP_SF2812RGBW)
 617:Generated_Source\PSoC4/StripLights.c ****             color = color >> 8;
 618:Generated_Source\PSoC4/StripLights.c ****             StripLights_DATA = (uint8)(color & 0x000000FF);  // Write White 
 619:Generated_Source\PSoC4/StripLights.c ****         #endif 
 620:Generated_Source\PSoC4/StripLights.c ****     #endif
 621:Generated_Source\PSoC4/StripLights.c ****     
 622:Generated_Source\PSoC4/StripLights.c ****     StripLights_ledIndex++;
  78              		.loc 1 622 0
  79 0044 0132     		adds	r2, r2, #1
  80 0046 4A60     		str	r2, [r1, #4]
 623:Generated_Source\PSoC4/StripLights.c ****     if(StripLights_ledIndex >= StripLights_ARRAY_COLS)
  81              		.loc 1 623 0
  82 0048 2C2A     		cmp	r2, #44
  83 004a 02D9     		bls	.L1
 624:Generated_Source\PSoC4/StripLights.c ****     {
 625:Generated_Source\PSoC4/StripLights.c ****         StripLights_CONTROL = StripLights_ENABLE | StripLights_XFRCMPT_IRQ_EN; 
  84              		.loc 1 625 0
  85 004c 1122     		movs	r2, #17
  86 004e 074B     		ldr	r3, .L3+24
  87 0050 1A70     		strb	r2, [r3]
  88              	.L1:
 626:Generated_Source\PSoC4/StripLights.c ****     }
 627:Generated_Source\PSoC4/StripLights.c **** }
  89              		.loc 1 627 0
  90              		@ sp needed
  91 0052 70BD     		pop	{r4, r5, r6, pc}
  92              	.L4:
  93              		.align	2
  94              	.L3:
  95 0054 00000000 		.word	.LANCHOR0
  96 0058 00000000 		.word	StripLights_ledArray
  97 005c 00000000 		.word	StripLights_DimShift
  98 0060 00000000 		.word	StripLights_DimMask
  99 0064 00000000 		.word	.LANCHOR1
 100 0068 42000F40 		.word	1074724930
 101 006c 72000F40 		.word	1074724978
 102              		.cfi_endproc
 103              	.LFE41:
 104              		.size	StripLights_FISR, .-StripLights_FISR
 105              		.section	.text.StripLights_CISR,"ax",%progbits
 106              		.align	2
 107              		.global	StripLights_CISR
 108              		.code	16
 109              		.thumb_func
 110              		.type	StripLights_CISR, %function
 111              	StripLights_CISR:
 112              	.LFB42:
 628:Generated_Source\PSoC4/StripLights.c **** 
 629:Generated_Source\PSoC4/StripLights.c **** /*****************************************************************************
ARM GAS  C:\Users\JAMESS~1\AppData\Local\Temp\ccWH4kxb.s 			page 14


 630:Generated_Source\PSoC4/StripLights.c **** * Function Name: StripLights_CISR
 631:Generated_Source\PSoC4/StripLights.c **** ******************************************************************************
 632:Generated_Source\PSoC4/StripLights.c **** *
 633:Generated_Source\PSoC4/StripLights.c **** * Summary:
 634:Generated_Source\PSoC4/StripLights.c **** *  Interrupt service handler after each row is complete.
 635:Generated_Source\PSoC4/StripLights.c **** *
 636:Generated_Source\PSoC4/StripLights.c **** * Parameters:  
 637:Generated_Source\PSoC4/StripLights.c **** *  void
 638:Generated_Source\PSoC4/StripLights.c **** *
 639:Generated_Source\PSoC4/StripLights.c **** * Return: 
 640:Generated_Source\PSoC4/StripLights.c **** *  void 
 641:Generated_Source\PSoC4/StripLights.c **** *
 642:Generated_Source\PSoC4/StripLights.c **** * Reentrant: 
 643:Generated_Source\PSoC4/StripLights.c **** *  No
 644:Generated_Source\PSoC4/StripLights.c **** *
 645:Generated_Source\PSoC4/StripLights.c **** *****************************************************************************/
 646:Generated_Source\PSoC4/StripLights.c **** CY_ISR( StripLights_CISR)
 647:Generated_Source\PSoC4/StripLights.c **** {
 113              		.loc 1 647 0
 114              		.cfi_startproc
 115              		@ args = 0, pretend = 0, frame = 0
 116              		@ frame_needed = 0, uses_anonymous_args = 0
 117 0000 30B5     		push	{r4, r5, lr}
 118              		.cfi_def_cfa_offset 12
 119              		.cfi_offset 4, -12
 120              		.cfi_offset 5, -8
 121              		.cfi_offset 14, -4
 648:Generated_Source\PSoC4/StripLights.c ****     extern uint32  StripLights_DimMask;
 649:Generated_Source\PSoC4/StripLights.c ****     extern uint32  StripLights_DimShift;
 650:Generated_Source\PSoC4/StripLights.c ****     uint32 static color;
 651:Generated_Source\PSoC4/StripLights.c ****     extern uint32 StripLights_refreshComplete;
 652:Generated_Source\PSoC4/StripLights.c **** 
 653:Generated_Source\PSoC4/StripLights.c **** 	StripLights_CONTROL = StripLights_ENABLE |StripLights_NEXT_ROW;
 122              		.loc 1 653 0
 123 0002 2122     		movs	r2, #33
 124 0004 184B     		ldr	r3, .L8
 125 0006 1A70     		strb	r2, [r3]
 654:Generated_Source\PSoC4/StripLights.c ****     StripLights_row++;
 126              		.loc 1 654 0
 127 0008 184A     		ldr	r2, .L8+4
 128 000a 1368     		ldr	r3, [r2]
 129 000c 0133     		adds	r3, r3, #1
 130 000e 1360     		str	r3, [r2]
 655:Generated_Source\PSoC4/StripLights.c ****     if( StripLights_row < StripLights_ARRAY_ROWS)  /* More Rows to do  */
 131              		.loc 1 655 0
 132 0010 002B     		cmp	r3, #0
 133 0012 24D1     		bne	.L6
 656:Generated_Source\PSoC4/StripLights.c ****     {
 657:Generated_Source\PSoC4/StripLights.c ****         StripLights_Channel = StripLights_row;  
 134              		.loc 1 657 0
 135 0014 DBB2     		uxtb	r3, r3
 136 0016 164A     		ldr	r2, .L8+8
 137 0018 1370     		strb	r3, [r2]
 658:Generated_Source\PSoC4/StripLights.c **** 
 659:Generated_Source\PSoC4/StripLights.c **** 		#if(StripLights_MEMORY_TYPE == StripLights_MEMORY_RGB)
 660:Generated_Source\PSoC4/StripLights.c ****              color = StripLights_ledArray[StripLights_row][0];
 138              		.loc 1 660 0
ARM GAS  C:\Users\JAMESS~1\AppData\Local\Temp\ccWH4kxb.s 			page 15


 139 001a 144A     		ldr	r2, .L8+4
 140 001c B423     		movs	r3, #180
 141 001e 1168     		ldr	r1, [r2]
 142 0020 4B43     		muls	r3, r1
 143 0022 1449     		ldr	r1, .L8+12
 144 0024 5B58     		ldr	r3, [r3, r1]
 661:Generated_Source\PSoC4/StripLights.c ****         #else  /* Else use lookup table */
 662:Generated_Source\PSoC4/StripLights.c ****              color = StripLights_CLUT[ (StripLights_ledArray[StripLights_row][0]) ];
 663:Generated_Source\PSoC4/StripLights.c ****         #endif
 664:Generated_Source\PSoC4/StripLights.c **** 
 665:Generated_Source\PSoC4/StripLights.c ****         color = (color >> StripLights_DimShift) & StripLights_DimMask;
 145              		.loc 1 665 0
 146 0026 1449     		ldr	r1, .L8+16
 147 0028 0968     		ldr	r1, [r1]
 148 002a CB40     		lsrs	r3, r3, r1
 149 002c 1349     		ldr	r1, .L8+20
 150 002e 0968     		ldr	r1, [r1]
 151 0030 0B40     		ands	r3, r1
 666:Generated_Source\PSoC4/StripLights.c ****  
 667:Generated_Source\PSoC4/StripLights.c ****         #if(StripLights_GAMMA_CORRECTION == StripLights_GAMMA_ON)
 668:Generated_Source\PSoC4/StripLights.c ****             StripLights_DATA = StripLights_gamma[color & 0x000000FF];  // Write Green
 152              		.loc 1 668 0
 153 0032 FF24     		movs	r4, #255
 154 0034 2100     		movs	r1, r4
 155 0036 1940     		ands	r1, r3
 156 0038 1148     		ldr	r0, .L8+24
 157 003a 455C     		ldrb	r5, [r0, r1]
 158 003c 1149     		ldr	r1, .L8+28
 159 003e 0D70     		strb	r5, [r1]
 669:Generated_Source\PSoC4/StripLights.c ****             color = color >> 8;
 160              		.loc 1 669 0
 161 0040 1D0A     		lsrs	r5, r3, #8
 670:Generated_Source\PSoC4/StripLights.c ****             StripLights_DATA = StripLights_gamma[color & 0x000000FF];  // Write Red
 162              		.loc 1 670 0
 163 0042 2540     		ands	r5, r4
 164 0044 455D     		ldrb	r5, [r0, r5]
 165 0046 0D70     		strb	r5, [r1]
 671:Generated_Source\PSoC4/StripLights.c ****             color = color >> 8;
 166              		.loc 1 671 0
 167 0048 1B0C     		lsrs	r3, r3, #16
 168 004a D360     		str	r3, [r2, #12]
 672:Generated_Source\PSoC4/StripLights.c ****             StripLights_DATA = StripLights_gamma[color & 0x000000FF];  // Write Blue
 169              		.loc 1 672 0
 170 004c 2340     		ands	r3, r4
 171 004e C35C     		ldrb	r3, [r0, r3]
 172 0050 0B70     		strb	r3, [r1]
 673:Generated_Source\PSoC4/StripLights.c ****              #if(StripLights_CHIP == StripLights_CHIP_SF2812RGBW)
 674:Generated_Source\PSoC4/StripLights.c ****                 color = color >> 8;
 675:Generated_Source\PSoC4/StripLights.c ****                 StripLights_DATA = StripLights_gamma[color & 0x000000FF];  // Write White 
 676:Generated_Source\PSoC4/StripLights.c ****             #endif 
 677:Generated_Source\PSoC4/StripLights.c ****         #else
 678:Generated_Source\PSoC4/StripLights.c ****             StripLights_DATA = (uint8)(color & 0x000000FF);  // Write Green
 679:Generated_Source\PSoC4/StripLights.c ****             color = color >> 8;
 680:Generated_Source\PSoC4/StripLights.c ****             StripLights_DATA = (uint8)(color & 0x000000FF);  // Write Red
 681:Generated_Source\PSoC4/StripLights.c ****             color = color >> 8;
 682:Generated_Source\PSoC4/StripLights.c ****             StripLights_DATA = (uint8)(color & 0x000000FF);  // Write Blue  
 683:Generated_Source\PSoC4/StripLights.c ****             #if(StripLights_CHIP == StripLights_CHIP_SF2812RGBW)
ARM GAS  C:\Users\JAMESS~1\AppData\Local\Temp\ccWH4kxb.s 			page 16


 684:Generated_Source\PSoC4/StripLights.c ****                 color = color >> 8;
 685:Generated_Source\PSoC4/StripLights.c ****                 StripLights_DATA = (uint8)(color & 0x000000FF);  // Write White 
 686:Generated_Source\PSoC4/StripLights.c ****             #endif  
 687:Generated_Source\PSoC4/StripLights.c ****         #endif
 688:Generated_Source\PSoC4/StripLights.c ****        
 689:Generated_Source\PSoC4/StripLights.c ****         StripLights_ledIndex = 1;
 173              		.loc 1 689 0
 174 0052 0123     		movs	r3, #1
 175 0054 5360     		str	r3, [r2, #4]
 690:Generated_Source\PSoC4/StripLights.c **** 		StripLights_CONTROL = StripLights_ENABLE | StripLights_XFRCMPT_IRQ_EN | StripLights_FIFO_IRQ_EN; 
 176              		.loc 1 690 0
 177 0056 1922     		movs	r2, #25
 178 0058 034B     		ldr	r3, .L8
 179 005a 1A70     		strb	r2, [r3]
 180 005c 02E0     		b	.L5
 181              	.L6:
 691:Generated_Source\PSoC4/StripLights.c ****     }
 692:Generated_Source\PSoC4/StripLights.c ****     else
 693:Generated_Source\PSoC4/StripLights.c ****     {
 694:Generated_Source\PSoC4/StripLights.c ****         StripLights_refreshComplete = 1u;
 182              		.loc 1 694 0
 183 005e 0122     		movs	r2, #1
 184 0060 094B     		ldr	r3, .L8+32
 185 0062 1A60     		str	r2, [r3]
 186              	.L5:
 695:Generated_Source\PSoC4/StripLights.c ****     }
 696:Generated_Source\PSoC4/StripLights.c **** }
 187              		.loc 1 696 0
 188              		@ sp needed
 189 0064 30BD     		pop	{r4, r5, pc}
 190              	.L9:
 191 0066 C046     		.align	2
 192              	.L8:
 193 0068 72000F40 		.word	1074724978
 194 006c 00000000 		.word	.LANCHOR0
 195 0070 70000F40 		.word	1074724976
 196 0074 00000000 		.word	StripLights_ledArray
 197 0078 00000000 		.word	StripLights_DimShift
 198 007c 00000000 		.word	StripLights_DimMask
 199 0080 00000000 		.word	.LANCHOR1
 200 0084 42000F40 		.word	1074724930
 201 0088 00000000 		.word	StripLights_refreshComplete
 202              		.cfi_endproc
 203              	.LFE42:
 204              		.size	StripLights_CISR, .-StripLights_CISR
 205              		.section	.text.StripLights_SetCriticalFuncs,"ax",%progbits
 206              		.align	2
 207              		.global	StripLights_SetCriticalFuncs
 208              		.code	16
 209              		.thumb_func
 210              		.type	StripLights_SetCriticalFuncs, %function
 211              	StripLights_SetCriticalFuncs:
 212              	.LFB33:
 333:Generated_Source\PSoC4/StripLights.c ****     StripLights_EnterCritical = EnCriticalFunc;
 213              		.loc 1 333 0
 214              		.cfi_startproc
 215              		@ args = 0, pretend = 0, frame = 0
ARM GAS  C:\Users\JAMESS~1\AppData\Local\Temp\ccWH4kxb.s 			page 17


 216              		@ frame_needed = 0, uses_anonymous_args = 0
 217              		@ link register save eliminated.
 218              	.LVL0:
 334:Generated_Source\PSoC4/StripLights.c ****     StripLights_ExitCritical  = ExCriticalFunc;   
 219              		.loc 1 334 0
 220 0000 014B     		ldr	r3, .L11
 221 0002 1861     		str	r0, [r3, #16]
 335:Generated_Source\PSoC4/StripLights.c **** }
 222              		.loc 1 335 0
 223 0004 5961     		str	r1, [r3, #20]
 336:Generated_Source\PSoC4/StripLights.c **** 
 224              		.loc 1 336 0
 225              		@ sp needed
 226 0006 7047     		bx	lr
 227              	.L12:
 228              		.align	2
 229              	.L11:
 230 0008 00000000 		.word	.LANCHOR0
 231              		.cfi_endproc
 232              	.LFE33:
 233              		.size	StripLights_SetCriticalFuncs, .-StripLights_SetCriticalFuncs
 234              		.section	.text.StripLights_Trigger,"ax",%progbits
 235              		.align	2
 236              		.global	StripLights_Trigger
 237              		.code	16
 238              		.thumb_func
 239              		.type	StripLights_Trigger, %function
 240              	StripLights_Trigger:
 241              	.LFB36:
 439:Generated_Source\PSoC4/StripLights.c ****     uint32 color;
 242              		.loc 1 439 0
 243              		.cfi_startproc
 244              		@ args = 0, pretend = 0, frame = 0
 245              		@ frame_needed = 0, uses_anonymous_args = 0
 246              	.LVL1:
 247 0000 30B5     		push	{r4, r5, lr}
 248              		.cfi_def_cfa_offset 12
 249              		.cfi_offset 4, -12
 250              		.cfi_offset 5, -8
 251              		.cfi_offset 14, -4
 442:Generated_Source\PSoC4/StripLights.c ****     {
 252              		.loc 1 442 0
 253 0002 0028     		cmp	r0, #0
 254 0004 04D0     		beq	.L14
 444:Generated_Source\PSoC4/StripLights.c ****         StripLights_Channel = 0;
 255              		.loc 1 444 0
 256 0006 0023     		movs	r3, #0
 257 0008 134A     		ldr	r2, .L15
 258 000a 1360     		str	r3, [r2]
 445:Generated_Source\PSoC4/StripLights.c ****     }
 259              		.loc 1 445 0
 260 000c 134A     		ldr	r2, .L15+4
 261 000e 1370     		strb	r3, [r2]
 262              	.L14:
 449:Generated_Source\PSoC4/StripLights.c ****     #else  /* Else use lookup table */
 263              		.loc 1 449 0
 264 0010 114D     		ldr	r5, .L15
ARM GAS  C:\Users\JAMESS~1\AppData\Local\Temp\ccWH4kxb.s 			page 18


 265 0012 B423     		movs	r3, #180
 266 0014 2A68     		ldr	r2, [r5]
 267 0016 5343     		muls	r3, r2
 268 0018 114A     		ldr	r2, .L15+8
 269 001a 9B58     		ldr	r3, [r3, r2]
 270              	.LVL2:
 454:Generated_Source\PSoC4/StripLights.c ****      
 271              		.loc 1 454 0
 272 001c 114A     		ldr	r2, .L15+12
 273 001e 1268     		ldr	r2, [r2]
 274 0020 D340     		lsrs	r3, r3, r2
 275              	.LVL3:
 276 0022 114A     		ldr	r2, .L15+16
 277 0024 1268     		ldr	r2, [r2]
 278 0026 1340     		ands	r3, r2
 279              	.LVL4:
 457:Generated_Source\PSoC4/StripLights.c ****         color = color >> 8;
 280              		.loc 1 457 0
 281 0028 FF20     		movs	r0, #255
 282              	.LVL5:
 283 002a 0200     		movs	r2, r0
 284 002c 1A40     		ands	r2, r3
 285 002e 0F49     		ldr	r1, .L15+20
 286 0030 8C5C     		ldrb	r4, [r1, r2]
 287 0032 0F4A     		ldr	r2, .L15+24
 288 0034 1470     		strb	r4, [r2]
 458:Generated_Source\PSoC4/StripLights.c ****         StripLights_DATA = StripLights_gamma[color & 0x000000FF];  // Write Red
 289              		.loc 1 458 0
 290 0036 1C0A     		lsrs	r4, r3, #8
 291              	.LVL6:
 459:Generated_Source\PSoC4/StripLights.c ****         color = color >> 8;
 292              		.loc 1 459 0
 293 0038 0440     		ands	r4, r0
 294              	.LVL7:
 295 003a 0C5D     		ldrb	r4, [r1, r4]
 296 003c 1470     		strb	r4, [r2]
 460:Generated_Source\PSoC4/StripLights.c ****         StripLights_DATA = StripLights_gamma[color & 0x000000FF];  // Write Blue
 297              		.loc 1 460 0
 298 003e 1B0C     		lsrs	r3, r3, #16
 299              	.LVL8:
 461:Generated_Source\PSoC4/StripLights.c ****         #if(StripLights_CHIP == StripLights_CHIP_SF2812RGBW)
 300              		.loc 1 461 0
 301 0040 0340     		ands	r3, r0
 302              	.LVL9:
 303 0042 CB5C     		ldrb	r3, [r1, r3]
 304 0044 1370     		strb	r3, [r2]
 478:Generated_Source\PSoC4/StripLights.c **** 	
 305              		.loc 1 478 0
 306 0046 0123     		movs	r3, #1
 307 0048 6B60     		str	r3, [r5, #4]
 480:Generated_Source\PSoC4/StripLights.c ****     StripLights_refreshComplete = 0;
 308              		.loc 1 480 0
 309 004a 1922     		movs	r2, #25
 310 004c 094B     		ldr	r3, .L15+28
 311 004e 1A70     		strb	r2, [r3]
 481:Generated_Source\PSoC4/StripLights.c **** }
 312              		.loc 1 481 0
ARM GAS  C:\Users\JAMESS~1\AppData\Local\Temp\ccWH4kxb.s 			page 19


 313 0050 0022     		movs	r2, #0
 314 0052 094B     		ldr	r3, .L15+32
 315 0054 1A60     		str	r2, [r3]
 482:Generated_Source\PSoC4/StripLights.c **** 
 316              		.loc 1 482 0
 317              		@ sp needed
 318 0056 30BD     		pop	{r4, r5, pc}
 319              	.L16:
 320              		.align	2
 321              	.L15:
 322 0058 00000000 		.word	.LANCHOR0
 323 005c 70000F40 		.word	1074724976
 324 0060 00000000 		.word	StripLights_ledArray
 325 0064 00000000 		.word	StripLights_DimShift
 326 0068 00000000 		.word	StripLights_DimMask
 327 006c 00000000 		.word	.LANCHOR1
 328 0070 42000F40 		.word	1074724930
 329 0074 72000F40 		.word	1074724978
 330 0078 00000000 		.word	StripLights_refreshComplete
 331              		.cfi_endproc
 332              	.LFE36:
 333              		.size	StripLights_Trigger, .-StripLights_Trigger
 334              		.section	.text.StripLights_Ready,"ax",%progbits
 335              		.align	2
 336              		.global	StripLights_Ready
 337              		.code	16
 338              		.thumb_func
 339              		.type	StripLights_Ready, %function
 340              	StripLights_Ready:
 341              	.LFB37:
 498:Generated_Source\PSoC4/StripLights.c ****     if(StripLights_refreshComplete )
 342              		.loc 1 498 0
 343              		.cfi_startproc
 344              		@ args = 0, pretend = 0, frame = 0
 345              		@ frame_needed = 0, uses_anonymous_args = 0
 346              		@ link register save eliminated.
 499:Generated_Source\PSoC4/StripLights.c ****     {
 347              		.loc 1 499 0
 348 0000 044B     		ldr	r3, .L19
 349 0002 1868     		ldr	r0, [r3]
 350 0004 0028     		cmp	r0, #0
 351 0006 03D0     		beq	.L18
 501:Generated_Source\PSoC4/StripLights.c ****         return((uint32)1);
 352              		.loc 1 501 0
 353 0008 0022     		movs	r2, #0
 354 000a 034B     		ldr	r3, .L19+4
 355 000c 1A70     		strb	r2, [r3]
 502:Generated_Source\PSoC4/StripLights.c ****     }
 356              		.loc 1 502 0
 357 000e 0120     		movs	r0, #1
 358              	.L18:
 508:Generated_Source\PSoC4/StripLights.c **** 
 359              		.loc 1 508 0
 360              		@ sp needed
 361 0010 7047     		bx	lr
 362              	.L20:
 363 0012 C046     		.align	2
ARM GAS  C:\Users\JAMESS~1\AppData\Local\Temp\ccWH4kxb.s 			page 20


 364              	.L19:
 365 0014 00000000 		.word	StripLights_refreshComplete
 366 0018 72000F40 		.word	1074724978
 367              		.cfi_endproc
 368              	.LFE37:
 369              		.size	StripLights_Ready, .-StripLights_Ready
 370              		.section	.text.StripLights_TriggerWaitDelay,"ax",%progbits
 371              		.align	2
 372              		.global	StripLights_TriggerWaitDelay
 373              		.code	16
 374              		.thumb_func
 375              		.type	StripLights_TriggerWaitDelay, %function
 376              	StripLights_TriggerWaitDelay:
 377              	.LFB34:
 352:Generated_Source\PSoC4/StripLights.c **** 
 378              		.loc 1 352 0
 379              		.cfi_startproc
 380              		@ args = 0, pretend = 0, frame = 0
 381              		@ frame_needed = 0, uses_anonymous_args = 0
 382              	.LVL10:
 383 0000 70B5     		push	{r4, r5, r6, lr}
 384              		.cfi_def_cfa_offset 16
 385              		.cfi_offset 4, -16
 386              		.cfi_offset 5, -12
 387              		.cfi_offset 6, -8
 388              		.cfi_offset 14, -4
 389 0002 0500     		movs	r5, r0
 390              	.LVL11:
 357:Generated_Source\PSoC4/StripLights.c ****     {
 391              		.loc 1 357 0
 392 0004 124B     		ldr	r3, .L28
 393 0006 1B69     		ldr	r3, [r3, #16]
 394 0008 002B     		cmp	r3, #0
 395 000a 00D0     		beq	.L22
 359:Generated_Source\PSoC4/StripLights.c ****     }
 396              		.loc 1 359 0
 397 000c 9847     		blx	r3
 398              	.LVL12:
 399              	.L22:
 362:Generated_Source\PSoC4/StripLights.c ****     
 400              		.loc 1 362 0
 401 000e 0120     		movs	r0, #1
 402 0010 FFF7FEFF 		bl	StripLights_Trigger
 403              	.LVL13:
 354:Generated_Source\PSoC4/StripLights.c ****     
 404              		.loc 1 354 0
 405 0014 0024     		movs	r4, #0
 364:Generated_Source\PSoC4/StripLights.c ****     {
 406              		.loc 1 364 0
 407 0016 07E0     		b	.L23
 408              	.LVL14:
 409              	.L25:
 366:Generated_Source\PSoC4/StripLights.c ****         CyDelayUs(100);  
 410              		.loc 1 366 0
 411 0018 FA23     		movs	r3, #250
 412 001a DB00     		lsls	r3, r3, #3
 413 001c 9C42     		cmp	r4, r3
ARM GAS  C:\Users\JAMESS~1\AppData\Local\Temp\ccWH4kxb.s 			page 21


 414 001e 0CD8     		bhi	.L24
 367:Generated_Source\PSoC4/StripLights.c ****         toCount++;
 415              		.loc 1 367 0
 416 0020 6420     		movs	r0, #100
 417 0022 FFF7FEFF 		bl	CyDelayUs
 418              	.LVL15:
 368:Generated_Source\PSoC4/StripLights.c ****     }
 419              		.loc 1 368 0
 420 0026 0134     		adds	r4, r4, #1
 421              	.LVL16:
 422              	.L23:
 364:Generated_Source\PSoC4/StripLights.c ****     {
 423              		.loc 1 364 0
 424 0028 FFF7FEFF 		bl	StripLights_Ready
 425              	.LVL17:
 426 002c 0028     		cmp	r0, #0
 427 002e F3D0     		beq	.L25
 428 0030 03E0     		b	.L24
 429              	.L26:
 373:Generated_Source\PSoC4/StripLights.c ****         CyDelayUs(100); 
 430              		.loc 1 373 0
 431 0032 0134     		adds	r4, r4, #1
 432              	.LVL18:
 374:Generated_Source\PSoC4/StripLights.c ****     }
 433              		.loc 1 374 0
 434 0034 6420     		movs	r0, #100
 435 0036 FFF7FEFF 		bl	CyDelayUs
 436              	.LVL19:
 437              	.L24:
 371:Generated_Source\PSoC4/StripLights.c ****     {
 438              		.loc 1 371 0
 439 003a AB00     		lsls	r3, r5, #2
 440 003c 5B19     		adds	r3, r3, r5
 441 003e 5A00     		lsls	r2, r3, #1
 442 0040 9442     		cmp	r4, r2
 443 0042 F6D3     		bcc	.L26
 379:Generated_Source\PSoC4/StripLights.c ****     {
 444              		.loc 1 379 0
 445 0044 024B     		ldr	r3, .L28
 446 0046 5B69     		ldr	r3, [r3, #20]
 447 0048 002B     		cmp	r3, #0
 448 004a 00D0     		beq	.L21
 381:Generated_Source\PSoC4/StripLights.c ****     }
 449              		.loc 1 381 0
 450 004c 9847     		blx	r3
 451              	.LVL20:
 452              	.L21:
 385:Generated_Source\PSoC4/StripLights.c **** 
 453              		.loc 1 385 0
 454              		@ sp needed
 455              	.LVL21:
 456              	.LVL22:
 457 004e 70BD     		pop	{r4, r5, r6, pc}
 458              	.L29:
 459              		.align	2
 460              	.L28:
 461 0050 00000000 		.word	.LANCHOR0
ARM GAS  C:\Users\JAMESS~1\AppData\Local\Temp\ccWH4kxb.s 			page 22


 462              		.cfi_endproc
 463              	.LFE34:
 464              		.size	StripLights_TriggerWaitDelay, .-StripLights_TriggerWaitDelay
 465              		.section	.text.StripLights_TriggerWait,"ax",%progbits
 466              		.align	2
 467              		.global	StripLights_TriggerWait
 468              		.code	16
 469              		.thumb_func
 470              		.type	StripLights_TriggerWait, %function
 471              	StripLights_TriggerWait:
 472              	.LFB35:
 401:Generated_Source\PSoC4/StripLights.c **** 
 473              		.loc 1 401 0
 474              		.cfi_startproc
 475              		@ args = 0, pretend = 0, frame = 0
 476              		@ frame_needed = 0, uses_anonymous_args = 0
 477              	.LVL23:
 478 0000 10B5     		push	{r4, lr}
 479              		.cfi_def_cfa_offset 8
 480              		.cfi_offset 4, -8
 481              		.cfi_offset 14, -4
 482 0002 0400     		movs	r4, r0
 405:Generated_Source\PSoC4/StripLights.c ****     {
 483              		.loc 1 405 0
 484 0004 084B     		ldr	r3, .L34
 485 0006 1B69     		ldr	r3, [r3, #16]
 486 0008 002B     		cmp	r3, #0
 487 000a 00D0     		beq	.L31
 407:Generated_Source\PSoC4/StripLights.c ****     }
 488              		.loc 1 407 0
 489 000c 9847     		blx	r3
 490              	.LVL24:
 491              	.L31:
 410:Generated_Source\PSoC4/StripLights.c ****     
 492              		.loc 1 410 0
 493 000e 2000     		movs	r0, r4
 494 0010 FFF7FEFF 		bl	StripLights_Trigger
 495              	.LVL25:
 496              	.L32:
 412:Generated_Source\PSoC4/StripLights.c ****     
 497              		.loc 1 412 0 discriminator 1
 498 0014 FFF7FEFF 		bl	StripLights_Ready
 499              	.LVL26:
 500 0018 0028     		cmp	r0, #0
 501 001a FBD0     		beq	.L32
 416:Generated_Source\PSoC4/StripLights.c ****     {
 502              		.loc 1 416 0
 503 001c 024B     		ldr	r3, .L34
 504 001e 5B69     		ldr	r3, [r3, #20]
 505 0020 002B     		cmp	r3, #0
 506 0022 00D0     		beq	.L30
 418:Generated_Source\PSoC4/StripLights.c ****     }
 507              		.loc 1 418 0
 508 0024 9847     		blx	r3
 509              	.LVL27:
 510              	.L30:
 422:Generated_Source\PSoC4/StripLights.c **** 
ARM GAS  C:\Users\JAMESS~1\AppData\Local\Temp\ccWH4kxb.s 			page 23


 511              		.loc 1 422 0
 512              		@ sp needed
 513              	.LVL28:
 514 0026 10BD     		pop	{r4, pc}
 515              	.L35:
 516              		.align	2
 517              	.L34:
 518 0028 00000000 		.word	.LANCHOR0
 519              		.cfi_endproc
 520              	.LFE35:
 521              		.size	StripLights_TriggerWait, .-StripLights_TriggerWait
 522              		.section	.text.StripLights_Stop,"ax",%progbits
 523              		.align	2
 524              		.global	StripLights_Stop
 525              		.code	16
 526              		.thumb_func
 527              		.type	StripLights_Stop, %function
 528              	StripLights_Stop:
 529              	.LFB38:
 525:Generated_Source\PSoC4/StripLights.c ****     StripLights_CONTROL = StripLights_DISABLE;
 530              		.loc 1 525 0
 531              		.cfi_startproc
 532              		@ args = 0, pretend = 0, frame = 0
 533              		@ frame_needed = 0, uses_anonymous_args = 0
 534              		@ link register save eliminated.
 526:Generated_Source\PSoC4/StripLights.c **** }
 535              		.loc 1 526 0
 536 0000 0022     		movs	r2, #0
 537 0002 014B     		ldr	r3, .L37
 538 0004 1A70     		strb	r2, [r3]
 527:Generated_Source\PSoC4/StripLights.c **** 
 539              		.loc 1 527 0
 540              		@ sp needed
 541 0006 7047     		bx	lr
 542              	.L38:
 543              		.align	2
 544              	.L37:
 545 0008 72000F40 		.word	1074724978
 546              		.cfi_endproc
 547              	.LFE38:
 548              		.size	StripLights_Stop, .-StripLights_Stop
 549              		.section	.text.StripLights_getColor,"ax",%progbits
 550              		.align	2
 551              		.global	StripLights_getColor
 552              		.code	16
 553              		.thumb_func
 554              		.type	StripLights_getColor, %function
 555              	StripLights_getColor:
 556              	.LFB39:
 530:Generated_Source\PSoC4/StripLights.c ****     #if(StripLights_MEMORY_TYPE == StripLights_MEMORY_RGB)
 557              		.loc 1 530 0
 558              		.cfi_startproc
 559              		@ args = 0, pretend = 0, frame = 0
 560              		@ frame_needed = 0, uses_anonymous_args = 0
 561              		@ link register save eliminated.
 562              	.LVL29:
 532:Generated_Source\PSoC4/StripLights.c ****     #endif
ARM GAS  C:\Users\JAMESS~1\AppData\Local\Temp\ccWH4kxb.s 			page 24


 563              		.loc 1 532 0
 564 0000 8000     		lsls	r0, r0, #2
 565              	.LVL30:
 566 0002 014B     		ldr	r3, .L40
 567 0004 C058     		ldr	r0, [r0, r3]
 568              	.LVL31:
 536:Generated_Source\PSoC4/StripLights.c **** 
 569              		.loc 1 536 0
 570              		@ sp needed
 571 0006 7047     		bx	lr
 572              	.L41:
 573              		.align	2
 574              	.L40:
 575 0008 00010000 		.word	.LANCHOR2
 576              		.cfi_endproc
 577              	.LFE39:
 578              		.size	StripLights_getColor, .-StripLights_getColor
 579              		.global	__aeabi_uidivmod
 580              		.section	.text.StripLights_ColorInc,"ax",%progbits
 581              		.align	2
 582              		.global	StripLights_ColorInc
 583              		.code	16
 584              		.thumb_func
 585              		.type	StripLights_ColorInc, %function
 586              	StripLights_ColorInc:
 587              	.LFB40:
 552:Generated_Source\PSoC4/StripLights.c ****     uint32 color;
 588              		.loc 1 552 0
 589              		.cfi_startproc
 590              		@ args = 0, pretend = 0, frame = 0
 591              		@ frame_needed = 0, uses_anonymous_args = 0
 592              	.LVL32:
 593 0000 10B5     		push	{r4, lr}
 594              		.cfi_def_cfa_offset 8
 595              		.cfi_offset 4, -8
 596              		.cfi_offset 14, -4
 557:Generated_Source\PSoC4/StripLights.c ****     colorIndex = colorIndex % StripLights_COLOR_WHEEL_SIZE;
 597              		.loc 1 557 0
 598 0002 064C     		ldr	r4, .L43
 599 0004 A369     		ldr	r3, [r4, #24]
 600 0006 9C46     		mov	ip, r3
 601 0008 6044     		add	r0, r0, ip
 602              	.LVL33:
 558:Generated_Source\PSoC4/StripLights.c **** 
 603              		.loc 1 558 0
 604 000a 1821     		movs	r1, #24
 605 000c FFF7FEFF 		bl	__aeabi_uidivmod
 606              	.LVL34:
 607 0010 A161     		str	r1, [r4, #24]
 561:Generated_Source\PSoC4/StripLights.c ****     #else
 608              		.loc 1 561 0
 609 0012 8900     		lsls	r1, r1, #2
 610 0014 024B     		ldr	r3, .L43+4
 611 0016 C858     		ldr	r0, [r1, r3]
 612              	.LVL35:
 566:Generated_Source\PSoC4/StripLights.c **** /*****************************************************************************
 613              		.loc 1 566 0
ARM GAS  C:\Users\JAMESS~1\AppData\Local\Temp\ccWH4kxb.s 			page 25


 614              		@ sp needed
 615 0018 10BD     		pop	{r4, pc}
 616              	.L44:
 617 001a C046     		.align	2
 618              	.L43:
 619 001c 00000000 		.word	.LANCHOR0
 620 0020 00010000 		.word	.LANCHOR2
 621              		.cfi_endproc
 622              	.LFE40:
 623              		.size	StripLights_ColorInc, .-StripLights_ColorInc
 624              		.section	.text.StripLights_MemClear,"ax",%progbits
 625              		.align	2
 626              		.global	StripLights_MemClear
 627              		.code	16
 628              		.thumb_func
 629              		.type	StripLights_MemClear, %function
 630              	StripLights_MemClear:
 631              	.LFB44:
 697:Generated_Source\PSoC4/StripLights.c **** 
 698:Generated_Source\PSoC4/StripLights.c **** 
 699:Generated_Source\PSoC4/StripLights.c **** /*******************************************************************************
 700:Generated_Source\PSoC4/StripLights.c **** * Function Name: StripLights_DisplayClear
 701:Generated_Source\PSoC4/StripLights.c **** ********************************************************************************
 702:Generated_Source\PSoC4/StripLights.c **** * Summary:
 703:Generated_Source\PSoC4/StripLights.c **** *   Clear memory with a given value and update the display.
 704:Generated_Source\PSoC4/StripLights.c **** *
 705:Generated_Source\PSoC4/StripLights.c **** * Parameters:  
 706:Generated_Source\PSoC4/StripLights.c **** *  uint32 color: Color to clear display. 
 707:Generated_Source\PSoC4/StripLights.c **** *
 708:Generated_Source\PSoC4/StripLights.c **** * Return: 
 709:Generated_Source\PSoC4/StripLights.c **** *  void
 710:Generated_Source\PSoC4/StripLights.c **** *
 711:Generated_Source\PSoC4/StripLights.c **** *******************************************************************************/
 712:Generated_Source\PSoC4/StripLights.c **** void StripLights_DisplayClear(uint32 color)
 713:Generated_Source\PSoC4/StripLights.c **** {   
 714:Generated_Source\PSoC4/StripLights.c ****     StripLights_MemClear(color);
 715:Generated_Source\PSoC4/StripLights.c ****     StripLights_Trigger(1);
 716:Generated_Source\PSoC4/StripLights.c **** }
 717:Generated_Source\PSoC4/StripLights.c **** 
 718:Generated_Source\PSoC4/StripLights.c **** /*******************************************************************************
 719:Generated_Source\PSoC4/StripLights.c **** * Function Name: StripLights_MemClear
 720:Generated_Source\PSoC4/StripLights.c **** ********************************************************************************
 721:Generated_Source\PSoC4/StripLights.c **** * Summary:
 722:Generated_Source\PSoC4/StripLights.c **** *   Clear LED memory with given color, but do not update display.
 723:Generated_Source\PSoC4/StripLights.c **** *
 724:Generated_Source\PSoC4/StripLights.c **** * Parameters:  
 725:Generated_Source\PSoC4/StripLights.c **** *  uint32 color: Color to clear display.  
 726:Generated_Source\PSoC4/StripLights.c **** *
 727:Generated_Source\PSoC4/StripLights.c **** * Return: 
 728:Generated_Source\PSoC4/StripLights.c **** *  void
 729:Generated_Source\PSoC4/StripLights.c **** *
 730:Generated_Source\PSoC4/StripLights.c **** *******************************************************************************/
 731:Generated_Source\PSoC4/StripLights.c **** void StripLights_MemClear(uint32 color)
 732:Generated_Source\PSoC4/StripLights.c **** {
 632              		.loc 1 732 0
 633              		.cfi_startproc
 634              		@ args = 0, pretend = 0, frame = 0
ARM GAS  C:\Users\JAMESS~1\AppData\Local\Temp\ccWH4kxb.s 			page 26


 635              		@ frame_needed = 0, uses_anonymous_args = 0
 636              	.LVL36:
 637 0000 10B5     		push	{r4, lr}
 638              		.cfi_def_cfa_offset 8
 639              		.cfi_offset 4, -8
 640              		.cfi_offset 14, -4
 641              	.LVL37:
 733:Generated_Source\PSoC4/StripLights.c ****     uint32  row, col;
 734:Generated_Source\PSoC4/StripLights.c ****     
 735:Generated_Source\PSoC4/StripLights.c ****     for(row=0; row < StripLights_ARRAY_ROWS; row++)
 642              		.loc 1 735 0
 643 0002 0024     		movs	r4, #0
 644 0004 0DE0     		b	.L46
 645              	.LVL38:
 646              	.L47:
 736:Generated_Source\PSoC4/StripLights.c ****     {
 737:Generated_Source\PSoC4/StripLights.c ****         for(col=0; col < StripLights_ARRAY_COLS; col++)
 738:Generated_Source\PSoC4/StripLights.c ****         {
 739:Generated_Source\PSoC4/StripLights.c ****             #if(StripLights_MEMORY_TYPE == StripLights_MEMORY_RGB)
 740:Generated_Source\PSoC4/StripLights.c ****                 StripLights_ledArray[row][col] = color;
 647              		.loc 1 740 0 discriminator 3
 648 0006 6300     		lsls	r3, r4, #1
 649 0008 1B19     		adds	r3, r3, r4
 650 000a 1A01     		lsls	r2, r3, #4
 651 000c D31A     		subs	r3, r2, r3
 652 000e 5B18     		adds	r3, r3, r1
 653 0010 9B00     		lsls	r3, r3, #2
 654 0012 054A     		ldr	r2, .L50
 655 0014 9850     		str	r0, [r3, r2]
 737:Generated_Source\PSoC4/StripLights.c ****         {
 656              		.loc 1 737 0 discriminator 3
 657 0016 0131     		adds	r1, r1, #1
 658              	.LVL39:
 659 0018 00E0     		b	.L48
 660              	.LVL40:
 661              	.L49:
 662 001a 0021     		movs	r1, #0
 663              	.L48:
 664              	.LVL41:
 737:Generated_Source\PSoC4/StripLights.c ****         {
 665              		.loc 1 737 0 is_stmt 0 discriminator 1
 666 001c 2C29     		cmp	r1, #44
 667 001e F2D9     		bls	.L47
 735:Generated_Source\PSoC4/StripLights.c ****     {
 668              		.loc 1 735 0 is_stmt 1 discriminator 2
 669 0020 0134     		adds	r4, r4, #1
 670              	.LVL42:
 671              	.L46:
 735:Generated_Source\PSoC4/StripLights.c ****     {
 672              		.loc 1 735 0 is_stmt 0 discriminator 1
 673 0022 002C     		cmp	r4, #0
 674 0024 F9D0     		beq	.L49
 741:Generated_Source\PSoC4/StripLights.c ****             #else  /* Else use lookup table */
 742:Generated_Source\PSoC4/StripLights.c ****                  StripLights_ledArray[row][col] = (uint8)color;
 743:Generated_Source\PSoC4/StripLights.c ****             #endif
 744:Generated_Source\PSoC4/StripLights.c ****         }
 745:Generated_Source\PSoC4/StripLights.c ****     }
ARM GAS  C:\Users\JAMESS~1\AppData\Local\Temp\ccWH4kxb.s 			page 27


 746:Generated_Source\PSoC4/StripLights.c **** }
 675              		.loc 1 746 0 is_stmt 1
 676              		@ sp needed
 677              	.LVL43:
 678 0026 10BD     		pop	{r4, pc}
 679              	.L51:
 680              		.align	2
 681              	.L50:
 682 0028 00000000 		.word	StripLights_ledArray
 683              		.cfi_endproc
 684              	.LFE44:
 685              		.size	StripLights_MemClear, .-StripLights_MemClear
 686              		.section	.text.StripLights_DisplayClear,"ax",%progbits
 687              		.align	2
 688              		.global	StripLights_DisplayClear
 689              		.code	16
 690              		.thumb_func
 691              		.type	StripLights_DisplayClear, %function
 692              	StripLights_DisplayClear:
 693              	.LFB43:
 713:Generated_Source\PSoC4/StripLights.c ****     StripLights_MemClear(color);
 694              		.loc 1 713 0
 695              		.cfi_startproc
 696              		@ args = 0, pretend = 0, frame = 0
 697              		@ frame_needed = 0, uses_anonymous_args = 0
 698              	.LVL44:
 699 0000 10B5     		push	{r4, lr}
 700              		.cfi_def_cfa_offset 8
 701              		.cfi_offset 4, -8
 702              		.cfi_offset 14, -4
 714:Generated_Source\PSoC4/StripLights.c ****     StripLights_Trigger(1);
 703              		.loc 1 714 0
 704 0002 FFF7FEFF 		bl	StripLights_MemClear
 705              	.LVL45:
 715:Generated_Source\PSoC4/StripLights.c **** }
 706              		.loc 1 715 0
 707 0006 0120     		movs	r0, #1
 708 0008 FFF7FEFF 		bl	StripLights_Trigger
 709              	.LVL46:
 716:Generated_Source\PSoC4/StripLights.c **** 
 710              		.loc 1 716 0
 711              		@ sp needed
 712 000c 10BD     		pop	{r4, pc}
 713              		.cfi_endproc
 714              	.LFE43:
 715              		.size	StripLights_DisplayClear, .-StripLights_DisplayClear
 716 000e C046     		.section	.text.StripLights_WriteColor,"ax",%progbits
 717              		.align	2
 718              		.global	StripLights_WriteColor
 719              		.code	16
 720              		.thumb_func
 721              		.type	StripLights_WriteColor, %function
 722              	StripLights_WriteColor:
 723              	.LFB45:
 747:Generated_Source\PSoC4/StripLights.c **** 
 748:Generated_Source\PSoC4/StripLights.c **** 
 749:Generated_Source\PSoC4/StripLights.c **** 
ARM GAS  C:\Users\JAMESS~1\AppData\Local\Temp\ccWH4kxb.s 			page 28


 750:Generated_Source\PSoC4/StripLights.c **** /*******************************************************************************
 751:Generated_Source\PSoC4/StripLights.c **** * Function Name: StripLights_WriteColor
 752:Generated_Source\PSoC4/StripLights.c **** ********************************************************************************
 753:Generated_Source\PSoC4/StripLights.c **** * Summary:
 754:Generated_Source\PSoC4/StripLights.c **** *   Write given color directly to output register.
 755:Generated_Source\PSoC4/StripLights.c **** *
 756:Generated_Source\PSoC4/StripLights.c **** * Parameters:  
 757:Generated_Source\PSoC4/StripLights.c **** *  uint32 color: Color to write to display. 
 758:Generated_Source\PSoC4/StripLights.c **** *
 759:Generated_Source\PSoC4/StripLights.c **** * Return: 
 760:Generated_Source\PSoC4/StripLights.c **** *  void
 761:Generated_Source\PSoC4/StripLights.c **** *
 762:Generated_Source\PSoC4/StripLights.c **** *******************************************************************************/
 763:Generated_Source\PSoC4/StripLights.c **** void StripLights_WriteColor(uint32 color)
 764:Generated_Source\PSoC4/StripLights.c **** {
 724              		.loc 1 764 0
 725              		.cfi_startproc
 726              		@ args = 0, pretend = 0, frame = 0
 727              		@ frame_needed = 0, uses_anonymous_args = 0
 728              		@ link register save eliminated.
 729              	.LVL47:
 730              	.L54:
 765:Generated_Source\PSoC4/StripLights.c ****     while( (StripLights_STATUS & StripLights_FIFO_EMPTY) == 0); 
 731              		.loc 1 765 0 discriminator 1
 732 0000 064B     		ldr	r3, .L55
 733 0002 1B78     		ldrb	r3, [r3]
 734 0004 DB07     		lsls	r3, r3, #31
 735 0006 FBD5     		bpl	.L54
 766:Generated_Source\PSoC4/StripLights.c **** 
 767:Generated_Source\PSoC4/StripLights.c ****     StripLights_DATA = (uint8)(color & 0x000000FF);  // Write Green
 736              		.loc 1 767 0
 737 0008 C2B2     		uxtb	r2, r0
 738 000a 054B     		ldr	r3, .L55+4
 739 000c 1A70     		strb	r2, [r3]
 768:Generated_Source\PSoC4/StripLights.c ****     color = color >> 8;
 740              		.loc 1 768 0
 741 000e 020A     		lsrs	r2, r0, #8
 742              	.LVL48:
 769:Generated_Source\PSoC4/StripLights.c ****     StripLights_DATA = (uint8)(color & 0x000000FF);  // Write Red
 743              		.loc 1 769 0
 744 0010 D2B2     		uxtb	r2, r2
 745              	.LVL49:
 746 0012 1A70     		strb	r2, [r3]
 770:Generated_Source\PSoC4/StripLights.c ****     color = color >> 8;
 747              		.loc 1 770 0
 748 0014 000C     		lsrs	r0, r0, #16
 749              	.LVL50:
 771:Generated_Source\PSoC4/StripLights.c ****     StripLights_DATA = (uint8)(color & 0x000000FF);  // Write Blue
 750              		.loc 1 771 0
 751 0016 C0B2     		uxtb	r0, r0
 752              	.LVL51:
 753 0018 1870     		strb	r0, [r3]
 772:Generated_Source\PSoC4/StripLights.c ****     
 773:Generated_Source\PSoC4/StripLights.c ****     #if(StripLights_CHIP == StripLights_CHIP_SF2812RGBW)
 774:Generated_Source\PSoC4/StripLights.c ****         color = color >> 8;
 775:Generated_Source\PSoC4/StripLights.c ****         StripLights_DATA = (uint8)(color & 0x000000FF);  // Write White 
 776:Generated_Source\PSoC4/StripLights.c ****     #endif 
ARM GAS  C:\Users\JAMESS~1\AppData\Local\Temp\ccWH4kxb.s 			page 29


 777:Generated_Source\PSoC4/StripLights.c **** }
 754              		.loc 1 777 0
 755              		@ sp needed
 756 001a 7047     		bx	lr
 757              	.L56:
 758              		.align	2
 759              	.L55:
 760 001c 62000F40 		.word	1074724962
 761 0020 42000F40 		.word	1074724930
 762              		.cfi_endproc
 763              	.LFE45:
 764              		.size	StripLights_WriteColor, .-StripLights_WriteColor
 765              		.section	.text.StripLights_Pixel,"ax",%progbits
 766              		.align	2
 767              		.global	StripLights_Pixel
 768              		.code	16
 769              		.thumb_func
 770              		.type	StripLights_Pixel, %function
 771              	StripLights_Pixel:
 772              	.LFB46:
 778:Generated_Source\PSoC4/StripLights.c **** 
 779:Generated_Source\PSoC4/StripLights.c **** 
 780:Generated_Source\PSoC4/StripLights.c **** /*******************************************************************************
 781:Generated_Source\PSoC4/StripLights.c **** * Function Name: StripLights_Pixel
 782:Generated_Source\PSoC4/StripLights.c **** ********************************************************************************
 783:Generated_Source\PSoC4/StripLights.c **** *
 784:Generated_Source\PSoC4/StripLights.c **** * Summary:
 785:Generated_Source\PSoC4/StripLights.c **** *  Draw Pixel  
 786:Generated_Source\PSoC4/StripLights.c **** *
 787:Generated_Source\PSoC4/StripLights.c **** * Parameters:  
 788:Generated_Source\PSoC4/StripLights.c **** *  x,y:    Location to draw the pixel
 789:Generated_Source\PSoC4/StripLights.c **** *  color:  Color of the pixel
 790:Generated_Source\PSoC4/StripLights.c **** *
 791:Generated_Source\PSoC4/StripLights.c **** * Return: 
 792:Generated_Source\PSoC4/StripLights.c **** *  None 
 793:Generated_Source\PSoC4/StripLights.c **** *******************************************************************************/
 794:Generated_Source\PSoC4/StripLights.c **** void StripLights_Pixel(int32 x, int32 y, uint32 color)
 795:Generated_Source\PSoC4/StripLights.c **** {
 773              		.loc 1 795 0
 774              		.cfi_startproc
 775              		@ args = 0, pretend = 0, frame = 0
 776              		@ frame_needed = 0, uses_anonymous_args = 0
 777              		@ link register save eliminated.
 778              	.LVL52:
 796:Generated_Source\PSoC4/StripLights.c **** 
 797:Generated_Source\PSoC4/StripLights.c ****     // Swap X-Y Coordinates
 798:Generated_Source\PSoC4/StripLights.c ****     #if(StripLights_SWAP_XY_COORD == StripLights_XY_SWAPED)
 799:Generated_Source\PSoC4/StripLights.c ****         uint32 xyTmp;
 800:Generated_Source\PSoC4/StripLights.c ****         xyTmp = x;
 801:Generated_Source\PSoC4/StripLights.c ****         x = y;
 802:Generated_Source\PSoC4/StripLights.c ****         y = xyTmp;
 803:Generated_Source\PSoC4/StripLights.c ****     #endif
 804:Generated_Source\PSoC4/StripLights.c ****     
 805:Generated_Source\PSoC4/StripLights.c ****     // X-Wrap
 806:Generated_Source\PSoC4/StripLights.c ****     #if (StripLights_COORD_WRAP & StripLights_COORD_XAXIS )
 807:Generated_Source\PSoC4/StripLights.c ****         x = x % (StripLights_MAX_X+1);
 808:Generated_Source\PSoC4/StripLights.c ****     #endif
ARM GAS  C:\Users\JAMESS~1\AppData\Local\Temp\ccWH4kxb.s 			page 30


 809:Generated_Source\PSoC4/StripLights.c ****     
 810:Generated_Source\PSoC4/StripLights.c ****     // Y-Wrap
 811:Generated_Source\PSoC4/StripLights.c ****     #if (StripLights_COORD_WRAP & StripLights_COORD_YAXIS )
 812:Generated_Source\PSoC4/StripLights.c ****         y = y % (StripLights_MAX_Y+1);
 813:Generated_Source\PSoC4/StripLights.c ****     #endif
 814:Generated_Source\PSoC4/StripLights.c ****     
 815:Generated_Source\PSoC4/StripLights.c ****     // Flip X-Axis
 816:Generated_Source\PSoC4/StripLights.c ****     #if (StripLights_FLIP_X_COORD == StripLights_FLIP_COORD )
 817:Generated_Source\PSoC4/StripLights.c ****         x = StripLights_MAX_X - x;
 818:Generated_Source\PSoC4/StripLights.c ****     #endif
 819:Generated_Source\PSoC4/StripLights.c ****     
 820:Generated_Source\PSoC4/StripLights.c ****     // Flip Y-Axis
 821:Generated_Source\PSoC4/StripLights.c ****     #if (StripLights_FLIP_Y_COORD == StripLights_FLIP_COORD )
 822:Generated_Source\PSoC4/StripLights.c ****         y = StripLights_MAX_Y - y;
 823:Generated_Source\PSoC4/StripLights.c ****     #endif
 824:Generated_Source\PSoC4/StripLights.c ****     
 825:Generated_Source\PSoC4/StripLights.c ****     // Make sure X-Y values are in range
 826:Generated_Source\PSoC4/StripLights.c ****    	if((x >= StripLights_MIN_X) && (y >= StripLights_MIN_Y) && (x <= StripLights_MAX_X) && (y <= St
 779              		.loc 1 826 0
 780 0000 0028     		cmp	r0, #0
 781 0002 0BDB     		blt	.L57
 782              		.loc 1 826 0 is_stmt 0 discriminator 1
 783 0004 0029     		cmp	r1, #0
 784 0006 09DB     		blt	.L57
 785              		.loc 1 826 0 discriminator 2
 786 0008 0E28     		cmp	r0, #14
 787 000a 07DC     		bgt	.L57
 788              		.loc 1 826 0 discriminator 3
 789 000c 0129     		cmp	r1, #1
 790 000e 05DC     		bgt	.L57
 827:Generated_Source\PSoC4/StripLights.c ****     {
 828:Generated_Source\PSoC4/StripLights.c ****         
 829:Generated_Source\PSoC4/StripLights.c ****         #if (StripLights_LED_LAYOUT == StripLights_LED_LAYOUT_STANDARD)
 830:Generated_Source\PSoC4/StripLights.c ****              // Do nothing special   
 831:Generated_Source\PSoC4/StripLights.c ****         #elif (StripLights_LED_LAYOUT == StripLights_LED_LAYOUT_SPIRAL)
 832:Generated_Source\PSoC4/StripLights.c ****             x = x + (y * StripLights_COLUMNS);
 791              		.loc 1 832 0 is_stmt 1
 792 0010 0B01     		lsls	r3, r1, #4
 793 0012 591A     		subs	r1, r3, r1
 794              	.LVL53:
 795 0014 4018     		adds	r0, r0, r1
 796              	.LVL54:
 833:Generated_Source\PSoC4/StripLights.c ****             y = 0;
 834:Generated_Source\PSoC4/StripLights.c ****             
 835:Generated_Source\PSoC4/StripLights.c ****         #elif (StripLights_LED_LAYOUT == StripLights_LED_LAYOUT_GRID16X16)
 836:Generated_Source\PSoC4/StripLights.c ****             	x = (((x/(int32)16)*(int32)256) + (uint32)StripLights_cTrans[y % 16][x % 16]);
 837:Generated_Source\PSoC4/StripLights.c **** 		        y = (y/(int32)16);    
 838:Generated_Source\PSoC4/StripLights.c ****         #endif
 839:Generated_Source\PSoC4/StripLights.c ****          
 840:Generated_Source\PSoC4/StripLights.c ****         #if(StripLights_MEMORY_TYPE == StripLights_MEMORY_RGB)
 841:Generated_Source\PSoC4/StripLights.c ****             StripLights_ledArray[y][x] = color;
 797              		.loc 1 841 0
 798 0016 8000     		lsls	r0, r0, #2
 799              	.LVL55:
 800 0018 014B     		ldr	r3, .L59
 801 001a C250     		str	r2, [r0, r3]
 802              	.LVL56:
ARM GAS  C:\Users\JAMESS~1\AppData\Local\Temp\ccWH4kxb.s 			page 31


 803              	.L57:
 842:Generated_Source\PSoC4/StripLights.c ****         #else  /* Else use lookup table */
 843:Generated_Source\PSoC4/StripLights.c ****             StripLights_ledArray[y][x] = (uint8)color;
 844:Generated_Source\PSoC4/StripLights.c ****         #endif    
 845:Generated_Source\PSoC4/StripLights.c ****             
 846:Generated_Source\PSoC4/StripLights.c **** 
 847:Generated_Source\PSoC4/StripLights.c ****     }
 848:Generated_Source\PSoC4/StripLights.c **** }
 804              		.loc 1 848 0
 805              		@ sp needed
 806 001c 7047     		bx	lr
 807              	.L60:
 808 001e C046     		.align	2
 809              	.L59:
 810 0020 00000000 		.word	StripLights_ledArray
 811              		.cfi_endproc
 812              	.LFE46:
 813              		.size	StripLights_Pixel, .-StripLights_Pixel
 814              		.section	.text.StripLights_GetPixel,"ax",%progbits
 815              		.align	2
 816              		.global	StripLights_GetPixel
 817              		.code	16
 818              		.thumb_func
 819              		.type	StripLights_GetPixel, %function
 820              	StripLights_GetPixel:
 821              	.LFB47:
 849:Generated_Source\PSoC4/StripLights.c **** 
 850:Generated_Source\PSoC4/StripLights.c **** 
 851:Generated_Source\PSoC4/StripLights.c **** 
 852:Generated_Source\PSoC4/StripLights.c **** /*******************************************************************************
 853:Generated_Source\PSoC4/StripLights.c **** * Function Name: StripLights_GetPixel
 854:Generated_Source\PSoC4/StripLights.c **** ********************************************************************************
 855:Generated_Source\PSoC4/StripLights.c **** *
 856:Generated_Source\PSoC4/StripLights.c **** * Summary:
 857:Generated_Source\PSoC4/StripLights.c **** *  Get Pixel Color  
 858:Generated_Source\PSoC4/StripLights.c **** *
 859:Generated_Source\PSoC4/StripLights.c **** * Parameters:  
 860:Generated_Source\PSoC4/StripLights.c **** *  x,y:    Location to get pixel color
 861:Generated_Source\PSoC4/StripLights.c **** *
 862:Generated_Source\PSoC4/StripLights.c **** * Return: 
 863:Generated_Source\PSoC4/StripLights.c **** *  None 
 864:Generated_Source\PSoC4/StripLights.c **** *******************************************************************************/
 865:Generated_Source\PSoC4/StripLights.c **** uint32 StripLights_GetPixel(int32 x, int32 y)
 866:Generated_Source\PSoC4/StripLights.c **** {
 822              		.loc 1 866 0
 823              		.cfi_startproc
 824              		@ args = 0, pretend = 0, frame = 0
 825              		@ frame_needed = 0, uses_anonymous_args = 0
 826              		@ link register save eliminated.
 827              	.LVL57:
 867:Generated_Source\PSoC4/StripLights.c ****     uint32 color = 0;
 868:Generated_Source\PSoC4/StripLights.c ****     #if (StripLights_COORD_WRAP & StripLights_COORD_XAXIS )
 869:Generated_Source\PSoC4/StripLights.c ****         x = x % (StripLights_MAX_X+1);
 870:Generated_Source\PSoC4/StripLights.c ****     #endif
 871:Generated_Source\PSoC4/StripLights.c ****     #if (StripLights_COORD_WRAP & StripLights_COORD_YAXIS )
 872:Generated_Source\PSoC4/StripLights.c ****         y = y % (StripLights_MAX_Y+1);
 873:Generated_Source\PSoC4/StripLights.c ****     #endif
ARM GAS  C:\Users\JAMESS~1\AppData\Local\Temp\ccWH4kxb.s 			page 32


 874:Generated_Source\PSoC4/StripLights.c ****     
 875:Generated_Source\PSoC4/StripLights.c ****     if((x>=0) && (y>=0) && (x < StripLights_ARRAY_COLS) && (y < StripLights_ARRAY_ROWS))
 828              		.loc 1 875 0
 829 0000 0028     		cmp	r0, #0
 830 0002 0CDB     		blt	.L63
 831              		.loc 1 875 0 is_stmt 0 discriminator 1
 832 0004 0029     		cmp	r1, #0
 833 0006 0CDB     		blt	.L64
 834              		.loc 1 875 0 discriminator 2
 835 0008 2C28     		cmp	r0, #44
 836 000a 0CDC     		bgt	.L65
 837              		.loc 1 875 0 discriminator 3
 838 000c 0029     		cmp	r1, #0
 839 000e 0CDC     		bgt	.L66
 876:Generated_Source\PSoC4/StripLights.c ****     {
 877:Generated_Source\PSoC4/StripLights.c ****                 
 878:Generated_Source\PSoC4/StripLights.c ****         #if (StripLights_LED_LAYOUT == StripLights_LED_LAYOUT_STANDARD)
 879:Generated_Source\PSoC4/StripLights.c ****             
 880:Generated_Source\PSoC4/StripLights.c ****         #elif (StripLights_LED_LAYOUT == StripLights_LED_LAYOUT_SPIRAL)
 881:Generated_Source\PSoC4/StripLights.c ****             x = x + (y * StripLights_COLUMNS);
 840              		.loc 1 881 0 is_stmt 1
 841 0010 0B01     		lsls	r3, r1, #4
 842 0012 591A     		subs	r1, r3, r1
 843              	.LVL58:
 844 0014 4018     		adds	r0, r0, r1
 845              	.LVL59:
 882:Generated_Source\PSoC4/StripLights.c ****             y = 0;
 883:Generated_Source\PSoC4/StripLights.c ****             
 884:Generated_Source\PSoC4/StripLights.c ****         #elif (StripLights_LED_LAYOUT == StripLights_LED_LAYOUT_GRID16X16)
 885:Generated_Source\PSoC4/StripLights.c ****             	x = (((x/(int32)16)*(int32)256) + (uint32)StripLights_cTrans[y % 16][x % 16]);
 886:Generated_Source\PSoC4/StripLights.c **** 		        y = (y/(int32)16);    
 887:Generated_Source\PSoC4/StripLights.c ****         #endif
 888:Generated_Source\PSoC4/StripLights.c ****     
 889:Generated_Source\PSoC4/StripLights.c ****         #if(StripLights_MEMORY_TYPE == StripLights_MEMORY_RGB)
 890:Generated_Source\PSoC4/StripLights.c ****             color = StripLights_ledArray[y][x];
 846              		.loc 1 890 0
 847 0016 8000     		lsls	r0, r0, #2
 848              	.LVL60:
 849 0018 054B     		ldr	r3, .L67
 850 001a C058     		ldr	r0, [r0, r3]
 851              	.LVL61:
 852 001c 06E0     		b	.L62
 853              	.LVL62:
 854              	.L63:
 867:Generated_Source\PSoC4/StripLights.c ****     #if (StripLights_COORD_WRAP & StripLights_COORD_XAXIS )
 855              		.loc 1 867 0
 856 001e 0020     		movs	r0, #0
 857              	.LVL63:
 858 0020 04E0     		b	.L62
 859              	.LVL64:
 860              	.L64:
 861 0022 0020     		movs	r0, #0
 862              	.LVL65:
 863 0024 02E0     		b	.L62
 864              	.LVL66:
 865              	.L65:
 866 0026 0020     		movs	r0, #0
ARM GAS  C:\Users\JAMESS~1\AppData\Local\Temp\ccWH4kxb.s 			page 33


 867              	.LVL67:
 868 0028 00E0     		b	.L62
 869              	.LVL68:
 870              	.L66:
 871 002a 0020     		movs	r0, #0
 872              	.LVL69:
 873              	.L62:
 891:Generated_Source\PSoC4/StripLights.c ****         #else  /* Else use lookup table */
 892:Generated_Source\PSoC4/StripLights.c ****             color = (uint32)StripLights_ledArray[y][x];
 893:Generated_Source\PSoC4/StripLights.c ****         #endif
 894:Generated_Source\PSoC4/StripLights.c **** 
 895:Generated_Source\PSoC4/StripLights.c ****     }
 896:Generated_Source\PSoC4/StripLights.c ****     return(color);
 897:Generated_Source\PSoC4/StripLights.c **** }
 874              		.loc 1 897 0
 875              		@ sp needed
 876 002c 7047     		bx	lr
 877              	.L68:
 878 002e C046     		.align	2
 879              	.L67:
 880 0030 00000000 		.word	StripLights_ledArray
 881              		.cfi_endproc
 882              	.LFE47:
 883              		.size	StripLights_GetPixel, .-StripLights_GetPixel
 884              		.section	.text.StripLights_DrawCircle,"ax",%progbits
 885              		.align	2
 886              		.global	StripLights_DrawCircle
 887              		.code	16
 888              		.thumb_func
 889              		.type	StripLights_DrawCircle, %function
 890              	StripLights_DrawCircle:
 891              	.LFB48:
 898:Generated_Source\PSoC4/StripLights.c **** 
 899:Generated_Source\PSoC4/StripLights.c **** /*******************************************************************************
 900:Generated_Source\PSoC4/StripLights.c **** * Function Name: StripLights_DrawCircle
 901:Generated_Source\PSoC4/StripLights.c **** ********************************************************************************
 902:Generated_Source\PSoC4/StripLights.c **** *
 903:Generated_Source\PSoC4/StripLights.c **** * Summary:
 904:Generated_Source\PSoC4/StripLights.c **** *  Draw a circle on the display given a start point and radius.  
 905:Generated_Source\PSoC4/StripLights.c **** *
 906:Generated_Source\PSoC4/StripLights.c **** *  This code uses Bresenham's Circle Algorithm. 
 907:Generated_Source\PSoC4/StripLights.c **** *
 908:Generated_Source\PSoC4/StripLights.c **** * Parameters:  
 909:Generated_Source\PSoC4/StripLights.c **** *  x0, y0: Center of circle
 910:Generated_Source\PSoC4/StripLights.c **** *  radius: Radius of circle
 911:Generated_Source\PSoC4/StripLights.c **** *  color:  Color of circle
 912:Generated_Source\PSoC4/StripLights.c **** *
 913:Generated_Source\PSoC4/StripLights.c **** * Return: 
 914:Generated_Source\PSoC4/StripLights.c **** *  None 
 915:Generated_Source\PSoC4/StripLights.c **** *  
 916:Generated_Source\PSoC4/StripLights.c **** *******************************************************************************/
 917:Generated_Source\PSoC4/StripLights.c **** void StripLights_DrawCircle (int32 x0, int32 y0, int32 radius, uint32 color)
 918:Generated_Source\PSoC4/StripLights.c **** {
 892              		.loc 1 918 0
 893              		.cfi_startproc
 894              		@ args = 0, pretend = 0, frame = 16
 895              		@ frame_needed = 0, uses_anonymous_args = 0
ARM GAS  C:\Users\JAMESS~1\AppData\Local\Temp\ccWH4kxb.s 			page 34


 896              	.LVL70:
 897 0000 F0B5     		push	{r4, r5, r6, r7, lr}
 898              		.cfi_def_cfa_offset 20
 899              		.cfi_offset 4, -20
 900              		.cfi_offset 5, -16
 901              		.cfi_offset 6, -12
 902              		.cfi_offset 7, -8
 903              		.cfi_offset 14, -4
 904 0002 5F46     		mov	r7, fp
 905 0004 5646     		mov	r6, r10
 906 0006 4D46     		mov	r5, r9
 907 0008 4446     		mov	r4, r8
 908 000a F0B4     		push	{r4, r5, r6, r7}
 909              		.cfi_def_cfa_offset 36
 910              		.cfi_offset 8, -36
 911              		.cfi_offset 9, -32
 912              		.cfi_offset 10, -28
 913              		.cfi_offset 11, -24
 914 000c 85B0     		sub	sp, sp, #20
 915              		.cfi_def_cfa_offset 56
 916 000e 8346     		mov	fp, r0
 917 0010 8846     		mov	r8, r1
 918 0012 1400     		movs	r4, r2
 919 0014 1D00     		movs	r5, r3
 920 0016 0193     		str	r3, [sp, #4]
 919:Generated_Source\PSoC4/StripLights.c **** 	int32 f = 1 - radius;
 921              		.loc 1 919 0
 922 0018 0123     		movs	r3, #1
 923              	.LVL71:
 924 001a 9B1A     		subs	r3, r3, r2
 925 001c 9946     		mov	r9, r3
 926              	.LVL72:
 920:Generated_Source\PSoC4/StripLights.c **** 	int32 ddF_x = 0;
 921:Generated_Source\PSoC4/StripLights.c **** 	int32 ddF_y = -2 * radius;
 927              		.loc 1 921 0
 928 001e D307     		lsls	r3, r2, #31
 929              	.LVL73:
 930 0020 9B1A     		subs	r3, r3, r2
 931 0022 5A00     		lsls	r2, r3, #1
 932              	.LVL74:
 933 0024 9246     		mov	r10, r2
 934              	.LVL75:
 922:Generated_Source\PSoC4/StripLights.c **** 	int32 x = 0;
 923:Generated_Source\PSoC4/StripLights.c **** 	int32 y = radius;
 924:Generated_Source\PSoC4/StripLights.c **** 
 925:Generated_Source\PSoC4/StripLights.c **** 	StripLights_Pixel(x0, y0 + radius, color);
 935              		.loc 1 925 0
 936 0026 6118     		adds	r1, r4, r1
 937              	.LVL76:
 938 0028 2A00     		movs	r2, r5
 939              	.LVL77:
 940 002a FFF7FEFF 		bl	StripLights_Pixel
 941              	.LVL78:
 926:Generated_Source\PSoC4/StripLights.c **** 	StripLights_Pixel(x0, y0 - radius, color);
 942              		.loc 1 926 0
 943 002e 4346     		mov	r3, r8
 944 0030 191B     		subs	r1, r3, r4
ARM GAS  C:\Users\JAMESS~1\AppData\Local\Temp\ccWH4kxb.s 			page 35


 945 0032 2A00     		movs	r2, r5
 946 0034 5846     		mov	r0, fp
 947 0036 FFF7FEFF 		bl	StripLights_Pixel
 948              	.LVL79:
 927:Generated_Source\PSoC4/StripLights.c **** 	StripLights_Pixel( x0 + radius, y0, color);
 949              		.loc 1 927 0
 950 003a 5B46     		mov	r3, fp
 951 003c E018     		adds	r0, r4, r3
 952 003e 2A00     		movs	r2, r5
 953 0040 4146     		mov	r1, r8
 954 0042 FFF7FEFF 		bl	StripLights_Pixel
 955              	.LVL80:
 928:Generated_Source\PSoC4/StripLights.c **** 	StripLights_Pixel( x0 - radius, y0, color);
 956              		.loc 1 928 0
 957 0046 5B46     		mov	r3, fp
 958 0048 181B     		subs	r0, r3, r4
 959 004a 2A00     		movs	r2, r5
 960 004c 4146     		mov	r1, r8
 961 004e FFF7FEFF 		bl	StripLights_Pixel
 962              	.LVL81:
 922:Generated_Source\PSoC4/StripLights.c **** 	int32 y = radius;
 963              		.loc 1 922 0
 964 0052 0026     		movs	r6, #0
 920:Generated_Source\PSoC4/StripLights.c **** 	int32 ddF_y = -2 * radius;
 965              		.loc 1 920 0
 966 0054 0023     		movs	r3, #0
 929:Generated_Source\PSoC4/StripLights.c **** 
 930:Generated_Source\PSoC4/StripLights.c **** 	while(x < y)
 967              		.loc 1 930 0
 968 0056 48E0     		b	.L70
 969              	.LVL82:
 970              	.L72:
 931:Generated_Source\PSoC4/StripLights.c **** 	{
 932:Generated_Source\PSoC4/StripLights.c **** 		if(f >= 0)
 971              		.loc 1 932 0
 972 0058 4A46     		mov	r2, r9
 973 005a 002A     		cmp	r2, #0
 974 005c 04DB     		blt	.L71
 975              	.LVL83:
 933:Generated_Source\PSoC4/StripLights.c **** 		{
 934:Generated_Source\PSoC4/StripLights.c **** 			y--;
 976              		.loc 1 934 0
 977 005e 013C     		subs	r4, r4, #1
 978              	.LVL84:
 935:Generated_Source\PSoC4/StripLights.c **** 			ddF_y += 2;
 979              		.loc 1 935 0
 980 0060 0222     		movs	r2, #2
 981              	.LVL85:
 982 0062 9446     		mov	ip, r2
 983 0064 E244     		add	r10, r10, ip
 984              	.LVL86:
 936:Generated_Source\PSoC4/StripLights.c **** 			f += ddF_y;
 985              		.loc 1 936 0
 986 0066 D144     		add	r9, r9, r10
 987              	.LVL87:
 988              	.L71:
 937:Generated_Source\PSoC4/StripLights.c **** 		}
ARM GAS  C:\Users\JAMESS~1\AppData\Local\Temp\ccWH4kxb.s 			page 36


 938:Generated_Source\PSoC4/StripLights.c **** 		x++;
 989              		.loc 1 938 0
 990 0068 0136     		adds	r6, r6, #1
 991              	.LVL88:
 939:Generated_Source\PSoC4/StripLights.c **** 		ddF_x += 2;
 992              		.loc 1 939 0
 993 006a 9A1C     		adds	r2, r3, #2
 994 006c 0292     		str	r2, [sp, #8]
 995              	.LVL89:
 940:Generated_Source\PSoC4/StripLights.c **** 		f += ddF_x + 1;
 996              		.loc 1 940 0
 997 006e 0333     		adds	r3, r3, #3
 998 0070 9944     		add	r9, r9, r3
 999              	.LVL90:
 941:Generated_Source\PSoC4/StripLights.c **** 
 942:Generated_Source\PSoC4/StripLights.c **** 		StripLights_Pixel(x0 + x, y0 + y, color);
 1000              		.loc 1 942 0
 1001 0072 5946     		mov	r1, fp
 1002 0074 8F19     		adds	r7, r1, r6
 1003 0076 4146     		mov	r1, r8
 1004 0078 6318     		adds	r3, r4, r1
 1005 007a 019A     		ldr	r2, [sp, #4]
 1006              	.LVL91:
 1007 007c 0393     		str	r3, [sp, #12]
 1008 007e 1900     		movs	r1, r3
 1009 0080 3800     		movs	r0, r7
 1010 0082 FFF7FEFF 		bl	StripLights_Pixel
 1011              	.LVL92:
 943:Generated_Source\PSoC4/StripLights.c **** 		StripLights_Pixel(x0 - x, y0 + y, color);
 1012              		.loc 1 943 0
 1013 0086 5846     		mov	r0, fp
 1014 0088 851B     		subs	r5, r0, r6
 1015 008a 019A     		ldr	r2, [sp, #4]
 1016 008c 0399     		ldr	r1, [sp, #12]
 1017 008e 2800     		movs	r0, r5
 1018 0090 FFF7FEFF 		bl	StripLights_Pixel
 1019              	.LVL93:
 944:Generated_Source\PSoC4/StripLights.c **** 		StripLights_Pixel( x0 + x, y0 - y, color);
 1020              		.loc 1 944 0
 1021 0094 4146     		mov	r1, r8
 1022 0096 0B1B     		subs	r3, r1, r4
 1023 0098 019A     		ldr	r2, [sp, #4]
 1024 009a 0393     		str	r3, [sp, #12]
 1025 009c 1900     		movs	r1, r3
 1026 009e 3800     		movs	r0, r7
 1027 00a0 FFF7FEFF 		bl	StripLights_Pixel
 1028              	.LVL94:
 945:Generated_Source\PSoC4/StripLights.c **** 		StripLights_Pixel( x0 - x, y0 - y, color);
 1029              		.loc 1 945 0
 1030 00a4 019A     		ldr	r2, [sp, #4]
 1031 00a6 0399     		ldr	r1, [sp, #12]
 1032 00a8 2800     		movs	r0, r5
 1033 00aa FFF7FEFF 		bl	StripLights_Pixel
 1034              	.LVL95:
 946:Generated_Source\PSoC4/StripLights.c **** 		StripLights_Pixel( x0 + y, y0 + x, color);
 1035              		.loc 1 946 0
 1036 00ae 5946     		mov	r1, fp
ARM GAS  C:\Users\JAMESS~1\AppData\Local\Temp\ccWH4kxb.s 			page 37


 1037 00b0 6718     		adds	r7, r4, r1
 1038 00b2 4146     		mov	r1, r8
 1039 00b4 8D19     		adds	r5, r1, r6
 1040 00b6 019A     		ldr	r2, [sp, #4]
 1041 00b8 2900     		movs	r1, r5
 1042 00ba 3800     		movs	r0, r7
 1043 00bc FFF7FEFF 		bl	StripLights_Pixel
 1044              	.LVL96:
 947:Generated_Source\PSoC4/StripLights.c **** 		StripLights_Pixel( x0 - y, y0 + x, color);
 1045              		.loc 1 947 0
 1046 00c0 5946     		mov	r1, fp
 1047 00c2 0B1B     		subs	r3, r1, r4
 1048 00c4 019A     		ldr	r2, [sp, #4]
 1049 00c6 2900     		movs	r1, r5
 1050 00c8 0393     		str	r3, [sp, #12]
 1051 00ca 1800     		movs	r0, r3
 1052 00cc FFF7FEFF 		bl	StripLights_Pixel
 1053              	.LVL97:
 948:Generated_Source\PSoC4/StripLights.c **** 		StripLights_Pixel( x0 + y, y0 - x, color);
 1054              		.loc 1 948 0
 1055 00d0 4146     		mov	r1, r8
 1056 00d2 8D1B     		subs	r5, r1, r6
 1057 00d4 019A     		ldr	r2, [sp, #4]
 1058 00d6 2900     		movs	r1, r5
 1059 00d8 3800     		movs	r0, r7
 1060 00da FFF7FEFF 		bl	StripLights_Pixel
 1061              	.LVL98:
 949:Generated_Source\PSoC4/StripLights.c **** 		StripLights_Pixel( x0 - y, y0 - x, color);
 1062              		.loc 1 949 0
 1063 00de 019A     		ldr	r2, [sp, #4]
 1064 00e0 2900     		movs	r1, r5
 1065 00e2 0398     		ldr	r0, [sp, #12]
 1066 00e4 FFF7FEFF 		bl	StripLights_Pixel
 1067              	.LVL99:
 939:Generated_Source\PSoC4/StripLights.c **** 		f += ddF_x + 1;
 1068              		.loc 1 939 0
 1069 00e8 029B     		ldr	r3, [sp, #8]
 1070              	.LVL100:
 1071              	.L70:
 930:Generated_Source\PSoC4/StripLights.c **** 	{
 1072              		.loc 1 930 0
 1073 00ea A642     		cmp	r6, r4
 1074 00ec B4DB     		blt	.L72
 950:Generated_Source\PSoC4/StripLights.c **** 	}
 951:Generated_Source\PSoC4/StripLights.c **** }
 1075              		.loc 1 951 0
 1076 00ee 05B0     		add	sp, sp, #20
 1077              		@ sp needed
 1078              	.LVL101:
 1079              	.LVL102:
 1080              	.LVL103:
 1081              	.LVL104:
 1082              	.LVL105:
 1083              	.LVL106:
 1084 00f0 3CBC     		pop	{r2, r3, r4, r5}
 1085 00f2 9046     		mov	r8, r2
 1086 00f4 9946     		mov	r9, r3
ARM GAS  C:\Users\JAMESS~1\AppData\Local\Temp\ccWH4kxb.s 			page 38


 1087 00f6 A246     		mov	r10, r4
 1088 00f8 AB46     		mov	fp, r5
 1089 00fa F0BD     		pop	{r4, r5, r6, r7, pc}
 1090              		.cfi_endproc
 1091              	.LFE48:
 1092              		.size	StripLights_DrawCircle, .-StripLights_DrawCircle
 1093              		.section	.text.StripLights_DrawLine,"ax",%progbits
 1094              		.align	2
 1095              		.global	StripLights_DrawLine
 1096              		.code	16
 1097              		.thumb_func
 1098              		.type	StripLights_DrawLine, %function
 1099              	StripLights_DrawLine:
 1100              	.LFB49:
 952:Generated_Source\PSoC4/StripLights.c **** 
 953:Generated_Source\PSoC4/StripLights.c **** 
 954:Generated_Source\PSoC4/StripLights.c **** /*******************************************************************************
 955:Generated_Source\PSoC4/StripLights.c **** * Function Name: StripLights_DrawLine
 956:Generated_Source\PSoC4/StripLights.c **** ********************************************************************************
 957:Generated_Source\PSoC4/StripLights.c **** *
 958:Generated_Source\PSoC4/StripLights.c **** * Summary:
 959:Generated_Source\PSoC4/StripLights.c **** *  Draw a line on the display.  
 960:Generated_Source\PSoC4/StripLights.c **** *
 961:Generated_Source\PSoC4/StripLights.c **** * Parameters:  
 962:Generated_Source\PSoC4/StripLights.c **** *  x0, y0:  The beginning endpoint
 963:Generated_Source\PSoC4/StripLights.c **** *  x1, y1:  The end endpoint.
 964:Generated_Source\PSoC4/StripLights.c **** *  color:   Color of the line.
 965:Generated_Source\PSoC4/StripLights.c **** *
 966:Generated_Source\PSoC4/StripLights.c **** * Return: 
 967:Generated_Source\PSoC4/StripLights.c **** *  None 
 968:Generated_Source\PSoC4/StripLights.c **** *  
 969:Generated_Source\PSoC4/StripLights.c **** *******************************************************************************/
 970:Generated_Source\PSoC4/StripLights.c **** void StripLights_DrawLine(int32 x0, int32 y0, int32 x1, int32 y1, uint32 color)
 971:Generated_Source\PSoC4/StripLights.c **** {
 1101              		.loc 1 971 0
 1102              		.cfi_startproc
 1103              		@ args = 4, pretend = 0, frame = 8
 1104              		@ frame_needed = 0, uses_anonymous_args = 0
 1105              	.LVL107:
 1106 0000 F0B5     		push	{r4, r5, r6, r7, lr}
 1107              		.cfi_def_cfa_offset 20
 1108              		.cfi_offset 4, -20
 1109              		.cfi_offset 5, -16
 1110              		.cfi_offset 6, -12
 1111              		.cfi_offset 7, -8
 1112              		.cfi_offset 14, -4
 1113 0002 5F46     		mov	r7, fp
 1114 0004 5646     		mov	r6, r10
 1115 0006 4D46     		mov	r5, r9
 1116 0008 4446     		mov	r4, r8
 1117 000a F0B4     		push	{r4, r5, r6, r7}
 1118              		.cfi_def_cfa_offset 36
 1119              		.cfi_offset 8, -36
 1120              		.cfi_offset 9, -32
 1121              		.cfi_offset 10, -28
 1122              		.cfi_offset 11, -24
 1123 000c 83B0     		sub	sp, sp, #12
ARM GAS  C:\Users\JAMESS~1\AppData\Local\Temp\ccWH4kxb.s 			page 39


 1124              		.cfi_def_cfa_offset 48
 1125 000e 0400     		movs	r4, r0
 1126 0010 0D00     		movs	r5, r1
 1127 0012 0192     		str	r2, [sp, #4]
 1128 0014 9B46     		mov	fp, r3
 972:Generated_Source\PSoC4/StripLights.c **** 	int32 dy = y1 - y0; /* Difference between y0 and y1 */
 1129              		.loc 1 972 0
 1130 0016 5B1A     		subs	r3, r3, r1
 1131              	.LVL108:
 973:Generated_Source\PSoC4/StripLights.c **** 	int32 dx = x1 - x0; /* Difference between x0 and x1 */
 1132              		.loc 1 973 0
 1133 0018 171A     		subs	r7, r2, r0
 1134              	.LVL109:
 974:Generated_Source\PSoC4/StripLights.c **** 	int32 stepx, stepy;
 975:Generated_Source\PSoC4/StripLights.c **** 
 976:Generated_Source\PSoC4/StripLights.c **** 	if (dy < 0)
 1135              		.loc 1 976 0
 1136 001a 002B     		cmp	r3, #0
 1137 001c 04DA     		bge	.L84
 977:Generated_Source\PSoC4/StripLights.c **** 	{
 978:Generated_Source\PSoC4/StripLights.c **** 		dy = -dy;
 1138              		.loc 1 978 0
 1139 001e 5B42     		rsbs	r3, r3, #0
 1140              	.LVL110:
 979:Generated_Source\PSoC4/StripLights.c **** 		stepy = -1;
 1141              		.loc 1 979 0
 1142 0020 0122     		movs	r2, #1
 1143              	.LVL111:
 1144 0022 5242     		rsbs	r2, r2, #0
 1145 0024 9246     		mov	r10, r2
 1146 0026 01E0     		b	.L74
 1147              	.LVL112:
 1148              	.L84:
 980:Generated_Source\PSoC4/StripLights.c **** 	}
 981:Generated_Source\PSoC4/StripLights.c **** 	else
 982:Generated_Source\PSoC4/StripLights.c **** 	{
 983:Generated_Source\PSoC4/StripLights.c **** 		stepy = 1;
 1149              		.loc 1 983 0
 1150 0028 0122     		movs	r2, #1
 1151              	.LVL113:
 1152 002a 9246     		mov	r10, r2
 1153              	.L74:
 1154              	.LVL114:
 984:Generated_Source\PSoC4/StripLights.c **** 	}
 985:Generated_Source\PSoC4/StripLights.c **** 
 986:Generated_Source\PSoC4/StripLights.c **** 	if (dx < 0)
 1155              		.loc 1 986 0
 1156 002c 002F     		cmp	r7, #0
 1157 002e 04DA     		bge	.L85
 987:Generated_Source\PSoC4/StripLights.c **** 	{
 988:Generated_Source\PSoC4/StripLights.c **** 		dx = -dx;
 1158              		.loc 1 988 0
 1159 0030 7F42     		rsbs	r7, r7, #0
 1160              	.LVL115:
 989:Generated_Source\PSoC4/StripLights.c **** 		stepx = -1;
 1161              		.loc 1 989 0
 1162 0032 0122     		movs	r2, #1
ARM GAS  C:\Users\JAMESS~1\AppData\Local\Temp\ccWH4kxb.s 			page 40


 1163 0034 5242     		rsbs	r2, r2, #0
 1164 0036 9146     		mov	r9, r2
 1165 0038 01E0     		b	.L75
 1166              	.LVL116:
 1167              	.L85:
 990:Generated_Source\PSoC4/StripLights.c **** 	}
 991:Generated_Source\PSoC4/StripLights.c **** 	else
 992:Generated_Source\PSoC4/StripLights.c **** 	{
 993:Generated_Source\PSoC4/StripLights.c **** 		stepx = 1;
 1168              		.loc 1 993 0
 1169 003a 0122     		movs	r2, #1
 1170 003c 9146     		mov	r9, r2
 1171              	.L75:
 1172              	.LVL117:
 994:Generated_Source\PSoC4/StripLights.c **** 	}
 995:Generated_Source\PSoC4/StripLights.c **** 
 996:Generated_Source\PSoC4/StripLights.c **** 	dy <<= 1; /* dy is now 2*dy  */
 1173              		.loc 1 996 0
 1174 003e 5B00     		lsls	r3, r3, #1
 1175              	.LVL118:
 1176 0040 9846     		mov	r8, r3
 1177              	.LVL119:
 997:Generated_Source\PSoC4/StripLights.c **** 	dx <<= 1; /* dx is now 2*dx  */
 1178              		.loc 1 997 0
 1179 0042 7F00     		lsls	r7, r7, #1
 1180              	.LVL120:
 998:Generated_Source\PSoC4/StripLights.c **** 	StripLights_Pixel(x0, y0, color);
 1181              		.loc 1 998 0
 1182 0044 0C9A     		ldr	r2, [sp, #48]
 1183 0046 2900     		movs	r1, r5
 1184              	.LVL121:
 1185 0048 2000     		movs	r0, r4
 1186              	.LVL122:
 1187 004a FFF7FEFF 		bl	StripLights_Pixel
 1188              	.LVL123:
 999:Generated_Source\PSoC4/StripLights.c **** 
1000:Generated_Source\PSoC4/StripLights.c **** 	if (dx > dy) 
 1189              		.loc 1 1000 0
 1190 004e B845     		cmp	r8, r7
 1191 0050 12DA     		bge	.L76
 1192              	.LBB2:
1001:Generated_Source\PSoC4/StripLights.c **** 	{
1002:Generated_Source\PSoC4/StripLights.c **** 		int fraction = dy - (dx >> 1);
 1193              		.loc 1 1002 0
 1194 0052 7B10     		asrs	r3, r7, #1
 1195 0054 4246     		mov	r2, r8
 1196 0056 D61A     		subs	r6, r2, r3
 1197              	.LVL124:
1003:Generated_Source\PSoC4/StripLights.c **** 		while (x0 != x1)
 1198              		.loc 1 1003 0
 1199 0058 0AE0     		b	.L77
 1200              	.L79:
1004:Generated_Source\PSoC4/StripLights.c **** 		{
1005:Generated_Source\PSoC4/StripLights.c **** 			if (fraction >= 0)
 1201              		.loc 1 1005 0
 1202 005a 002E     		cmp	r6, #0
 1203 005c 01DB     		blt	.L78
ARM GAS  C:\Users\JAMESS~1\AppData\Local\Temp\ccWH4kxb.s 			page 41


1006:Generated_Source\PSoC4/StripLights.c **** 			{
1007:Generated_Source\PSoC4/StripLights.c **** 				y0 += stepy;
 1204              		.loc 1 1007 0
 1205 005e 5544     		add	r5, r5, r10
 1206              	.LVL125:
1008:Generated_Source\PSoC4/StripLights.c **** 				fraction -= dx;
 1207              		.loc 1 1008 0
 1208 0060 F61B     		subs	r6, r6, r7
 1209              	.LVL126:
 1210              	.L78:
1009:Generated_Source\PSoC4/StripLights.c **** 			}
1010:Generated_Source\PSoC4/StripLights.c **** 			x0 += stepx;
 1211              		.loc 1 1010 0
 1212 0062 4C44     		add	r4, r4, r9
 1213              	.LVL127:
1011:Generated_Source\PSoC4/StripLights.c **** 			fraction += dy;
 1214              		.loc 1 1011 0
 1215 0064 4644     		add	r6, r6, r8
 1216              	.LVL128:
1012:Generated_Source\PSoC4/StripLights.c **** 			StripLights_Pixel(x0, y0, color);
 1217              		.loc 1 1012 0
 1218 0066 0C9A     		ldr	r2, [sp, #48]
 1219 0068 2900     		movs	r1, r5
 1220 006a 2000     		movs	r0, r4
 1221 006c FFF7FEFF 		bl	StripLights_Pixel
 1222              	.LVL129:
 1223              	.L77:
1003:Generated_Source\PSoC4/StripLights.c **** 		{
 1224              		.loc 1 1003 0
 1225 0070 019B     		ldr	r3, [sp, #4]
 1226 0072 9C42     		cmp	r4, r3
 1227 0074 F1D1     		bne	.L79
 1228 0076 11E0     		b	.L73
 1229              	.LVL130:
 1230              	.L76:
 1231              	.LBE2:
 1232              	.LBB3:
1013:Generated_Source\PSoC4/StripLights.c **** 		}
1014:Generated_Source\PSoC4/StripLights.c **** 	}
1015:Generated_Source\PSoC4/StripLights.c **** 	else
1016:Generated_Source\PSoC4/StripLights.c **** 	{
1017:Generated_Source\PSoC4/StripLights.c **** 		int fraction = dx - (dy >> 1);
 1233              		.loc 1 1017 0
 1234 0078 4346     		mov	r3, r8
 1235 007a 5E10     		asrs	r6, r3, #1
 1236 007c BE1B     		subs	r6, r7, r6
 1237              	.LVL131:
1018:Generated_Source\PSoC4/StripLights.c **** 		while (y0 != y1)
 1238              		.loc 1 1018 0
 1239 007e 0BE0     		b	.L81
 1240              	.L83:
1019:Generated_Source\PSoC4/StripLights.c **** 		{
1020:Generated_Source\PSoC4/StripLights.c **** 			if (fraction >= 0)
 1241              		.loc 1 1020 0
 1242 0080 002E     		cmp	r6, #0
 1243 0082 02DB     		blt	.L82
1021:Generated_Source\PSoC4/StripLights.c **** 			{
ARM GAS  C:\Users\JAMESS~1\AppData\Local\Temp\ccWH4kxb.s 			page 42


1022:Generated_Source\PSoC4/StripLights.c **** 				x0 += stepx;
 1244              		.loc 1 1022 0
 1245 0084 4C44     		add	r4, r4, r9
 1246              	.LVL132:
1023:Generated_Source\PSoC4/StripLights.c **** 				fraction -= dy;
 1247              		.loc 1 1023 0
 1248 0086 4346     		mov	r3, r8
 1249 0088 F61A     		subs	r6, r6, r3
 1250              	.LVL133:
 1251              	.L82:
1024:Generated_Source\PSoC4/StripLights.c **** 			}
1025:Generated_Source\PSoC4/StripLights.c **** 			y0 += stepy;
 1252              		.loc 1 1025 0
 1253 008a 5544     		add	r5, r5, r10
 1254              	.LVL134:
1026:Generated_Source\PSoC4/StripLights.c **** 			fraction += dx;
 1255              		.loc 1 1026 0
 1256 008c F619     		adds	r6, r6, r7
 1257              	.LVL135:
1027:Generated_Source\PSoC4/StripLights.c **** 			StripLights_Pixel( x0, y0, color);
 1258              		.loc 1 1027 0
 1259 008e 0C9A     		ldr	r2, [sp, #48]
 1260 0090 2900     		movs	r1, r5
 1261 0092 2000     		movs	r0, r4
 1262 0094 FFF7FEFF 		bl	StripLights_Pixel
 1263              	.LVL136:
 1264              	.L81:
1018:Generated_Source\PSoC4/StripLights.c **** 		{
 1265              		.loc 1 1018 0
 1266 0098 5D45     		cmp	r5, fp
 1267 009a F1D1     		bne	.L83
 1268              	.LVL137:
 1269              	.L73:
 1270              	.LBE3:
1028:Generated_Source\PSoC4/StripLights.c **** 		}
1029:Generated_Source\PSoC4/StripLights.c **** 	}
1030:Generated_Source\PSoC4/StripLights.c **** }
 1271              		.loc 1 1030 0
 1272 009c 03B0     		add	sp, sp, #12
 1273              		@ sp needed
 1274              	.LVL138:
 1275              	.LVL139:
 1276              	.LVL140:
 1277              	.LVL141:
 1278              	.LVL142:
 1279              	.LVL143:
 1280              	.LVL144:
 1281 009e 3CBC     		pop	{r2, r3, r4, r5}
 1282 00a0 9046     		mov	r8, r2
 1283 00a2 9946     		mov	r9, r3
 1284 00a4 A246     		mov	r10, r4
 1285 00a6 AB46     		mov	fp, r5
 1286 00a8 F0BD     		pop	{r4, r5, r6, r7, pc}
 1287              		.cfi_endproc
 1288              	.LFE49:
 1289              		.size	StripLights_DrawLine, .-StripLights_DrawLine
 1290 00aa C046     		.section	.text.StripLights_DrawRect,"ax",%progbits
ARM GAS  C:\Users\JAMESS~1\AppData\Local\Temp\ccWH4kxb.s 			page 43


 1291              		.align	2
 1292              		.global	StripLights_DrawRect
 1293              		.code	16
 1294              		.thumb_func
 1295              		.type	StripLights_DrawRect, %function
 1296              	StripLights_DrawRect:
 1297              	.LFB50:
1031:Generated_Source\PSoC4/StripLights.c **** 
1032:Generated_Source\PSoC4/StripLights.c **** /*******************************************************************************
1033:Generated_Source\PSoC4/StripLights.c **** * Function Name: StripLights_DrawRect
1034:Generated_Source\PSoC4/StripLights.c **** ********************************************************************************
1035:Generated_Source\PSoC4/StripLights.c **** *
1036:Generated_Source\PSoC4/StripLights.c **** * Summary:
1037:Generated_Source\PSoC4/StripLights.c **** *  Draw a rectangle, filled or not.  
1038:Generated_Source\PSoC4/StripLights.c **** *
1039:Generated_Source\PSoC4/StripLights.c **** * Parameters:  
1040:Generated_Source\PSoC4/StripLights.c **** *  x0, y0:  The upper lefthand corner.
1041:Generated_Source\PSoC4/StripLights.c **** *  x1, y1:  The lower right corner.
1042:Generated_Source\PSoC4/StripLights.c **** *  fill:    Non-Zero if retangle is to be filled.
1043:Generated_Source\PSoC4/StripLights.c **** *  color:   Color for rectangle, border and fill.
1044:Generated_Source\PSoC4/StripLights.c **** *
1045:Generated_Source\PSoC4/StripLights.c **** * Return: 
1046:Generated_Source\PSoC4/StripLights.c **** *  None 
1047:Generated_Source\PSoC4/StripLights.c **** *  
1048:Generated_Source\PSoC4/StripLights.c **** *******************************************************************************/
1049:Generated_Source\PSoC4/StripLights.c **** void StripLights_DrawRect(int32 x0, int32 y0, int32 x1, int32 y1, int32 fill, uint32 color)
1050:Generated_Source\PSoC4/StripLights.c **** {	
 1298              		.loc 1 1050 0
 1299              		.cfi_startproc
 1300              		@ args = 8, pretend = 0, frame = 8
 1301              		@ frame_needed = 0, uses_anonymous_args = 0
 1302              	.LVL145:
 1303 0000 F0B5     		push	{r4, r5, r6, r7, lr}
 1304              		.cfi_def_cfa_offset 20
 1305              		.cfi_offset 4, -20
 1306              		.cfi_offset 5, -16
 1307              		.cfi_offset 6, -12
 1308              		.cfi_offset 7, -8
 1309              		.cfi_offset 14, -4
 1310 0002 85B0     		sub	sp, sp, #20
 1311              		.cfi_def_cfa_offset 40
 1312 0004 0400     		movs	r4, r0
 1313 0006 0391     		str	r1, [sp, #12]
 1314 0008 1600     		movs	r6, r2
 1315 000a 0293     		str	r3, [sp, #8]
 1316 000c 0B9F     		ldr	r7, [sp, #44]
1051:Generated_Source\PSoC4/StripLights.c ****      int xDiff;
1052:Generated_Source\PSoC4/StripLights.c **** 	/* Check if the rectangle is to be filled    */
1053:Generated_Source\PSoC4/StripLights.c **** 	if (fill != 0)
 1317              		.loc 1 1053 0
 1318 000e 0A9B     		ldr	r3, [sp, #40]
 1319              	.LVL146:
 1320 0010 002B     		cmp	r3, #0
 1321 0012 15D0     		beq	.L87
1054:Generated_Source\PSoC4/StripLights.c **** 	{	
1055:Generated_Source\PSoC4/StripLights.c ****         /* Find the difference between the x vars */
1056:Generated_Source\PSoC4/StripLights.c **** 		if(x0 > x1)
ARM GAS  C:\Users\JAMESS~1\AppData\Local\Temp\ccWH4kxb.s 			page 44


 1322              		.loc 1 1056 0
 1323 0014 9042     		cmp	r0, r2
 1324 0016 01DD     		ble	.L88
1057:Generated_Source\PSoC4/StripLights.c **** 		{
1058:Generated_Source\PSoC4/StripLights.c **** 			xDiff = x0 - x1; 
 1325              		.loc 1 1058 0
 1326 0018 851A     		subs	r5, r0, r2
 1327              	.LVL147:
 1328 001a 0EE0     		b	.L89
 1329              	.LVL148:
 1330              	.L88:
1059:Generated_Source\PSoC4/StripLights.c **** 		}
1060:Generated_Source\PSoC4/StripLights.c **** 		else
1061:Generated_Source\PSoC4/StripLights.c **** 		{
1062:Generated_Source\PSoC4/StripLights.c **** 			xDiff = x1 - x0;
 1331              		.loc 1 1062 0
 1332 001c 151A     		subs	r5, r2, r0
 1333              	.LVL149:
 1334 001e 0CE0     		b	.L89
 1335              	.LVL150:
 1336              	.L93:
1063:Generated_Source\PSoC4/StripLights.c **** 		}
1064:Generated_Source\PSoC4/StripLights.c **** 	
1065:Generated_Source\PSoC4/StripLights.c **** 	    /* Fill it with lines  */
1066:Generated_Source\PSoC4/StripLights.c **** 		while(xDiff >= 0)
1067:Generated_Source\PSoC4/StripLights.c **** 		{
1068:Generated_Source\PSoC4/StripLights.c **** 			StripLights_DrawLine(x0, y0, x0, y1, color);
 1337              		.loc 1 1068 0
 1338 0020 0097     		str	r7, [sp]
 1339 0022 029B     		ldr	r3, [sp, #8]
 1340 0024 2200     		movs	r2, r4
 1341 0026 0399     		ldr	r1, [sp, #12]
 1342 0028 2000     		movs	r0, r4
 1343 002a FFF7FEFF 		bl	StripLights_DrawLine
 1344              	.LVL151:
1069:Generated_Source\PSoC4/StripLights.c **** 		
1070:Generated_Source\PSoC4/StripLights.c **** 			if(x0 > x1)
 1345              		.loc 1 1070 0
 1346 002e B442     		cmp	r4, r6
 1347 0030 01DD     		ble	.L91
1071:Generated_Source\PSoC4/StripLights.c **** 				x0--;
 1348              		.loc 1 1071 0
 1349 0032 013C     		subs	r4, r4, #1
 1350              	.LVL152:
 1351 0034 00E0     		b	.L92
 1352              	.L91:
1072:Generated_Source\PSoC4/StripLights.c **** 			else
1073:Generated_Source\PSoC4/StripLights.c **** 				x0++;
 1353              		.loc 1 1073 0
 1354 0036 0134     		adds	r4, r4, #1
 1355              	.LVL153:
 1356              	.L92:
1074:Generated_Source\PSoC4/StripLights.c **** 		
1075:Generated_Source\PSoC4/StripLights.c **** 			xDiff--;
 1357              		.loc 1 1075 0
 1358 0038 013D     		subs	r5, r5, #1
 1359              	.LVL154:
ARM GAS  C:\Users\JAMESS~1\AppData\Local\Temp\ccWH4kxb.s 			page 45


 1360              	.L89:
1066:Generated_Source\PSoC4/StripLights.c **** 		{
 1361              		.loc 1 1066 0
 1362 003a 002D     		cmp	r5, #0
 1363 003c F0DA     		bge	.L93
 1364 003e 1AE0     		b	.L86
 1365              	.LVL155:
 1366              	.L87:
1076:Generated_Source\PSoC4/StripLights.c **** 		}
1077:Generated_Source\PSoC4/StripLights.c **** 	}
1078:Generated_Source\PSoC4/StripLights.c **** 	else 
1079:Generated_Source\PSoC4/StripLights.c **** 	{
1080:Generated_Source\PSoC4/StripLights.c **** 		/* Draw the four sides of the rectangle */
1081:Generated_Source\PSoC4/StripLights.c **** 		StripLights_DrawLine(x0, y0, x1, y0, color);
 1367              		.loc 1 1081 0
 1368 0040 0097     		str	r7, [sp]
 1369 0042 039D     		ldr	r5, [sp, #12]
 1370 0044 2B00     		movs	r3, r5
 1371 0046 2900     		movs	r1, r5
 1372              	.LVL156:
 1373 0048 FFF7FEFF 		bl	StripLights_DrawLine
 1374              	.LVL157:
1082:Generated_Source\PSoC4/StripLights.c **** 		StripLights_DrawLine(x0, y1, x1, y1, color);
 1375              		.loc 1 1082 0
 1376 004c 0097     		str	r7, [sp]
 1377 004e 0299     		ldr	r1, [sp, #8]
 1378 0050 0B00     		movs	r3, r1
 1379 0052 3200     		movs	r2, r6
 1380 0054 2000     		movs	r0, r4
 1381 0056 FFF7FEFF 		bl	StripLights_DrawLine
 1382              	.LVL158:
1083:Generated_Source\PSoC4/StripLights.c **** 		StripLights_DrawLine(x0, y0, x0, y1, color);
 1383              		.loc 1 1083 0
 1384 005a 0097     		str	r7, [sp]
 1385 005c 029B     		ldr	r3, [sp, #8]
 1386 005e 2200     		movs	r2, r4
 1387 0060 2900     		movs	r1, r5
 1388 0062 2000     		movs	r0, r4
 1389 0064 FFF7FEFF 		bl	StripLights_DrawLine
 1390              	.LVL159:
1084:Generated_Source\PSoC4/StripLights.c **** 		StripLights_DrawLine(x1, y0, x1, y1, color);
 1391              		.loc 1 1084 0
 1392 0068 0097     		str	r7, [sp]
 1393 006a 029B     		ldr	r3, [sp, #8]
 1394 006c 3200     		movs	r2, r6
 1395 006e 2900     		movs	r1, r5
 1396 0070 3000     		movs	r0, r6
 1397 0072 FFF7FEFF 		bl	StripLights_DrawLine
 1398              	.LVL160:
 1399              	.L86:
1085:Generated_Source\PSoC4/StripLights.c **** 	}
1086:Generated_Source\PSoC4/StripLights.c **** }
 1400              		.loc 1 1086 0
 1401 0076 05B0     		add	sp, sp, #20
 1402              		@ sp needed
 1403              	.LVL161:
 1404              	.LVL162:
ARM GAS  C:\Users\JAMESS~1\AppData\Local\Temp\ccWH4kxb.s 			page 46


 1405 0078 F0BD     		pop	{r4, r5, r6, r7, pc}
 1406              		.cfi_endproc
 1407              	.LFE50:
 1408              		.size	StripLights_DrawRect, .-StripLights_DrawRect
 1409 007a C046     		.section	.text.StripLights_Dim,"ax",%progbits
 1410              		.align	2
 1411              		.global	StripLights_Dim
 1412              		.code	16
 1413              		.thumb_func
 1414              		.type	StripLights_Dim, %function
 1415              	StripLights_Dim:
 1416              	.LFB51:
1087:Generated_Source\PSoC4/StripLights.c **** 
1088:Generated_Source\PSoC4/StripLights.c **** /*******************************************************************************
1089:Generated_Source\PSoC4/StripLights.c **** * Function Name: StripLights_Dim
1090:Generated_Source\PSoC4/StripLights.c **** ********************************************************************************
1091:Generated_Source\PSoC4/StripLights.c **** *
1092:Generated_Source\PSoC4/StripLights.c **** * Summary:
1093:Generated_Source\PSoC4/StripLights.c **** *  Dim all output by a specific level (0,1,2,3,4)  
1094:Generated_Source\PSoC4/StripLights.c **** *
1095:Generated_Source\PSoC4/StripLights.c **** * Parameters:  
1096:Generated_Source\PSoC4/StripLights.c **** *  dimLevel:  Dim level 1 to 4, 0 => No dimming.
1097:Generated_Source\PSoC4/StripLights.c **** *
1098:Generated_Source\PSoC4/StripLights.c **** * Return: 
1099:Generated_Source\PSoC4/StripLights.c **** *  None 
1100:Generated_Source\PSoC4/StripLights.c **** *  
1101:Generated_Source\PSoC4/StripLights.c **** *******************************************************************************/
1102:Generated_Source\PSoC4/StripLights.c **** void StripLights_Dim(uint32 dimLevel) 
1103:Generated_Source\PSoC4/StripLights.c **** {
 1417              		.loc 1 1103 0
 1418              		.cfi_startproc
 1419              		@ args = 0, pretend = 0, frame = 0
 1420              		@ frame_needed = 0, uses_anonymous_args = 0
 1421              		@ link register save eliminated.
 1422              	.LVL163:
1104:Generated_Source\PSoC4/StripLights.c **** extern uint32  StripLights_DimMask;
1105:Generated_Source\PSoC4/StripLights.c **** extern uint32  StripLights_DimShift;
1106:Generated_Source\PSoC4/StripLights.c **** 
1107:Generated_Source\PSoC4/StripLights.c ****     switch(dimLevel)
 1423              		.loc 1 1107 0
 1424 0000 0228     		cmp	r0, #2
 1425 0002 0FD0     		beq	.L97
 1426 0004 02D8     		bhi	.L98
 1427 0006 0128     		cmp	r0, #1
 1428 0008 05D0     		beq	.L99
 1429 000a 20E0     		b	.L96
 1430              	.L98:
 1431 000c 0328     		cmp	r0, #3
 1432 000e 10D0     		beq	.L100
 1433 0010 0428     		cmp	r0, #4
 1434 0012 15D0     		beq	.L101
 1435 0014 1BE0     		b	.L96
 1436              	.L99:
1108:Generated_Source\PSoC4/StripLights.c ****     {
1109:Generated_Source\PSoC4/StripLights.c ****        case 1:  // 1/2 bright
1110:Generated_Source\PSoC4/StripLights.c ****            StripLights_DimMask = 0x7F7F7F7F;
 1437              		.loc 1 1110 0
ARM GAS  C:\Users\JAMESS~1\AppData\Local\Temp\ccWH4kxb.s 			page 47


 1438 0016 124A     		ldr	r2, .L103
 1439 0018 124B     		ldr	r3, .L103+4
 1440 001a 1A60     		str	r2, [r3]
1111:Generated_Source\PSoC4/StripLights.c ****            StripLights_DimShift = 1;
 1441              		.loc 1 1111 0
 1442 001c 0122     		movs	r2, #1
 1443 001e 124B     		ldr	r3, .L103+8
 1444 0020 1A60     		str	r2, [r3]
1112:Generated_Source\PSoC4/StripLights.c ****            break;
 1445              		.loc 1 1112 0
 1446 0022 1BE0     		b	.L95
 1447              	.L97:
1113:Generated_Source\PSoC4/StripLights.c ****            
1114:Generated_Source\PSoC4/StripLights.c ****        case 2:
1115:Generated_Source\PSoC4/StripLights.c ****            StripLights_DimMask = 0x3F3F3F3F;
 1448              		.loc 1 1115 0
 1449 0024 114A     		ldr	r2, .L103+12
 1450 0026 0F4B     		ldr	r3, .L103+4
 1451 0028 1A60     		str	r2, [r3]
1116:Generated_Source\PSoC4/StripLights.c ****            StripLights_DimShift = 2;
 1452              		.loc 1 1116 0
 1453 002a 0222     		movs	r2, #2
 1454 002c 0E4B     		ldr	r3, .L103+8
 1455 002e 1A60     		str	r2, [r3]
1117:Generated_Source\PSoC4/StripLights.c ****            break;
 1456              		.loc 1 1117 0
 1457 0030 14E0     		b	.L95
 1458              	.L100:
1118:Generated_Source\PSoC4/StripLights.c ****            
1119:Generated_Source\PSoC4/StripLights.c ****        case 3:
1120:Generated_Source\PSoC4/StripLights.c ****            StripLights_DimMask = 0x1F1F1F1F;
 1459              		.loc 1 1120 0
 1460 0032 0F4A     		ldr	r2, .L103+16
 1461 0034 0B4B     		ldr	r3, .L103+4
 1462 0036 1A60     		str	r2, [r3]
1121:Generated_Source\PSoC4/StripLights.c ****            StripLights_DimShift = 3;
 1463              		.loc 1 1121 0
 1464 0038 0322     		movs	r2, #3
 1465 003a 0B4B     		ldr	r3, .L103+8
 1466 003c 1A60     		str	r2, [r3]
1122:Generated_Source\PSoC4/StripLights.c ****            break;
 1467              		.loc 1 1122 0
 1468 003e 0DE0     		b	.L95
 1469              	.L101:
1123:Generated_Source\PSoC4/StripLights.c ****            
1124:Generated_Source\PSoC4/StripLights.c ****        case 4:
1125:Generated_Source\PSoC4/StripLights.c ****            StripLights_DimMask = 0x0F0F0F0F;
 1470              		.loc 1 1125 0
 1471 0040 0C4A     		ldr	r2, .L103+20
 1472 0042 084B     		ldr	r3, .L103+4
 1473 0044 1A60     		str	r2, [r3]
1126:Generated_Source\PSoC4/StripLights.c ****            StripLights_DimShift = 4;
 1474              		.loc 1 1126 0
 1475 0046 0422     		movs	r2, #4
 1476 0048 074B     		ldr	r3, .L103+8
 1477 004a 1A60     		str	r2, [r3]
1127:Generated_Source\PSoC4/StripLights.c ****            break;
ARM GAS  C:\Users\JAMESS~1\AppData\Local\Temp\ccWH4kxb.s 			page 48


 1478              		.loc 1 1127 0
 1479 004c 06E0     		b	.L95
 1480              	.L96:
1128:Generated_Source\PSoC4/StripLights.c ****            
1129:Generated_Source\PSoC4/StripLights.c ****        default:
1130:Generated_Source\PSoC4/StripLights.c ****            StripLights_DimMask = 0xFFFFFFFF;
 1481              		.loc 1 1130 0
 1482 004e 0122     		movs	r2, #1
 1483 0050 5242     		rsbs	r2, r2, #0
 1484 0052 044B     		ldr	r3, .L103+4
 1485 0054 1A60     		str	r2, [r3]
1131:Generated_Source\PSoC4/StripLights.c ****            StripLights_DimShift = 0;
 1486              		.loc 1 1131 0
 1487 0056 0022     		movs	r2, #0
 1488 0058 034B     		ldr	r3, .L103+8
 1489 005a 1A60     		str	r2, [r3]
 1490              	.L95:
1132:Generated_Source\PSoC4/StripLights.c ****            break; 
1133:Generated_Source\PSoC4/StripLights.c ****     }
1134:Generated_Source\PSoC4/StripLights.c **** }
 1491              		.loc 1 1134 0
 1492              		@ sp needed
 1493 005c 7047     		bx	lr
 1494              	.L104:
 1495 005e C046     		.align	2
 1496              	.L103:
 1497 0060 7F7F7F7F 		.word	2139062143
 1498 0064 00000000 		.word	StripLights_DimMask
 1499 0068 00000000 		.word	StripLights_DimShift
 1500 006c 3F3F3F3F 		.word	1061109567
 1501 0070 1F1F1F1F 		.word	522133279
 1502 0074 0F0F0F0F 		.word	252645135
 1503              		.cfi_endproc
 1504              	.LFE51:
 1505              		.size	StripLights_Dim, .-StripLights_Dim
 1506              		.section	.text.StripLights_Start,"ax",%progbits
 1507              		.align	2
 1508              		.global	StripLights_Start
 1509              		.code	16
 1510              		.thumb_func
 1511              		.type	StripLights_Start, %function
 1512              	StripLights_Start:
 1513              	.LFB32:
 253:Generated_Source\PSoC4/StripLights.c ****     extern uint8 StripLights_initvar;
 1514              		.loc 1 253 0
 1515              		.cfi_startproc
 1516              		@ args = 0, pretend = 0, frame = 0
 1517              		@ frame_needed = 0, uses_anonymous_args = 0
 1518 0000 10B5     		push	{r4, lr}
 1519              		.cfi_def_cfa_offset 8
 1520              		.cfi_offset 4, -8
 1521              		.cfi_offset 14, -4
 264:Generated_Source\PSoC4/StripLights.c **** 
 1522              		.loc 1 264 0
 1523 0002 0322     		movs	r2, #3
 1524 0004 184B     		ldr	r3, .L107
 1525 0006 1A70     		strb	r2, [r3]
ARM GAS  C:\Users\JAMESS~1\AppData\Local\Temp\ccWH4kxb.s 			page 49


 279:Generated_Source\PSoC4/StripLights.c ****         StripLights_Compare0 = (uint8)StripLights_COMPARE_ZERO;
 1526              		.loc 1 279 0
 1527 0008 0B32     		adds	r2, r2, #11
 1528 000a 184B     		ldr	r3, .L107+4
 1529 000c 1A70     		strb	r2, [r3]
 280:Generated_Source\PSoC4/StripLights.c ****         StripLights_Compare1 = (uint8)StripLights_COMPARE_ONE;        
 1530              		.loc 1 280 0
 1531 000e 023A     		subs	r2, r2, #2
 1532 0010 174B     		ldr	r3, .L107+8
 1533 0012 1A70     		strb	r2, [r3]
 281:Generated_Source\PSoC4/StripLights.c ****     #endif /* CY_PSOC5A */
 1534              		.loc 1 281 0
 1535 0014 053A     		subs	r2, r2, #5
 1536 0016 174B     		ldr	r3, .L107+12
 1537 0018 1A70     		strb	r2, [r3]
 285:Generated_Source\PSoC4/StripLights.c ****     StripLights_MemClear(StripLights_OFF);
 1538              		.loc 1 285 0
 1539 001a 174C     		ldr	r4, .L107+16
 1540 001c 0123     		movs	r3, #1
 1541 001e 2370     		strb	r3, [r4]
 286:Generated_Source\PSoC4/StripLights.c ****     StripLights_CONTROL = StripLights_DISABLE;
 1542              		.loc 1 286 0
 1543 0020 1820     		movs	r0, #24
 1544 0022 FFF7FEFF 		bl	StripLights_getColor
 1545              	.LVL164:
 1546 0026 FFF7FEFF 		bl	StripLights_MemClear
 1547              	.LVL165:
 287:Generated_Source\PSoC4/StripLights.c ****     
 1548              		.loc 1 287 0
 1549 002a 0023     		movs	r3, #0
 1550 002c 2370     		strb	r3, [r4]
 289:Generated_Source\PSoC4/StripLights.c ****     
 1551              		.loc 1 289 0
 1552 002e 0020     		movs	r0, #0
 1553 0030 FFF7FEFF 		bl	StripLights_SetFont
 1554              	.LVL166:
 292:Generated_Source\PSoC4/StripLights.c **** 
 1555              		.loc 1 292 0
 1556 0034 0020     		movs	r0, #0
 1557 0036 FFF7FEFF 		bl	StripLights_Dim
 1558              	.LVL167:
 294:Generated_Source\PSoC4/StripLights.c ****     {
 1559              		.loc 1 294 0
 1560 003a 104B     		ldr	r3, .L107+20
 1561 003c 1B7F     		ldrb	r3, [r3, #28]
 1562 003e 002B     		cmp	r3, #0
 1563 0040 0ED1     		bne	.L106
 297:Generated_Source\PSoC4/StripLights.c ****  
 1564              		.loc 1 297 0
 1565 0042 0122     		movs	r2, #1
 1566 0044 0D4B     		ldr	r3, .L107+20
 1567 0046 1A77     		strb	r2, [r3, #28]
 303:Generated_Source\PSoC4/StripLights.c **** 		   StripLights_fisr_StartEx(StripLights_FISR);
 1568              		.loc 1 303 0
 1569 0048 0D48     		ldr	r0, .L107+24
 1570 004a FFF7FEFF 		bl	StripLights_cisr_StartEx
 1571              	.LVL168:
ARM GAS  C:\Users\JAMESS~1\AppData\Local\Temp\ccWH4kxb.s 			page 50


 304:Generated_Source\PSoC4/StripLights.c ****         
 1572              		.loc 1 304 0
 1573 004e 0D48     		ldr	r0, .L107+28
 1574 0050 FFF7FEFF 		bl	StripLights_fisr_StartEx
 1575              	.LVL169:
 307:Generated_Source\PSoC4/StripLights.c ****            StripLights_fisr_SetPriority(0u);
 1576              		.loc 1 307 0
 1577 0054 0120     		movs	r0, #1
 1578 0056 FFF7FEFF 		bl	StripLights_cisr_SetPriority
 1579              	.LVL170:
 308:Generated_Source\PSoC4/StripLights.c ****        }
 1580              		.loc 1 308 0
 1581 005a 0020     		movs	r0, #0
 1582 005c FFF7FEFF 		bl	StripLights_fisr_SetPriority
 1583              	.LVL171:
 1584              	.L106:
 316:Generated_Source\PSoC4/StripLights.c **** }
 1585              		.loc 1 316 0
 1586 0060 0122     		movs	r2, #1
 1587 0062 094B     		ldr	r3, .L107+32
 1588 0064 1A60     		str	r2, [r3]
 317:Generated_Source\PSoC4/StripLights.c **** 
 1589              		.loc 1 317 0
 1590              		@ sp needed
 1591 0066 10BD     		pop	{r4, pc}
 1592              	.L108:
 1593              		.align	2
 1594              	.L107:
 1595 0068 91000F40 		.word	1074725009
 1596 006c 41000F40 		.word	1074724929
 1597 0070 21000F40 		.word	1074724897
 1598 0074 31000F40 		.word	1074724913
 1599 0078 72000F40 		.word	1074724978
 1600 007c 00000000 		.word	.LANCHOR0
 1601 0080 00000000 		.word	StripLights_CISR
 1602 0084 00000000 		.word	StripLights_FISR
 1603 0088 00000000 		.word	StripLights_refreshComplete
 1604              		.cfi_endproc
 1605              	.LFE32:
 1606              		.size	StripLights_Start, .-StripLights_Start
 1607              		.section	.text.StripLights_Bplot8,"ax",%progbits
 1608              		.align	2
 1609              		.global	StripLights_Bplot8
 1610              		.code	16
 1611              		.thumb_func
 1612              		.type	StripLights_Bplot8, %function
 1613              	StripLights_Bplot8:
 1614              	.LFB52:
1135:Generated_Source\PSoC4/StripLights.c **** 
1136:Generated_Source\PSoC4/StripLights.c **** /*******************************************************************************
1137:Generated_Source\PSoC4/StripLights.c **** * Function Name: StripLights_Bplot8
1138:Generated_Source\PSoC4/StripLights.c **** ********************************************************************************
1139:Generated_Source\PSoC4/StripLights.c **** *
1140:Generated_Source\PSoC4/StripLights.c **** * Summary:
1141:Generated_Source\PSoC4/StripLights.c **** *  Draw a bitmap image on the display using 8-bit color. 
1142:Generated_Source\PSoC4/StripLights.c **** *
1143:Generated_Source\PSoC4/StripLights.c **** * Parameters:  
ARM GAS  C:\Users\JAMESS~1\AppData\Local\Temp\ccWH4kxb.s 			page 51


1144:Generated_Source\PSoC4/StripLights.c **** *    x, y:  The upper left corner of the image location
1145:Generated_Source\PSoC4/StripLights.c **** *  bitMap:  A pointer to an image array.  The first two values is the X and Y
1146:Generated_Source\PSoC4/StripLights.c **** *           size of the bitmap.
1147:Generated_Source\PSoC4/StripLights.c **** *  update:  If not 0 update the display after drawing image.
1148:Generated_Source\PSoC4/StripLights.c **** *
1149:Generated_Source\PSoC4/StripLights.c **** * Return: 
1150:Generated_Source\PSoC4/StripLights.c **** *  None 
1151:Generated_Source\PSoC4/StripLights.c **** *  
1152:Generated_Source\PSoC4/StripLights.c **** *******************************************************************************/
1153:Generated_Source\PSoC4/StripLights.c **** void StripLights_Bplot8( int32 x, int32 y, uint8 * bitMap, int32 update)
1154:Generated_Source\PSoC4/StripLights.c **** {
 1615              		.loc 1 1154 0
 1616              		.cfi_startproc
 1617              		@ args = 0, pretend = 0, frame = 8
 1618              		@ frame_needed = 0, uses_anonymous_args = 0
 1619              	.LVL172:
 1620 0000 F0B5     		push	{r4, r5, r6, r7, lr}
 1621              		.cfi_def_cfa_offset 20
 1622              		.cfi_offset 4, -20
 1623              		.cfi_offset 5, -16
 1624              		.cfi_offset 6, -12
 1625              		.cfi_offset 7, -8
 1626              		.cfi_offset 14, -4
 1627 0002 5F46     		mov	r7, fp
 1628 0004 4646     		mov	r6, r8
 1629 0006 C0B4     		push	{r6, r7}
 1630              		.cfi_def_cfa_offset 28
 1631              		.cfi_offset 8, -28
 1632              		.cfi_offset 11, -24
 1633 0008 83B0     		sub	sp, sp, #12
 1634              		.cfi_def_cfa_offset 40
 1635 000a 0190     		str	r0, [sp, #4]
 1636 000c 0091     		str	r1, [sp]
 1637 000e 1700     		movs	r7, r2
 1638 0010 9B46     		mov	fp, r3
 1639              	.LVL173:
1155:Generated_Source\PSoC4/StripLights.c ****     int32 dx, dy;
1156:Generated_Source\PSoC4/StripLights.c ****     int32 aindex = 0;
1157:Generated_Source\PSoC4/StripLights.c ****     int32 maxX, maxY;
1158:Generated_Source\PSoC4/StripLights.c **** 
1159:Generated_Source\PSoC4/StripLights.c ****     maxX = x + (int32)bitMap[aindex++];
 1640              		.loc 1 1159 0
 1641 0012 1378     		ldrb	r3, [r2]
 1642              	.LVL174:
 1643 0014 1E18     		adds	r6, r3, r0
 1644              	.LVL175:
1160:Generated_Source\PSoC4/StripLights.c ****     maxY = y  + (int32)bitMap[aindex++];
 1645              		.loc 1 1160 0
 1646 0016 7B78     		ldrb	r3, [r7, #1]
 1647 0018 8846     		mov	r8, r1
 1648 001a 9844     		add	r8, r8, r3
 1649              	.LVL176:
 1650 001c 0223     		movs	r3, #2
1161:Generated_Source\PSoC4/StripLights.c **** 
1162:Generated_Source\PSoC4/StripLights.c **** 	for(dy = y; dy < maxY; dy++)
 1651              		.loc 1 1162 0
 1652 001e 0EE0     		b	.L110
ARM GAS  C:\Users\JAMESS~1\AppData\Local\Temp\ccWH4kxb.s 			page 52


 1653              	.LVL177:
 1654              	.L111:
1163:Generated_Source\PSoC4/StripLights.c ****     {
1164:Generated_Source\PSoC4/StripLights.c **** 		for(dx = x; dx < maxX; dx++)
1165:Generated_Source\PSoC4/StripLights.c ****         {
1166:Generated_Source\PSoC4/StripLights.c ****             StripLights_Pixel(dx, dy, bitMap[aindex++]);
 1655              		.loc 1 1166 0 discriminator 3
 1656 0020 5D1C     		adds	r5, r3, #1
 1657              	.LVL178:
 1658 0022 FA5C     		ldrb	r2, [r7, r3]
 1659 0024 0099     		ldr	r1, [sp]
 1660 0026 2000     		movs	r0, r4
 1661 0028 FFF7FEFF 		bl	StripLights_Pixel
 1662              	.LVL179:
1164:Generated_Source\PSoC4/StripLights.c ****         {
 1663              		.loc 1 1164 0 discriminator 3
 1664 002c 0134     		adds	r4, r4, #1
 1665              	.LVL180:
 1666              		.loc 1 1166 0 discriminator 3
 1667 002e 2B00     		movs	r3, r5
 1668 0030 00E0     		b	.L112
 1669              	.LVL181:
 1670              	.L114:
 1671 0032 019C     		ldr	r4, [sp, #4]
 1672              	.LVL182:
 1673              	.L112:
1164:Generated_Source\PSoC4/StripLights.c ****         {
 1674              		.loc 1 1164 0 discriminator 1
 1675 0034 B442     		cmp	r4, r6
 1676 0036 F3DB     		blt	.L111
1162:Generated_Source\PSoC4/StripLights.c ****     {
 1677              		.loc 1 1162 0 discriminator 2
 1678 0038 009A     		ldr	r2, [sp]
 1679 003a 0132     		adds	r2, r2, #1
 1680 003c 0092     		str	r2, [sp]
 1681              	.LVL183:
 1682              	.L110:
1162:Generated_Source\PSoC4/StripLights.c ****     {
 1683              		.loc 1 1162 0 is_stmt 0 discriminator 1
 1684 003e 009A     		ldr	r2, [sp]
 1685 0040 4245     		cmp	r2, r8
 1686 0042 F6DB     		blt	.L114
1167:Generated_Source\PSoC4/StripLights.c ****         }
1168:Generated_Source\PSoC4/StripLights.c ****     }
1169:Generated_Source\PSoC4/StripLights.c **** 	if(update) StripLights_Trigger(1);
 1687              		.loc 1 1169 0 is_stmt 1
 1688 0044 5B46     		mov	r3, fp
 1689              	.LVL184:
 1690 0046 002B     		cmp	r3, #0
 1691 0048 02D0     		beq	.L109
 1692              	.LVL185:
 1693              		.loc 1 1169 0 is_stmt 0 discriminator 1
 1694 004a 0120     		movs	r0, #1
 1695 004c FFF7FEFF 		bl	StripLights_Trigger
 1696              	.LVL186:
 1697              	.L109:
1170:Generated_Source\PSoC4/StripLights.c **** }
ARM GAS  C:\Users\JAMESS~1\AppData\Local\Temp\ccWH4kxb.s 			page 53


 1698              		.loc 1 1170 0 is_stmt 1
 1699 0050 03B0     		add	sp, sp, #12
 1700              	.LVL187:
 1701              		@ sp needed
 1702              	.LVL188:
 1703              	.LVL189:
 1704              	.LVL190:
 1705              	.LVL191:
 1706 0052 0CBC     		pop	{r2, r3}
 1707 0054 9046     		mov	r8, r2
 1708 0056 9B46     		mov	fp, r3
 1709 0058 F0BD     		pop	{r4, r5, r6, r7, pc}
 1710              		.cfi_endproc
 1711              	.LFE52:
 1712              		.size	StripLights_Bplot8, .-StripLights_Bplot8
 1713 005a C046     		.section	.text.StripLights_Bplot32,"ax",%progbits
 1714              		.align	2
 1715              		.global	StripLights_Bplot32
 1716              		.code	16
 1717              		.thumb_func
 1718              		.type	StripLights_Bplot32, %function
 1719              	StripLights_Bplot32:
 1720              	.LFB53:
1171:Generated_Source\PSoC4/StripLights.c **** 
1172:Generated_Source\PSoC4/StripLights.c **** /*******************************************************************************
1173:Generated_Source\PSoC4/StripLights.c **** * Function Name: StripLights_Bplot32
1174:Generated_Source\PSoC4/StripLights.c **** ********************************************************************************
1175:Generated_Source\PSoC4/StripLights.c **** *
1176:Generated_Source\PSoC4/StripLights.c **** * Summary:
1177:Generated_Source\PSoC4/StripLights.c **** *  Draw a bitmap image on the display using 32-bit color. 
1178:Generated_Source\PSoC4/StripLights.c **** *
1179:Generated_Source\PSoC4/StripLights.c **** * Parameters:  
1180:Generated_Source\PSoC4/StripLights.c **** *    x, y:  The upper left corner of the image location
1181:Generated_Source\PSoC4/StripLights.c **** *  bitMap:  A pointer to an image array.  The first two values is the X and Y
1182:Generated_Source\PSoC4/StripLights.c **** *           size of the bitmap.
1183:Generated_Source\PSoC4/StripLights.c **** *  update:  If not 0 update the display after drawing image.
1184:Generated_Source\PSoC4/StripLights.c **** *
1185:Generated_Source\PSoC4/StripLights.c **** * Return: 
1186:Generated_Source\PSoC4/StripLights.c **** *  None 
1187:Generated_Source\PSoC4/StripLights.c **** *  
1188:Generated_Source\PSoC4/StripLights.c **** *******************************************************************************/
1189:Generated_Source\PSoC4/StripLights.c **** void StripLights_Bplot32( int32 x, int32 y, uint32 * bitMap, int32 update)
1190:Generated_Source\PSoC4/StripLights.c **** {
 1721              		.loc 1 1190 0
 1722              		.cfi_startproc
 1723              		@ args = 0, pretend = 0, frame = 8
 1724              		@ frame_needed = 0, uses_anonymous_args = 0
 1725              	.LVL192:
 1726 0000 F0B5     		push	{r4, r5, r6, r7, lr}
 1727              		.cfi_def_cfa_offset 20
 1728              		.cfi_offset 4, -20
 1729              		.cfi_offset 5, -16
 1730              		.cfi_offset 6, -12
 1731              		.cfi_offset 7, -8
 1732              		.cfi_offset 14, -4
 1733 0002 5F46     		mov	r7, fp
 1734 0004 4646     		mov	r6, r8
ARM GAS  C:\Users\JAMESS~1\AppData\Local\Temp\ccWH4kxb.s 			page 54


 1735 0006 C0B4     		push	{r6, r7}
 1736              		.cfi_def_cfa_offset 28
 1737              		.cfi_offset 8, -28
 1738              		.cfi_offset 11, -24
 1739 0008 83B0     		sub	sp, sp, #12
 1740              		.cfi_def_cfa_offset 40
 1741 000a 0190     		str	r0, [sp, #4]
 1742 000c 0091     		str	r1, [sp]
 1743 000e 1700     		movs	r7, r2
 1744 0010 9B46     		mov	fp, r3
 1745              	.LVL193:
1191:Generated_Source\PSoC4/StripLights.c ****     int32 dx, dy;
1192:Generated_Source\PSoC4/StripLights.c ****     int32 aindex = 0;
1193:Generated_Source\PSoC4/StripLights.c ****     int32 maxX, maxY;
1194:Generated_Source\PSoC4/StripLights.c **** 
1195:Generated_Source\PSoC4/StripLights.c ****     maxX = x + (int32)bitMap[aindex++];
 1746              		.loc 1 1195 0
 1747 0012 1368     		ldr	r3, [r2]
 1748              	.LVL194:
 1749 0014 1E00     		movs	r6, r3
 1750 0016 8446     		mov	ip, r0
 1751 0018 6644     		add	r6, r6, ip
 1752              	.LVL195:
1196:Generated_Source\PSoC4/StripLights.c ****     maxY = y  + (int32)bitMap[aindex++];
 1753              		.loc 1 1196 0
 1754 001a 5368     		ldr	r3, [r2, #4]
 1755 001c 9846     		mov	r8, r3
 1756 001e 8C46     		mov	ip, r1
 1757 0020 E044     		add	r8, r8, ip
 1758              	.LVL196:
 1759 0022 0223     		movs	r3, #2
1197:Generated_Source\PSoC4/StripLights.c **** 
1198:Generated_Source\PSoC4/StripLights.c **** 	for(dy = y; dy < maxY; dy++)
 1760              		.loc 1 1198 0
 1761 0024 0FE0     		b	.L116
 1762              	.LVL197:
 1763              	.L117:
1199:Generated_Source\PSoC4/StripLights.c ****     {
1200:Generated_Source\PSoC4/StripLights.c **** 		for(dx = x; dx < maxX; dx++)
1201:Generated_Source\PSoC4/StripLights.c ****         {
1202:Generated_Source\PSoC4/StripLights.c ****             StripLights_Pixel(dx, dy, bitMap[aindex++]);
 1764              		.loc 1 1202 0 discriminator 3
 1765 0026 5D1C     		adds	r5, r3, #1
 1766              	.LVL198:
 1767 0028 9B00     		lsls	r3, r3, #2
 1768 002a FA58     		ldr	r2, [r7, r3]
 1769 002c 0099     		ldr	r1, [sp]
 1770 002e 2000     		movs	r0, r4
 1771 0030 FFF7FEFF 		bl	StripLights_Pixel
 1772              	.LVL199:
1200:Generated_Source\PSoC4/StripLights.c ****         {
 1773              		.loc 1 1200 0 discriminator 3
 1774 0034 0134     		adds	r4, r4, #1
 1775              	.LVL200:
 1776              		.loc 1 1202 0 discriminator 3
 1777 0036 2B00     		movs	r3, r5
 1778 0038 00E0     		b	.L118
ARM GAS  C:\Users\JAMESS~1\AppData\Local\Temp\ccWH4kxb.s 			page 55


 1779              	.LVL201:
 1780              	.L120:
 1781 003a 019C     		ldr	r4, [sp, #4]
 1782              	.LVL202:
 1783              	.L118:
1200:Generated_Source\PSoC4/StripLights.c ****         {
 1784              		.loc 1 1200 0 discriminator 1
 1785 003c B442     		cmp	r4, r6
 1786 003e F2DB     		blt	.L117
1198:Generated_Source\PSoC4/StripLights.c ****     {
 1787              		.loc 1 1198 0 discriminator 2
 1788 0040 009A     		ldr	r2, [sp]
 1789 0042 0132     		adds	r2, r2, #1
 1790 0044 0092     		str	r2, [sp]
 1791              	.LVL203:
 1792              	.L116:
1198:Generated_Source\PSoC4/StripLights.c ****     {
 1793              		.loc 1 1198 0 is_stmt 0 discriminator 1
 1794 0046 009A     		ldr	r2, [sp]
 1795 0048 4245     		cmp	r2, r8
 1796 004a F6DB     		blt	.L120
1203:Generated_Source\PSoC4/StripLights.c ****         }
1204:Generated_Source\PSoC4/StripLights.c ****     }
1205:Generated_Source\PSoC4/StripLights.c **** 	if(update) StripLights_Trigger(1);
 1797              		.loc 1 1205 0 is_stmt 1
 1798 004c 5B46     		mov	r3, fp
 1799              	.LVL204:
 1800 004e 002B     		cmp	r3, #0
 1801 0050 02D0     		beq	.L115
 1802              	.LVL205:
 1803              		.loc 1 1205 0 is_stmt 0 discriminator 1
 1804 0052 0120     		movs	r0, #1
 1805 0054 FFF7FEFF 		bl	StripLights_Trigger
 1806              	.LVL206:
 1807              	.L115:
1206:Generated_Source\PSoC4/StripLights.c **** }
 1808              		.loc 1 1206 0 is_stmt 1
 1809 0058 03B0     		add	sp, sp, #12
 1810              	.LVL207:
 1811              		@ sp needed
 1812              	.LVL208:
 1813              	.LVL209:
 1814              	.LVL210:
 1815              	.LVL211:
 1816 005a 0CBC     		pop	{r2, r3}
 1817 005c 9046     		mov	r8, r2
 1818 005e 9B46     		mov	fp, r3
 1819 0060 F0BD     		pop	{r4, r5, r6, r7, pc}
 1820              		.cfi_endproc
 1821              	.LFE53:
 1822              		.size	StripLights_Bplot32, .-StripLights_Bplot32
 1823              		.global	__aeabi_uidiv
 1824 0062 C046     		.section	.text.StripLights_RgbBlend,"ax",%progbits
 1825              		.align	2
 1826              		.global	StripLights_RgbBlend
 1827              		.code	16
 1828              		.thumb_func
ARM GAS  C:\Users\JAMESS~1\AppData\Local\Temp\ccWH4kxb.s 			page 56


 1829              		.type	StripLights_RgbBlend, %function
 1830              	StripLights_RgbBlend:
 1831              	.LFB54:
1207:Generated_Source\PSoC4/StripLights.c **** 
1208:Generated_Source\PSoC4/StripLights.c **** /*******************************************************************************
1209:Generated_Source\PSoC4/StripLights.c **** * Function Name: StripLights_RgbBlend()
1210:Generated_Source\PSoC4/StripLights.c **** ********************************************************************************
1211:Generated_Source\PSoC4/StripLights.c **** * Summary:  Blend two colors into one.
1212:Generated_Source\PSoC4/StripLights.c **** *    
1213:Generated_Source\PSoC4/StripLights.c **** *    newColor = (pct * toColor)  + ((100-pct) * fromColor)
1214:Generated_Source\PSoC4/StripLights.c **** *
1215:Generated_Source\PSoC4/StripLights.c **** * Parameters:  
1216:Generated_Source\PSoC4/StripLights.c **** *  void  
1217:Generated_Source\PSoC4/StripLights.c **** *
1218:Generated_Source\PSoC4/StripLights.c **** * Return: 
1219:Generated_Source\PSoC4/StripLights.c **** *  void
1220:Generated_Source\PSoC4/StripLights.c **** *
1221:Generated_Source\PSoC4/StripLights.c **** *******************************************************************************/
1222:Generated_Source\PSoC4/StripLights.c **** uint32 StripLights_RgbBlend(uint32 fromColor, uint32 toColor, uint32 pct)
1223:Generated_Source\PSoC4/StripLights.c **** {
 1832              		.loc 1 1223 0
 1833              		.cfi_startproc
 1834              		@ args = 0, pretend = 0, frame = 0
 1835              		@ frame_needed = 0, uses_anonymous_args = 0
 1836              	.LVL212:
 1837 0000 F8B5     		push	{r3, r4, r5, r6, r7, lr}
 1838              		.cfi_def_cfa_offset 24
 1839              		.cfi_offset 3, -24
 1840              		.cfi_offset 4, -20
 1841              		.cfi_offset 5, -16
 1842              		.cfi_offset 6, -12
 1843              		.cfi_offset 7, -8
 1844              		.cfi_offset 14, -4
 1845 0002 4F46     		mov	r7, r9
 1846 0004 4646     		mov	r6, r8
 1847 0006 C0B4     		push	{r6, r7}
 1848              		.cfi_def_cfa_offset 32
 1849              		.cfi_offset 8, -32
 1850              		.cfi_offset 9, -28
 1851 0008 0400     		movs	r4, r0
 1852 000a 0E00     		movs	r6, r1
 1853 000c 9146     		mov	r9, r2
 1854              	.LVL213:
1224:Generated_Source\PSoC4/StripLights.c ****     uint32 newColor = 0;
1225:Generated_Source\PSoC4/StripLights.c ****  
1226:Generated_Source\PSoC4/StripLights.c ****     #if(StripLights_CHIP == StripLights_CHIP_SF2812RGBW)
1227:Generated_Source\PSoC4/StripLights.c ****         uint32 tc, fc;
1228:Generated_Source\PSoC4/StripLights.c ****         
1229:Generated_Source\PSoC4/StripLights.c ****         tc = toColor >> 8;
1230:Generated_Source\PSoC4/StripLights.c ****         fc = fromColor >> 8;
1231:Generated_Source\PSoC4/StripLights.c ****         newColor = ((((pct * (tc & 0x00FF0000)) + ((100-pct) * (fc & 0x00FF0000)))/100) & 0x00FF000
1232:Generated_Source\PSoC4/StripLights.c ****     #endif
1233:Generated_Source\PSoC4/StripLights.c ****     newColor |= (((pct * (toColor & 0x00FF0000)) + ((100-pct) * (fromColor & 0x00FF0000)))/100) & 0
 1855              		.loc 1 1233 0
 1856 000e FF25     		movs	r5, #255
 1857 0010 2D04     		lsls	r5, r5, #16
 1858 0012 0800     		movs	r0, r1
ARM GAS  C:\Users\JAMESS~1\AppData\Local\Temp\ccWH4kxb.s 			page 57


 1859              	.LVL214:
 1860 0014 2840     		ands	r0, r5
 1861 0016 5043     		muls	r0, r2
 1862 0018 6423     		movs	r3, #100
 1863 001a 9B1A     		subs	r3, r3, r2
 1864 001c 9846     		mov	r8, r3
 1865 001e 2300     		movs	r3, r4
 1866 0020 2B40     		ands	r3, r5
 1867 0022 4246     		mov	r2, r8
 1868              	.LVL215:
 1869 0024 5343     		muls	r3, r2
 1870 0026 C018     		adds	r0, r0, r3
 1871 0028 6421     		movs	r1, #100
 1872              	.LVL216:
 1873 002a FFF7FEFF 		bl	__aeabi_uidiv
 1874              	.LVL217:
 1875 002e 0540     		ands	r5, r0
 1876              	.LVL218:
1234:Generated_Source\PSoC4/StripLights.c ****     newColor |= (((pct * (toColor & 0x0000FF00)) + ((100-pct) * (fromColor & 0x0000FF00)))/100) & 0
 1877              		.loc 1 1234 0
 1878 0030 FF27     		movs	r7, #255
 1879 0032 3F02     		lsls	r7, r7, #8
 1880 0034 3000     		movs	r0, r6
 1881 0036 3840     		ands	r0, r7
 1882 0038 4B46     		mov	r3, r9
 1883 003a 5843     		muls	r0, r3
 1884 003c 2300     		movs	r3, r4
 1885 003e 3B40     		ands	r3, r7
 1886 0040 4246     		mov	r2, r8
 1887 0042 5343     		muls	r3, r2
 1888 0044 C018     		adds	r0, r0, r3
 1889 0046 6421     		movs	r1, #100
 1890 0048 FFF7FEFF 		bl	__aeabi_uidiv
 1891              	.LVL219:
 1892 004c 0740     		ands	r7, r0
 1893 004e 3D43     		orrs	r5, r7
 1894              	.LVL220:
1235:Generated_Source\PSoC4/StripLights.c ****     newColor |= (((pct * (toColor & 0x000000FF)) + ((100-pct) * (fromColor & 0x000000FF)))/100) & 0
 1895              		.loc 1 1235 0
 1896 0050 FF27     		movs	r7, #255
 1897 0052 3000     		movs	r0, r6
 1898 0054 3840     		ands	r0, r7
 1899 0056 4B46     		mov	r3, r9
 1900 0058 5843     		muls	r0, r3
 1901 005a 3C40     		ands	r4, r7
 1902              	.LVL221:
 1903 005c 4346     		mov	r3, r8
 1904 005e 5C43     		muls	r4, r3
 1905 0060 0019     		adds	r0, r0, r4
 1906 0062 6421     		movs	r1, #100
 1907 0064 FFF7FEFF 		bl	__aeabi_uidiv
 1908              	.LVL222:
 1909 0068 3840     		ands	r0, r7
 1910 006a 2843     		orrs	r0, r5
 1911              	.LVL223:
1236:Generated_Source\PSoC4/StripLights.c ****  
1237:Generated_Source\PSoC4/StripLights.c ****    return(newColor);
ARM GAS  C:\Users\JAMESS~1\AppData\Local\Temp\ccWH4kxb.s 			page 58


1238:Generated_Source\PSoC4/StripLights.c **** }
 1912              		.loc 1 1238 0
 1913              		@ sp needed
 1914              	.LVL224:
 1915              	.LVL225:
 1916 006c 0CBC     		pop	{r2, r3}
 1917 006e 9046     		mov	r8, r2
 1918 0070 9946     		mov	r9, r3
 1919 0072 F8BD     		pop	{r3, r4, r5, r6, r7, pc}
 1920              		.cfi_endproc
 1921              	.LFE54:
 1922              		.size	StripLights_RgbBlend, .-StripLights_RgbBlend
 1923              		.global	StripLights_CLUT
 1924              		.global	StripLights_gamma
 1925              		.comm	StripLights_DimShift,4,4
 1926              		.comm	StripLights_DimMask,4,4
 1927              		.comm	StripLights_refreshComplete,4,4
 1928              		.global	StripLights_row
 1929              		.global	StripLights_ledIndex
 1930              		.comm	StripLights_ledArray,180,4
 1931              		.global	StripLights_initvar
 1932              		.global	StripLights_ExitCritical
 1933              		.global	StripLights_EnterCritical
 1934              		.section	.rodata
 1935              		.align	2
 1936              		.set	.LANCHOR1,. + 0
 1937              		.set	.LANCHOR2,. + 256
 1938              		.type	StripLights_gamma, %object
 1939              		.size	StripLights_gamma, 256
 1940              	StripLights_gamma:
 1941 0000 00       		.byte	0
 1942 0001 00       		.byte	0
 1943 0002 00       		.byte	0
 1944 0003 00       		.byte	0
 1945 0004 00       		.byte	0
 1946 0005 00       		.byte	0
 1947 0006 00       		.byte	0
 1948 0007 00       		.byte	0
 1949 0008 00       		.byte	0
 1950 0009 00       		.byte	0
 1951 000a 00       		.byte	0
 1952 000b 00       		.byte	0
 1953 000c 00       		.byte	0
 1954 000d 00       		.byte	0
 1955 000e 00       		.byte	0
 1956 000f 00       		.byte	0
 1957 0010 00       		.byte	0
 1958 0011 00       		.byte	0
 1959 0012 00       		.byte	0
 1960 0013 00       		.byte	0
 1961 0014 00       		.byte	0
 1962 0015 00       		.byte	0
 1963 0016 00       		.byte	0
 1964 0017 00       		.byte	0
 1965 0018 00       		.byte	0
 1966 0019 00       		.byte	0
 1967 001a 00       		.byte	0
ARM GAS  C:\Users\JAMESS~1\AppData\Local\Temp\ccWH4kxb.s 			page 59


 1968 001b 00       		.byte	0
 1969 001c 01       		.byte	1
 1970 001d 01       		.byte	1
 1971 001e 01       		.byte	1
 1972 001f 01       		.byte	1
 1973 0020 01       		.byte	1
 1974 0021 01       		.byte	1
 1975 0022 01       		.byte	1
 1976 0023 01       		.byte	1
 1977 0024 01       		.byte	1
 1978 0025 01       		.byte	1
 1979 0026 01       		.byte	1
 1980 0027 01       		.byte	1
 1981 0028 01       		.byte	1
 1982 0029 02       		.byte	2
 1983 002a 02       		.byte	2
 1984 002b 02       		.byte	2
 1985 002c 02       		.byte	2
 1986 002d 02       		.byte	2
 1987 002e 02       		.byte	2
 1988 002f 02       		.byte	2
 1989 0030 02       		.byte	2
 1990 0031 03       		.byte	3
 1991 0032 03       		.byte	3
 1992 0033 03       		.byte	3
 1993 0034 03       		.byte	3
 1994 0035 03       		.byte	3
 1995 0036 03       		.byte	3
 1996 0037 03       		.byte	3
 1997 0038 04       		.byte	4
 1998 0039 04       		.byte	4
 1999 003a 04       		.byte	4
 2000 003b 04       		.byte	4
 2001 003c 04       		.byte	4
 2002 003d 05       		.byte	5
 2003 003e 05       		.byte	5
 2004 003f 05       		.byte	5
 2005 0040 05       		.byte	5
 2006 0041 06       		.byte	6
 2007 0042 06       		.byte	6
 2008 0043 06       		.byte	6
 2009 0044 06       		.byte	6
 2010 0045 07       		.byte	7
 2011 0046 07       		.byte	7
 2012 0047 07       		.byte	7
 2013 0048 07       		.byte	7
 2014 0049 08       		.byte	8
 2015 004a 08       		.byte	8
 2016 004b 08       		.byte	8
 2017 004c 09       		.byte	9
 2018 004d 09       		.byte	9
 2019 004e 09       		.byte	9
 2020 004f 0A       		.byte	10
 2021 0050 0A       		.byte	10
 2022 0051 0A       		.byte	10
 2023 0052 0B       		.byte	11
 2024 0053 0B       		.byte	11
ARM GAS  C:\Users\JAMESS~1\AppData\Local\Temp\ccWH4kxb.s 			page 60


 2025 0054 0B       		.byte	11
 2026 0055 0C       		.byte	12
 2027 0056 0C       		.byte	12
 2028 0057 0D       		.byte	13
 2029 0058 0D       		.byte	13
 2030 0059 0D       		.byte	13
 2031 005a 0E       		.byte	14
 2032 005b 0E       		.byte	14
 2033 005c 0F       		.byte	15
 2034 005d 0F       		.byte	15
 2035 005e 10       		.byte	16
 2036 005f 10       		.byte	16
 2037 0060 11       		.byte	17
 2038 0061 11       		.byte	17
 2039 0062 12       		.byte	18
 2040 0063 12       		.byte	18
 2041 0064 13       		.byte	19
 2042 0065 13       		.byte	19
 2043 0066 14       		.byte	20
 2044 0067 14       		.byte	20
 2045 0068 15       		.byte	21
 2046 0069 15       		.byte	21
 2047 006a 16       		.byte	22
 2048 006b 16       		.byte	22
 2049 006c 17       		.byte	23
 2050 006d 18       		.byte	24
 2051 006e 18       		.byte	24
 2052 006f 19       		.byte	25
 2053 0070 19       		.byte	25
 2054 0071 1A       		.byte	26
 2055 0072 1B       		.byte	27
 2056 0073 1B       		.byte	27
 2057 0074 1C       		.byte	28
 2058 0075 1D       		.byte	29
 2059 0076 1D       		.byte	29
 2060 0077 1E       		.byte	30
 2061 0078 1F       		.byte	31
 2062 0079 20       		.byte	32
 2063 007a 20       		.byte	32
 2064 007b 21       		.byte	33
 2065 007c 22       		.byte	34
 2066 007d 23       		.byte	35
 2067 007e 23       		.byte	35
 2068 007f 24       		.byte	36
 2069 0080 25       		.byte	37
 2070 0081 26       		.byte	38
 2071 0082 27       		.byte	39
 2072 0083 27       		.byte	39
 2073 0084 28       		.byte	40
 2074 0085 29       		.byte	41
 2075 0086 2A       		.byte	42
 2076 0087 2B       		.byte	43
 2077 0088 2C       		.byte	44
 2078 0089 2D       		.byte	45
 2079 008a 2E       		.byte	46
 2080 008b 2F       		.byte	47
 2081 008c 30       		.byte	48
ARM GAS  C:\Users\JAMESS~1\AppData\Local\Temp\ccWH4kxb.s 			page 61


 2082 008d 31       		.byte	49
 2083 008e 32       		.byte	50
 2084 008f 32       		.byte	50
 2085 0090 33       		.byte	51
 2086 0091 34       		.byte	52
 2087 0092 36       		.byte	54
 2088 0093 37       		.byte	55
 2089 0094 38       		.byte	56
 2090 0095 39       		.byte	57
 2091 0096 3A       		.byte	58
 2092 0097 3B       		.byte	59
 2093 0098 3C       		.byte	60
 2094 0099 3D       		.byte	61
 2095 009a 3E       		.byte	62
 2096 009b 3F       		.byte	63
 2097 009c 40       		.byte	64
 2098 009d 42       		.byte	66
 2099 009e 43       		.byte	67
 2100 009f 44       		.byte	68
 2101 00a0 45       		.byte	69
 2102 00a1 46       		.byte	70
 2103 00a2 48       		.byte	72
 2104 00a3 49       		.byte	73
 2105 00a4 4A       		.byte	74
 2106 00a5 4B       		.byte	75
 2107 00a6 4D       		.byte	77
 2108 00a7 4E       		.byte	78
 2109 00a8 4F       		.byte	79
 2110 00a9 51       		.byte	81
 2111 00aa 52       		.byte	82
 2112 00ab 53       		.byte	83
 2113 00ac 55       		.byte	85
 2114 00ad 56       		.byte	86
 2115 00ae 57       		.byte	87
 2116 00af 59       		.byte	89
 2117 00b0 5A       		.byte	90
 2118 00b1 5C       		.byte	92
 2119 00b2 5D       		.byte	93
 2120 00b3 5F       		.byte	95
 2121 00b4 60       		.byte	96
 2122 00b5 62       		.byte	98
 2123 00b6 63       		.byte	99
 2124 00b7 65       		.byte	101
 2125 00b8 66       		.byte	102
 2126 00b9 68       		.byte	104
 2127 00ba 69       		.byte	105
 2128 00bb 6B       		.byte	107
 2129 00bc 6D       		.byte	109
 2130 00bd 6E       		.byte	110
 2131 00be 70       		.byte	112
 2132 00bf 72       		.byte	114
 2133 00c0 73       		.byte	115
 2134 00c1 75       		.byte	117
 2135 00c2 77       		.byte	119
 2136 00c3 78       		.byte	120
 2137 00c4 7A       		.byte	122
 2138 00c5 7C       		.byte	124
ARM GAS  C:\Users\JAMESS~1\AppData\Local\Temp\ccWH4kxb.s 			page 62


 2139 00c6 7E       		.byte	126
 2140 00c7 7F       		.byte	127
 2141 00c8 81       		.byte	-127
 2142 00c9 83       		.byte	-125
 2143 00ca 85       		.byte	-123
 2144 00cb 87       		.byte	-121
 2145 00cc 89       		.byte	-119
 2146 00cd 8A       		.byte	-118
 2147 00ce 8C       		.byte	-116
 2148 00cf 8E       		.byte	-114
 2149 00d0 90       		.byte	-112
 2150 00d1 92       		.byte	-110
 2151 00d2 94       		.byte	-108
 2152 00d3 96       		.byte	-106
 2153 00d4 98       		.byte	-104
 2154 00d5 9A       		.byte	-102
 2155 00d6 9C       		.byte	-100
 2156 00d7 9E       		.byte	-98
 2157 00d8 A0       		.byte	-96
 2158 00d9 A2       		.byte	-94
 2159 00da A4       		.byte	-92
 2160 00db A7       		.byte	-89
 2161 00dc A9       		.byte	-87
 2162 00dd AB       		.byte	-85
 2163 00de AD       		.byte	-83
 2164 00df AF       		.byte	-81
 2165 00e0 B1       		.byte	-79
 2166 00e1 B4       		.byte	-76
 2167 00e2 B6       		.byte	-74
 2168 00e3 B8       		.byte	-72
 2169 00e4 BA       		.byte	-70
 2170 00e5 BD       		.byte	-67
 2171 00e6 BF       		.byte	-65
 2172 00e7 C1       		.byte	-63
 2173 00e8 C4       		.byte	-60
 2174 00e9 C6       		.byte	-58
 2175 00ea C8       		.byte	-56
 2176 00eb CB       		.byte	-53
 2177 00ec CD       		.byte	-51
 2178 00ed D0       		.byte	-48
 2179 00ee D2       		.byte	-46
 2180 00ef D5       		.byte	-43
 2181 00f0 D7       		.byte	-41
 2182 00f1 DA       		.byte	-38
 2183 00f2 DC       		.byte	-36
 2184 00f3 DF       		.byte	-33
 2185 00f4 E1       		.byte	-31
 2186 00f5 E4       		.byte	-28
 2187 00f6 E7       		.byte	-25
 2188 00f7 E9       		.byte	-23
 2189 00f8 EC       		.byte	-20
 2190 00f9 EF       		.byte	-17
 2191 00fa F1       		.byte	-15
 2192 00fb F4       		.byte	-12
 2193 00fc F7       		.byte	-9
 2194 00fd F9       		.byte	-7
 2195 00fe FC       		.byte	-4
ARM GAS  C:\Users\JAMESS~1\AppData\Local\Temp\ccWH4kxb.s 			page 63


 2196 00ff FF       		.byte	-1
 2197              		.type	StripLights_CLUT, %object
 2198              		.size	StripLights_CLUT, 480
 2199              	StripLights_CLUT:
 2200 0100 FFFF0000 		.word	65535
 2201 0104 FFCC0000 		.word	52479
 2202 0108 FF990000 		.word	39423
 2203 010c FF330000 		.word	13311
 2204 0110 FF000000 		.word	255
 2205 0114 B3006600 		.word	6684851
 2206 0118 99009900 		.word	10027161
 2207 011c 6600B300 		.word	11731046
 2208 0120 3300CC00 		.word	13369395
 2209 0124 1919B300 		.word	11737369
 2210 0128 00339900 		.word	10040064
 2211 012c 00409900 		.word	10043392
 2212 0130 00669900 		.word	10053120
 2213 0134 00999900 		.word	10066176
 2214 0138 00CC9900 		.word	10079232
 2215 013c 00E66600 		.word	6743552
 2216 0140 00FF0000 		.word	65280
 2217 0144 33FF0000 		.word	65331
 2218 0148 66FF0000 		.word	65382
 2219 014c 80FF0000 		.word	65408
 2220 0150 99FF0000 		.word	65433
 2221 0154 B2FF0000 		.word	65458
 2222 0158 CCFF0000 		.word	65484
 2223 015c E5FF0000 		.word	65509
 2224 0160 00000000 		.word	0
 2225 0164 00005500 		.word	5570560
 2226 0168 0000AA00 		.word	11141120
 2227 016c 0000FF00 		.word	16711680
 2228 0170 55000000 		.word	85
 2229 0174 55005500 		.word	5570645
 2230 0178 5500AA00 		.word	11141205
 2231 017c 5500FF00 		.word	16711765
 2232 0180 AA000000 		.word	170
 2233 0184 AA005500 		.word	5570730
 2234 0188 AA00AA00 		.word	11141290
 2235 018c AA00FF00 		.word	16711850
 2236 0190 FF000000 		.word	255
 2237 0194 FF005500 		.word	5570815
 2238 0198 FF00AA00 		.word	11141375
 2239 019c FF00FF00 		.word	16711935
 2240 01a0 00550000 		.word	21760
 2241 01a4 00555500 		.word	5592320
 2242 01a8 0055AA00 		.word	11162880
 2243 01ac 0055FF00 		.word	16733440
 2244 01b0 55550000 		.word	21845
 2245 01b4 55555500 		.word	5592405
 2246 01b8 5555AA00 		.word	11162965
 2247 01bc 5555FF00 		.word	16733525
 2248 01c0 AA550000 		.word	21930
 2249 01c4 AA555500 		.word	5592490
 2250 01c8 AA55AA00 		.word	11163050
 2251 01cc AA55FF00 		.word	16733610
 2252 01d0 FF550000 		.word	22015
ARM GAS  C:\Users\JAMESS~1\AppData\Local\Temp\ccWH4kxb.s 			page 64


 2253 01d4 FF555500 		.word	5592575
 2254 01d8 FF55AA00 		.word	11163135
 2255 01dc FF55FF00 		.word	16733695
 2256 01e0 00AA0000 		.word	43520
 2257 01e4 00AA5500 		.word	5614080
 2258 01e8 00AAAA00 		.word	11184640
 2259 01ec 00AAFF00 		.word	16755200
 2260 01f0 55AA0000 		.word	43605
 2261 01f4 55AA5500 		.word	5614165
 2262 01f8 55AAAA00 		.word	11184725
 2263 01fc 55AAFF00 		.word	16755285
 2264 0200 AAAA0000 		.word	43690
 2265 0204 AAAA5500 		.word	5614250
 2266 0208 AAAAAA00 		.word	11184810
 2267 020c AAAAFF00 		.word	16755370
 2268 0210 FFAA0000 		.word	43775
 2269 0214 FFAA5500 		.word	5614335
 2270 0218 FFAAAA00 		.word	11184895
 2271 021c FFAAFF00 		.word	16755455
 2272 0220 00FF0000 		.word	65280
 2273 0224 00FF5500 		.word	5635840
 2274 0228 00FFAA00 		.word	11206400
 2275 022c 00FFFF00 		.word	16776960
 2276 0230 55FF0000 		.word	65365
 2277 0234 55FF5500 		.word	5635925
 2278 0238 55FFAA00 		.word	11206485
 2279 023c 55FFFF00 		.word	16777045
 2280 0240 AAFF0000 		.word	65450
 2281 0244 AAFF5500 		.word	5636010
 2282 0248 AAFFAA00 		.word	11206570
 2283 024c AAFFFF00 		.word	16777130
 2284 0250 FFFF0000 		.word	65535
 2285 0254 FFFF5500 		.word	5636095
 2286 0258 FFFFAA00 		.word	11206655
 2287 025c FFFFFF00 		.word	16777215
 2288 0260 FF800000 		.word	33023
 2289 0264 FF008000 		.word	8388863
 2290 0268 FF00FF00 		.word	16711935
 2291 026c 8000FF00 		.word	16711808
 2292 0270 0080FF00 		.word	16744448
 2293 0274 00FF8000 		.word	8453888
 2294 0278 FF000000 		.word	255
 2295 027c 20202000 		.word	2105376
 2296 0280 00002000 		.word	2097152
 2297 0284 00000010 		.word	268435456
 2298 0288 00FF0000 		.word	65280
 2299 028c 30FF0000 		.word	65328
 2300 0290 FFFFFFFF 		.word	-1
 2301 0294 000000FF 		.word	-16777216
 2302 0298 808080FF 		.word	-8355712
 2303 029c 404040FF 		.word	-12566464
 2304 02a0 0000FF00 		.word	16711680
 2305 02a4 0010F000 		.word	15732736
 2306 02a8 0020E000 		.word	14688256
 2307 02ac 0030D000 		.word	13643776
 2308 02b0 0040C000 		.word	12599296
 2309 02b4 0050B000 		.word	11554816
ARM GAS  C:\Users\JAMESS~1\AppData\Local\Temp\ccWH4kxb.s 			page 65


 2310 02b8 0060A000 		.word	10510336
 2311 02bc 00709000 		.word	9465856
 2312 02c0 00808000 		.word	8421376
 2313 02c4 00907000 		.word	7376896
 2314 02c8 00A06000 		.word	6332416
 2315 02cc 00B05000 		.word	5287936
 2316 02d0 00C04000 		.word	4243456
 2317 02d4 00D03000 		.word	3198976
 2318 02d8 00E02000 		.word	2154496
 2319 02dc 00FF0000 		.word	65280
 2320              		.bss
 2321              		.align	2
 2322              		.set	.LANCHOR0,. + 0
 2323              		.type	StripLights_row, %object
 2324              		.size	StripLights_row, 4
 2325              	StripLights_row:
 2326 0000 00000000 		.space	4
 2327              		.type	StripLights_ledIndex, %object
 2328              		.size	StripLights_ledIndex, 4
 2329              	StripLights_ledIndex:
 2330 0004 00000000 		.space	4
 2331              		.type	color.5750, %object
 2332              		.size	color.5750, 4
 2333              	color.5750:
 2334 0008 00000000 		.space	4
 2335              		.type	color.5758, %object
 2336              		.size	color.5758, 4
 2337              	color.5758:
 2338 000c 00000000 		.space	4
 2339              		.type	StripLights_EnterCritical, %object
 2340              		.size	StripLights_EnterCritical, 4
 2341              	StripLights_EnterCritical:
 2342 0010 00000000 		.space	4
 2343              		.type	StripLights_ExitCritical, %object
 2344              		.size	StripLights_ExitCritical, 4
 2345              	StripLights_ExitCritical:
 2346 0014 00000000 		.space	4
 2347              		.type	colorIndex.5743, %object
 2348              		.size	colorIndex.5743, 4
 2349              	colorIndex.5743:
 2350 0018 00000000 		.space	4
 2351              		.type	StripLights_initvar, %object
 2352              		.size	StripLights_initvar, 1
 2353              	StripLights_initvar:
 2354 001c 00       		.space	1
 2355              		.text
 2356              	.Letext0:
 2357              		.file 2 "Generated_Source\\PSoC4/cytypes.h"
 2358              		.file 3 "Generated_Source\\PSoC4/StripLights.h"
 2359              		.file 4 "Generated_Source\\PSoC4/CyLib.h"
 2360              		.file 5 "Generated_Source\\PSoC4\\StripLights_fonts.h"
 2361              		.file 6 "Generated_Source\\PSoC4/StripLights_cisr.h"
 2362              		.file 7 "Generated_Source\\PSoC4/StripLights_fisr.h"
 2363              		.section	.debug_info,"",%progbits
 2364              	.Ldebug_info0:
 2365 0000 820D0000 		.4byte	0xd82
 2366 0004 0400     		.2byte	0x4
ARM GAS  C:\Users\JAMESS~1\AppData\Local\Temp\ccWH4kxb.s 			page 66


 2367 0006 00000000 		.4byte	.Ldebug_abbrev0
 2368 000a 04       		.byte	0x4
 2369 000b 01       		.uleb128 0x1
 2370 000c 12010000 		.4byte	.LASF81
 2371 0010 0C       		.byte	0xc
 2372 0011 88000000 		.4byte	.LASF82
 2373 0015 8F020000 		.4byte	.LASF83
 2374 0019 00000000 		.4byte	.Ldebug_ranges0+0
 2375 001d 00000000 		.4byte	0
 2376 0021 00000000 		.4byte	.Ldebug_line0
 2377 0025 02       		.uleb128 0x2
 2378 0026 01       		.byte	0x1
 2379 0027 06       		.byte	0x6
 2380 0028 28020000 		.4byte	.LASF0
 2381 002c 02       		.uleb128 0x2
 2382 002d 01       		.byte	0x1
 2383 002e 08       		.byte	0x8
 2384 002f ED020000 		.4byte	.LASF1
 2385 0033 02       		.uleb128 0x2
 2386 0034 02       		.byte	0x2
 2387 0035 05       		.byte	0x5
 2388 0036 4F000000 		.4byte	.LASF2
 2389 003a 02       		.uleb128 0x2
 2390 003b 02       		.byte	0x2
 2391 003c 07       		.byte	0x7
 2392 003d 18040000 		.4byte	.LASF3
 2393 0041 02       		.uleb128 0x2
 2394 0042 04       		.byte	0x4
 2395 0043 05       		.byte	0x5
 2396 0044 6D020000 		.4byte	.LASF4
 2397 0048 02       		.uleb128 0x2
 2398 0049 04       		.byte	0x4
 2399 004a 07       		.byte	0x7
 2400 004b 80030000 		.4byte	.LASF5
 2401 004f 02       		.uleb128 0x2
 2402 0050 08       		.byte	0x8
 2403 0051 05       		.byte	0x5
 2404 0052 52020000 		.4byte	.LASF6
 2405 0056 02       		.uleb128 0x2
 2406 0057 08       		.byte	0x8
 2407 0058 07       		.byte	0x7
 2408 0059 37030000 		.4byte	.LASF7
 2409 005d 03       		.uleb128 0x3
 2410 005e 04       		.byte	0x4
 2411 005f 05       		.byte	0x5
 2412 0060 696E7400 		.ascii	"int\000"
 2413 0064 02       		.uleb128 0x2
 2414 0065 04       		.byte	0x4
 2415 0066 07       		.byte	0x7
 2416 0067 73030000 		.4byte	.LASF8
 2417 006b 04       		.uleb128 0x4
 2418 006c D3010000 		.4byte	.LASF9
 2419 0070 02       		.byte	0x2
 2420 0071 D201     		.2byte	0x1d2
 2421 0073 2C000000 		.4byte	0x2c
 2422 0077 04       		.uleb128 0x4
 2423 0078 83040000 		.4byte	.LASF10
ARM GAS  C:\Users\JAMESS~1\AppData\Local\Temp\ccWH4kxb.s 			page 67


 2424 007c 02       		.byte	0x2
 2425 007d D401     		.2byte	0x1d4
 2426 007f 48000000 		.4byte	0x48
 2427 0083 04       		.uleb128 0x4
 2428 0084 B4040000 		.4byte	.LASF11
 2429 0088 02       		.byte	0x2
 2430 0089 D701     		.2byte	0x1d7
 2431 008b 41000000 		.4byte	0x41
 2432 008f 02       		.uleb128 0x2
 2433 0090 04       		.byte	0x4
 2434 0091 04       		.byte	0x4
 2435 0092 34020000 		.4byte	.LASF12
 2436 0096 02       		.uleb128 0x2
 2437 0097 08       		.byte	0x8
 2438 0098 04       		.byte	0x4
 2439 0099 63050000 		.4byte	.LASF13
 2440 009d 02       		.uleb128 0x2
 2441 009e 01       		.byte	0x1
 2442 009f 08       		.byte	0x8
 2443 00a0 20000000 		.4byte	.LASF14
 2444 00a4 04       		.uleb128 0x4
 2445 00a5 90040000 		.4byte	.LASF15
 2446 00a9 02       		.byte	0x2
 2447 00aa 7C02     		.2byte	0x27c
 2448 00ac B0000000 		.4byte	0xb0
 2449 00b0 05       		.uleb128 0x5
 2450 00b1 6B000000 		.4byte	0x6b
 2451 00b5 06       		.uleb128 0x6
 2452 00b6 04       		.byte	0x4
 2453 00b7 BB000000 		.4byte	0xbb
 2454 00bb 07       		.uleb128 0x7
 2455 00bc 08       		.uleb128 0x8
 2456 00bd 93050000 		.4byte	.LASF16
 2457 00c1 03       		.byte	0x3
 2458 00c2 12       		.byte	0x12
 2459 00c3 B5000000 		.4byte	0xb5
 2460 00c7 02       		.uleb128 0x2
 2461 00c8 04       		.byte	0x4
 2462 00c9 07       		.byte	0x7
 2463 00ca 4B050000 		.4byte	.LASF17
 2464 00ce 02       		.uleb128 0x2
 2465 00cf 08       		.byte	0x8
 2466 00d0 04       		.byte	0x4
 2467 00d1 D7020000 		.4byte	.LASF18
 2468 00d5 09       		.uleb128 0x9
 2469 00d6 EF040000 		.4byte	.LASF21
 2470 00da 01       		.byte	0x1
 2471 00db 4802     		.2byte	0x248
 2472 00dd 00000000 		.4byte	.LFB41
 2473 00e1 70000000 		.4byte	.LFE41-.LFB41
 2474 00e5 01       		.uleb128 0x1
 2475 00e6 9C       		.byte	0x9c
 2476 00e7 16010000 		.4byte	0x116
 2477 00eb 0A       		.uleb128 0xa
 2478 00ec A0010000 		.4byte	.LASF19
 2479 00f0 01       		.byte	0x1
 2480 00f1 4A02     		.2byte	0x24a
ARM GAS  C:\Users\JAMESS~1\AppData\Local\Temp\ccWH4kxb.s 			page 68


 2481 00f3 77000000 		.4byte	0x77
 2482 00f7 0A       		.uleb128 0xa
 2483 00f8 3A000000 		.4byte	.LASF20
 2484 00fc 01       		.byte	0x1
 2485 00fd 4B02     		.2byte	0x24b
 2486 00ff 77000000 		.4byte	0x77
 2487 0103 0B       		.uleb128 0xb
 2488 0104 59000000 		.4byte	.LASF23
 2489 0108 01       		.byte	0x1
 2490 0109 4C02     		.2byte	0x24c
 2491 010b 77000000 		.4byte	0x77
 2492 010f 05       		.uleb128 0x5
 2493 0110 03       		.byte	0x3
 2494 0111 08000000 		.4byte	color.5750
 2495 0115 00       		.byte	0
 2496 0116 09       		.uleb128 0x9
 2497 0117 CD040000 		.4byte	.LASF22
 2498 011b 01       		.byte	0x1
 2499 011c 8602     		.2byte	0x286
 2500 011e 00000000 		.4byte	.LFB42
 2501 0122 8C000000 		.4byte	.LFE42-.LFB42
 2502 0126 01       		.uleb128 0x1
 2503 0127 9C       		.byte	0x9c
 2504 0128 63010000 		.4byte	0x163
 2505 012c 0A       		.uleb128 0xa
 2506 012d A0010000 		.4byte	.LASF19
 2507 0131 01       		.byte	0x1
 2508 0132 8802     		.2byte	0x288
 2509 0134 77000000 		.4byte	0x77
 2510 0138 0A       		.uleb128 0xa
 2511 0139 3A000000 		.4byte	.LASF20
 2512 013d 01       		.byte	0x1
 2513 013e 8902     		.2byte	0x289
 2514 0140 77000000 		.4byte	0x77
 2515 0144 0B       		.uleb128 0xb
 2516 0145 59000000 		.4byte	.LASF23
 2517 0149 01       		.byte	0x1
 2518 014a 8A02     		.2byte	0x28a
 2519 014c 77000000 		.4byte	0x77
 2520 0150 05       		.uleb128 0x5
 2521 0151 03       		.byte	0x3
 2522 0152 0C000000 		.4byte	color.5758
 2523 0156 0A       		.uleb128 0xa
 2524 0157 9B030000 		.4byte	.LASF24
 2525 015b 01       		.byte	0x1
 2526 015c 8B02     		.2byte	0x28b
 2527 015e 77000000 		.4byte	0x77
 2528 0162 00       		.byte	0
 2529 0163 09       		.uleb128 0x9
 2530 0164 4D040000 		.4byte	.LASF25
 2531 0168 01       		.byte	0x1
 2532 0169 4C01     		.2byte	0x14c
 2533 016b 00000000 		.4byte	.LFB33
 2534 016f 0C000000 		.4byte	.LFE33-.LFB33
 2535 0173 01       		.uleb128 0x1
 2536 0174 9C       		.byte	0x9c
 2537 0175 96010000 		.4byte	0x196
ARM GAS  C:\Users\JAMESS~1\AppData\Local\Temp\ccWH4kxb.s 			page 69


 2538 0179 0C       		.uleb128 0xc
 2539 017a 54050000 		.4byte	.LASF26
 2540 017e 01       		.byte	0x1
 2541 017f 4C01     		.2byte	0x14c
 2542 0181 BC000000 		.4byte	0xbc
 2543 0185 01       		.uleb128 0x1
 2544 0186 50       		.byte	0x50
 2545 0187 0C       		.uleb128 0xc
 2546 0188 11000000 		.4byte	.LASF27
 2547 018c 01       		.byte	0x1
 2548 018d 4C01     		.2byte	0x14c
 2549 018f BC000000 		.4byte	0xbc
 2550 0193 01       		.uleb128 0x1
 2551 0194 51       		.byte	0x51
 2552 0195 00       		.byte	0
 2553 0196 09       		.uleb128 0x9
 2554 0197 0A020000 		.4byte	.LASF28
 2555 019b 01       		.byte	0x1
 2556 019c B601     		.2byte	0x1b6
 2557 019e 00000000 		.4byte	.LFB36
 2558 01a2 7C000000 		.4byte	.LFE36-.LFB36
 2559 01a6 01       		.uleb128 0x1
 2560 01a7 9C       		.byte	0x9c
 2561 01a8 CD010000 		.4byte	0x1cd
 2562 01ac 0D       		.uleb128 0xd
 2563 01ad 72737400 		.ascii	"rst\000"
 2564 01b1 01       		.byte	0x1
 2565 01b2 B601     		.2byte	0x1b6
 2566 01b4 77000000 		.4byte	0x77
 2567 01b8 00000000 		.4byte	.LLST0
 2568 01bc 0E       		.uleb128 0xe
 2569 01bd 59000000 		.4byte	.LASF23
 2570 01c1 01       		.byte	0x1
 2571 01c2 B801     		.2byte	0x1b8
 2572 01c4 77000000 		.4byte	0x77
 2573 01c8 21000000 		.4byte	.LLST1
 2574 01cc 00       		.byte	0
 2575 01cd 0F       		.uleb128 0xf
 2576 01ce F1030000 		.4byte	.LASF84
 2577 01d2 01       		.byte	0x1
 2578 01d3 F101     		.2byte	0x1f1
 2579 01d5 77000000 		.4byte	0x77
 2580 01d9 00000000 		.4byte	.LFB37
 2581 01dd 1C000000 		.4byte	.LFE37-.LFB37
 2582 01e1 01       		.uleb128 0x1
 2583 01e2 9C       		.byte	0x9c
 2584 01e3 10       		.uleb128 0x10
 2585 01e4 D9010000 		.4byte	.LASF29
 2586 01e8 01       		.byte	0x1
 2587 01e9 5F01     		.2byte	0x15f
 2588 01eb 00000000 		.4byte	.LFB34
 2589 01ef 54000000 		.4byte	.LFE34-.LFB34
 2590 01f3 01       		.uleb128 0x1
 2591 01f4 9C       		.byte	0x9c
 2592 01f5 5A020000 		.4byte	0x25a
 2593 01f9 11       		.uleb128 0x11
 2594 01fa DB000000 		.4byte	.LASF30
ARM GAS  C:\Users\JAMESS~1\AppData\Local\Temp\ccWH4kxb.s 			page 70


 2595 01fe 01       		.byte	0x1
 2596 01ff 5F01     		.2byte	0x15f
 2597 0201 77000000 		.4byte	0x77
 2598 0205 7D000000 		.4byte	.LLST2
 2599 0209 0E       		.uleb128 0xe
 2600 020a CB010000 		.4byte	.LASF31
 2601 020e 01       		.byte	0x1
 2602 020f 6201     		.2byte	0x162
 2603 0211 77000000 		.4byte	0x77
 2604 0215 A9000000 		.4byte	.LLST3
 2605 0219 12       		.uleb128 0x12
 2606 021a 14000000 		.4byte	.LVL13
 2607 021e 96010000 		.4byte	0x196
 2608 0222 2C020000 		.4byte	0x22c
 2609 0226 13       		.uleb128 0x13
 2610 0227 01       		.uleb128 0x1
 2611 0228 50       		.byte	0x50
 2612 0229 01       		.uleb128 0x1
 2613 022a 31       		.byte	0x31
 2614 022b 00       		.byte	0
 2615 022c 12       		.uleb128 0x12
 2616 022d 26000000 		.4byte	.LVL15
 2617 0231 430D0000 		.4byte	0xd43
 2618 0235 40020000 		.4byte	0x240
 2619 0239 13       		.uleb128 0x13
 2620 023a 01       		.uleb128 0x1
 2621 023b 50       		.byte	0x50
 2622 023c 02       		.uleb128 0x2
 2623 023d 08       		.byte	0x8
 2624 023e 64       		.byte	0x64
 2625 023f 00       		.byte	0
 2626 0240 14       		.uleb128 0x14
 2627 0241 2C000000 		.4byte	.LVL17
 2628 0245 CD010000 		.4byte	0x1cd
 2629 0249 15       		.uleb128 0x15
 2630 024a 3A000000 		.4byte	.LVL19
 2631 024e 430D0000 		.4byte	0xd43
 2632 0252 13       		.uleb128 0x13
 2633 0253 01       		.uleb128 0x1
 2634 0254 50       		.byte	0x50
 2635 0255 02       		.uleb128 0x2
 2636 0256 08       		.byte	0x8
 2637 0257 64       		.byte	0x64
 2638 0258 00       		.byte	0
 2639 0259 00       		.byte	0
 2640 025a 10       		.uleb128 0x10
 2641 025b 3A020000 		.4byte	.LASF32
 2642 025f 01       		.byte	0x1
 2643 0260 9001     		.2byte	0x190
 2644 0262 00000000 		.4byte	.LFB35
 2645 0266 2C000000 		.4byte	.LFE35-.LFB35
 2646 026a 01       		.uleb128 0x1
 2647 026b 9C       		.byte	0x9c
 2648 026c 9E020000 		.4byte	0x29e
 2649 0270 0D       		.uleb128 0xd
 2650 0271 72737400 		.ascii	"rst\000"
 2651 0275 01       		.byte	0x1
ARM GAS  C:\Users\JAMESS~1\AppData\Local\Temp\ccWH4kxb.s 			page 71


 2652 0276 9001     		.2byte	0x190
 2653 0278 77000000 		.4byte	0x77
 2654 027c C8000000 		.4byte	.LLST4
 2655 0280 12       		.uleb128 0x12
 2656 0281 14000000 		.4byte	.LVL25
 2657 0285 96010000 		.4byte	0x196
 2658 0289 94020000 		.4byte	0x294
 2659 028d 13       		.uleb128 0x13
 2660 028e 01       		.uleb128 0x1
 2661 028f 50       		.byte	0x50
 2662 0290 02       		.uleb128 0x2
 2663 0291 74       		.byte	0x74
 2664 0292 00       		.sleb128 0
 2665 0293 00       		.byte	0
 2666 0294 14       		.uleb128 0x14
 2667 0295 18000000 		.4byte	.LVL26
 2668 0299 CD010000 		.4byte	0x1cd
 2669 029d 00       		.byte	0
 2670 029e 16       		.uleb128 0x16
 2671 029f DE040000 		.4byte	.LASF85
 2672 02a3 01       		.byte	0x1
 2673 02a4 0C02     		.2byte	0x20c
 2674 02a6 00000000 		.4byte	.LFB38
 2675 02aa 0C000000 		.4byte	.LFE38-.LFB38
 2676 02ae 01       		.uleb128 0x1
 2677 02af 9C       		.byte	0x9c
 2678 02b0 17       		.uleb128 0x17
 2679 02b1 03040000 		.4byte	.LASF33
 2680 02b5 01       		.byte	0x1
 2681 02b6 1102     		.2byte	0x211
 2682 02b8 77000000 		.4byte	0x77
 2683 02bc 00000000 		.4byte	.LFB39
 2684 02c0 0C000000 		.4byte	.LFE39-.LFB39
 2685 02c4 01       		.uleb128 0x1
 2686 02c5 9C       		.byte	0x9c
 2687 02c6 DB020000 		.4byte	0x2db
 2688 02ca 11       		.uleb128 0x11
 2689 02cb 59000000 		.4byte	.LASF23
 2690 02cf 01       		.byte	0x1
 2691 02d0 1102     		.2byte	0x211
 2692 02d2 77000000 		.4byte	0x77
 2693 02d6 F4000000 		.4byte	.LLST5
 2694 02da 00       		.byte	0
 2695 02db 18       		.uleb128 0x18
 2696 02dc FB020000 		.4byte	.LASF34
 2697 02e0 01       		.byte	0x1
 2698 02e1 2702     		.2byte	0x227
 2699 02e3 77000000 		.4byte	0x77
 2700 02e7 00000000 		.4byte	.LFB40
 2701 02eb 24000000 		.4byte	.LFE40-.LFB40
 2702 02ef 01       		.uleb128 0x1
 2703 02f0 9C       		.byte	0x9c
 2704 02f1 32030000 		.4byte	0x332
 2705 02f5 11       		.uleb128 0x11
 2706 02f6 44040000 		.4byte	.LASF35
 2707 02fa 01       		.byte	0x1
 2708 02fb 2702     		.2byte	0x227
ARM GAS  C:\Users\JAMESS~1\AppData\Local\Temp\ccWH4kxb.s 			page 72


 2709 02fd 77000000 		.4byte	0x77
 2710 0301 20010000 		.4byte	.LLST6
 2711 0305 0B       		.uleb128 0xb
 2712 0306 59000000 		.4byte	.LASF23
 2713 030a 01       		.byte	0x1
 2714 030b 2902     		.2byte	0x229
 2715 030d 77000000 		.4byte	0x77
 2716 0311 01       		.uleb128 0x1
 2717 0312 50       		.byte	0x50
 2718 0313 0A       		.uleb128 0xa
 2719 0314 00000000 		.4byte	.LASF36
 2720 0318 01       		.byte	0x1
 2721 0319 2A02     		.2byte	0x22a
 2722 031b 47030000 		.4byte	0x347
 2723 031f 0B       		.uleb128 0xb
 2724 0320 27030000 		.4byte	.LASF37
 2725 0324 01       		.byte	0x1
 2726 0325 2B02     		.2byte	0x22b
 2727 0327 77000000 		.4byte	0x77
 2728 032b 05       		.uleb128 0x5
 2729 032c 03       		.byte	0x3
 2730 032d 18000000 		.4byte	colorIndex.5743
 2731 0331 00       		.byte	0
 2732 0332 19       		.uleb128 0x19
 2733 0333 42030000 		.4byte	0x342
 2734 0337 42030000 		.4byte	0x342
 2735 033b 1A       		.uleb128 0x1a
 2736 033c C7000000 		.4byte	0xc7
 2737 0340 77       		.byte	0x77
 2738 0341 00       		.byte	0
 2739 0342 1B       		.uleb128 0x1b
 2740 0343 77000000 		.4byte	0x77
 2741 0347 1B       		.uleb128 0x1b
 2742 0348 32030000 		.4byte	0x332
 2743 034c 09       		.uleb128 0x9
 2744 034d 1D050000 		.4byte	.LASF38
 2745 0351 01       		.byte	0x1
 2746 0352 DB02     		.2byte	0x2db
 2747 0354 00000000 		.4byte	.LFB44
 2748 0358 2C000000 		.4byte	.LFE44-.LFB44
 2749 035c 01       		.uleb128 0x1
 2750 035d 9C       		.byte	0x9c
 2751 035e 91030000 		.4byte	0x391
 2752 0362 0C       		.uleb128 0xc
 2753 0363 59000000 		.4byte	.LASF23
 2754 0367 01       		.byte	0x1
 2755 0368 DB02     		.2byte	0x2db
 2756 036a 77000000 		.4byte	0x77
 2757 036e 01       		.uleb128 0x1
 2758 036f 50       		.byte	0x50
 2759 0370 1C       		.uleb128 0x1c
 2760 0371 726F7700 		.ascii	"row\000"
 2761 0375 01       		.byte	0x1
 2762 0376 DD02     		.2byte	0x2dd
 2763 0378 77000000 		.4byte	0x77
 2764 037c 41010000 		.4byte	.LLST7
 2765 0380 1C       		.uleb128 0x1c
ARM GAS  C:\Users\JAMESS~1\AppData\Local\Temp\ccWH4kxb.s 			page 73


 2766 0381 636F6C00 		.ascii	"col\000"
 2767 0385 01       		.byte	0x1
 2768 0386 DD02     		.2byte	0x2dd
 2769 0388 77000000 		.4byte	0x77
 2770 038c 60010000 		.4byte	.LLST8
 2771 0390 00       		.byte	0
 2772 0391 09       		.uleb128 0x9
 2773 0392 2B040000 		.4byte	.LASF39
 2774 0396 01       		.byte	0x1
 2775 0397 C802     		.2byte	0x2c8
 2776 0399 00000000 		.4byte	.LFB43
 2777 039d 0E000000 		.4byte	.LFE43-.LFB43
 2778 03a1 01       		.uleb128 0x1
 2779 03a2 9C       		.byte	0x9c
 2780 03a3 DC030000 		.4byte	0x3dc
 2781 03a7 11       		.uleb128 0x11
 2782 03a8 59000000 		.4byte	.LASF23
 2783 03ac 01       		.byte	0x1
 2784 03ad C802     		.2byte	0x2c8
 2785 03af 77000000 		.4byte	0x77
 2786 03b3 7E010000 		.4byte	.LLST9
 2787 03b7 12       		.uleb128 0x12
 2788 03b8 06000000 		.4byte	.LVL45
 2789 03bc 4C030000 		.4byte	0x34c
 2790 03c0 CC030000 		.4byte	0x3cc
 2791 03c4 13       		.uleb128 0x13
 2792 03c5 01       		.uleb128 0x1
 2793 03c6 50       		.byte	0x50
 2794 03c7 03       		.uleb128 0x3
 2795 03c8 F3       		.byte	0xf3
 2796 03c9 01       		.uleb128 0x1
 2797 03ca 50       		.byte	0x50
 2798 03cb 00       		.byte	0
 2799 03cc 15       		.uleb128 0x15
 2800 03cd 0C000000 		.4byte	.LVL46
 2801 03d1 96010000 		.4byte	0x196
 2802 03d5 13       		.uleb128 0x13
 2803 03d6 01       		.uleb128 0x1
 2804 03d7 50       		.byte	0x50
 2805 03d8 01       		.uleb128 0x1
 2806 03d9 31       		.byte	0x31
 2807 03da 00       		.byte	0
 2808 03db 00       		.byte	0
 2809 03dc 09       		.uleb128 0x9
 2810 03dd B4010000 		.4byte	.LASF40
 2811 03e1 01       		.byte	0x1
 2812 03e2 FB02     		.2byte	0x2fb
 2813 03e4 00000000 		.4byte	.LFB45
 2814 03e8 24000000 		.4byte	.LFE45-.LFB45
 2815 03ec 01       		.uleb128 0x1
 2816 03ed 9C       		.byte	0x9c
 2817 03ee 03040000 		.4byte	0x403
 2818 03f2 11       		.uleb128 0x11
 2819 03f3 59000000 		.4byte	.LASF23
 2820 03f7 01       		.byte	0x1
 2821 03f8 FB02     		.2byte	0x2fb
 2822 03fa 77000000 		.4byte	0x77
ARM GAS  C:\Users\JAMESS~1\AppData\Local\Temp\ccWH4kxb.s 			page 74


 2823 03fe 9F010000 		.4byte	.LLST10
 2824 0402 00       		.byte	0
 2825 0403 09       		.uleb128 0x9
 2826 0404 39050000 		.4byte	.LASF41
 2827 0408 01       		.byte	0x1
 2828 0409 1A03     		.2byte	0x31a
 2829 040b 00000000 		.4byte	.LFB46
 2830 040f 24000000 		.4byte	.LFE46-.LFB46
 2831 0413 01       		.uleb128 0x1
 2832 0414 9C       		.byte	0x9c
 2833 0415 44040000 		.4byte	0x444
 2834 0419 0D       		.uleb128 0xd
 2835 041a 7800     		.ascii	"x\000"
 2836 041c 01       		.byte	0x1
 2837 041d 1A03     		.2byte	0x31a
 2838 041f 83000000 		.4byte	0x83
 2839 0423 E7010000 		.4byte	.LLST11
 2840 0427 0D       		.uleb128 0xd
 2841 0428 7900     		.ascii	"y\000"
 2842 042a 01       		.byte	0x1
 2843 042b 1A03     		.2byte	0x31a
 2844 042d 83000000 		.4byte	0x83
 2845 0431 16020000 		.4byte	.LLST12
 2846 0435 0C       		.uleb128 0xc
 2847 0436 59000000 		.4byte	.LASF23
 2848 043a 01       		.byte	0x1
 2849 043b 1A03     		.2byte	0x31a
 2850 043d 77000000 		.4byte	0x77
 2851 0441 01       		.uleb128 0x1
 2852 0442 52       		.byte	0x52
 2853 0443 00       		.byte	0
 2854 0444 17       		.uleb128 0x17
 2855 0445 25000000 		.4byte	.LASF42
 2856 0449 01       		.byte	0x1
 2857 044a 6103     		.2byte	0x361
 2858 044c 77000000 		.4byte	0x77
 2859 0450 00000000 		.4byte	.LFB47
 2860 0454 34000000 		.4byte	.LFE47-.LFB47
 2861 0458 01       		.uleb128 0x1
 2862 0459 9C       		.byte	0x9c
 2863 045a 8B040000 		.4byte	0x48b
 2864 045e 0D       		.uleb128 0xd
 2865 045f 7800     		.ascii	"x\000"
 2866 0461 01       		.byte	0x1
 2867 0462 6103     		.2byte	0x361
 2868 0464 83000000 		.4byte	0x83
 2869 0468 43020000 		.4byte	.LLST13
 2870 046c 0D       		.uleb128 0xd
 2871 046d 7900     		.ascii	"y\000"
 2872 046f 01       		.byte	0x1
 2873 0470 6103     		.2byte	0x361
 2874 0472 83000000 		.4byte	0x83
 2875 0476 C8020000 		.4byte	.LLST14
 2876 047a 0E       		.uleb128 0xe
 2877 047b 59000000 		.4byte	.LASF23
 2878 047f 01       		.byte	0x1
 2879 0480 6303     		.2byte	0x363
ARM GAS  C:\Users\JAMESS~1\AppData\Local\Temp\ccWH4kxb.s 			page 75


 2880 0482 77000000 		.4byte	0x77
 2881 0486 00030000 		.4byte	.LLST15
 2882 048a 00       		.byte	0
 2883 048b 09       		.uleb128 0x9
 2884 048c 10030000 		.4byte	.LASF43
 2885 0490 01       		.byte	0x1
 2886 0491 9503     		.2byte	0x395
 2887 0493 00000000 		.4byte	.LFB48
 2888 0497 FC000000 		.4byte	.LFE48-.LFB48
 2889 049b 01       		.uleb128 0x1
 2890 049c 9C       		.byte	0x9c
 2891 049d C0060000 		.4byte	0x6c0
 2892 04a1 0D       		.uleb128 0xd
 2893 04a2 783000   		.ascii	"x0\000"
 2894 04a5 01       		.byte	0x1
 2895 04a6 9503     		.2byte	0x395
 2896 04a8 83000000 		.4byte	0x83
 2897 04ac 36030000 		.4byte	.LLST16
 2898 04b0 0D       		.uleb128 0xd
 2899 04b1 793000   		.ascii	"y0\000"
 2900 04b4 01       		.byte	0x1
 2901 04b5 9503     		.2byte	0x395
 2902 04b7 83000000 		.4byte	0x83
 2903 04bb 62030000 		.4byte	.LLST17
 2904 04bf 11       		.uleb128 0x11
 2905 04c0 7C050000 		.4byte	.LASF44
 2906 04c4 01       		.byte	0x1
 2907 04c5 9503     		.2byte	0x395
 2908 04c7 83000000 		.4byte	0x83
 2909 04cb 8E030000 		.4byte	.LLST18
 2910 04cf 11       		.uleb128 0x11
 2911 04d0 59000000 		.4byte	.LASF23
 2912 04d4 01       		.byte	0x1
 2913 04d5 9503     		.2byte	0x395
 2914 04d7 77000000 		.4byte	0x77
 2915 04db BA030000 		.4byte	.LLST19
 2916 04df 1C       		.uleb128 0x1c
 2917 04e0 6600     		.ascii	"f\000"
 2918 04e2 01       		.byte	0x1
 2919 04e3 9703     		.2byte	0x397
 2920 04e5 83000000 		.4byte	0x83
 2921 04e9 E4030000 		.4byte	.LLST20
 2922 04ed 0E       		.uleb128 0xe
 2923 04ee AE040000 		.4byte	.LASF45
 2924 04f2 01       		.byte	0x1
 2925 04f3 9803     		.2byte	0x398
 2926 04f5 83000000 		.4byte	0x83
 2927 04f9 18040000 		.4byte	.LLST21
 2928 04fd 0E       		.uleb128 0xe
 2929 04fe 60020000 		.4byte	.LASF46
 2930 0502 01       		.byte	0x1
 2931 0503 9903     		.2byte	0x399
 2932 0505 83000000 		.4byte	0x83
 2933 0509 59040000 		.4byte	.LLST22
 2934 050d 1C       		.uleb128 0x1c
 2935 050e 7800     		.ascii	"x\000"
 2936 0510 01       		.byte	0x1
ARM GAS  C:\Users\JAMESS~1\AppData\Local\Temp\ccWH4kxb.s 			page 76


 2937 0511 9A03     		.2byte	0x39a
 2938 0513 83000000 		.4byte	0x83
 2939 0517 77040000 		.4byte	.LLST23
 2940 051b 1C       		.uleb128 0x1c
 2941 051c 7900     		.ascii	"y\000"
 2942 051e 01       		.byte	0x1
 2943 051f 9B03     		.2byte	0x39b
 2944 0521 83000000 		.4byte	0x83
 2945 0525 96040000 		.4byte	.LLST24
 2946 0529 12       		.uleb128 0x12
 2947 052a 2E000000 		.4byte	.LVL78
 2948 052e 03040000 		.4byte	0x403
 2949 0532 4C050000 		.4byte	0x54c
 2950 0536 13       		.uleb128 0x13
 2951 0537 01       		.uleb128 0x1
 2952 0538 50       		.byte	0x50
 2953 0539 02       		.uleb128 0x2
 2954 053a 7B       		.byte	0x7b
 2955 053b 00       		.sleb128 0
 2956 053c 13       		.uleb128 0x13
 2957 053d 01       		.uleb128 0x1
 2958 053e 51       		.byte	0x51
 2959 053f 05       		.uleb128 0x5
 2960 0540 74       		.byte	0x74
 2961 0541 00       		.sleb128 0
 2962 0542 78       		.byte	0x78
 2963 0543 00       		.sleb128 0
 2964 0544 22       		.byte	0x22
 2965 0545 13       		.uleb128 0x13
 2966 0546 01       		.uleb128 0x1
 2967 0547 52       		.byte	0x52
 2968 0548 02       		.uleb128 0x2
 2969 0549 75       		.byte	0x75
 2970 054a 00       		.sleb128 0
 2971 054b 00       		.byte	0
 2972 054c 12       		.uleb128 0x12
 2973 054d 3A000000 		.4byte	.LVL79
 2974 0551 03040000 		.4byte	0x403
 2975 0555 6F050000 		.4byte	0x56f
 2976 0559 13       		.uleb128 0x13
 2977 055a 01       		.uleb128 0x1
 2978 055b 50       		.byte	0x50
 2979 055c 02       		.uleb128 0x2
 2980 055d 7B       		.byte	0x7b
 2981 055e 00       		.sleb128 0
 2982 055f 13       		.uleb128 0x13
 2983 0560 01       		.uleb128 0x1
 2984 0561 51       		.byte	0x51
 2985 0562 05       		.uleb128 0x5
 2986 0563 78       		.byte	0x78
 2987 0564 00       		.sleb128 0
 2988 0565 74       		.byte	0x74
 2989 0566 00       		.sleb128 0
 2990 0567 1C       		.byte	0x1c
 2991 0568 13       		.uleb128 0x13
 2992 0569 01       		.uleb128 0x1
 2993 056a 52       		.byte	0x52
ARM GAS  C:\Users\JAMESS~1\AppData\Local\Temp\ccWH4kxb.s 			page 77


 2994 056b 02       		.uleb128 0x2
 2995 056c 75       		.byte	0x75
 2996 056d 00       		.sleb128 0
 2997 056e 00       		.byte	0
 2998 056f 12       		.uleb128 0x12
 2999 0570 46000000 		.4byte	.LVL80
 3000 0574 03040000 		.4byte	0x403
 3001 0578 92050000 		.4byte	0x592
 3002 057c 13       		.uleb128 0x13
 3003 057d 01       		.uleb128 0x1
 3004 057e 50       		.byte	0x50
 3005 057f 05       		.uleb128 0x5
 3006 0580 74       		.byte	0x74
 3007 0581 00       		.sleb128 0
 3008 0582 7B       		.byte	0x7b
 3009 0583 00       		.sleb128 0
 3010 0584 22       		.byte	0x22
 3011 0585 13       		.uleb128 0x13
 3012 0586 01       		.uleb128 0x1
 3013 0587 51       		.byte	0x51
 3014 0588 02       		.uleb128 0x2
 3015 0589 78       		.byte	0x78
 3016 058a 00       		.sleb128 0
 3017 058b 13       		.uleb128 0x13
 3018 058c 01       		.uleb128 0x1
 3019 058d 52       		.byte	0x52
 3020 058e 02       		.uleb128 0x2
 3021 058f 75       		.byte	0x75
 3022 0590 00       		.sleb128 0
 3023 0591 00       		.byte	0
 3024 0592 12       		.uleb128 0x12
 3025 0593 52000000 		.4byte	.LVL81
 3026 0597 03040000 		.4byte	0x403
 3027 059b B5050000 		.4byte	0x5b5
 3028 059f 13       		.uleb128 0x13
 3029 05a0 01       		.uleb128 0x1
 3030 05a1 50       		.byte	0x50
 3031 05a2 05       		.uleb128 0x5
 3032 05a3 7B       		.byte	0x7b
 3033 05a4 00       		.sleb128 0
 3034 05a5 74       		.byte	0x74
 3035 05a6 00       		.sleb128 0
 3036 05a7 1C       		.byte	0x1c
 3037 05a8 13       		.uleb128 0x13
 3038 05a9 01       		.uleb128 0x1
 3039 05aa 51       		.byte	0x51
 3040 05ab 02       		.uleb128 0x2
 3041 05ac 78       		.byte	0x78
 3042 05ad 00       		.sleb128 0
 3043 05ae 13       		.uleb128 0x13
 3044 05af 01       		.uleb128 0x1
 3045 05b0 52       		.byte	0x52
 3046 05b1 02       		.uleb128 0x2
 3047 05b2 75       		.byte	0x75
 3048 05b3 00       		.sleb128 0
 3049 05b4 00       		.byte	0
 3050 05b5 12       		.uleb128 0x12
ARM GAS  C:\Users\JAMESS~1\AppData\Local\Temp\ccWH4kxb.s 			page 78


 3051 05b6 86000000 		.4byte	.LVL92
 3052 05ba 03040000 		.4byte	0x403
 3053 05be D7050000 		.4byte	0x5d7
 3054 05c2 13       		.uleb128 0x13
 3055 05c3 01       		.uleb128 0x1
 3056 05c4 50       		.byte	0x50
 3057 05c5 02       		.uleb128 0x2
 3058 05c6 77       		.byte	0x77
 3059 05c7 00       		.sleb128 0
 3060 05c8 13       		.uleb128 0x13
 3061 05c9 01       		.uleb128 0x1
 3062 05ca 51       		.byte	0x51
 3063 05cb 03       		.uleb128 0x3
 3064 05cc 91       		.byte	0x91
 3065 05cd 54       		.sleb128 -44
 3066 05ce 06       		.byte	0x6
 3067 05cf 13       		.uleb128 0x13
 3068 05d0 01       		.uleb128 0x1
 3069 05d1 52       		.byte	0x52
 3070 05d2 03       		.uleb128 0x3
 3071 05d3 91       		.byte	0x91
 3072 05d4 4C       		.sleb128 -52
 3073 05d5 06       		.byte	0x6
 3074 05d6 00       		.byte	0
 3075 05d7 12       		.uleb128 0x12
 3076 05d8 94000000 		.4byte	.LVL93
 3077 05dc 03040000 		.4byte	0x403
 3078 05e0 F9050000 		.4byte	0x5f9
 3079 05e4 13       		.uleb128 0x13
 3080 05e5 01       		.uleb128 0x1
 3081 05e6 50       		.byte	0x50
 3082 05e7 02       		.uleb128 0x2
 3083 05e8 75       		.byte	0x75
 3084 05e9 00       		.sleb128 0
 3085 05ea 13       		.uleb128 0x13
 3086 05eb 01       		.uleb128 0x1
 3087 05ec 51       		.byte	0x51
 3088 05ed 03       		.uleb128 0x3
 3089 05ee 91       		.byte	0x91
 3090 05ef 54       		.sleb128 -44
 3091 05f0 06       		.byte	0x6
 3092 05f1 13       		.uleb128 0x13
 3093 05f2 01       		.uleb128 0x1
 3094 05f3 52       		.byte	0x52
 3095 05f4 03       		.uleb128 0x3
 3096 05f5 91       		.byte	0x91
 3097 05f6 4C       		.sleb128 -52
 3098 05f7 06       		.byte	0x6
 3099 05f8 00       		.byte	0
 3100 05f9 12       		.uleb128 0x12
 3101 05fa A4000000 		.4byte	.LVL94
 3102 05fe 03040000 		.4byte	0x403
 3103 0602 1B060000 		.4byte	0x61b
 3104 0606 13       		.uleb128 0x13
 3105 0607 01       		.uleb128 0x1
 3106 0608 50       		.byte	0x50
 3107 0609 02       		.uleb128 0x2
ARM GAS  C:\Users\JAMESS~1\AppData\Local\Temp\ccWH4kxb.s 			page 79


 3108 060a 77       		.byte	0x77
 3109 060b 00       		.sleb128 0
 3110 060c 13       		.uleb128 0x13
 3111 060d 01       		.uleb128 0x1
 3112 060e 51       		.byte	0x51
 3113 060f 03       		.uleb128 0x3
 3114 0610 91       		.byte	0x91
 3115 0611 54       		.sleb128 -44
 3116 0612 06       		.byte	0x6
 3117 0613 13       		.uleb128 0x13
 3118 0614 01       		.uleb128 0x1
 3119 0615 52       		.byte	0x52
 3120 0616 03       		.uleb128 0x3
 3121 0617 91       		.byte	0x91
 3122 0618 4C       		.sleb128 -52
 3123 0619 06       		.byte	0x6
 3124 061a 00       		.byte	0
 3125 061b 12       		.uleb128 0x12
 3126 061c AE000000 		.4byte	.LVL95
 3127 0620 03040000 		.4byte	0x403
 3128 0624 3D060000 		.4byte	0x63d
 3129 0628 13       		.uleb128 0x13
 3130 0629 01       		.uleb128 0x1
 3131 062a 50       		.byte	0x50
 3132 062b 02       		.uleb128 0x2
 3133 062c 75       		.byte	0x75
 3134 062d 00       		.sleb128 0
 3135 062e 13       		.uleb128 0x13
 3136 062f 01       		.uleb128 0x1
 3137 0630 51       		.byte	0x51
 3138 0631 03       		.uleb128 0x3
 3139 0632 91       		.byte	0x91
 3140 0633 54       		.sleb128 -44
 3141 0634 06       		.byte	0x6
 3142 0635 13       		.uleb128 0x13
 3143 0636 01       		.uleb128 0x1
 3144 0637 52       		.byte	0x52
 3145 0638 03       		.uleb128 0x3
 3146 0639 91       		.byte	0x91
 3147 063a 4C       		.sleb128 -52
 3148 063b 06       		.byte	0x6
 3149 063c 00       		.byte	0
 3150 063d 12       		.uleb128 0x12
 3151 063e C0000000 		.4byte	.LVL96
 3152 0642 03040000 		.4byte	0x403
 3153 0646 5E060000 		.4byte	0x65e
 3154 064a 13       		.uleb128 0x13
 3155 064b 01       		.uleb128 0x1
 3156 064c 50       		.byte	0x50
 3157 064d 02       		.uleb128 0x2
 3158 064e 77       		.byte	0x77
 3159 064f 00       		.sleb128 0
 3160 0650 13       		.uleb128 0x13
 3161 0651 01       		.uleb128 0x1
 3162 0652 51       		.byte	0x51
 3163 0653 02       		.uleb128 0x2
 3164 0654 75       		.byte	0x75
ARM GAS  C:\Users\JAMESS~1\AppData\Local\Temp\ccWH4kxb.s 			page 80


 3165 0655 00       		.sleb128 0
 3166 0656 13       		.uleb128 0x13
 3167 0657 01       		.uleb128 0x1
 3168 0658 52       		.byte	0x52
 3169 0659 03       		.uleb128 0x3
 3170 065a 91       		.byte	0x91
 3171 065b 4C       		.sleb128 -52
 3172 065c 06       		.byte	0x6
 3173 065d 00       		.byte	0
 3174 065e 12       		.uleb128 0x12
 3175 065f D0000000 		.4byte	.LVL97
 3176 0663 03040000 		.4byte	0x403
 3177 0667 80060000 		.4byte	0x680
 3178 066b 13       		.uleb128 0x13
 3179 066c 01       		.uleb128 0x1
 3180 066d 50       		.byte	0x50
 3181 066e 03       		.uleb128 0x3
 3182 066f 91       		.byte	0x91
 3183 0670 54       		.sleb128 -44
 3184 0671 06       		.byte	0x6
 3185 0672 13       		.uleb128 0x13
 3186 0673 01       		.uleb128 0x1
 3187 0674 51       		.byte	0x51
 3188 0675 02       		.uleb128 0x2
 3189 0676 75       		.byte	0x75
 3190 0677 00       		.sleb128 0
 3191 0678 13       		.uleb128 0x13
 3192 0679 01       		.uleb128 0x1
 3193 067a 52       		.byte	0x52
 3194 067b 03       		.uleb128 0x3
 3195 067c 91       		.byte	0x91
 3196 067d 4C       		.sleb128 -52
 3197 067e 06       		.byte	0x6
 3198 067f 00       		.byte	0
 3199 0680 12       		.uleb128 0x12
 3200 0681 DE000000 		.4byte	.LVL98
 3201 0685 03040000 		.4byte	0x403
 3202 0689 A1060000 		.4byte	0x6a1
 3203 068d 13       		.uleb128 0x13
 3204 068e 01       		.uleb128 0x1
 3205 068f 50       		.byte	0x50
 3206 0690 02       		.uleb128 0x2
 3207 0691 77       		.byte	0x77
 3208 0692 00       		.sleb128 0
 3209 0693 13       		.uleb128 0x13
 3210 0694 01       		.uleb128 0x1
 3211 0695 51       		.byte	0x51
 3212 0696 02       		.uleb128 0x2
 3213 0697 75       		.byte	0x75
 3214 0698 00       		.sleb128 0
 3215 0699 13       		.uleb128 0x13
 3216 069a 01       		.uleb128 0x1
 3217 069b 52       		.byte	0x52
 3218 069c 03       		.uleb128 0x3
 3219 069d 91       		.byte	0x91
 3220 069e 4C       		.sleb128 -52
 3221 069f 06       		.byte	0x6
ARM GAS  C:\Users\JAMESS~1\AppData\Local\Temp\ccWH4kxb.s 			page 81


 3222 06a0 00       		.byte	0
 3223 06a1 15       		.uleb128 0x15
 3224 06a2 E8000000 		.4byte	.LVL99
 3225 06a6 03040000 		.4byte	0x403
 3226 06aa 13       		.uleb128 0x13
 3227 06ab 01       		.uleb128 0x1
 3228 06ac 50       		.byte	0x50
 3229 06ad 03       		.uleb128 0x3
 3230 06ae 91       		.byte	0x91
 3231 06af 54       		.sleb128 -44
 3232 06b0 06       		.byte	0x6
 3233 06b1 13       		.uleb128 0x13
 3234 06b2 01       		.uleb128 0x1
 3235 06b3 51       		.byte	0x51
 3236 06b4 02       		.uleb128 0x2
 3237 06b5 75       		.byte	0x75
 3238 06b6 00       		.sleb128 0
 3239 06b7 13       		.uleb128 0x13
 3240 06b8 01       		.uleb128 0x1
 3241 06b9 52       		.byte	0x52
 3242 06ba 03       		.uleb128 0x3
 3243 06bb 91       		.byte	0x91
 3244 06bc 4C       		.sleb128 -52
 3245 06bd 06       		.byte	0x6
 3246 06be 00       		.byte	0
 3247 06bf 00       		.byte	0
 3248 06c0 09       		.uleb128 0x9
 3249 06c1 AB050000 		.4byte	.LASF47
 3250 06c5 01       		.byte	0x1
 3251 06c6 CA03     		.2byte	0x3ca
 3252 06c8 00000000 		.4byte	.LFB49
 3253 06cc AA000000 		.4byte	.LFE49-.LFB49
 3254 06d0 01       		.uleb128 0x1
 3255 06d1 9C       		.byte	0x9c
 3256 06d2 F3070000 		.4byte	0x7f3
 3257 06d6 0D       		.uleb128 0xd
 3258 06d7 783000   		.ascii	"x0\000"
 3259 06da 01       		.byte	0x1
 3260 06db CA03     		.2byte	0x3ca
 3261 06dd 83000000 		.4byte	0x83
 3262 06e1 A9040000 		.4byte	.LLST25
 3263 06e5 0D       		.uleb128 0xd
 3264 06e6 793000   		.ascii	"y0\000"
 3265 06e9 01       		.byte	0x1
 3266 06ea CA03     		.2byte	0x3ca
 3267 06ec 83000000 		.4byte	0x83
 3268 06f0 C7040000 		.4byte	.LLST26
 3269 06f4 0D       		.uleb128 0xd
 3270 06f5 783100   		.ascii	"x1\000"
 3271 06f8 01       		.byte	0x1
 3272 06f9 CA03     		.2byte	0x3ca
 3273 06fb 83000000 		.4byte	0x83
 3274 06ff E5040000 		.4byte	.LLST27
 3275 0703 0D       		.uleb128 0xd
 3276 0704 793100   		.ascii	"y1\000"
 3277 0707 01       		.byte	0x1
 3278 0708 CA03     		.2byte	0x3ca
ARM GAS  C:\Users\JAMESS~1\AppData\Local\Temp\ccWH4kxb.s 			page 82


 3279 070a 83000000 		.4byte	0x83
 3280 070e 1B050000 		.4byte	.LLST28
 3281 0712 0C       		.uleb128 0xc
 3282 0713 59000000 		.4byte	.LASF23
 3283 0717 01       		.byte	0x1
 3284 0718 CA03     		.2byte	0x3ca
 3285 071a 77000000 		.4byte	0x77
 3286 071e 02       		.uleb128 0x2
 3287 071f 91       		.byte	0x91
 3288 0720 00       		.sleb128 0
 3289 0721 1C       		.uleb128 0x1c
 3290 0722 647900   		.ascii	"dy\000"
 3291 0725 01       		.byte	0x1
 3292 0726 CC03     		.2byte	0x3cc
 3293 0728 83000000 		.4byte	0x83
 3294 072c 47050000 		.4byte	.LLST29
 3295 0730 1C       		.uleb128 0x1c
 3296 0731 647800   		.ascii	"dx\000"
 3297 0734 01       		.byte	0x1
 3298 0735 CD03     		.2byte	0x3cd
 3299 0737 83000000 		.4byte	0x83
 3300 073b 70050000 		.4byte	.LLST30
 3301 073f 0E       		.uleb128 0xe
 3302 0740 E5030000 		.4byte	.LASF48
 3303 0744 01       		.byte	0x1
 3304 0745 CE03     		.2byte	0x3ce
 3305 0747 83000000 		.4byte	0x83
 3306 074b 83050000 		.4byte	.LLST31
 3307 074f 0E       		.uleb128 0xe
 3308 0750 EB030000 		.4byte	.LASF49
 3309 0754 01       		.byte	0x1
 3310 0755 CE03     		.2byte	0x3ce
 3311 0757 83000000 		.4byte	0x83
 3312 075b A3050000 		.4byte	.LLST32
 3313 075f 1D       		.uleb128 0x1d
 3314 0760 52000000 		.4byte	.LBB2
 3315 0764 26000000 		.4byte	.LBE2-.LBB2
 3316 0768 9A070000 		.4byte	0x79a
 3317 076c 0E       		.uleb128 0xe
 3318 076d DC030000 		.4byte	.LASF50
 3319 0771 01       		.byte	0x1
 3320 0772 EA03     		.2byte	0x3ea
 3321 0774 5D000000 		.4byte	0x5d
 3322 0778 C3050000 		.4byte	.LLST33
 3323 077c 15       		.uleb128 0x15
 3324 077d 70000000 		.4byte	.LVL129
 3325 0781 03040000 		.4byte	0x403
 3326 0785 13       		.uleb128 0x13
 3327 0786 01       		.uleb128 0x1
 3328 0787 50       		.byte	0x50
 3329 0788 02       		.uleb128 0x2
 3330 0789 74       		.byte	0x74
 3331 078a 00       		.sleb128 0
 3332 078b 13       		.uleb128 0x13
 3333 078c 01       		.uleb128 0x1
 3334 078d 51       		.byte	0x51
 3335 078e 02       		.uleb128 0x2
ARM GAS  C:\Users\JAMESS~1\AppData\Local\Temp\ccWH4kxb.s 			page 83


 3336 078f 75       		.byte	0x75
 3337 0790 00       		.sleb128 0
 3338 0791 13       		.uleb128 0x13
 3339 0792 01       		.uleb128 0x1
 3340 0793 52       		.byte	0x52
 3341 0794 03       		.uleb128 0x3
 3342 0795 91       		.byte	0x91
 3343 0796 00       		.sleb128 0
 3344 0797 06       		.byte	0x6
 3345 0798 00       		.byte	0
 3346 0799 00       		.byte	0
 3347 079a 1D       		.uleb128 0x1d
 3348 079b 78000000 		.4byte	.LBB3
 3349 079f 24000000 		.4byte	.LBE3-.LBB3
 3350 07a3 D5070000 		.4byte	0x7d5
 3351 07a7 0E       		.uleb128 0xe
 3352 07a8 DC030000 		.4byte	.LASF50
 3353 07ac 01       		.byte	0x1
 3354 07ad F903     		.2byte	0x3f9
 3355 07af 5D000000 		.4byte	0x5d
 3356 07b3 D6050000 		.4byte	.LLST34
 3357 07b7 15       		.uleb128 0x15
 3358 07b8 98000000 		.4byte	.LVL136
 3359 07bc 03040000 		.4byte	0x403
 3360 07c0 13       		.uleb128 0x13
 3361 07c1 01       		.uleb128 0x1
 3362 07c2 50       		.byte	0x50
 3363 07c3 02       		.uleb128 0x2
 3364 07c4 74       		.byte	0x74
 3365 07c5 00       		.sleb128 0
 3366 07c6 13       		.uleb128 0x13
 3367 07c7 01       		.uleb128 0x1
 3368 07c8 51       		.byte	0x51
 3369 07c9 02       		.uleb128 0x2
 3370 07ca 75       		.byte	0x75
 3371 07cb 00       		.sleb128 0
 3372 07cc 13       		.uleb128 0x13
 3373 07cd 01       		.uleb128 0x1
 3374 07ce 52       		.byte	0x52
 3375 07cf 03       		.uleb128 0x3
 3376 07d0 91       		.byte	0x91
 3377 07d1 00       		.sleb128 0
 3378 07d2 06       		.byte	0x6
 3379 07d3 00       		.byte	0
 3380 07d4 00       		.byte	0
 3381 07d5 15       		.uleb128 0x15
 3382 07d6 4E000000 		.4byte	.LVL123
 3383 07da 03040000 		.4byte	0x403
 3384 07de 13       		.uleb128 0x13
 3385 07df 01       		.uleb128 0x1
 3386 07e0 50       		.byte	0x50
 3387 07e1 02       		.uleb128 0x2
 3388 07e2 74       		.byte	0x74
 3389 07e3 00       		.sleb128 0
 3390 07e4 13       		.uleb128 0x13
 3391 07e5 01       		.uleb128 0x1
 3392 07e6 51       		.byte	0x51
ARM GAS  C:\Users\JAMESS~1\AppData\Local\Temp\ccWH4kxb.s 			page 84


 3393 07e7 02       		.uleb128 0x2
 3394 07e8 75       		.byte	0x75
 3395 07e9 00       		.sleb128 0
 3396 07ea 13       		.uleb128 0x13
 3397 07eb 01       		.uleb128 0x1
 3398 07ec 52       		.byte	0x52
 3399 07ed 03       		.uleb128 0x3
 3400 07ee 91       		.byte	0x91
 3401 07ef 00       		.sleb128 0
 3402 07f0 06       		.byte	0x6
 3403 07f1 00       		.byte	0
 3404 07f2 00       		.byte	0
 3405 07f3 09       		.uleb128 0x9
 3406 07f4 73000000 		.4byte	.LASF51
 3407 07f8 01       		.byte	0x1
 3408 07f9 1904     		.2byte	0x419
 3409 07fb 00000000 		.4byte	.LFB50
 3410 07ff 7A000000 		.4byte	.LFE50-.LFB50
 3411 0803 01       		.uleb128 0x1
 3412 0804 9C       		.byte	0x9c
 3413 0805 4B090000 		.4byte	0x94b
 3414 0809 0D       		.uleb128 0xd
 3415 080a 783000   		.ascii	"x0\000"
 3416 080d 01       		.byte	0x1
 3417 080e 1904     		.2byte	0x419
 3418 0810 83000000 		.4byte	0x83
 3419 0814 E9050000 		.4byte	.LLST35
 3420 0818 0D       		.uleb128 0xd
 3421 0819 793000   		.ascii	"y0\000"
 3422 081c 01       		.byte	0x1
 3423 081d 1904     		.2byte	0x419
 3424 081f 83000000 		.4byte	0x83
 3425 0823 1D060000 		.4byte	.LLST36
 3426 0827 0D       		.uleb128 0xd
 3427 0828 783100   		.ascii	"x1\000"
 3428 082b 01       		.byte	0x1
 3429 082c 1904     		.2byte	0x419
 3430 082e 83000000 		.4byte	0x83
 3431 0832 53060000 		.4byte	.LLST37
 3432 0836 0D       		.uleb128 0xd
 3433 0837 793100   		.ascii	"y1\000"
 3434 083a 01       		.byte	0x1
 3435 083b 1904     		.2byte	0x419
 3436 083d 83000000 		.4byte	0x83
 3437 0841 95060000 		.4byte	.LLST38
 3438 0845 0C       		.uleb128 0xc
 3439 0846 0D010000 		.4byte	.LASF52
 3440 084a 01       		.byte	0x1
 3441 084b 1904     		.2byte	0x419
 3442 084d 83000000 		.4byte	0x83
 3443 0851 02       		.uleb128 0x2
 3444 0852 91       		.byte	0x91
 3445 0853 00       		.sleb128 0
 3446 0854 0C       		.uleb128 0xc
 3447 0855 59000000 		.4byte	.LASF23
 3448 0859 01       		.byte	0x1
 3449 085a 1904     		.2byte	0x419
ARM GAS  C:\Users\JAMESS~1\AppData\Local\Temp\ccWH4kxb.s 			page 85


 3450 085c 77000000 		.4byte	0x77
 3451 0860 02       		.uleb128 0x2
 3452 0861 91       		.byte	0x91
 3453 0862 04       		.sleb128 4
 3454 0863 0E       		.uleb128 0xe
 3455 0864 8A040000 		.4byte	.LASF53
 3456 0868 01       		.byte	0x1
 3457 0869 1B04     		.2byte	0x41b
 3458 086b 5D000000 		.4byte	0x5d
 3459 086f B4060000 		.4byte	.LLST39
 3460 0873 12       		.uleb128 0x12
 3461 0874 2E000000 		.4byte	.LVL151
 3462 0878 C0060000 		.4byte	0x6c0
 3463 087c A2080000 		.4byte	0x8a2
 3464 0880 13       		.uleb128 0x13
 3465 0881 01       		.uleb128 0x1
 3466 0882 50       		.byte	0x50
 3467 0883 02       		.uleb128 0x2
 3468 0884 74       		.byte	0x74
 3469 0885 00       		.sleb128 0
 3470 0886 13       		.uleb128 0x13
 3471 0887 01       		.uleb128 0x1
 3472 0888 51       		.byte	0x51
 3473 0889 03       		.uleb128 0x3
 3474 088a 91       		.byte	0x91
 3475 088b 64       		.sleb128 -28
 3476 088c 06       		.byte	0x6
 3477 088d 13       		.uleb128 0x13
 3478 088e 01       		.uleb128 0x1
 3479 088f 52       		.byte	0x52
 3480 0890 02       		.uleb128 0x2
 3481 0891 74       		.byte	0x74
 3482 0892 00       		.sleb128 0
 3483 0893 13       		.uleb128 0x13
 3484 0894 01       		.uleb128 0x1
 3485 0895 53       		.byte	0x53
 3486 0896 03       		.uleb128 0x3
 3487 0897 91       		.byte	0x91
 3488 0898 60       		.sleb128 -32
 3489 0899 06       		.byte	0x6
 3490 089a 13       		.uleb128 0x13
 3491 089b 02       		.uleb128 0x2
 3492 089c 7D       		.byte	0x7d
 3493 089d 00       		.sleb128 0
 3494 089e 02       		.uleb128 0x2
 3495 089f 77       		.byte	0x77
 3496 08a0 00       		.sleb128 0
 3497 08a1 00       		.byte	0
 3498 08a2 12       		.uleb128 0x12
 3499 08a3 4C000000 		.4byte	.LVL157
 3500 08a7 C0060000 		.4byte	0x6c0
 3501 08ab C3080000 		.4byte	0x8c3
 3502 08af 13       		.uleb128 0x13
 3503 08b0 01       		.uleb128 0x1
 3504 08b1 51       		.byte	0x51
 3505 08b2 02       		.uleb128 0x2
 3506 08b3 75       		.byte	0x75
ARM GAS  C:\Users\JAMESS~1\AppData\Local\Temp\ccWH4kxb.s 			page 86


 3507 08b4 00       		.sleb128 0
 3508 08b5 13       		.uleb128 0x13
 3509 08b6 01       		.uleb128 0x1
 3510 08b7 53       		.byte	0x53
 3511 08b8 02       		.uleb128 0x2
 3512 08b9 75       		.byte	0x75
 3513 08ba 00       		.sleb128 0
 3514 08bb 13       		.uleb128 0x13
 3515 08bc 02       		.uleb128 0x2
 3516 08bd 7D       		.byte	0x7d
 3517 08be 00       		.sleb128 0
 3518 08bf 02       		.uleb128 0x2
 3519 08c0 77       		.byte	0x77
 3520 08c1 00       		.sleb128 0
 3521 08c2 00       		.byte	0
 3522 08c3 12       		.uleb128 0x12
 3523 08c4 5A000000 		.4byte	.LVL158
 3524 08c8 C0060000 		.4byte	0x6c0
 3525 08cc F2080000 		.4byte	0x8f2
 3526 08d0 13       		.uleb128 0x13
 3527 08d1 01       		.uleb128 0x1
 3528 08d2 50       		.byte	0x50
 3529 08d3 02       		.uleb128 0x2
 3530 08d4 74       		.byte	0x74
 3531 08d5 00       		.sleb128 0
 3532 08d6 13       		.uleb128 0x13
 3533 08d7 01       		.uleb128 0x1
 3534 08d8 51       		.byte	0x51
 3535 08d9 03       		.uleb128 0x3
 3536 08da 91       		.byte	0x91
 3537 08db 60       		.sleb128 -32
 3538 08dc 06       		.byte	0x6
 3539 08dd 13       		.uleb128 0x13
 3540 08de 01       		.uleb128 0x1
 3541 08df 52       		.byte	0x52
 3542 08e0 02       		.uleb128 0x2
 3543 08e1 76       		.byte	0x76
 3544 08e2 00       		.sleb128 0
 3545 08e3 13       		.uleb128 0x13
 3546 08e4 01       		.uleb128 0x1
 3547 08e5 53       		.byte	0x53
 3548 08e6 03       		.uleb128 0x3
 3549 08e7 91       		.byte	0x91
 3550 08e8 60       		.sleb128 -32
 3551 08e9 06       		.byte	0x6
 3552 08ea 13       		.uleb128 0x13
 3553 08eb 02       		.uleb128 0x2
 3554 08ec 7D       		.byte	0x7d
 3555 08ed 00       		.sleb128 0
 3556 08ee 02       		.uleb128 0x2
 3557 08ef 77       		.byte	0x77
 3558 08f0 00       		.sleb128 0
 3559 08f1 00       		.byte	0
 3560 08f2 12       		.uleb128 0x12
 3561 08f3 68000000 		.4byte	.LVL159
 3562 08f7 C0060000 		.4byte	0x6c0
 3563 08fb 20090000 		.4byte	0x920
ARM GAS  C:\Users\JAMESS~1\AppData\Local\Temp\ccWH4kxb.s 			page 87


 3564 08ff 13       		.uleb128 0x13
 3565 0900 01       		.uleb128 0x1
 3566 0901 50       		.byte	0x50
 3567 0902 02       		.uleb128 0x2
 3568 0903 74       		.byte	0x74
 3569 0904 00       		.sleb128 0
 3570 0905 13       		.uleb128 0x13
 3571 0906 01       		.uleb128 0x1
 3572 0907 51       		.byte	0x51
 3573 0908 02       		.uleb128 0x2
 3574 0909 75       		.byte	0x75
 3575 090a 00       		.sleb128 0
 3576 090b 13       		.uleb128 0x13
 3577 090c 01       		.uleb128 0x1
 3578 090d 52       		.byte	0x52
 3579 090e 02       		.uleb128 0x2
 3580 090f 74       		.byte	0x74
 3581 0910 00       		.sleb128 0
 3582 0911 13       		.uleb128 0x13
 3583 0912 01       		.uleb128 0x1
 3584 0913 53       		.byte	0x53
 3585 0914 03       		.uleb128 0x3
 3586 0915 91       		.byte	0x91
 3587 0916 60       		.sleb128 -32
 3588 0917 06       		.byte	0x6
 3589 0918 13       		.uleb128 0x13
 3590 0919 02       		.uleb128 0x2
 3591 091a 7D       		.byte	0x7d
 3592 091b 00       		.sleb128 0
 3593 091c 02       		.uleb128 0x2
 3594 091d 77       		.byte	0x77
 3595 091e 00       		.sleb128 0
 3596 091f 00       		.byte	0
 3597 0920 15       		.uleb128 0x15
 3598 0921 76000000 		.4byte	.LVL160
 3599 0925 C0060000 		.4byte	0x6c0
 3600 0929 13       		.uleb128 0x13
 3601 092a 01       		.uleb128 0x1
 3602 092b 50       		.byte	0x50
 3603 092c 02       		.uleb128 0x2
 3604 092d 76       		.byte	0x76
 3605 092e 00       		.sleb128 0
 3606 092f 13       		.uleb128 0x13
 3607 0930 01       		.uleb128 0x1
 3608 0931 51       		.byte	0x51
 3609 0932 02       		.uleb128 0x2
 3610 0933 75       		.byte	0x75
 3611 0934 00       		.sleb128 0
 3612 0935 13       		.uleb128 0x13
 3613 0936 01       		.uleb128 0x1
 3614 0937 52       		.byte	0x52
 3615 0938 02       		.uleb128 0x2
 3616 0939 76       		.byte	0x76
 3617 093a 00       		.sleb128 0
 3618 093b 13       		.uleb128 0x13
 3619 093c 01       		.uleb128 0x1
 3620 093d 53       		.byte	0x53
ARM GAS  C:\Users\JAMESS~1\AppData\Local\Temp\ccWH4kxb.s 			page 88


 3621 093e 03       		.uleb128 0x3
 3622 093f 91       		.byte	0x91
 3623 0940 60       		.sleb128 -32
 3624 0941 06       		.byte	0x6
 3625 0942 13       		.uleb128 0x13
 3626 0943 02       		.uleb128 0x2
 3627 0944 7D       		.byte	0x7d
 3628 0945 00       		.sleb128 0
 3629 0946 02       		.uleb128 0x2
 3630 0947 77       		.byte	0x77
 3631 0948 00       		.sleb128 0
 3632 0949 00       		.byte	0
 3633 094a 00       		.byte	0
 3634 094b 09       		.uleb128 0x9
 3635 094c CC030000 		.4byte	.LASF54
 3636 0950 01       		.byte	0x1
 3637 0951 4E04     		.2byte	0x44e
 3638 0953 00000000 		.4byte	.LFB51
 3639 0957 78000000 		.4byte	.LFE51-.LFB51
 3640 095b 01       		.uleb128 0x1
 3641 095c 9C       		.byte	0x9c
 3642 095d 88090000 		.4byte	0x988
 3643 0961 0C       		.uleb128 0xc
 3644 0962 92030000 		.4byte	.LASF55
 3645 0966 01       		.byte	0x1
 3646 0967 4E04     		.2byte	0x44e
 3647 0969 77000000 		.4byte	0x77
 3648 096d 01       		.uleb128 0x1
 3649 096e 50       		.byte	0x50
 3650 096f 0A       		.uleb128 0xa
 3651 0970 A0010000 		.4byte	.LASF19
 3652 0974 01       		.byte	0x1
 3653 0975 5004     		.2byte	0x450
 3654 0977 77000000 		.4byte	0x77
 3655 097b 0A       		.uleb128 0xa
 3656 097c 3A000000 		.4byte	.LASF20
 3657 0980 01       		.byte	0x1
 3658 0981 5104     		.2byte	0x451
 3659 0983 77000000 		.4byte	0x77
 3660 0987 00       		.byte	0
 3661 0988 1E       		.uleb128 0x1e
 3662 0989 6A050000 		.4byte	.LASF56
 3663 098d 01       		.byte	0x1
 3664 098e FC       		.byte	0xfc
 3665 098f 00000000 		.4byte	.LFB32
 3666 0993 8C000000 		.4byte	.LFE32-.LFB32
 3667 0997 01       		.uleb128 0x1
 3668 0998 9C       		.byte	0x9c
 3669 0999 460A0000 		.4byte	0xa46
 3670 099d 1F       		.uleb128 0x1f
 3671 099e F6010000 		.4byte	.LASF57
 3672 09a2 01       		.byte	0x1
 3673 09a3 FE       		.byte	0xfe
 3674 09a4 6B000000 		.4byte	0x6b
 3675 09a8 1F       		.uleb128 0x1f
 3676 09a9 9B030000 		.4byte	.LASF24
 3677 09ad 01       		.byte	0x1
ARM GAS  C:\Users\JAMESS~1\AppData\Local\Temp\ccWH4kxb.s 			page 89


 3678 09ae FF       		.byte	0xff
 3679 09af 77000000 		.4byte	0x77
 3680 09b3 12       		.uleb128 0x12
 3681 09b4 26000000 		.4byte	.LVL164
 3682 09b8 B0020000 		.4byte	0x2b0
 3683 09bc C6090000 		.4byte	0x9c6
 3684 09c0 13       		.uleb128 0x13
 3685 09c1 01       		.uleb128 0x1
 3686 09c2 50       		.byte	0x50
 3687 09c3 01       		.uleb128 0x1
 3688 09c4 48       		.byte	0x48
 3689 09c5 00       		.byte	0
 3690 09c6 14       		.uleb128 0x14
 3691 09c7 2A000000 		.4byte	.LVL165
 3692 09cb 4C030000 		.4byte	0x34c
 3693 09cf 12       		.uleb128 0x12
 3694 09d0 34000000 		.4byte	.LVL166
 3695 09d4 4E0D0000 		.4byte	0xd4e
 3696 09d8 E2090000 		.4byte	0x9e2
 3697 09dc 13       		.uleb128 0x13
 3698 09dd 01       		.uleb128 0x1
 3699 09de 50       		.byte	0x50
 3700 09df 01       		.uleb128 0x1
 3701 09e0 30       		.byte	0x30
 3702 09e1 00       		.byte	0
 3703 09e2 12       		.uleb128 0x12
 3704 09e3 3A000000 		.4byte	.LVL167
 3705 09e7 4B090000 		.4byte	0x94b
 3706 09eb F5090000 		.4byte	0x9f5
 3707 09ef 13       		.uleb128 0x13
 3708 09f0 01       		.uleb128 0x1
 3709 09f1 50       		.byte	0x50
 3710 09f2 01       		.uleb128 0x1
 3711 09f3 30       		.byte	0x30
 3712 09f4 00       		.byte	0
 3713 09f5 12       		.uleb128 0x12
 3714 09f6 4E000000 		.4byte	.LVL168
 3715 09fa 590D0000 		.4byte	0xd59
 3716 09fe 0C0A0000 		.4byte	0xa0c
 3717 0a02 13       		.uleb128 0x13
 3718 0a03 01       		.uleb128 0x1
 3719 0a04 50       		.byte	0x50
 3720 0a05 05       		.uleb128 0x5
 3721 0a06 03       		.byte	0x3
 3722 0a07 00000000 		.4byte	StripLights_CISR
 3723 0a0b 00       		.byte	0
 3724 0a0c 12       		.uleb128 0x12
 3725 0a0d 54000000 		.4byte	.LVL169
 3726 0a11 640D0000 		.4byte	0xd64
 3727 0a15 230A0000 		.4byte	0xa23
 3728 0a19 13       		.uleb128 0x13
 3729 0a1a 01       		.uleb128 0x1
 3730 0a1b 50       		.byte	0x50
 3731 0a1c 05       		.uleb128 0x5
 3732 0a1d 03       		.byte	0x3
 3733 0a1e 00000000 		.4byte	StripLights_FISR
 3734 0a22 00       		.byte	0
ARM GAS  C:\Users\JAMESS~1\AppData\Local\Temp\ccWH4kxb.s 			page 90


 3735 0a23 12       		.uleb128 0x12
 3736 0a24 5A000000 		.4byte	.LVL170
 3737 0a28 6F0D0000 		.4byte	0xd6f
 3738 0a2c 360A0000 		.4byte	0xa36
 3739 0a30 13       		.uleb128 0x13
 3740 0a31 01       		.uleb128 0x1
 3741 0a32 50       		.byte	0x50
 3742 0a33 01       		.uleb128 0x1
 3743 0a34 31       		.byte	0x31
 3744 0a35 00       		.byte	0
 3745 0a36 15       		.uleb128 0x15
 3746 0a37 60000000 		.4byte	.LVL171
 3747 0a3b 7A0D0000 		.4byte	0xd7a
 3748 0a3f 13       		.uleb128 0x13
 3749 0a40 01       		.uleb128 0x1
 3750 0a41 50       		.byte	0x50
 3751 0a42 01       		.uleb128 0x1
 3752 0a43 30       		.byte	0x30
 3753 0a44 00       		.byte	0
 3754 0a45 00       		.byte	0
 3755 0a46 09       		.uleb128 0x9
 3756 0a47 BA040000 		.4byte	.LASF58
 3757 0a4b 01       		.byte	0x1
 3758 0a4c 8104     		.2byte	0x481
 3759 0a4e 00000000 		.4byte	.LFB52
 3760 0a52 5A000000 		.4byte	.LFE52-.LFB52
 3761 0a56 01       		.uleb128 0x1
 3762 0a57 9C       		.byte	0x9c
 3763 0a58 110B0000 		.4byte	0xb11
 3764 0a5c 0D       		.uleb128 0xd
 3765 0a5d 7800     		.ascii	"x\000"
 3766 0a5f 01       		.byte	0x1
 3767 0a60 8104     		.2byte	0x481
 3768 0a62 83000000 		.4byte	0x83
 3769 0a66 D2060000 		.4byte	.LLST40
 3770 0a6a 0D       		.uleb128 0xd
 3771 0a6b 7900     		.ascii	"y\000"
 3772 0a6d 01       		.byte	0x1
 3773 0a6e 8104     		.2byte	0x481
 3774 0a70 83000000 		.4byte	0x83
 3775 0a74 F1060000 		.4byte	.LLST41
 3776 0a78 11       		.uleb128 0x11
 3777 0a79 A4050000 		.4byte	.LASF59
 3778 0a7d 01       		.byte	0x1
 3779 0a7e 8104     		.2byte	0x481
 3780 0a80 110B0000 		.4byte	0xb11
 3781 0a84 12070000 		.4byte	.LLST42
 3782 0a88 11       		.uleb128 0x11
 3783 0a89 66020000 		.4byte	.LASF60
 3784 0a8d 01       		.byte	0x1
 3785 0a8e 8104     		.2byte	0x481
 3786 0a90 83000000 		.4byte	0x83
 3787 0a94 3E070000 		.4byte	.LLST43
 3788 0a98 1C       		.uleb128 0x1c
 3789 0a99 647800   		.ascii	"dx\000"
 3790 0a9c 01       		.byte	0x1
 3791 0a9d 8304     		.2byte	0x483
ARM GAS  C:\Users\JAMESS~1\AppData\Local\Temp\ccWH4kxb.s 			page 91


 3792 0a9f 83000000 		.4byte	0x83
 3793 0aa3 80070000 		.4byte	.LLST44
 3794 0aa7 1C       		.uleb128 0x1c
 3795 0aa8 647900   		.ascii	"dy\000"
 3796 0aab 01       		.byte	0x1
 3797 0aac 8304     		.2byte	0x483
 3798 0aae 83000000 		.4byte	0x83
 3799 0ab2 9E070000 		.4byte	.LLST45
 3800 0ab6 0E       		.uleb128 0xe
 3801 0ab7 32050000 		.4byte	.LASF61
 3802 0abb 01       		.byte	0x1
 3803 0abc 8404     		.2byte	0x484
 3804 0abe 83000000 		.4byte	0x83
 3805 0ac2 E0070000 		.4byte	.LLST46
 3806 0ac6 0E       		.uleb128 0xe
 3807 0ac7 8A020000 		.4byte	.LASF62
 3808 0acb 01       		.byte	0x1
 3809 0acc 8504     		.2byte	0x485
 3810 0ace 83000000 		.4byte	0x83
 3811 0ad2 21080000 		.4byte	.LLST47
 3812 0ad6 0E       		.uleb128 0xe
 3813 0ad7 32030000 		.4byte	.LASF63
 3814 0adb 01       		.byte	0x1
 3815 0adc 8504     		.2byte	0x485
 3816 0ade 83000000 		.4byte	0x83
 3817 0ae2 34080000 		.4byte	.LLST48
 3818 0ae6 12       		.uleb128 0x12
 3819 0ae7 2C000000 		.4byte	.LVL179
 3820 0aeb 03040000 		.4byte	0x403
 3821 0aef 010B0000 		.4byte	0xb01
 3822 0af3 13       		.uleb128 0x13
 3823 0af4 01       		.uleb128 0x1
 3824 0af5 50       		.byte	0x50
 3825 0af6 02       		.uleb128 0x2
 3826 0af7 74       		.byte	0x74
 3827 0af8 00       		.sleb128 0
 3828 0af9 13       		.uleb128 0x13
 3829 0afa 01       		.uleb128 0x1
 3830 0afb 51       		.byte	0x51
 3831 0afc 03       		.uleb128 0x3
 3832 0afd 7D       		.byte	0x7d
 3833 0afe 00       		.sleb128 0
 3834 0aff 06       		.byte	0x6
 3835 0b00 00       		.byte	0
 3836 0b01 15       		.uleb128 0x15
 3837 0b02 50000000 		.4byte	.LVL186
 3838 0b06 96010000 		.4byte	0x196
 3839 0b0a 13       		.uleb128 0x13
 3840 0b0b 01       		.uleb128 0x1
 3841 0b0c 50       		.byte	0x50
 3842 0b0d 01       		.uleb128 0x1
 3843 0b0e 31       		.byte	0x31
 3844 0b0f 00       		.byte	0
 3845 0b10 00       		.byte	0
 3846 0b11 06       		.uleb128 0x6
 3847 0b12 04       		.byte	0x4
 3848 0b13 6B000000 		.4byte	0x6b
ARM GAS  C:\Users\JAMESS~1\AppData\Local\Temp\ccWH4kxb.s 			page 92


 3849 0b17 09       		.uleb128 0x9
 3850 0b18 76020000 		.4byte	.LASF64
 3851 0b1c 01       		.byte	0x1
 3852 0b1d A504     		.2byte	0x4a5
 3853 0b1f 00000000 		.4byte	.LFB53
 3854 0b23 62000000 		.4byte	.LFE53-.LFB53
 3855 0b27 01       		.uleb128 0x1
 3856 0b28 9C       		.byte	0x9c
 3857 0b29 E20B0000 		.4byte	0xbe2
 3858 0b2d 0D       		.uleb128 0xd
 3859 0b2e 7800     		.ascii	"x\000"
 3860 0b30 01       		.byte	0x1
 3861 0b31 A504     		.2byte	0x4a5
 3862 0b33 83000000 		.4byte	0x83
 3863 0b37 47080000 		.4byte	.LLST49
 3864 0b3b 0D       		.uleb128 0xd
 3865 0b3c 7900     		.ascii	"y\000"
 3866 0b3e 01       		.byte	0x1
 3867 0b3f A504     		.2byte	0x4a5
 3868 0b41 83000000 		.4byte	0x83
 3869 0b45 66080000 		.4byte	.LLST50
 3870 0b49 11       		.uleb128 0x11
 3871 0b4a A4050000 		.4byte	.LASF59
 3872 0b4e 01       		.byte	0x1
 3873 0b4f A504     		.2byte	0x4a5
 3874 0b51 E20B0000 		.4byte	0xbe2
 3875 0b55 87080000 		.4byte	.LLST51
 3876 0b59 11       		.uleb128 0x11
 3877 0b5a 66020000 		.4byte	.LASF60
 3878 0b5e 01       		.byte	0x1
 3879 0b5f A504     		.2byte	0x4a5
 3880 0b61 83000000 		.4byte	0x83
 3881 0b65 B3080000 		.4byte	.LLST52
 3882 0b69 1C       		.uleb128 0x1c
 3883 0b6a 647800   		.ascii	"dx\000"
 3884 0b6d 01       		.byte	0x1
 3885 0b6e A704     		.2byte	0x4a7
 3886 0b70 83000000 		.4byte	0x83
 3887 0b74 F5080000 		.4byte	.LLST53
 3888 0b78 1C       		.uleb128 0x1c
 3889 0b79 647900   		.ascii	"dy\000"
 3890 0b7c 01       		.byte	0x1
 3891 0b7d A704     		.2byte	0x4a7
 3892 0b7f 83000000 		.4byte	0x83
 3893 0b83 13090000 		.4byte	.LLST54
 3894 0b87 0E       		.uleb128 0xe
 3895 0b88 32050000 		.4byte	.LASF61
 3896 0b8c 01       		.byte	0x1
 3897 0b8d A804     		.2byte	0x4a8
 3898 0b8f 83000000 		.4byte	0x83
 3899 0b93 55090000 		.4byte	.LLST55
 3900 0b97 0E       		.uleb128 0xe
 3901 0b98 8A020000 		.4byte	.LASF62
 3902 0b9c 01       		.byte	0x1
 3903 0b9d A904     		.2byte	0x4a9
 3904 0b9f 83000000 		.4byte	0x83
 3905 0ba3 96090000 		.4byte	.LLST56
ARM GAS  C:\Users\JAMESS~1\AppData\Local\Temp\ccWH4kxb.s 			page 93


 3906 0ba7 0E       		.uleb128 0xe
 3907 0ba8 32030000 		.4byte	.LASF63
 3908 0bac 01       		.byte	0x1
 3909 0bad A904     		.2byte	0x4a9
 3910 0baf 83000000 		.4byte	0x83
 3911 0bb3 A9090000 		.4byte	.LLST57
 3912 0bb7 12       		.uleb128 0x12
 3913 0bb8 34000000 		.4byte	.LVL199
 3914 0bbc 03040000 		.4byte	0x403
 3915 0bc0 D20B0000 		.4byte	0xbd2
 3916 0bc4 13       		.uleb128 0x13
 3917 0bc5 01       		.uleb128 0x1
 3918 0bc6 50       		.byte	0x50
 3919 0bc7 02       		.uleb128 0x2
 3920 0bc8 74       		.byte	0x74
 3921 0bc9 00       		.sleb128 0
 3922 0bca 13       		.uleb128 0x13
 3923 0bcb 01       		.uleb128 0x1
 3924 0bcc 51       		.byte	0x51
 3925 0bcd 03       		.uleb128 0x3
 3926 0bce 7D       		.byte	0x7d
 3927 0bcf 00       		.sleb128 0
 3928 0bd0 06       		.byte	0x6
 3929 0bd1 00       		.byte	0
 3930 0bd2 15       		.uleb128 0x15
 3931 0bd3 58000000 		.4byte	.LVL206
 3932 0bd7 96010000 		.4byte	0x196
 3933 0bdb 13       		.uleb128 0x13
 3934 0bdc 01       		.uleb128 0x1
 3935 0bdd 50       		.byte	0x50
 3936 0bde 01       		.uleb128 0x1
 3937 0bdf 31       		.byte	0x31
 3938 0be0 00       		.byte	0
 3939 0be1 00       		.byte	0
 3940 0be2 06       		.uleb128 0x6
 3941 0be3 04       		.byte	0x4
 3942 0be4 77000000 		.4byte	0x77
 3943 0be8 18       		.uleb128 0x18
 3944 0be9 C0050000 		.4byte	.LASF65
 3945 0bed 01       		.byte	0x1
 3946 0bee C604     		.2byte	0x4c6
 3947 0bf0 77000000 		.4byte	0x77
 3948 0bf4 00000000 		.4byte	.LFB54
 3949 0bf8 74000000 		.4byte	.LFE54-.LFB54
 3950 0bfc 01       		.uleb128 0x1
 3951 0bfd 9C       		.byte	0x9c
 3952 0bfe 430C0000 		.4byte	0xc43
 3953 0c02 11       		.uleb128 0x11
 3954 0c03 1E020000 		.4byte	.LASF66
 3955 0c07 01       		.byte	0x1
 3956 0c08 C604     		.2byte	0x4c6
 3957 0c0a 77000000 		.4byte	0x77
 3958 0c0e BC090000 		.4byte	.LLST58
 3959 0c12 11       		.uleb128 0x11
 3960 0c13 4E030000 		.4byte	.LASF67
 3961 0c17 01       		.byte	0x1
 3962 0c18 C604     		.2byte	0x4c6
ARM GAS  C:\Users\JAMESS~1\AppData\Local\Temp\ccWH4kxb.s 			page 94


 3963 0c1a 77000000 		.4byte	0x77
 3964 0c1e E8090000 		.4byte	.LLST59
 3965 0c22 0D       		.uleb128 0xd
 3966 0c23 70637400 		.ascii	"pct\000"
 3967 0c27 01       		.byte	0x1
 3968 0c28 C604     		.2byte	0x4c6
 3969 0c2a 77000000 		.4byte	0x77
 3970 0c2e 140A0000 		.4byte	.LLST60
 3971 0c32 0E       		.uleb128 0xe
 3972 0c33 9B050000 		.4byte	.LASF68
 3973 0c37 01       		.byte	0x1
 3974 0c38 C804     		.2byte	0x4c8
 3975 0c3a 77000000 		.4byte	0x77
 3976 0c3e 400A0000 		.4byte	.LLST61
 3977 0c42 00       		.byte	0
 3978 0c43 20       		.uleb128 0x20
 3979 0c44 4A0C0000 		.4byte	0xc4a
 3980 0c48 21       		.uleb128 0x21
 3981 0c49 00       		.byte	0
 3982 0c4a 22       		.uleb128 0x22
 3983 0c4b E1000000 		.4byte	.LASF69
 3984 0c4f 01       		.byte	0x1
 3985 0c50 19       		.byte	0x19
 3986 0c51 5B0C0000 		.4byte	0xc5b
 3987 0c55 05       		.uleb128 0x5
 3988 0c56 03       		.byte	0x3
 3989 0c57 00000000 		.4byte	StripLights_EnterCritical
 3990 0c5b 06       		.uleb128 0x6
 3991 0c5c 04       		.byte	0x4
 3992 0c5d 430C0000 		.4byte	0xc43
 3993 0c61 22       		.uleb128 0x22
 3994 0c62 6A040000 		.4byte	.LASF70
 3995 0c66 01       		.byte	0x1
 3996 0c67 1A       		.byte	0x1a
 3997 0c68 5B0C0000 		.4byte	0xc5b
 3998 0c6c 05       		.uleb128 0x5
 3999 0c6d 03       		.byte	0x3
 4000 0c6e 00000000 		.4byte	StripLights_ExitCritical
 4001 0c72 22       		.uleb128 0x22
 4002 0c73 F6010000 		.4byte	.LASF57
 4003 0c77 01       		.byte	0x1
 4004 0c78 1D       		.byte	0x1d
 4005 0c79 6B000000 		.4byte	0x6b
 4006 0c7d 05       		.uleb128 0x5
 4007 0c7e 03       		.byte	0x3
 4008 0c7f 00000000 		.4byte	StripLights_initvar
 4009 0c83 19       		.uleb128 0x19
 4010 0c84 77000000 		.4byte	0x77
 4011 0c88 990C0000 		.4byte	0xc99
 4012 0c8c 1A       		.uleb128 0x1a
 4013 0c8d C7000000 		.4byte	0xc7
 4014 0c91 00       		.byte	0
 4015 0c92 1A       		.uleb128 0x1a
 4016 0c93 C7000000 		.4byte	0xc7
 4017 0c97 2C       		.byte	0x2c
 4018 0c98 00       		.byte	0
 4019 0c99 22       		.uleb128 0x22
ARM GAS  C:\Users\JAMESS~1\AppData\Local\Temp\ccWH4kxb.s 			page 95


 4020 0c9a AD000000 		.4byte	.LASF71
 4021 0c9e 01       		.byte	0x1
 4022 0c9f 20       		.byte	0x20
 4023 0ca0 830C0000 		.4byte	0xc83
 4024 0ca4 05       		.uleb128 0x5
 4025 0ca5 03       		.byte	0x3
 4026 0ca6 00000000 		.4byte	StripLights_ledArray
 4027 0caa 22       		.uleb128 0x22
 4028 0cab B7030000 		.4byte	.LASF72
 4029 0caf 01       		.byte	0x1
 4030 0cb0 25       		.byte	0x25
 4031 0cb1 77000000 		.4byte	0x77
 4032 0cb5 05       		.uleb128 0x5
 4033 0cb6 03       		.byte	0x3
 4034 0cb7 00000000 		.4byte	StripLights_ledIndex
 4035 0cbb 22       		.uleb128 0x22
 4036 0cbc 83050000 		.4byte	.LASF73
 4037 0cc0 01       		.byte	0x1
 4038 0cc1 26       		.byte	0x26
 4039 0cc2 77000000 		.4byte	0x77
 4040 0cc6 05       		.uleb128 0x5
 4041 0cc7 03       		.byte	0x3
 4042 0cc8 00000000 		.4byte	StripLights_row
 4043 0ccc 23       		.uleb128 0x23
 4044 0ccd 9B030000 		.4byte	.LASF24
 4045 0cd1 01       		.byte	0x1
 4046 0cd2 8B02     		.2byte	0x28b
 4047 0cd4 77000000 		.4byte	0x77
 4048 0cd8 05       		.uleb128 0x5
 4049 0cd9 03       		.byte	0x3
 4050 0cda 00000000 		.4byte	StripLights_refreshComplete
 4051 0cde 23       		.uleb128 0x23
 4052 0cdf A0010000 		.4byte	.LASF19
 4053 0ce3 01       		.byte	0x1
 4054 0ce4 5004     		.2byte	0x450
 4055 0ce6 77000000 		.4byte	0x77
 4056 0cea 05       		.uleb128 0x5
 4057 0ceb 03       		.byte	0x3
 4058 0cec 00000000 		.4byte	StripLights_DimMask
 4059 0cf0 23       		.uleb128 0x23
 4060 0cf1 3A000000 		.4byte	.LASF20
 4061 0cf5 01       		.byte	0x1
 4062 0cf6 5104     		.2byte	0x451
 4063 0cf8 77000000 		.4byte	0x77
 4064 0cfc 05       		.uleb128 0x5
 4065 0cfd 03       		.byte	0x3
 4066 0cfe 00000000 		.4byte	StripLights_DimShift
 4067 0d02 19       		.uleb128 0x19
 4068 0d03 120D0000 		.4byte	0xd12
 4069 0d07 120D0000 		.4byte	0xd12
 4070 0d0b 1A       		.uleb128 0x1a
 4071 0d0c C7000000 		.4byte	0xc7
 4072 0d10 FF       		.byte	0xff
 4073 0d11 00       		.byte	0
 4074 0d12 1B       		.uleb128 0x1b
 4075 0d13 6B000000 		.4byte	0x6b
 4076 0d17 22       		.uleb128 0x22
ARM GAS  C:\Users\JAMESS~1\AppData\Local\Temp\ccWH4kxb.s 			page 96


 4077 0d18 FB000000 		.4byte	.LASF74
 4078 0d1c 01       		.byte	0x1
 4079 0d1d 2D       		.byte	0x2d
 4080 0d1e 280D0000 		.4byte	0xd28
 4081 0d22 05       		.uleb128 0x5
 4082 0d23 03       		.byte	0x3
 4083 0d24 00000000 		.4byte	StripLights_gamma
 4084 0d28 1B       		.uleb128 0x1b
 4085 0d29 020D0000 		.4byte	0xd02
 4086 0d2d 22       		.uleb128 0x22
 4087 0d2e 00000000 		.4byte	.LASF36
 4088 0d32 01       		.byte	0x1
 4089 0d33 57       		.byte	0x57
 4090 0d34 3E0D0000 		.4byte	0xd3e
 4091 0d38 05       		.uleb128 0x5
 4092 0d39 03       		.byte	0x3
 4093 0d3a 00000000 		.4byte	StripLights_CLUT
 4094 0d3e 1B       		.uleb128 0x1b
 4095 0d3f 32030000 		.4byte	0x332
 4096 0d43 24       		.uleb128 0x24
 4097 0d44 E3020000 		.4byte	.LASF75
 4098 0d48 E3020000 		.4byte	.LASF75
 4099 0d4c 04       		.byte	0x4
 4100 0d4d DA       		.byte	0xda
 4101 0d4e 24       		.uleb128 0x24
 4102 0d4f 5F000000 		.4byte	.LASF76
 4103 0d53 5F000000 		.4byte	.LASF76
 4104 0d57 05       		.byte	0x5
 4105 0d58 1B       		.byte	0x1b
 4106 0d59 24       		.uleb128 0x24
 4107 0d5a C2000000 		.4byte	.LASF77
 4108 0d5e C2000000 		.4byte	.LASF77
 4109 0d62 06       		.byte	0x6
 4110 0d63 18       		.byte	0x18
 4111 0d64 24       		.uleb128 0x24
 4112 0d65 95040000 		.4byte	.LASF78
 4113 0d69 95040000 		.4byte	.LASF78
 4114 0d6d 07       		.byte	0x7
 4115 0d6e 18       		.byte	0x18
 4116 0d6f 24       		.uleb128 0x24
 4117 0d70 56030000 		.4byte	.LASF79
 4118 0d74 56030000 		.4byte	.LASF79
 4119 0d78 06       		.byte	0x6
 4120 0d79 20       		.byte	0x20
 4121 0d7a 24       		.uleb128 0x24
 4122 0d7b 00050000 		.4byte	.LASF80
 4123 0d7f 00050000 		.4byte	.LASF80
 4124 0d83 07       		.byte	0x7
 4125 0d84 20       		.byte	0x20
 4126 0d85 00       		.byte	0
 4127              		.section	.debug_abbrev,"",%progbits
 4128              	.Ldebug_abbrev0:
 4129 0000 01       		.uleb128 0x1
 4130 0001 11       		.uleb128 0x11
 4131 0002 01       		.byte	0x1
 4132 0003 25       		.uleb128 0x25
 4133 0004 0E       		.uleb128 0xe
ARM GAS  C:\Users\JAMESS~1\AppData\Local\Temp\ccWH4kxb.s 			page 97


 4134 0005 13       		.uleb128 0x13
 4135 0006 0B       		.uleb128 0xb
 4136 0007 03       		.uleb128 0x3
 4137 0008 0E       		.uleb128 0xe
 4138 0009 1B       		.uleb128 0x1b
 4139 000a 0E       		.uleb128 0xe
 4140 000b 55       		.uleb128 0x55
 4141 000c 17       		.uleb128 0x17
 4142 000d 11       		.uleb128 0x11
 4143 000e 01       		.uleb128 0x1
 4144 000f 10       		.uleb128 0x10
 4145 0010 17       		.uleb128 0x17
 4146 0011 00       		.byte	0
 4147 0012 00       		.byte	0
 4148 0013 02       		.uleb128 0x2
 4149 0014 24       		.uleb128 0x24
 4150 0015 00       		.byte	0
 4151 0016 0B       		.uleb128 0xb
 4152 0017 0B       		.uleb128 0xb
 4153 0018 3E       		.uleb128 0x3e
 4154 0019 0B       		.uleb128 0xb
 4155 001a 03       		.uleb128 0x3
 4156 001b 0E       		.uleb128 0xe
 4157 001c 00       		.byte	0
 4158 001d 00       		.byte	0
 4159 001e 03       		.uleb128 0x3
 4160 001f 24       		.uleb128 0x24
 4161 0020 00       		.byte	0
 4162 0021 0B       		.uleb128 0xb
 4163 0022 0B       		.uleb128 0xb
 4164 0023 3E       		.uleb128 0x3e
 4165 0024 0B       		.uleb128 0xb
 4166 0025 03       		.uleb128 0x3
 4167 0026 08       		.uleb128 0x8
 4168 0027 00       		.byte	0
 4169 0028 00       		.byte	0
 4170 0029 04       		.uleb128 0x4
 4171 002a 16       		.uleb128 0x16
 4172 002b 00       		.byte	0
 4173 002c 03       		.uleb128 0x3
 4174 002d 0E       		.uleb128 0xe
 4175 002e 3A       		.uleb128 0x3a
 4176 002f 0B       		.uleb128 0xb
 4177 0030 3B       		.uleb128 0x3b
 4178 0031 05       		.uleb128 0x5
 4179 0032 49       		.uleb128 0x49
 4180 0033 13       		.uleb128 0x13
 4181 0034 00       		.byte	0
 4182 0035 00       		.byte	0
 4183 0036 05       		.uleb128 0x5
 4184 0037 35       		.uleb128 0x35
 4185 0038 00       		.byte	0
 4186 0039 49       		.uleb128 0x49
 4187 003a 13       		.uleb128 0x13
 4188 003b 00       		.byte	0
 4189 003c 00       		.byte	0
 4190 003d 06       		.uleb128 0x6
ARM GAS  C:\Users\JAMESS~1\AppData\Local\Temp\ccWH4kxb.s 			page 98


 4191 003e 0F       		.uleb128 0xf
 4192 003f 00       		.byte	0
 4193 0040 0B       		.uleb128 0xb
 4194 0041 0B       		.uleb128 0xb
 4195 0042 49       		.uleb128 0x49
 4196 0043 13       		.uleb128 0x13
 4197 0044 00       		.byte	0
 4198 0045 00       		.byte	0
 4199 0046 07       		.uleb128 0x7
 4200 0047 15       		.uleb128 0x15
 4201 0048 00       		.byte	0
 4202 0049 27       		.uleb128 0x27
 4203 004a 19       		.uleb128 0x19
 4204 004b 00       		.byte	0
 4205 004c 00       		.byte	0
 4206 004d 08       		.uleb128 0x8
 4207 004e 16       		.uleb128 0x16
 4208 004f 00       		.byte	0
 4209 0050 03       		.uleb128 0x3
 4210 0051 0E       		.uleb128 0xe
 4211 0052 3A       		.uleb128 0x3a
 4212 0053 0B       		.uleb128 0xb
 4213 0054 3B       		.uleb128 0x3b
 4214 0055 0B       		.uleb128 0xb
 4215 0056 49       		.uleb128 0x49
 4216 0057 13       		.uleb128 0x13
 4217 0058 00       		.byte	0
 4218 0059 00       		.byte	0
 4219 005a 09       		.uleb128 0x9
 4220 005b 2E       		.uleb128 0x2e
 4221 005c 01       		.byte	0x1
 4222 005d 3F       		.uleb128 0x3f
 4223 005e 19       		.uleb128 0x19
 4224 005f 03       		.uleb128 0x3
 4225 0060 0E       		.uleb128 0xe
 4226 0061 3A       		.uleb128 0x3a
 4227 0062 0B       		.uleb128 0xb
 4228 0063 3B       		.uleb128 0x3b
 4229 0064 05       		.uleb128 0x5
 4230 0065 27       		.uleb128 0x27
 4231 0066 19       		.uleb128 0x19
 4232 0067 11       		.uleb128 0x11
 4233 0068 01       		.uleb128 0x1
 4234 0069 12       		.uleb128 0x12
 4235 006a 06       		.uleb128 0x6
 4236 006b 40       		.uleb128 0x40
 4237 006c 18       		.uleb128 0x18
 4238 006d 9742     		.uleb128 0x2117
 4239 006f 19       		.uleb128 0x19
 4240 0070 01       		.uleb128 0x1
 4241 0071 13       		.uleb128 0x13
 4242 0072 00       		.byte	0
 4243 0073 00       		.byte	0
 4244 0074 0A       		.uleb128 0xa
 4245 0075 34       		.uleb128 0x34
 4246 0076 00       		.byte	0
 4247 0077 03       		.uleb128 0x3
ARM GAS  C:\Users\JAMESS~1\AppData\Local\Temp\ccWH4kxb.s 			page 99


 4248 0078 0E       		.uleb128 0xe
 4249 0079 3A       		.uleb128 0x3a
 4250 007a 0B       		.uleb128 0xb
 4251 007b 3B       		.uleb128 0x3b
 4252 007c 05       		.uleb128 0x5
 4253 007d 49       		.uleb128 0x49
 4254 007e 13       		.uleb128 0x13
 4255 007f 3F       		.uleb128 0x3f
 4256 0080 19       		.uleb128 0x19
 4257 0081 3C       		.uleb128 0x3c
 4258 0082 19       		.uleb128 0x19
 4259 0083 00       		.byte	0
 4260 0084 00       		.byte	0
 4261 0085 0B       		.uleb128 0xb
 4262 0086 34       		.uleb128 0x34
 4263 0087 00       		.byte	0
 4264 0088 03       		.uleb128 0x3
 4265 0089 0E       		.uleb128 0xe
 4266 008a 3A       		.uleb128 0x3a
 4267 008b 0B       		.uleb128 0xb
 4268 008c 3B       		.uleb128 0x3b
 4269 008d 05       		.uleb128 0x5
 4270 008e 49       		.uleb128 0x49
 4271 008f 13       		.uleb128 0x13
 4272 0090 02       		.uleb128 0x2
 4273 0091 18       		.uleb128 0x18
 4274 0092 00       		.byte	0
 4275 0093 00       		.byte	0
 4276 0094 0C       		.uleb128 0xc
 4277 0095 05       		.uleb128 0x5
 4278 0096 00       		.byte	0
 4279 0097 03       		.uleb128 0x3
 4280 0098 0E       		.uleb128 0xe
 4281 0099 3A       		.uleb128 0x3a
 4282 009a 0B       		.uleb128 0xb
 4283 009b 3B       		.uleb128 0x3b
 4284 009c 05       		.uleb128 0x5
 4285 009d 49       		.uleb128 0x49
 4286 009e 13       		.uleb128 0x13
 4287 009f 02       		.uleb128 0x2
 4288 00a0 18       		.uleb128 0x18
 4289 00a1 00       		.byte	0
 4290 00a2 00       		.byte	0
 4291 00a3 0D       		.uleb128 0xd
 4292 00a4 05       		.uleb128 0x5
 4293 00a5 00       		.byte	0
 4294 00a6 03       		.uleb128 0x3
 4295 00a7 08       		.uleb128 0x8
 4296 00a8 3A       		.uleb128 0x3a
 4297 00a9 0B       		.uleb128 0xb
 4298 00aa 3B       		.uleb128 0x3b
 4299 00ab 05       		.uleb128 0x5
 4300 00ac 49       		.uleb128 0x49
 4301 00ad 13       		.uleb128 0x13
 4302 00ae 02       		.uleb128 0x2
 4303 00af 17       		.uleb128 0x17
 4304 00b0 00       		.byte	0
ARM GAS  C:\Users\JAMESS~1\AppData\Local\Temp\ccWH4kxb.s 			page 100


 4305 00b1 00       		.byte	0
 4306 00b2 0E       		.uleb128 0xe
 4307 00b3 34       		.uleb128 0x34
 4308 00b4 00       		.byte	0
 4309 00b5 03       		.uleb128 0x3
 4310 00b6 0E       		.uleb128 0xe
 4311 00b7 3A       		.uleb128 0x3a
 4312 00b8 0B       		.uleb128 0xb
 4313 00b9 3B       		.uleb128 0x3b
 4314 00ba 05       		.uleb128 0x5
 4315 00bb 49       		.uleb128 0x49
 4316 00bc 13       		.uleb128 0x13
 4317 00bd 02       		.uleb128 0x2
 4318 00be 17       		.uleb128 0x17
 4319 00bf 00       		.byte	0
 4320 00c0 00       		.byte	0
 4321 00c1 0F       		.uleb128 0xf
 4322 00c2 2E       		.uleb128 0x2e
 4323 00c3 00       		.byte	0
 4324 00c4 3F       		.uleb128 0x3f
 4325 00c5 19       		.uleb128 0x19
 4326 00c6 03       		.uleb128 0x3
 4327 00c7 0E       		.uleb128 0xe
 4328 00c8 3A       		.uleb128 0x3a
 4329 00c9 0B       		.uleb128 0xb
 4330 00ca 3B       		.uleb128 0x3b
 4331 00cb 05       		.uleb128 0x5
 4332 00cc 27       		.uleb128 0x27
 4333 00cd 19       		.uleb128 0x19
 4334 00ce 49       		.uleb128 0x49
 4335 00cf 13       		.uleb128 0x13
 4336 00d0 11       		.uleb128 0x11
 4337 00d1 01       		.uleb128 0x1
 4338 00d2 12       		.uleb128 0x12
 4339 00d3 06       		.uleb128 0x6
 4340 00d4 40       		.uleb128 0x40
 4341 00d5 18       		.uleb128 0x18
 4342 00d6 9742     		.uleb128 0x2117
 4343 00d8 19       		.uleb128 0x19
 4344 00d9 00       		.byte	0
 4345 00da 00       		.byte	0
 4346 00db 10       		.uleb128 0x10
 4347 00dc 2E       		.uleb128 0x2e
 4348 00dd 01       		.byte	0x1
 4349 00de 3F       		.uleb128 0x3f
 4350 00df 19       		.uleb128 0x19
 4351 00e0 03       		.uleb128 0x3
 4352 00e1 0E       		.uleb128 0xe
 4353 00e2 3A       		.uleb128 0x3a
 4354 00e3 0B       		.uleb128 0xb
 4355 00e4 3B       		.uleb128 0x3b
 4356 00e5 05       		.uleb128 0x5
 4357 00e6 27       		.uleb128 0x27
 4358 00e7 19       		.uleb128 0x19
 4359 00e8 11       		.uleb128 0x11
 4360 00e9 01       		.uleb128 0x1
 4361 00ea 12       		.uleb128 0x12
ARM GAS  C:\Users\JAMESS~1\AppData\Local\Temp\ccWH4kxb.s 			page 101


 4362 00eb 06       		.uleb128 0x6
 4363 00ec 40       		.uleb128 0x40
 4364 00ed 18       		.uleb128 0x18
 4365 00ee 9642     		.uleb128 0x2116
 4366 00f0 19       		.uleb128 0x19
 4367 00f1 01       		.uleb128 0x1
 4368 00f2 13       		.uleb128 0x13
 4369 00f3 00       		.byte	0
 4370 00f4 00       		.byte	0
 4371 00f5 11       		.uleb128 0x11
 4372 00f6 05       		.uleb128 0x5
 4373 00f7 00       		.byte	0
 4374 00f8 03       		.uleb128 0x3
 4375 00f9 0E       		.uleb128 0xe
 4376 00fa 3A       		.uleb128 0x3a
 4377 00fb 0B       		.uleb128 0xb
 4378 00fc 3B       		.uleb128 0x3b
 4379 00fd 05       		.uleb128 0x5
 4380 00fe 49       		.uleb128 0x49
 4381 00ff 13       		.uleb128 0x13
 4382 0100 02       		.uleb128 0x2
 4383 0101 17       		.uleb128 0x17
 4384 0102 00       		.byte	0
 4385 0103 00       		.byte	0
 4386 0104 12       		.uleb128 0x12
 4387 0105 898201   		.uleb128 0x4109
 4388 0108 01       		.byte	0x1
 4389 0109 11       		.uleb128 0x11
 4390 010a 01       		.uleb128 0x1
 4391 010b 31       		.uleb128 0x31
 4392 010c 13       		.uleb128 0x13
 4393 010d 01       		.uleb128 0x1
 4394 010e 13       		.uleb128 0x13
 4395 010f 00       		.byte	0
 4396 0110 00       		.byte	0
 4397 0111 13       		.uleb128 0x13
 4398 0112 8A8201   		.uleb128 0x410a
 4399 0115 00       		.byte	0
 4400 0116 02       		.uleb128 0x2
 4401 0117 18       		.uleb128 0x18
 4402 0118 9142     		.uleb128 0x2111
 4403 011a 18       		.uleb128 0x18
 4404 011b 00       		.byte	0
 4405 011c 00       		.byte	0
 4406 011d 14       		.uleb128 0x14
 4407 011e 898201   		.uleb128 0x4109
 4408 0121 00       		.byte	0
 4409 0122 11       		.uleb128 0x11
 4410 0123 01       		.uleb128 0x1
 4411 0124 31       		.uleb128 0x31
 4412 0125 13       		.uleb128 0x13
 4413 0126 00       		.byte	0
 4414 0127 00       		.byte	0
 4415 0128 15       		.uleb128 0x15
 4416 0129 898201   		.uleb128 0x4109
 4417 012c 01       		.byte	0x1
 4418 012d 11       		.uleb128 0x11
ARM GAS  C:\Users\JAMESS~1\AppData\Local\Temp\ccWH4kxb.s 			page 102


 4419 012e 01       		.uleb128 0x1
 4420 012f 31       		.uleb128 0x31
 4421 0130 13       		.uleb128 0x13
 4422 0131 00       		.byte	0
 4423 0132 00       		.byte	0
 4424 0133 16       		.uleb128 0x16
 4425 0134 2E       		.uleb128 0x2e
 4426 0135 00       		.byte	0
 4427 0136 3F       		.uleb128 0x3f
 4428 0137 19       		.uleb128 0x19
 4429 0138 03       		.uleb128 0x3
 4430 0139 0E       		.uleb128 0xe
 4431 013a 3A       		.uleb128 0x3a
 4432 013b 0B       		.uleb128 0xb
 4433 013c 3B       		.uleb128 0x3b
 4434 013d 05       		.uleb128 0x5
 4435 013e 27       		.uleb128 0x27
 4436 013f 19       		.uleb128 0x19
 4437 0140 11       		.uleb128 0x11
 4438 0141 01       		.uleb128 0x1
 4439 0142 12       		.uleb128 0x12
 4440 0143 06       		.uleb128 0x6
 4441 0144 40       		.uleb128 0x40
 4442 0145 18       		.uleb128 0x18
 4443 0146 9742     		.uleb128 0x2117
 4444 0148 19       		.uleb128 0x19
 4445 0149 00       		.byte	0
 4446 014a 00       		.byte	0
 4447 014b 17       		.uleb128 0x17
 4448 014c 2E       		.uleb128 0x2e
 4449 014d 01       		.byte	0x1
 4450 014e 3F       		.uleb128 0x3f
 4451 014f 19       		.uleb128 0x19
 4452 0150 03       		.uleb128 0x3
 4453 0151 0E       		.uleb128 0xe
 4454 0152 3A       		.uleb128 0x3a
 4455 0153 0B       		.uleb128 0xb
 4456 0154 3B       		.uleb128 0x3b
 4457 0155 05       		.uleb128 0x5
 4458 0156 27       		.uleb128 0x27
 4459 0157 19       		.uleb128 0x19
 4460 0158 49       		.uleb128 0x49
 4461 0159 13       		.uleb128 0x13
 4462 015a 11       		.uleb128 0x11
 4463 015b 01       		.uleb128 0x1
 4464 015c 12       		.uleb128 0x12
 4465 015d 06       		.uleb128 0x6
 4466 015e 40       		.uleb128 0x40
 4467 015f 18       		.uleb128 0x18
 4468 0160 9742     		.uleb128 0x2117
 4469 0162 19       		.uleb128 0x19
 4470 0163 01       		.uleb128 0x1
 4471 0164 13       		.uleb128 0x13
 4472 0165 00       		.byte	0
 4473 0166 00       		.byte	0
 4474 0167 18       		.uleb128 0x18
 4475 0168 2E       		.uleb128 0x2e
ARM GAS  C:\Users\JAMESS~1\AppData\Local\Temp\ccWH4kxb.s 			page 103


 4476 0169 01       		.byte	0x1
 4477 016a 3F       		.uleb128 0x3f
 4478 016b 19       		.uleb128 0x19
 4479 016c 03       		.uleb128 0x3
 4480 016d 0E       		.uleb128 0xe
 4481 016e 3A       		.uleb128 0x3a
 4482 016f 0B       		.uleb128 0xb
 4483 0170 3B       		.uleb128 0x3b
 4484 0171 05       		.uleb128 0x5
 4485 0172 27       		.uleb128 0x27
 4486 0173 19       		.uleb128 0x19
 4487 0174 49       		.uleb128 0x49
 4488 0175 13       		.uleb128 0x13
 4489 0176 11       		.uleb128 0x11
 4490 0177 01       		.uleb128 0x1
 4491 0178 12       		.uleb128 0x12
 4492 0179 06       		.uleb128 0x6
 4493 017a 40       		.uleb128 0x40
 4494 017b 18       		.uleb128 0x18
 4495 017c 9642     		.uleb128 0x2116
 4496 017e 19       		.uleb128 0x19
 4497 017f 01       		.uleb128 0x1
 4498 0180 13       		.uleb128 0x13
 4499 0181 00       		.byte	0
 4500 0182 00       		.byte	0
 4501 0183 19       		.uleb128 0x19
 4502 0184 01       		.uleb128 0x1
 4503 0185 01       		.byte	0x1
 4504 0186 49       		.uleb128 0x49
 4505 0187 13       		.uleb128 0x13
 4506 0188 01       		.uleb128 0x1
 4507 0189 13       		.uleb128 0x13
 4508 018a 00       		.byte	0
 4509 018b 00       		.byte	0
 4510 018c 1A       		.uleb128 0x1a
 4511 018d 21       		.uleb128 0x21
 4512 018e 00       		.byte	0
 4513 018f 49       		.uleb128 0x49
 4514 0190 13       		.uleb128 0x13
 4515 0191 2F       		.uleb128 0x2f
 4516 0192 0B       		.uleb128 0xb
 4517 0193 00       		.byte	0
 4518 0194 00       		.byte	0
 4519 0195 1B       		.uleb128 0x1b
 4520 0196 26       		.uleb128 0x26
 4521 0197 00       		.byte	0
 4522 0198 49       		.uleb128 0x49
 4523 0199 13       		.uleb128 0x13
 4524 019a 00       		.byte	0
 4525 019b 00       		.byte	0
 4526 019c 1C       		.uleb128 0x1c
 4527 019d 34       		.uleb128 0x34
 4528 019e 00       		.byte	0
 4529 019f 03       		.uleb128 0x3
 4530 01a0 08       		.uleb128 0x8
 4531 01a1 3A       		.uleb128 0x3a
 4532 01a2 0B       		.uleb128 0xb
ARM GAS  C:\Users\JAMESS~1\AppData\Local\Temp\ccWH4kxb.s 			page 104


 4533 01a3 3B       		.uleb128 0x3b
 4534 01a4 05       		.uleb128 0x5
 4535 01a5 49       		.uleb128 0x49
 4536 01a6 13       		.uleb128 0x13
 4537 01a7 02       		.uleb128 0x2
 4538 01a8 17       		.uleb128 0x17
 4539 01a9 00       		.byte	0
 4540 01aa 00       		.byte	0
 4541 01ab 1D       		.uleb128 0x1d
 4542 01ac 0B       		.uleb128 0xb
 4543 01ad 01       		.byte	0x1
 4544 01ae 11       		.uleb128 0x11
 4545 01af 01       		.uleb128 0x1
 4546 01b0 12       		.uleb128 0x12
 4547 01b1 06       		.uleb128 0x6
 4548 01b2 01       		.uleb128 0x1
 4549 01b3 13       		.uleb128 0x13
 4550 01b4 00       		.byte	0
 4551 01b5 00       		.byte	0
 4552 01b6 1E       		.uleb128 0x1e
 4553 01b7 2E       		.uleb128 0x2e
 4554 01b8 01       		.byte	0x1
 4555 01b9 3F       		.uleb128 0x3f
 4556 01ba 19       		.uleb128 0x19
 4557 01bb 03       		.uleb128 0x3
 4558 01bc 0E       		.uleb128 0xe
 4559 01bd 3A       		.uleb128 0x3a
 4560 01be 0B       		.uleb128 0xb
 4561 01bf 3B       		.uleb128 0x3b
 4562 01c0 0B       		.uleb128 0xb
 4563 01c1 27       		.uleb128 0x27
 4564 01c2 19       		.uleb128 0x19
 4565 01c3 11       		.uleb128 0x11
 4566 01c4 01       		.uleb128 0x1
 4567 01c5 12       		.uleb128 0x12
 4568 01c6 06       		.uleb128 0x6
 4569 01c7 40       		.uleb128 0x40
 4570 01c8 18       		.uleb128 0x18
 4571 01c9 9742     		.uleb128 0x2117
 4572 01cb 19       		.uleb128 0x19
 4573 01cc 01       		.uleb128 0x1
 4574 01cd 13       		.uleb128 0x13
 4575 01ce 00       		.byte	0
 4576 01cf 00       		.byte	0
 4577 01d0 1F       		.uleb128 0x1f
 4578 01d1 34       		.uleb128 0x34
 4579 01d2 00       		.byte	0
 4580 01d3 03       		.uleb128 0x3
 4581 01d4 0E       		.uleb128 0xe
 4582 01d5 3A       		.uleb128 0x3a
 4583 01d6 0B       		.uleb128 0xb
 4584 01d7 3B       		.uleb128 0x3b
 4585 01d8 0B       		.uleb128 0xb
 4586 01d9 49       		.uleb128 0x49
 4587 01da 13       		.uleb128 0x13
 4588 01db 3F       		.uleb128 0x3f
 4589 01dc 19       		.uleb128 0x19
ARM GAS  C:\Users\JAMESS~1\AppData\Local\Temp\ccWH4kxb.s 			page 105


 4590 01dd 3C       		.uleb128 0x3c
 4591 01de 19       		.uleb128 0x19
 4592 01df 00       		.byte	0
 4593 01e0 00       		.byte	0
 4594 01e1 20       		.uleb128 0x20
 4595 01e2 15       		.uleb128 0x15
 4596 01e3 01       		.byte	0x1
 4597 01e4 01       		.uleb128 0x1
 4598 01e5 13       		.uleb128 0x13
 4599 01e6 00       		.byte	0
 4600 01e7 00       		.byte	0
 4601 01e8 21       		.uleb128 0x21
 4602 01e9 18       		.uleb128 0x18
 4603 01ea 00       		.byte	0
 4604 01eb 00       		.byte	0
 4605 01ec 00       		.byte	0
 4606 01ed 22       		.uleb128 0x22
 4607 01ee 34       		.uleb128 0x34
 4608 01ef 00       		.byte	0
 4609 01f0 03       		.uleb128 0x3
 4610 01f1 0E       		.uleb128 0xe
 4611 01f2 3A       		.uleb128 0x3a
 4612 01f3 0B       		.uleb128 0xb
 4613 01f4 3B       		.uleb128 0x3b
 4614 01f5 0B       		.uleb128 0xb
 4615 01f6 49       		.uleb128 0x49
 4616 01f7 13       		.uleb128 0x13
 4617 01f8 3F       		.uleb128 0x3f
 4618 01f9 19       		.uleb128 0x19
 4619 01fa 02       		.uleb128 0x2
 4620 01fb 18       		.uleb128 0x18
 4621 01fc 00       		.byte	0
 4622 01fd 00       		.byte	0
 4623 01fe 23       		.uleb128 0x23
 4624 01ff 34       		.uleb128 0x34
 4625 0200 00       		.byte	0
 4626 0201 03       		.uleb128 0x3
 4627 0202 0E       		.uleb128 0xe
 4628 0203 3A       		.uleb128 0x3a
 4629 0204 0B       		.uleb128 0xb
 4630 0205 3B       		.uleb128 0x3b
 4631 0206 05       		.uleb128 0x5
 4632 0207 49       		.uleb128 0x49
 4633 0208 13       		.uleb128 0x13
 4634 0209 3F       		.uleb128 0x3f
 4635 020a 19       		.uleb128 0x19
 4636 020b 02       		.uleb128 0x2
 4637 020c 18       		.uleb128 0x18
 4638 020d 00       		.byte	0
 4639 020e 00       		.byte	0
 4640 020f 24       		.uleb128 0x24
 4641 0210 2E       		.uleb128 0x2e
 4642 0211 00       		.byte	0
 4643 0212 3F       		.uleb128 0x3f
 4644 0213 19       		.uleb128 0x19
 4645 0214 3C       		.uleb128 0x3c
 4646 0215 19       		.uleb128 0x19
ARM GAS  C:\Users\JAMESS~1\AppData\Local\Temp\ccWH4kxb.s 			page 106


 4647 0216 6E       		.uleb128 0x6e
 4648 0217 0E       		.uleb128 0xe
 4649 0218 03       		.uleb128 0x3
 4650 0219 0E       		.uleb128 0xe
 4651 021a 3A       		.uleb128 0x3a
 4652 021b 0B       		.uleb128 0xb
 4653 021c 3B       		.uleb128 0x3b
 4654 021d 0B       		.uleb128 0xb
 4655 021e 00       		.byte	0
 4656 021f 00       		.byte	0
 4657 0220 00       		.byte	0
 4658              		.section	.debug_loc,"",%progbits
 4659              	.Ldebug_loc0:
 4660              	.LLST0:
 4661 0000 00000000 		.4byte	.LVL1
 4662 0004 2A000000 		.4byte	.LVL5
 4663 0008 0100     		.2byte	0x1
 4664 000a 50       		.byte	0x50
 4665 000b 2A000000 		.4byte	.LVL5
 4666 000f 7C000000 		.4byte	.LFE36
 4667 0013 0400     		.2byte	0x4
 4668 0015 F3       		.byte	0xf3
 4669 0016 01       		.uleb128 0x1
 4670 0017 50       		.byte	0x50
 4671 0018 9F       		.byte	0x9f
 4672 0019 00000000 		.4byte	0
 4673 001d 00000000 		.4byte	0
 4674              	.LLST1:
 4675 0021 1C000000 		.4byte	.LVL2
 4676 0025 22000000 		.4byte	.LVL3
 4677 0029 0100     		.2byte	0x1
 4678 002b 53       		.byte	0x53
 4679 002c 22000000 		.4byte	.LVL3
 4680 0030 28000000 		.4byte	.LVL4
 4681 0034 0F00     		.2byte	0xf
 4682 0036 03       		.byte	0x3
 4683 0037 00000000 		.4byte	StripLights_row
 4684 003b 06       		.byte	0x6
 4685 003c 08       		.byte	0x8
 4686 003d B4       		.byte	0xb4
 4687 003e 1E       		.byte	0x1e
 4688 003f 03       		.byte	0x3
 4689 0040 00000000 		.4byte	StripLights_ledArray
 4690 0044 22       		.byte	0x22
 4691 0045 28000000 		.4byte	.LVL4
 4692 0049 38000000 		.4byte	.LVL6
 4693 004d 0100     		.2byte	0x1
 4694 004f 53       		.byte	0x53
 4695 0050 38000000 		.4byte	.LVL6
 4696 0054 3A000000 		.4byte	.LVL7
 4697 0058 0100     		.2byte	0x1
 4698 005a 54       		.byte	0x54
 4699 005b 3A000000 		.4byte	.LVL7
 4700 005f 40000000 		.4byte	.LVL8
 4701 0063 0500     		.2byte	0x5
 4702 0065 73       		.byte	0x73
 4703 0066 00       		.sleb128 0
ARM GAS  C:\Users\JAMESS~1\AppData\Local\Temp\ccWH4kxb.s 			page 107


 4704 0067 38       		.byte	0x38
 4705 0068 25       		.byte	0x25
 4706 0069 9F       		.byte	0x9f
 4707 006a 40000000 		.4byte	.LVL8
 4708 006e 42000000 		.4byte	.LVL9
 4709 0072 0100     		.2byte	0x1
 4710 0074 53       		.byte	0x53
 4711 0075 00000000 		.4byte	0
 4712 0079 00000000 		.4byte	0
 4713              	.LLST2:
 4714 007d 00000000 		.4byte	.LVL10
 4715 0081 0D000000 		.4byte	.LVL12-1
 4716 0085 0100     		.2byte	0x1
 4717 0087 50       		.byte	0x50
 4718 0088 0D000000 		.4byte	.LVL12-1
 4719 008c 4E000000 		.4byte	.LVL22
 4720 0090 0100     		.2byte	0x1
 4721 0092 55       		.byte	0x55
 4722 0093 4E000000 		.4byte	.LVL22
 4723 0097 54000000 		.4byte	.LFE34
 4724 009b 0400     		.2byte	0x4
 4725 009d F3       		.byte	0xf3
 4726 009e 01       		.uleb128 0x1
 4727 009f 50       		.byte	0x50
 4728 00a0 9F       		.byte	0x9f
 4729 00a1 00000000 		.4byte	0
 4730 00a5 00000000 		.4byte	0
 4731              	.LLST3:
 4732 00a9 04000000 		.4byte	.LVL11
 4733 00ad 18000000 		.4byte	.LVL14
 4734 00b1 0200     		.2byte	0x2
 4735 00b3 30       		.byte	0x30
 4736 00b4 9F       		.byte	0x9f
 4737 00b5 18000000 		.4byte	.LVL14
 4738 00b9 4E000000 		.4byte	.LVL21
 4739 00bd 0100     		.2byte	0x1
 4740 00bf 54       		.byte	0x54
 4741 00c0 00000000 		.4byte	0
 4742 00c4 00000000 		.4byte	0
 4743              	.LLST4:
 4744 00c8 00000000 		.4byte	.LVL23
 4745 00cc 0D000000 		.4byte	.LVL24-1
 4746 00d0 0100     		.2byte	0x1
 4747 00d2 50       		.byte	0x50
 4748 00d3 0D000000 		.4byte	.LVL24-1
 4749 00d7 26000000 		.4byte	.LVL28
 4750 00db 0100     		.2byte	0x1
 4751 00dd 54       		.byte	0x54
 4752 00de 26000000 		.4byte	.LVL28
 4753 00e2 2C000000 		.4byte	.LFE35
 4754 00e6 0400     		.2byte	0x4
 4755 00e8 F3       		.byte	0xf3
 4756 00e9 01       		.uleb128 0x1
 4757 00ea 50       		.byte	0x50
 4758 00eb 9F       		.byte	0x9f
 4759 00ec 00000000 		.4byte	0
 4760 00f0 00000000 		.4byte	0
ARM GAS  C:\Users\JAMESS~1\AppData\Local\Temp\ccWH4kxb.s 			page 108


 4761              	.LLST5:
 4762 00f4 00000000 		.4byte	.LVL29
 4763 00f8 02000000 		.4byte	.LVL30
 4764 00fc 0100     		.2byte	0x1
 4765 00fe 50       		.byte	0x50
 4766 00ff 02000000 		.4byte	.LVL30
 4767 0103 06000000 		.4byte	.LVL31
 4768 0107 0400     		.2byte	0x4
 4769 0109 F3       		.byte	0xf3
 4770 010a 01       		.uleb128 0x1
 4771 010b 50       		.byte	0x50
 4772 010c 9F       		.byte	0x9f
 4773 010d 06000000 		.4byte	.LVL31
 4774 0111 0C000000 		.4byte	.LFE39
 4775 0115 0100     		.2byte	0x1
 4776 0117 50       		.byte	0x50
 4777 0118 00000000 		.4byte	0
 4778 011c 00000000 		.4byte	0
 4779              	.LLST6:
 4780 0120 00000000 		.4byte	.LVL32
 4781 0124 0A000000 		.4byte	.LVL33
 4782 0128 0100     		.2byte	0x1
 4783 012a 50       		.byte	0x50
 4784 012b 0A000000 		.4byte	.LVL33
 4785 012f 24000000 		.4byte	.LFE40
 4786 0133 0400     		.2byte	0x4
 4787 0135 F3       		.byte	0xf3
 4788 0136 01       		.uleb128 0x1
 4789 0137 50       		.byte	0x50
 4790 0138 9F       		.byte	0x9f
 4791 0139 00000000 		.4byte	0
 4792 013d 00000000 		.4byte	0
 4793              	.LLST7:
 4794 0141 02000000 		.4byte	.LVL37
 4795 0145 06000000 		.4byte	.LVL38
 4796 0149 0200     		.2byte	0x2
 4797 014b 30       		.byte	0x30
 4798 014c 9F       		.byte	0x9f
 4799 014d 06000000 		.4byte	.LVL38
 4800 0151 26000000 		.4byte	.LVL43
 4801 0155 0100     		.2byte	0x1
 4802 0157 54       		.byte	0x54
 4803 0158 00000000 		.4byte	0
 4804 015c 00000000 		.4byte	0
 4805              	.LLST8:
 4806 0160 06000000 		.4byte	.LVL38
 4807 0164 1A000000 		.4byte	.LVL40
 4808 0168 0100     		.2byte	0x1
 4809 016a 51       		.byte	0x51
 4810 016b 1C000000 		.4byte	.LVL41
 4811 016f 22000000 		.4byte	.LVL42
 4812 0173 0100     		.2byte	0x1
 4813 0175 51       		.byte	0x51
 4814 0176 00000000 		.4byte	0
 4815 017a 00000000 		.4byte	0
 4816              	.LLST9:
 4817 017e 00000000 		.4byte	.LVL44
ARM GAS  C:\Users\JAMESS~1\AppData\Local\Temp\ccWH4kxb.s 			page 109


 4818 0182 05000000 		.4byte	.LVL45-1
 4819 0186 0100     		.2byte	0x1
 4820 0188 50       		.byte	0x50
 4821 0189 05000000 		.4byte	.LVL45-1
 4822 018d 0E000000 		.4byte	.LFE43
 4823 0191 0400     		.2byte	0x4
 4824 0193 F3       		.byte	0xf3
 4825 0194 01       		.uleb128 0x1
 4826 0195 50       		.byte	0x50
 4827 0196 9F       		.byte	0x9f
 4828 0197 00000000 		.4byte	0
 4829 019b 00000000 		.4byte	0
 4830              	.LLST10:
 4831 019f 00000000 		.4byte	.LVL47
 4832 01a3 10000000 		.4byte	.LVL48
 4833 01a7 0100     		.2byte	0x1
 4834 01a9 50       		.byte	0x50
 4835 01aa 10000000 		.4byte	.LVL48
 4836 01ae 12000000 		.4byte	.LVL49
 4837 01b2 0100     		.2byte	0x1
 4838 01b4 52       		.byte	0x52
 4839 01b5 12000000 		.4byte	.LVL49
 4840 01b9 16000000 		.4byte	.LVL50
 4841 01bd 0500     		.2byte	0x5
 4842 01bf 70       		.byte	0x70
 4843 01c0 00       		.sleb128 0
 4844 01c1 38       		.byte	0x38
 4845 01c2 25       		.byte	0x25
 4846 01c3 9F       		.byte	0x9f
 4847 01c4 16000000 		.4byte	.LVL50
 4848 01c8 18000000 		.4byte	.LVL51
 4849 01cc 0100     		.2byte	0x1
 4850 01ce 50       		.byte	0x50
 4851 01cf 18000000 		.4byte	.LVL51
 4852 01d3 24000000 		.4byte	.LFE45
 4853 01d7 0600     		.2byte	0x6
 4854 01d9 F3       		.byte	0xf3
 4855 01da 01       		.uleb128 0x1
 4856 01db 50       		.byte	0x50
 4857 01dc 40       		.byte	0x40
 4858 01dd 25       		.byte	0x25
 4859 01de 9F       		.byte	0x9f
 4860 01df 00000000 		.4byte	0
 4861 01e3 00000000 		.4byte	0
 4862              	.LLST11:
 4863 01e7 00000000 		.4byte	.LVL52
 4864 01eb 16000000 		.4byte	.LVL54
 4865 01ef 0100     		.2byte	0x1
 4866 01f1 50       		.byte	0x50
 4867 01f2 16000000 		.4byte	.LVL54
 4868 01f6 18000000 		.4byte	.LVL55
 4869 01fa 0100     		.2byte	0x1
 4870 01fc 50       		.byte	0x50
 4871 01fd 18000000 		.4byte	.LVL55
 4872 0201 1C000000 		.4byte	.LVL56
 4873 0205 0700     		.2byte	0x7
 4874 0207 F3       		.byte	0xf3
ARM GAS  C:\Users\JAMESS~1\AppData\Local\Temp\ccWH4kxb.s 			page 110


 4875 0208 01       		.uleb128 0x1
 4876 0209 50       		.byte	0x50
 4877 020a 71       		.byte	0x71
 4878 020b 00       		.sleb128 0
 4879 020c 22       		.byte	0x22
 4880 020d 9F       		.byte	0x9f
 4881 020e 00000000 		.4byte	0
 4882 0212 00000000 		.4byte	0
 4883              	.LLST12:
 4884 0216 00000000 		.4byte	.LVL52
 4885 021a 14000000 		.4byte	.LVL53
 4886 021e 0100     		.2byte	0x1
 4887 0220 51       		.byte	0x51
 4888 0221 14000000 		.4byte	.LVL53
 4889 0225 16000000 		.4byte	.LVL54
 4890 0229 0400     		.2byte	0x4
 4891 022b F3       		.byte	0xf3
 4892 022c 01       		.uleb128 0x1
 4893 022d 51       		.byte	0x51
 4894 022e 9F       		.byte	0x9f
 4895 022f 16000000 		.4byte	.LVL54
 4896 0233 1C000000 		.4byte	.LVL56
 4897 0237 0200     		.2byte	0x2
 4898 0239 30       		.byte	0x30
 4899 023a 9F       		.byte	0x9f
 4900 023b 00000000 		.4byte	0
 4901 023f 00000000 		.4byte	0
 4902              	.LLST13:
 4903 0243 00000000 		.4byte	.LVL57
 4904 0247 16000000 		.4byte	.LVL59
 4905 024b 0100     		.2byte	0x1
 4906 024d 50       		.byte	0x50
 4907 024e 16000000 		.4byte	.LVL59
 4908 0252 18000000 		.4byte	.LVL60
 4909 0256 0100     		.2byte	0x1
 4910 0258 50       		.byte	0x50
 4911 0259 18000000 		.4byte	.LVL60
 4912 025d 1E000000 		.4byte	.LVL62
 4913 0261 0700     		.2byte	0x7
 4914 0263 F3       		.byte	0xf3
 4915 0264 01       		.uleb128 0x1
 4916 0265 50       		.byte	0x50
 4917 0266 71       		.byte	0x71
 4918 0267 00       		.sleb128 0
 4919 0268 22       		.byte	0x22
 4920 0269 9F       		.byte	0x9f
 4921 026a 1E000000 		.4byte	.LVL62
 4922 026e 20000000 		.4byte	.LVL63
 4923 0272 0100     		.2byte	0x1
 4924 0274 50       		.byte	0x50
 4925 0275 20000000 		.4byte	.LVL63
 4926 0279 22000000 		.4byte	.LVL64
 4927 027d 0400     		.2byte	0x4
 4928 027f F3       		.byte	0xf3
 4929 0280 01       		.uleb128 0x1
 4930 0281 50       		.byte	0x50
 4931 0282 9F       		.byte	0x9f
ARM GAS  C:\Users\JAMESS~1\AppData\Local\Temp\ccWH4kxb.s 			page 111


 4932 0283 22000000 		.4byte	.LVL64
 4933 0287 24000000 		.4byte	.LVL65
 4934 028b 0100     		.2byte	0x1
 4935 028d 50       		.byte	0x50
 4936 028e 24000000 		.4byte	.LVL65
 4937 0292 26000000 		.4byte	.LVL66
 4938 0296 0400     		.2byte	0x4
 4939 0298 F3       		.byte	0xf3
 4940 0299 01       		.uleb128 0x1
 4941 029a 50       		.byte	0x50
 4942 029b 9F       		.byte	0x9f
 4943 029c 26000000 		.4byte	.LVL66
 4944 02a0 28000000 		.4byte	.LVL67
 4945 02a4 0100     		.2byte	0x1
 4946 02a6 50       		.byte	0x50
 4947 02a7 28000000 		.4byte	.LVL67
 4948 02ab 2A000000 		.4byte	.LVL68
 4949 02af 0400     		.2byte	0x4
 4950 02b1 F3       		.byte	0xf3
 4951 02b2 01       		.uleb128 0x1
 4952 02b3 50       		.byte	0x50
 4953 02b4 9F       		.byte	0x9f
 4954 02b5 2A000000 		.4byte	.LVL68
 4955 02b9 2C000000 		.4byte	.LVL69
 4956 02bd 0100     		.2byte	0x1
 4957 02bf 50       		.byte	0x50
 4958 02c0 00000000 		.4byte	0
 4959 02c4 00000000 		.4byte	0
 4960              	.LLST14:
 4961 02c8 00000000 		.4byte	.LVL57
 4962 02cc 14000000 		.4byte	.LVL58
 4963 02d0 0100     		.2byte	0x1
 4964 02d2 51       		.byte	0x51
 4965 02d3 14000000 		.4byte	.LVL58
 4966 02d7 16000000 		.4byte	.LVL59
 4967 02db 0400     		.2byte	0x4
 4968 02dd F3       		.byte	0xf3
 4969 02de 01       		.uleb128 0x1
 4970 02df 51       		.byte	0x51
 4971 02e0 9F       		.byte	0x9f
 4972 02e1 16000000 		.4byte	.LVL59
 4973 02e5 1E000000 		.4byte	.LVL62
 4974 02e9 0200     		.2byte	0x2
 4975 02eb 30       		.byte	0x30
 4976 02ec 9F       		.byte	0x9f
 4977 02ed 1E000000 		.4byte	.LVL62
 4978 02f1 2C000000 		.4byte	.LVL69
 4979 02f5 0100     		.2byte	0x1
 4980 02f7 51       		.byte	0x51
 4981 02f8 00000000 		.4byte	0
 4982 02fc 00000000 		.4byte	0
 4983              	.LLST15:
 4984 0300 00000000 		.4byte	.LVL57
 4985 0304 1C000000 		.4byte	.LVL61
 4986 0308 0200     		.2byte	0x2
 4987 030a 30       		.byte	0x30
 4988 030b 9F       		.byte	0x9f
ARM GAS  C:\Users\JAMESS~1\AppData\Local\Temp\ccWH4kxb.s 			page 112


 4989 030c 1C000000 		.4byte	.LVL61
 4990 0310 1E000000 		.4byte	.LVL62
 4991 0314 0100     		.2byte	0x1
 4992 0316 50       		.byte	0x50
 4993 0317 1E000000 		.4byte	.LVL62
 4994 031b 2C000000 		.4byte	.LVL69
 4995 031f 0200     		.2byte	0x2
 4996 0321 30       		.byte	0x30
 4997 0322 9F       		.byte	0x9f
 4998 0323 2C000000 		.4byte	.LVL69
 4999 0327 34000000 		.4byte	.LFE47
 5000 032b 0100     		.2byte	0x1
 5001 032d 50       		.byte	0x50
 5002 032e 00000000 		.4byte	0
 5003 0332 00000000 		.4byte	0
 5004              	.LLST16:
 5005 0336 00000000 		.4byte	.LVL70
 5006 033a 2D000000 		.4byte	.LVL78-1
 5007 033e 0100     		.2byte	0x1
 5008 0340 50       		.byte	0x50
 5009 0341 2D000000 		.4byte	.LVL78-1
 5010 0345 F0000000 		.4byte	.LVL106
 5011 0349 0100     		.2byte	0x1
 5012 034b 5B       		.byte	0x5b
 5013 034c F0000000 		.4byte	.LVL106
 5014 0350 FC000000 		.4byte	.LFE48
 5015 0354 0400     		.2byte	0x4
 5016 0356 F3       		.byte	0xf3
 5017 0357 01       		.uleb128 0x1
 5018 0358 50       		.byte	0x50
 5019 0359 9F       		.byte	0x9f
 5020 035a 00000000 		.4byte	0
 5021 035e 00000000 		.4byte	0
 5022              	.LLST17:
 5023 0362 00000000 		.4byte	.LVL70
 5024 0366 28000000 		.4byte	.LVL76
 5025 036a 0100     		.2byte	0x1
 5026 036c 51       		.byte	0x51
 5027 036d 28000000 		.4byte	.LVL76
 5028 0371 F0000000 		.4byte	.LVL103
 5029 0375 0100     		.2byte	0x1
 5030 0377 58       		.byte	0x58
 5031 0378 F0000000 		.4byte	.LVL103
 5032 037c FC000000 		.4byte	.LFE48
 5033 0380 0400     		.2byte	0x4
 5034 0382 F3       		.byte	0xf3
 5035 0383 01       		.uleb128 0x1
 5036 0384 51       		.byte	0x51
 5037 0385 9F       		.byte	0x9f
 5038 0386 00000000 		.4byte	0
 5039 038a 00000000 		.4byte	0
 5040              	.LLST18:
 5041 038e 00000000 		.4byte	.LVL70
 5042 0392 24000000 		.4byte	.LVL74
 5043 0396 0100     		.2byte	0x1
 5044 0398 52       		.byte	0x52
 5045 0399 24000000 		.4byte	.LVL74
ARM GAS  C:\Users\JAMESS~1\AppData\Local\Temp\ccWH4kxb.s 			page 113


 5046 039d 58000000 		.4byte	.LVL82
 5047 03a1 0100     		.2byte	0x1
 5048 03a3 54       		.byte	0x54
 5049 03a4 58000000 		.4byte	.LVL82
 5050 03a8 FC000000 		.4byte	.LFE48
 5051 03ac 0400     		.2byte	0x4
 5052 03ae F3       		.byte	0xf3
 5053 03af 01       		.uleb128 0x1
 5054 03b0 52       		.byte	0x52
 5055 03b1 9F       		.byte	0x9f
 5056 03b2 00000000 		.4byte	0
 5057 03b6 00000000 		.4byte	0
 5058              	.LLST19:
 5059 03ba 00000000 		.4byte	.LVL70
 5060 03be 1A000000 		.4byte	.LVL71
 5061 03c2 0100     		.2byte	0x1
 5062 03c4 53       		.byte	0x53
 5063 03c5 1A000000 		.4byte	.LVL71
 5064 03c9 58000000 		.4byte	.LVL82
 5065 03cd 0100     		.2byte	0x1
 5066 03cf 55       		.byte	0x55
 5067 03d0 58000000 		.4byte	.LVL82
 5068 03d4 FC000000 		.4byte	.LFE48
 5069 03d8 0200     		.2byte	0x2
 5070 03da 91       		.byte	0x91
 5071 03db 4C       		.sleb128 -52
 5072 03dc 00000000 		.4byte	0
 5073 03e0 00000000 		.4byte	0
 5074              	.LLST20:
 5075 03e4 1E000000 		.4byte	.LVL72
 5076 03e8 20000000 		.4byte	.LVL73
 5077 03ec 0100     		.2byte	0x1
 5078 03ee 53       		.byte	0x53
 5079 03ef 20000000 		.4byte	.LVL73
 5080 03f3 5E000000 		.4byte	.LVL83
 5081 03f7 0100     		.2byte	0x1
 5082 03f9 59       		.byte	0x59
 5083 03fa 5E000000 		.4byte	.LVL83
 5084 03fe 62000000 		.4byte	.LVL85
 5085 0402 0100     		.2byte	0x1
 5086 0404 52       		.byte	0x52
 5087 0405 62000000 		.4byte	.LVL85
 5088 0409 F0000000 		.4byte	.LVL104
 5089 040d 0100     		.2byte	0x1
 5090 040f 59       		.byte	0x59
 5091 0410 00000000 		.4byte	0
 5092 0414 00000000 		.4byte	0
 5093              	.LLST21:
 5094 0418 1E000000 		.4byte	.LVL72
 5095 041c 58000000 		.4byte	.LVL82
 5096 0420 0200     		.2byte	0x2
 5097 0422 30       		.byte	0x30
 5098 0423 9F       		.byte	0x9f
 5099 0424 58000000 		.4byte	.LVL82
 5100 0428 6E000000 		.4byte	.LVL89
 5101 042c 0100     		.2byte	0x1
 5102 042e 53       		.byte	0x53
ARM GAS  C:\Users\JAMESS~1\AppData\Local\Temp\ccWH4kxb.s 			page 114


 5103 042f 6E000000 		.4byte	.LVL89
 5104 0433 7C000000 		.4byte	.LVL91
 5105 0437 0100     		.2byte	0x1
 5106 0439 52       		.byte	0x52
 5107 043a 7C000000 		.4byte	.LVL91
 5108 043e EA000000 		.4byte	.LVL100
 5109 0442 0200     		.2byte	0x2
 5110 0444 91       		.byte	0x91
 5111 0445 50       		.sleb128 -48
 5112 0446 EA000000 		.4byte	.LVL100
 5113 044a FC000000 		.4byte	.LFE48
 5114 044e 0100     		.2byte	0x1
 5115 0450 53       		.byte	0x53
 5116 0451 00000000 		.4byte	0
 5117 0455 00000000 		.4byte	0
 5118              	.LLST22:
 5119 0459 26000000 		.4byte	.LVL75
 5120 045d 2A000000 		.4byte	.LVL77
 5121 0461 0100     		.2byte	0x1
 5122 0463 52       		.byte	0x52
 5123 0464 2A000000 		.4byte	.LVL77
 5124 0468 F0000000 		.4byte	.LVL105
 5125 046c 0100     		.2byte	0x1
 5126 046e 5A       		.byte	0x5a
 5127 046f 00000000 		.4byte	0
 5128 0473 00000000 		.4byte	0
 5129              	.LLST23:
 5130 0477 26000000 		.4byte	.LVL75
 5131 047b 58000000 		.4byte	.LVL82
 5132 047f 0200     		.2byte	0x2
 5133 0481 30       		.byte	0x30
 5134 0482 9F       		.byte	0x9f
 5135 0483 58000000 		.4byte	.LVL82
 5136 0487 F0000000 		.4byte	.LVL102
 5137 048b 0100     		.2byte	0x1
 5138 048d 56       		.byte	0x56
 5139 048e 00000000 		.4byte	0
 5140 0492 00000000 		.4byte	0
 5141              	.LLST24:
 5142 0496 26000000 		.4byte	.LVL75
 5143 049a F0000000 		.4byte	.LVL101
 5144 049e 0100     		.2byte	0x1
 5145 04a0 54       		.byte	0x54
 5146 04a1 00000000 		.4byte	0
 5147 04a5 00000000 		.4byte	0
 5148              	.LLST25:
 5149 04a9 00000000 		.4byte	.LVL107
 5150 04ad 4A000000 		.4byte	.LVL122
 5151 04b1 0100     		.2byte	0x1
 5152 04b3 50       		.byte	0x50
 5153 04b4 4A000000 		.4byte	.LVL122
 5154 04b8 9E000000 		.4byte	.LVL138
 5155 04bc 0100     		.2byte	0x1
 5156 04be 54       		.byte	0x54
 5157 04bf 00000000 		.4byte	0
 5158 04c3 00000000 		.4byte	0
 5159              	.LLST26:
ARM GAS  C:\Users\JAMESS~1\AppData\Local\Temp\ccWH4kxb.s 			page 115


 5160 04c7 00000000 		.4byte	.LVL107
 5161 04cb 48000000 		.4byte	.LVL121
 5162 04cf 0100     		.2byte	0x1
 5163 04d1 51       		.byte	0x51
 5164 04d2 48000000 		.4byte	.LVL121
 5165 04d6 9E000000 		.4byte	.LVL139
 5166 04da 0100     		.2byte	0x1
 5167 04dc 55       		.byte	0x55
 5168 04dd 00000000 		.4byte	0
 5169 04e1 00000000 		.4byte	0
 5170              	.LLST27:
 5171 04e5 00000000 		.4byte	.LVL107
 5172 04e9 22000000 		.4byte	.LVL111
 5173 04ed 0100     		.2byte	0x1
 5174 04ef 52       		.byte	0x52
 5175 04f0 22000000 		.4byte	.LVL111
 5176 04f4 28000000 		.4byte	.LVL112
 5177 04f8 0200     		.2byte	0x2
 5178 04fa 91       		.byte	0x91
 5179 04fb 54       		.sleb128 -44
 5180 04fc 28000000 		.4byte	.LVL112
 5181 0500 2A000000 		.4byte	.LVL113
 5182 0504 0100     		.2byte	0x1
 5183 0506 52       		.byte	0x52
 5184 0507 2A000000 		.4byte	.LVL113
 5185 050b AA000000 		.4byte	.LFE49
 5186 050f 0200     		.2byte	0x2
 5187 0511 91       		.byte	0x91
 5188 0512 54       		.sleb128 -44
 5189 0513 00000000 		.4byte	0
 5190 0517 00000000 		.4byte	0
 5191              	.LLST28:
 5192 051b 00000000 		.4byte	.LVL107
 5193 051f 18000000 		.4byte	.LVL108
 5194 0523 0100     		.2byte	0x1
 5195 0525 53       		.byte	0x53
 5196 0526 18000000 		.4byte	.LVL108
 5197 052a 9E000000 		.4byte	.LVL144
 5198 052e 0100     		.2byte	0x1
 5199 0530 5B       		.byte	0x5b
 5200 0531 9E000000 		.4byte	.LVL144
 5201 0535 AA000000 		.4byte	.LFE49
 5202 0539 0400     		.2byte	0x4
 5203 053b F3       		.byte	0xf3
 5204 053c 01       		.uleb128 0x1
 5205 053d 53       		.byte	0x53
 5206 053e 9F       		.byte	0x9f
 5207 053f 00000000 		.4byte	0
 5208 0543 00000000 		.4byte	0
 5209              	.LLST29:
 5210 0547 18000000 		.4byte	.LVL108
 5211 054b 40000000 		.4byte	.LVL118
 5212 054f 0100     		.2byte	0x1
 5213 0551 53       		.byte	0x53
 5214 0552 42000000 		.4byte	.LVL119
 5215 0556 4D000000 		.4byte	.LVL123-1
 5216 055a 0100     		.2byte	0x1
ARM GAS  C:\Users\JAMESS~1\AppData\Local\Temp\ccWH4kxb.s 			page 116


 5217 055c 53       		.byte	0x53
 5218 055d 4D000000 		.4byte	.LVL123-1
 5219 0561 9E000000 		.4byte	.LVL141
 5220 0565 0100     		.2byte	0x1
 5221 0567 58       		.byte	0x58
 5222 0568 00000000 		.4byte	0
 5223 056c 00000000 		.4byte	0
 5224              	.LLST30:
 5225 0570 1A000000 		.4byte	.LVL109
 5226 0574 9E000000 		.4byte	.LVL140
 5227 0578 0100     		.2byte	0x1
 5228 057a 57       		.byte	0x57
 5229 057b 00000000 		.4byte	0
 5230 057f 00000000 		.4byte	0
 5231              	.LLST31:
 5232 0583 32000000 		.4byte	.LVL115
 5233 0587 3A000000 		.4byte	.LVL116
 5234 058b 0300     		.2byte	0x3
 5235 058d 09       		.byte	0x9
 5236 058e FF       		.byte	0xff
 5237 058f 9F       		.byte	0x9f
 5238 0590 3E000000 		.4byte	.LVL117
 5239 0594 9E000000 		.4byte	.LVL142
 5240 0598 0100     		.2byte	0x1
 5241 059a 59       		.byte	0x59
 5242 059b 00000000 		.4byte	0
 5243 059f 00000000 		.4byte	0
 5244              	.LLST32:
 5245 05a3 20000000 		.4byte	.LVL110
 5246 05a7 28000000 		.4byte	.LVL112
 5247 05ab 0300     		.2byte	0x3
 5248 05ad 09       		.byte	0x9
 5249 05ae FF       		.byte	0xff
 5250 05af 9F       		.byte	0x9f
 5251 05b0 2C000000 		.4byte	.LVL114
 5252 05b4 9E000000 		.4byte	.LVL143
 5253 05b8 0100     		.2byte	0x1
 5254 05ba 5A       		.byte	0x5a
 5255 05bb 00000000 		.4byte	0
 5256 05bf 00000000 		.4byte	0
 5257              	.LLST33:
 5258 05c3 58000000 		.4byte	.LVL124
 5259 05c7 78000000 		.4byte	.LVL130
 5260 05cb 0100     		.2byte	0x1
 5261 05cd 56       		.byte	0x56
 5262 05ce 00000000 		.4byte	0
 5263 05d2 00000000 		.4byte	0
 5264              	.LLST34:
 5265 05d6 7E000000 		.4byte	.LVL131
 5266 05da 9C000000 		.4byte	.LVL137
 5267 05de 0100     		.2byte	0x1
 5268 05e0 56       		.byte	0x56
 5269 05e1 00000000 		.4byte	0
 5270 05e5 00000000 		.4byte	0
 5271              	.LLST35:
 5272 05e9 00000000 		.4byte	.LVL145
 5273 05ed 20000000 		.4byte	.LVL150
ARM GAS  C:\Users\JAMESS~1\AppData\Local\Temp\ccWH4kxb.s 			page 117


 5274 05f1 0100     		.2byte	0x1
 5275 05f3 50       		.byte	0x50
 5276 05f4 20000000 		.4byte	.LVL150
 5277 05f8 40000000 		.4byte	.LVL155
 5278 05fc 0100     		.2byte	0x1
 5279 05fe 54       		.byte	0x54
 5280 05ff 40000000 		.4byte	.LVL155
 5281 0603 4B000000 		.4byte	.LVL157-1
 5282 0607 0100     		.2byte	0x1
 5283 0609 50       		.byte	0x50
 5284 060a 4B000000 		.4byte	.LVL157-1
 5285 060e 78000000 		.4byte	.LVL161
 5286 0612 0100     		.2byte	0x1
 5287 0614 54       		.byte	0x54
 5288 0615 00000000 		.4byte	0
 5289 0619 00000000 		.4byte	0
 5290              	.LLST36:
 5291 061d 00000000 		.4byte	.LVL145
 5292 0621 20000000 		.4byte	.LVL150
 5293 0625 0100     		.2byte	0x1
 5294 0627 51       		.byte	0x51
 5295 0628 20000000 		.4byte	.LVL150
 5296 062c 40000000 		.4byte	.LVL155
 5297 0630 0200     		.2byte	0x2
 5298 0632 91       		.byte	0x91
 5299 0633 64       		.sleb128 -28
 5300 0634 40000000 		.4byte	.LVL155
 5301 0638 48000000 		.4byte	.LVL156
 5302 063c 0100     		.2byte	0x1
 5303 063e 51       		.byte	0x51
 5304 063f 48000000 		.4byte	.LVL156
 5305 0643 7A000000 		.4byte	.LFE50
 5306 0647 0200     		.2byte	0x2
 5307 0649 91       		.byte	0x91
 5308 064a 64       		.sleb128 -28
 5309 064b 00000000 		.4byte	0
 5310 064f 00000000 		.4byte	0
 5311              	.LLST37:
 5312 0653 00000000 		.4byte	.LVL145
 5313 0657 20000000 		.4byte	.LVL150
 5314 065b 0100     		.2byte	0x1
 5315 065d 52       		.byte	0x52
 5316 065e 20000000 		.4byte	.LVL150
 5317 0662 40000000 		.4byte	.LVL155
 5318 0666 0100     		.2byte	0x1
 5319 0668 56       		.byte	0x56
 5320 0669 40000000 		.4byte	.LVL155
 5321 066d 4B000000 		.4byte	.LVL157-1
 5322 0671 0100     		.2byte	0x1
 5323 0673 52       		.byte	0x52
 5324 0674 4B000000 		.4byte	.LVL157-1
 5325 0678 78000000 		.4byte	.LVL162
 5326 067c 0100     		.2byte	0x1
 5327 067e 56       		.byte	0x56
 5328 067f 78000000 		.4byte	.LVL162
 5329 0683 7A000000 		.4byte	.LFE50
 5330 0687 0400     		.2byte	0x4
ARM GAS  C:\Users\JAMESS~1\AppData\Local\Temp\ccWH4kxb.s 			page 118


 5331 0689 F3       		.byte	0xf3
 5332 068a 01       		.uleb128 0x1
 5333 068b 52       		.byte	0x52
 5334 068c 9F       		.byte	0x9f
 5335 068d 00000000 		.4byte	0
 5336 0691 00000000 		.4byte	0
 5337              	.LLST38:
 5338 0695 00000000 		.4byte	.LVL145
 5339 0699 10000000 		.4byte	.LVL146
 5340 069d 0100     		.2byte	0x1
 5341 069f 53       		.byte	0x53
 5342 06a0 10000000 		.4byte	.LVL146
 5343 06a4 7A000000 		.4byte	.LFE50
 5344 06a8 0200     		.2byte	0x2
 5345 06aa 91       		.byte	0x91
 5346 06ab 60       		.sleb128 -32
 5347 06ac 00000000 		.4byte	0
 5348 06b0 00000000 		.4byte	0
 5349              	.LLST39:
 5350 06b4 1A000000 		.4byte	.LVL147
 5351 06b8 1C000000 		.4byte	.LVL148
 5352 06bc 0100     		.2byte	0x1
 5353 06be 55       		.byte	0x55
 5354 06bf 1E000000 		.4byte	.LVL149
 5355 06c3 40000000 		.4byte	.LVL155
 5356 06c7 0100     		.2byte	0x1
 5357 06c9 55       		.byte	0x55
 5358 06ca 00000000 		.4byte	0
 5359 06ce 00000000 		.4byte	0
 5360              	.LLST40:
 5361 06d2 00000000 		.4byte	.LVL172
 5362 06d6 20000000 		.4byte	.LVL177
 5363 06da 0100     		.2byte	0x1
 5364 06dc 50       		.byte	0x50
 5365 06dd 20000000 		.4byte	.LVL177
 5366 06e1 5A000000 		.4byte	.LFE52
 5367 06e5 0200     		.2byte	0x2
 5368 06e7 91       		.byte	0x91
 5369 06e8 5C       		.sleb128 -36
 5370 06e9 00000000 		.4byte	0
 5371 06ed 00000000 		.4byte	0
 5372              	.LLST41:
 5373 06f1 00000000 		.4byte	.LVL172
 5374 06f5 20000000 		.4byte	.LVL177
 5375 06f9 0100     		.2byte	0x1
 5376 06fb 51       		.byte	0x51
 5377 06fc 20000000 		.4byte	.LVL177
 5378 0700 5A000000 		.4byte	.LFE52
 5379 0704 0400     		.2byte	0x4
 5380 0706 F3       		.byte	0xf3
 5381 0707 01       		.uleb128 0x1
 5382 0708 51       		.byte	0x51
 5383 0709 9F       		.byte	0x9f
 5384 070a 00000000 		.4byte	0
 5385 070e 00000000 		.4byte	0
 5386              	.LLST42:
 5387 0712 00000000 		.4byte	.LVL172
ARM GAS  C:\Users\JAMESS~1\AppData\Local\Temp\ccWH4kxb.s 			page 119


 5388 0716 20000000 		.4byte	.LVL177
 5389 071a 0100     		.2byte	0x1
 5390 071c 52       		.byte	0x52
 5391 071d 20000000 		.4byte	.LVL177
 5392 0721 52000000 		.4byte	.LVL189
 5393 0725 0100     		.2byte	0x1
 5394 0727 57       		.byte	0x57
 5395 0728 52000000 		.4byte	.LVL189
 5396 072c 5A000000 		.4byte	.LFE52
 5397 0730 0400     		.2byte	0x4
 5398 0732 F3       		.byte	0xf3
 5399 0733 01       		.uleb128 0x1
 5400 0734 52       		.byte	0x52
 5401 0735 9F       		.byte	0x9f
 5402 0736 00000000 		.4byte	0
 5403 073a 00000000 		.4byte	0
 5404              	.LLST43:
 5405 073e 00000000 		.4byte	.LVL172
 5406 0742 14000000 		.4byte	.LVL174
 5407 0746 0100     		.2byte	0x1
 5408 0748 53       		.byte	0x53
 5409 0749 14000000 		.4byte	.LVL174
 5410 074d 4A000000 		.4byte	.LVL185
 5411 0751 0100     		.2byte	0x1
 5412 0753 5B       		.byte	0x5b
 5413 0754 4A000000 		.4byte	.LVL185
 5414 0758 4F000000 		.4byte	.LVL186-1
 5415 075c 0100     		.2byte	0x1
 5416 075e 53       		.byte	0x53
 5417 075f 4F000000 		.4byte	.LVL186-1
 5418 0763 52000000 		.4byte	.LVL191
 5419 0767 0100     		.2byte	0x1
 5420 0769 5B       		.byte	0x5b
 5421 076a 52000000 		.4byte	.LVL191
 5422 076e 5A000000 		.4byte	.LFE52
 5423 0772 0400     		.2byte	0x4
 5424 0774 F3       		.byte	0xf3
 5425 0775 01       		.uleb128 0x1
 5426 0776 53       		.byte	0x53
 5427 0777 9F       		.byte	0x9f
 5428 0778 00000000 		.4byte	0
 5429 077c 00000000 		.4byte	0
 5430              	.LLST44:
 5431 0780 20000000 		.4byte	.LVL177
 5432 0784 32000000 		.4byte	.LVL181
 5433 0788 0100     		.2byte	0x1
 5434 078a 54       		.byte	0x54
 5435 078b 34000000 		.4byte	.LVL182
 5436 078f 3E000000 		.4byte	.LVL183
 5437 0793 0100     		.2byte	0x1
 5438 0795 54       		.byte	0x54
 5439 0796 00000000 		.4byte	0
 5440 079a 00000000 		.4byte	0
 5441              	.LLST45:
 5442 079e 1C000000 		.4byte	.LVL176
 5443 07a2 20000000 		.4byte	.LVL177
 5444 07a6 0100     		.2byte	0x1
ARM GAS  C:\Users\JAMESS~1\AppData\Local\Temp\ccWH4kxb.s 			page 120


 5445 07a8 51       		.byte	0x51
 5446 07a9 20000000 		.4byte	.LVL177
 5447 07ad 32000000 		.4byte	.LVL181
 5448 07b1 0200     		.2byte	0x2
 5449 07b3 7D       		.byte	0x7d
 5450 07b4 00       		.sleb128 0
 5451 07b5 32000000 		.4byte	.LVL181
 5452 07b9 34000000 		.4byte	.LVL182
 5453 07bd 0100     		.2byte	0x1
 5454 07bf 52       		.byte	0x52
 5455 07c0 34000000 		.4byte	.LVL182
 5456 07c4 52000000 		.4byte	.LVL187
 5457 07c8 0200     		.2byte	0x2
 5458 07ca 7D       		.byte	0x7d
 5459 07cb 00       		.sleb128 0
 5460 07cc 52000000 		.4byte	.LVL187
 5461 07d0 5A000000 		.4byte	.LFE52
 5462 07d4 0200     		.2byte	0x2
 5463 07d6 91       		.byte	0x91
 5464 07d7 58       		.sleb128 -40
 5465 07d8 00000000 		.4byte	0
 5466 07dc 00000000 		.4byte	0
 5467              	.LLST46:
 5468 07e0 12000000 		.4byte	.LVL173
 5469 07e4 16000000 		.4byte	.LVL175
 5470 07e8 0200     		.2byte	0x2
 5471 07ea 31       		.byte	0x31
 5472 07eb 9F       		.byte	0x9f
 5473 07ec 16000000 		.4byte	.LVL175
 5474 07f0 20000000 		.4byte	.LVL177
 5475 07f4 0200     		.2byte	0x2
 5476 07f6 32       		.byte	0x32
 5477 07f7 9F       		.byte	0x9f
 5478 07f8 20000000 		.4byte	.LVL177
 5479 07fc 22000000 		.4byte	.LVL178
 5480 0800 0100     		.2byte	0x1
 5481 0802 53       		.byte	0x53
 5482 0803 22000000 		.4byte	.LVL178
 5483 0807 32000000 		.4byte	.LVL181
 5484 080b 0100     		.2byte	0x1
 5485 080d 55       		.byte	0x55
 5486 080e 32000000 		.4byte	.LVL181
 5487 0812 46000000 		.4byte	.LVL184
 5488 0816 0100     		.2byte	0x1
 5489 0818 53       		.byte	0x53
 5490 0819 00000000 		.4byte	0
 5491 081d 00000000 		.4byte	0
 5492              	.LLST47:
 5493 0821 16000000 		.4byte	.LVL175
 5494 0825 52000000 		.4byte	.LVL188
 5495 0829 0100     		.2byte	0x1
 5496 082b 56       		.byte	0x56
 5497 082c 00000000 		.4byte	0
 5498 0830 00000000 		.4byte	0
 5499              	.LLST48:
 5500 0834 1C000000 		.4byte	.LVL176
 5501 0838 52000000 		.4byte	.LVL190
ARM GAS  C:\Users\JAMESS~1\AppData\Local\Temp\ccWH4kxb.s 			page 121


 5502 083c 0100     		.2byte	0x1
 5503 083e 58       		.byte	0x58
 5504 083f 00000000 		.4byte	0
 5505 0843 00000000 		.4byte	0
 5506              	.LLST49:
 5507 0847 00000000 		.4byte	.LVL192
 5508 084b 26000000 		.4byte	.LVL197
 5509 084f 0100     		.2byte	0x1
 5510 0851 50       		.byte	0x50
 5511 0852 26000000 		.4byte	.LVL197
 5512 0856 62000000 		.4byte	.LFE53
 5513 085a 0200     		.2byte	0x2
 5514 085c 91       		.byte	0x91
 5515 085d 5C       		.sleb128 -36
 5516 085e 00000000 		.4byte	0
 5517 0862 00000000 		.4byte	0
 5518              	.LLST50:
 5519 0866 00000000 		.4byte	.LVL192
 5520 086a 26000000 		.4byte	.LVL197
 5521 086e 0100     		.2byte	0x1
 5522 0870 51       		.byte	0x51
 5523 0871 26000000 		.4byte	.LVL197
 5524 0875 62000000 		.4byte	.LFE53
 5525 0879 0400     		.2byte	0x4
 5526 087b F3       		.byte	0xf3
 5527 087c 01       		.uleb128 0x1
 5528 087d 51       		.byte	0x51
 5529 087e 9F       		.byte	0x9f
 5530 087f 00000000 		.4byte	0
 5531 0883 00000000 		.4byte	0
 5532              	.LLST51:
 5533 0887 00000000 		.4byte	.LVL192
 5534 088b 26000000 		.4byte	.LVL197
 5535 088f 0100     		.2byte	0x1
 5536 0891 52       		.byte	0x52
 5537 0892 26000000 		.4byte	.LVL197
 5538 0896 5A000000 		.4byte	.LVL209
 5539 089a 0100     		.2byte	0x1
 5540 089c 57       		.byte	0x57
 5541 089d 5A000000 		.4byte	.LVL209
 5542 08a1 62000000 		.4byte	.LFE53
 5543 08a5 0400     		.2byte	0x4
 5544 08a7 F3       		.byte	0xf3
 5545 08a8 01       		.uleb128 0x1
 5546 08a9 52       		.byte	0x52
 5547 08aa 9F       		.byte	0x9f
 5548 08ab 00000000 		.4byte	0
 5549 08af 00000000 		.4byte	0
 5550              	.LLST52:
 5551 08b3 00000000 		.4byte	.LVL192
 5552 08b7 14000000 		.4byte	.LVL194
 5553 08bb 0100     		.2byte	0x1
 5554 08bd 53       		.byte	0x53
 5555 08be 14000000 		.4byte	.LVL194
 5556 08c2 52000000 		.4byte	.LVL205
 5557 08c6 0100     		.2byte	0x1
 5558 08c8 5B       		.byte	0x5b
ARM GAS  C:\Users\JAMESS~1\AppData\Local\Temp\ccWH4kxb.s 			page 122


 5559 08c9 52000000 		.4byte	.LVL205
 5560 08cd 57000000 		.4byte	.LVL206-1
 5561 08d1 0100     		.2byte	0x1
 5562 08d3 53       		.byte	0x53
 5563 08d4 57000000 		.4byte	.LVL206-1
 5564 08d8 5A000000 		.4byte	.LVL211
 5565 08dc 0100     		.2byte	0x1
 5566 08de 5B       		.byte	0x5b
 5567 08df 5A000000 		.4byte	.LVL211
 5568 08e3 62000000 		.4byte	.LFE53
 5569 08e7 0400     		.2byte	0x4
 5570 08e9 F3       		.byte	0xf3
 5571 08ea 01       		.uleb128 0x1
 5572 08eb 53       		.byte	0x53
 5573 08ec 9F       		.byte	0x9f
 5574 08ed 00000000 		.4byte	0
 5575 08f1 00000000 		.4byte	0
 5576              	.LLST53:
 5577 08f5 26000000 		.4byte	.LVL197
 5578 08f9 3A000000 		.4byte	.LVL201
 5579 08fd 0100     		.2byte	0x1
 5580 08ff 54       		.byte	0x54
 5581 0900 3C000000 		.4byte	.LVL202
 5582 0904 46000000 		.4byte	.LVL203
 5583 0908 0100     		.2byte	0x1
 5584 090a 54       		.byte	0x54
 5585 090b 00000000 		.4byte	0
 5586 090f 00000000 		.4byte	0
 5587              	.LLST54:
 5588 0913 22000000 		.4byte	.LVL196
 5589 0917 26000000 		.4byte	.LVL197
 5590 091b 0100     		.2byte	0x1
 5591 091d 51       		.byte	0x51
 5592 091e 26000000 		.4byte	.LVL197
 5593 0922 3A000000 		.4byte	.LVL201
 5594 0926 0200     		.2byte	0x2
 5595 0928 7D       		.byte	0x7d
 5596 0929 00       		.sleb128 0
 5597 092a 3A000000 		.4byte	.LVL201
 5598 092e 3C000000 		.4byte	.LVL202
 5599 0932 0100     		.2byte	0x1
 5600 0934 52       		.byte	0x52
 5601 0935 3C000000 		.4byte	.LVL202
 5602 0939 5A000000 		.4byte	.LVL207
 5603 093d 0200     		.2byte	0x2
 5604 093f 7D       		.byte	0x7d
 5605 0940 00       		.sleb128 0
 5606 0941 5A000000 		.4byte	.LVL207
 5607 0945 62000000 		.4byte	.LFE53
 5608 0949 0200     		.2byte	0x2
 5609 094b 91       		.byte	0x91
 5610 094c 58       		.sleb128 -40
 5611 094d 00000000 		.4byte	0
 5612 0951 00000000 		.4byte	0
 5613              	.LLST55:
 5614 0955 12000000 		.4byte	.LVL193
 5615 0959 1A000000 		.4byte	.LVL195
ARM GAS  C:\Users\JAMESS~1\AppData\Local\Temp\ccWH4kxb.s 			page 123


 5616 095d 0200     		.2byte	0x2
 5617 095f 31       		.byte	0x31
 5618 0960 9F       		.byte	0x9f
 5619 0961 1A000000 		.4byte	.LVL195
 5620 0965 26000000 		.4byte	.LVL197
 5621 0969 0200     		.2byte	0x2
 5622 096b 32       		.byte	0x32
 5623 096c 9F       		.byte	0x9f
 5624 096d 26000000 		.4byte	.LVL197
 5625 0971 28000000 		.4byte	.LVL198
 5626 0975 0100     		.2byte	0x1
 5627 0977 53       		.byte	0x53
 5628 0978 28000000 		.4byte	.LVL198
 5629 097c 3A000000 		.4byte	.LVL201
 5630 0980 0100     		.2byte	0x1
 5631 0982 55       		.byte	0x55
 5632 0983 3A000000 		.4byte	.LVL201
 5633 0987 4E000000 		.4byte	.LVL204
 5634 098b 0100     		.2byte	0x1
 5635 098d 53       		.byte	0x53
 5636 098e 00000000 		.4byte	0
 5637 0992 00000000 		.4byte	0
 5638              	.LLST56:
 5639 0996 1A000000 		.4byte	.LVL195
 5640 099a 5A000000 		.4byte	.LVL208
 5641 099e 0100     		.2byte	0x1
 5642 09a0 56       		.byte	0x56
 5643 09a1 00000000 		.4byte	0
 5644 09a5 00000000 		.4byte	0
 5645              	.LLST57:
 5646 09a9 22000000 		.4byte	.LVL196
 5647 09ad 5A000000 		.4byte	.LVL210
 5648 09b1 0100     		.2byte	0x1
 5649 09b3 58       		.byte	0x58
 5650 09b4 00000000 		.4byte	0
 5651 09b8 00000000 		.4byte	0
 5652              	.LLST58:
 5653 09bc 00000000 		.4byte	.LVL212
 5654 09c0 14000000 		.4byte	.LVL214
 5655 09c4 0100     		.2byte	0x1
 5656 09c6 50       		.byte	0x50
 5657 09c7 14000000 		.4byte	.LVL214
 5658 09cb 5C000000 		.4byte	.LVL221
 5659 09cf 0100     		.2byte	0x1
 5660 09d1 54       		.byte	0x54
 5661 09d2 5C000000 		.4byte	.LVL221
 5662 09d6 74000000 		.4byte	.LFE54
 5663 09da 0400     		.2byte	0x4
 5664 09dc F3       		.byte	0xf3
 5665 09dd 01       		.uleb128 0x1
 5666 09de 50       		.byte	0x50
 5667 09df 9F       		.byte	0x9f
 5668 09e0 00000000 		.4byte	0
 5669 09e4 00000000 		.4byte	0
 5670              	.LLST59:
 5671 09e8 00000000 		.4byte	.LVL212
 5672 09ec 2A000000 		.4byte	.LVL216
ARM GAS  C:\Users\JAMESS~1\AppData\Local\Temp\ccWH4kxb.s 			page 124


 5673 09f0 0100     		.2byte	0x1
 5674 09f2 51       		.byte	0x51
 5675 09f3 2A000000 		.4byte	.LVL216
 5676 09f7 6C000000 		.4byte	.LVL224
 5677 09fb 0100     		.2byte	0x1
 5678 09fd 56       		.byte	0x56
 5679 09fe 6C000000 		.4byte	.LVL224
 5680 0a02 74000000 		.4byte	.LFE54
 5681 0a06 0400     		.2byte	0x4
 5682 0a08 F3       		.byte	0xf3
 5683 0a09 01       		.uleb128 0x1
 5684 0a0a 51       		.byte	0x51
 5685 0a0b 9F       		.byte	0x9f
 5686 0a0c 00000000 		.4byte	0
 5687 0a10 00000000 		.4byte	0
 5688              	.LLST60:
 5689 0a14 00000000 		.4byte	.LVL212
 5690 0a18 24000000 		.4byte	.LVL215
 5691 0a1c 0100     		.2byte	0x1
 5692 0a1e 52       		.byte	0x52
 5693 0a1f 24000000 		.4byte	.LVL215
 5694 0a23 6C000000 		.4byte	.LVL225
 5695 0a27 0100     		.2byte	0x1
 5696 0a29 59       		.byte	0x59
 5697 0a2a 6C000000 		.4byte	.LVL225
 5698 0a2e 74000000 		.4byte	.LFE54
 5699 0a32 0400     		.2byte	0x4
 5700 0a34 F3       		.byte	0xf3
 5701 0a35 01       		.uleb128 0x1
 5702 0a36 52       		.byte	0x52
 5703 0a37 9F       		.byte	0x9f
 5704 0a38 00000000 		.4byte	0
 5705 0a3c 00000000 		.4byte	0
 5706              	.LLST61:
 5707 0a40 0E000000 		.4byte	.LVL213
 5708 0a44 30000000 		.4byte	.LVL218
 5709 0a48 0200     		.2byte	0x2
 5710 0a4a 30       		.byte	0x30
 5711 0a4b 9F       		.byte	0x9f
 5712 0a4c 30000000 		.4byte	.LVL218
 5713 0a50 6C000000 		.4byte	.LVL223
 5714 0a54 0100     		.2byte	0x1
 5715 0a56 55       		.byte	0x55
 5716 0a57 6C000000 		.4byte	.LVL223
 5717 0a5b 74000000 		.4byte	.LFE54
 5718 0a5f 0100     		.2byte	0x1
 5719 0a61 50       		.byte	0x50
 5720 0a62 00000000 		.4byte	0
 5721 0a66 00000000 		.4byte	0
 5722              		.section	.debug_aranges,"",%progbits
 5723 0000 CC000000 		.4byte	0xcc
 5724 0004 0200     		.2byte	0x2
 5725 0006 00000000 		.4byte	.Ldebug_info0
 5726 000a 04       		.byte	0x4
 5727 000b 00       		.byte	0
 5728 000c 0000     		.2byte	0
 5729 000e 0000     		.2byte	0
ARM GAS  C:\Users\JAMESS~1\AppData\Local\Temp\ccWH4kxb.s 			page 125


 5730 0010 00000000 		.4byte	.LFB41
 5731 0014 70000000 		.4byte	.LFE41-.LFB41
 5732 0018 00000000 		.4byte	.LFB42
 5733 001c 8C000000 		.4byte	.LFE42-.LFB42
 5734 0020 00000000 		.4byte	.LFB33
 5735 0024 0C000000 		.4byte	.LFE33-.LFB33
 5736 0028 00000000 		.4byte	.LFB36
 5737 002c 7C000000 		.4byte	.LFE36-.LFB36
 5738 0030 00000000 		.4byte	.LFB37
 5739 0034 1C000000 		.4byte	.LFE37-.LFB37
 5740 0038 00000000 		.4byte	.LFB34
 5741 003c 54000000 		.4byte	.LFE34-.LFB34
 5742 0040 00000000 		.4byte	.LFB35
 5743 0044 2C000000 		.4byte	.LFE35-.LFB35
 5744 0048 00000000 		.4byte	.LFB38
 5745 004c 0C000000 		.4byte	.LFE38-.LFB38
 5746 0050 00000000 		.4byte	.LFB39
 5747 0054 0C000000 		.4byte	.LFE39-.LFB39
 5748 0058 00000000 		.4byte	.LFB40
 5749 005c 24000000 		.4byte	.LFE40-.LFB40
 5750 0060 00000000 		.4byte	.LFB44
 5751 0064 2C000000 		.4byte	.LFE44-.LFB44
 5752 0068 00000000 		.4byte	.LFB43
 5753 006c 0E000000 		.4byte	.LFE43-.LFB43
 5754 0070 00000000 		.4byte	.LFB45
 5755 0074 24000000 		.4byte	.LFE45-.LFB45
 5756 0078 00000000 		.4byte	.LFB46
 5757 007c 24000000 		.4byte	.LFE46-.LFB46
 5758 0080 00000000 		.4byte	.LFB47
 5759 0084 34000000 		.4byte	.LFE47-.LFB47
 5760 0088 00000000 		.4byte	.LFB48
 5761 008c FC000000 		.4byte	.LFE48-.LFB48
 5762 0090 00000000 		.4byte	.LFB49
 5763 0094 AA000000 		.4byte	.LFE49-.LFB49
 5764 0098 00000000 		.4byte	.LFB50
 5765 009c 7A000000 		.4byte	.LFE50-.LFB50
 5766 00a0 00000000 		.4byte	.LFB51
 5767 00a4 78000000 		.4byte	.LFE51-.LFB51
 5768 00a8 00000000 		.4byte	.LFB32
 5769 00ac 8C000000 		.4byte	.LFE32-.LFB32
 5770 00b0 00000000 		.4byte	.LFB52
 5771 00b4 5A000000 		.4byte	.LFE52-.LFB52
 5772 00b8 00000000 		.4byte	.LFB53
 5773 00bc 62000000 		.4byte	.LFE53-.LFB53
 5774 00c0 00000000 		.4byte	.LFB54
 5775 00c4 74000000 		.4byte	.LFE54-.LFB54
 5776 00c8 00000000 		.4byte	0
 5777 00cc 00000000 		.4byte	0
 5778              		.section	.debug_ranges,"",%progbits
 5779              	.Ldebug_ranges0:
 5780 0000 00000000 		.4byte	.LFB41
 5781 0004 70000000 		.4byte	.LFE41
 5782 0008 00000000 		.4byte	.LFB42
 5783 000c 8C000000 		.4byte	.LFE42
 5784 0010 00000000 		.4byte	.LFB33
 5785 0014 0C000000 		.4byte	.LFE33
 5786 0018 00000000 		.4byte	.LFB36
ARM GAS  C:\Users\JAMESS~1\AppData\Local\Temp\ccWH4kxb.s 			page 126


 5787 001c 7C000000 		.4byte	.LFE36
 5788 0020 00000000 		.4byte	.LFB37
 5789 0024 1C000000 		.4byte	.LFE37
 5790 0028 00000000 		.4byte	.LFB34
 5791 002c 54000000 		.4byte	.LFE34
 5792 0030 00000000 		.4byte	.LFB35
 5793 0034 2C000000 		.4byte	.LFE35
 5794 0038 00000000 		.4byte	.LFB38
 5795 003c 0C000000 		.4byte	.LFE38
 5796 0040 00000000 		.4byte	.LFB39
 5797 0044 0C000000 		.4byte	.LFE39
 5798 0048 00000000 		.4byte	.LFB40
 5799 004c 24000000 		.4byte	.LFE40
 5800 0050 00000000 		.4byte	.LFB44
 5801 0054 2C000000 		.4byte	.LFE44
 5802 0058 00000000 		.4byte	.LFB43
 5803 005c 0E000000 		.4byte	.LFE43
 5804 0060 00000000 		.4byte	.LFB45
 5805 0064 24000000 		.4byte	.LFE45
 5806 0068 00000000 		.4byte	.LFB46
 5807 006c 24000000 		.4byte	.LFE46
 5808 0070 00000000 		.4byte	.LFB47
 5809 0074 34000000 		.4byte	.LFE47
 5810 0078 00000000 		.4byte	.LFB48
 5811 007c FC000000 		.4byte	.LFE48
 5812 0080 00000000 		.4byte	.LFB49
 5813 0084 AA000000 		.4byte	.LFE49
 5814 0088 00000000 		.4byte	.LFB50
 5815 008c 7A000000 		.4byte	.LFE50
 5816 0090 00000000 		.4byte	.LFB51
 5817 0094 78000000 		.4byte	.LFE51
 5818 0098 00000000 		.4byte	.LFB32
 5819 009c 8C000000 		.4byte	.LFE32
 5820 00a0 00000000 		.4byte	.LFB52
 5821 00a4 5A000000 		.4byte	.LFE52
 5822 00a8 00000000 		.4byte	.LFB53
 5823 00ac 62000000 		.4byte	.LFE53
 5824 00b0 00000000 		.4byte	.LFB54
 5825 00b4 74000000 		.4byte	.LFE54
 5826 00b8 00000000 		.4byte	0
 5827 00bc 00000000 		.4byte	0
 5828              		.section	.debug_line,"",%progbits
 5829              	.Ldebug_line0:
 5830 0000 C5030000 		.section	.debug_str,"MS",%progbits,1
 5830      0200A700 
 5830      00000201 
 5830      FB0E0D00 
 5830      01010101 
 5831              	.LASF36:
 5832 0000 53747269 		.ascii	"StripLights_CLUT\000"
 5832      704C6967 
 5832      6874735F 
 5832      434C5554 
 5832      00
 5833              	.LASF27:
 5834 0011 45784372 		.ascii	"ExCriticalFunc\000"
 5834      69746963 
ARM GAS  C:\Users\JAMESS~1\AppData\Local\Temp\ccWH4kxb.s 			page 127


 5834      616C4675 
 5834      6E6300
 5835              	.LASF14:
 5836 0020 63686172 		.ascii	"char\000"
 5836      00
 5837              	.LASF42:
 5838 0025 53747269 		.ascii	"StripLights_GetPixel\000"
 5838      704C6967 
 5838      6874735F 
 5838      47657450 
 5838      6978656C 
 5839              	.LASF20:
 5840 003a 53747269 		.ascii	"StripLights_DimShift\000"
 5840      704C6967 
 5840      6874735F 
 5840      44696D53 
 5840      68696674 
 5841              	.LASF2:
 5842 004f 73686F72 		.ascii	"short int\000"
 5842      7420696E 
 5842      7400
 5843              	.LASF23:
 5844 0059 636F6C6F 		.ascii	"color\000"
 5844      7200
 5845              	.LASF76:
 5846 005f 53747269 		.ascii	"StripLights_SetFont\000"
 5846      704C6967 
 5846      6874735F 
 5846      53657446 
 5846      6F6E7400 
 5847              	.LASF51:
 5848 0073 53747269 		.ascii	"StripLights_DrawRect\000"
 5848      704C6967 
 5848      6874735F 
 5848      44726177 
 5848      52656374 
 5849              	.LASF82:
 5850 0088 47656E65 		.ascii	"Generated_Source\\PSoC4\\StripLights.c\000"
 5850      72617465 
 5850      645F536F 
 5850      75726365 
 5850      5C50536F 
 5851              	.LASF71:
 5852 00ad 53747269 		.ascii	"StripLights_ledArray\000"
 5852      704C6967 
 5852      6874735F 
 5852      6C656441 
 5852      72726179 
 5853              	.LASF77:
 5854 00c2 53747269 		.ascii	"StripLights_cisr_StartEx\000"
 5854      704C6967 
 5854      6874735F 
 5854      63697372 
 5854      5F537461 
 5855              	.LASF30:
 5856 00db 64656C61 		.ascii	"delay\000"
 5856      7900
ARM GAS  C:\Users\JAMESS~1\AppData\Local\Temp\ccWH4kxb.s 			page 128


 5857              	.LASF69:
 5858 00e1 53747269 		.ascii	"StripLights_EnterCritical\000"
 5858      704C6967 
 5858      6874735F 
 5858      456E7465 
 5858      72437269 
 5859              	.LASF74:
 5860 00fb 53747269 		.ascii	"StripLights_gamma\000"
 5860      704C6967 
 5860      6874735F 
 5860      67616D6D 
 5860      6100
 5861              	.LASF52:
 5862 010d 66696C6C 		.ascii	"fill\000"
 5862      00
 5863              	.LASF81:
 5864 0112 474E5520 		.ascii	"GNU C11 5.4.1 20160609 (release) [ARM/embedded-5-br"
 5864      43313120 
 5864      352E342E 
 5864      31203230 
 5864      31363036 
 5865 0145 616E6368 		.ascii	"anch revision 237715] -mcpu=cortex-m0 -mthumb -g -O"
 5865      20726576 
 5865      6973696F 
 5865      6E203233 
 5865      37373135 
 5866 0178 67202D66 		.ascii	"g -ffunction-sections -ffat-lto-objects\000"
 5866      66756E63 
 5866      74696F6E 
 5866      2D736563 
 5866      74696F6E 
 5867              	.LASF19:
 5868 01a0 53747269 		.ascii	"StripLights_DimMask\000"
 5868      704C6967 
 5868      6874735F 
 5868      44696D4D 
 5868      61736B00 
 5869              	.LASF40:
 5870 01b4 53747269 		.ascii	"StripLights_WriteColor\000"
 5870      704C6967 
 5870      6874735F 
 5870      57726974 
 5870      65436F6C 
 5871              	.LASF31:
 5872 01cb 746F436F 		.ascii	"toCount\000"
 5872      756E7400 
 5873              	.LASF9:
 5874 01d3 75696E74 		.ascii	"uint8\000"
 5874      3800
 5875              	.LASF29:
 5876 01d9 53747269 		.ascii	"StripLights_TriggerWaitDelay\000"
 5876      704C6967 
 5876      6874735F 
 5876      54726967 
 5876      67657257 
 5877              	.LASF57:
 5878 01f6 53747269 		.ascii	"StripLights_initvar\000"
ARM GAS  C:\Users\JAMESS~1\AppData\Local\Temp\ccWH4kxb.s 			page 129


 5878      704C6967 
 5878      6874735F 
 5878      696E6974 
 5878      76617200 
 5879              	.LASF28:
 5880 020a 53747269 		.ascii	"StripLights_Trigger\000"
 5880      704C6967 
 5880      6874735F 
 5880      54726967 
 5880      67657200 
 5881              	.LASF66:
 5882 021e 66726F6D 		.ascii	"fromColor\000"
 5882      436F6C6F 
 5882      7200
 5883              	.LASF0:
 5884 0228 7369676E 		.ascii	"signed char\000"
 5884      65642063 
 5884      68617200 
 5885              	.LASF12:
 5886 0234 666C6F61 		.ascii	"float\000"
 5886      7400
 5887              	.LASF32:
 5888 023a 53747269 		.ascii	"StripLights_TriggerWait\000"
 5888      704C6967 
 5888      6874735F 
 5888      54726967 
 5888      67657257 
 5889              	.LASF6:
 5890 0252 6C6F6E67 		.ascii	"long long int\000"
 5890      206C6F6E 
 5890      6720696E 
 5890      7400
 5891              	.LASF46:
 5892 0260 6464465F 		.ascii	"ddF_y\000"
 5892      7900
 5893              	.LASF60:
 5894 0266 75706461 		.ascii	"update\000"
 5894      746500
 5895              	.LASF4:
 5896 026d 6C6F6E67 		.ascii	"long int\000"
 5896      20696E74 
 5896      00
 5897              	.LASF64:
 5898 0276 53747269 		.ascii	"StripLights_Bplot32\000"
 5898      704C6967 
 5898      6874735F 
 5898      42706C6F 
 5898      74333200 
 5899              	.LASF62:
 5900 028a 6D617858 		.ascii	"maxX\000"
 5900      00
 5901              	.LASF83:
 5902 028f 433A5C55 		.ascii	"C:\\Users\\James Sun\\Documents\\Git\\Whackamole\\W"
 5902      73657273 
 5902      5C4A616D 
 5902      65732053 
 5902      756E5C44 
ARM GAS  C:\Users\JAMESS~1\AppData\Local\Temp\ccWH4kxb.s 			page 130


 5903 02bc 6861636B 		.ascii	"hackamole\\Whackamole.cydsn\000"
 5903      616D6F6C 
 5903      655C5768 
 5903      61636B61 
 5903      6D6F6C65 
 5904              	.LASF18:
 5905 02d7 6C6F6E67 		.ascii	"long double\000"
 5905      20646F75 
 5905      626C6500 
 5906              	.LASF75:
 5907 02e3 43794465 		.ascii	"CyDelayUs\000"
 5907      6C617955 
 5907      7300
 5908              	.LASF1:
 5909 02ed 756E7369 		.ascii	"unsigned char\000"
 5909      676E6564 
 5909      20636861 
 5909      7200
 5910              	.LASF34:
 5911 02fb 53747269 		.ascii	"StripLights_ColorInc\000"
 5911      704C6967 
 5911      6874735F 
 5911      436F6C6F 
 5911      72496E63 
 5912              	.LASF43:
 5913 0310 53747269 		.ascii	"StripLights_DrawCircle\000"
 5913      704C6967 
 5913      6874735F 
 5913      44726177 
 5913      43697263 
 5914              	.LASF37:
 5915 0327 636F6C6F 		.ascii	"colorIndex\000"
 5915      72496E64 
 5915      657800
 5916              	.LASF63:
 5917 0332 6D617859 		.ascii	"maxY\000"
 5917      00
 5918              	.LASF7:
 5919 0337 6C6F6E67 		.ascii	"long long unsigned int\000"
 5919      206C6F6E 
 5919      6720756E 
 5919      7369676E 
 5919      65642069 
 5920              	.LASF67:
 5921 034e 746F436F 		.ascii	"toColor\000"
 5921      6C6F7200 
 5922              	.LASF79:
 5923 0356 53747269 		.ascii	"StripLights_cisr_SetPriority\000"
 5923      704C6967 
 5923      6874735F 
 5923      63697372 
 5923      5F536574 
 5924              	.LASF8:
 5925 0373 756E7369 		.ascii	"unsigned int\000"
 5925      676E6564 
 5925      20696E74 
 5925      00
ARM GAS  C:\Users\JAMESS~1\AppData\Local\Temp\ccWH4kxb.s 			page 131


 5926              	.LASF5:
 5927 0380 6C6F6E67 		.ascii	"long unsigned int\000"
 5927      20756E73 
 5927      69676E65 
 5927      6420696E 
 5927      7400
 5928              	.LASF55:
 5929 0392 64696D4C 		.ascii	"dimLevel\000"
 5929      6576656C 
 5929      00
 5930              	.LASF24:
 5931 039b 53747269 		.ascii	"StripLights_refreshComplete\000"
 5931      704C6967 
 5931      6874735F 
 5931      72656672 
 5931      65736843 
 5932              	.LASF72:
 5933 03b7 53747269 		.ascii	"StripLights_ledIndex\000"
 5933      704C6967 
 5933      6874735F 
 5933      6C656449 
 5933      6E646578 
 5934              	.LASF54:
 5935 03cc 53747269 		.ascii	"StripLights_Dim\000"
 5935      704C6967 
 5935      6874735F 
 5935      44696D00 
 5936              	.LASF50:
 5937 03dc 66726163 		.ascii	"fraction\000"
 5937      74696F6E 
 5937      00
 5938              	.LASF48:
 5939 03e5 73746570 		.ascii	"stepx\000"
 5939      7800
 5940              	.LASF49:
 5941 03eb 73746570 		.ascii	"stepy\000"
 5941      7900
 5942              	.LASF84:
 5943 03f1 53747269 		.ascii	"StripLights_Ready\000"
 5943      704C6967 
 5943      6874735F 
 5943      52656164 
 5943      7900
 5944              	.LASF33:
 5945 0403 53747269 		.ascii	"StripLights_getColor\000"
 5945      704C6967 
 5945      6874735F 
 5945      67657443 
 5945      6F6C6F72 
 5946              	.LASF3:
 5947 0418 73686F72 		.ascii	"short unsigned int\000"
 5947      7420756E 
 5947      7369676E 
 5947      65642069 
 5947      6E7400
 5948              	.LASF39:
 5949 042b 53747269 		.ascii	"StripLights_DisplayClear\000"
ARM GAS  C:\Users\JAMESS~1\AppData\Local\Temp\ccWH4kxb.s 			page 132


 5949      704C6967 
 5949      6874735F 
 5949      44697370 
 5949      6C617943 
 5950              	.LASF35:
 5951 0444 696E6356 		.ascii	"incValue\000"
 5951      616C7565 
 5951      00
 5952              	.LASF25:
 5953 044d 53747269 		.ascii	"StripLights_SetCriticalFuncs\000"
 5953      704C6967 
 5953      6874735F 
 5953      53657443 
 5953      72697469 
 5954              	.LASF70:
 5955 046a 53747269 		.ascii	"StripLights_ExitCritical\000"
 5955      704C6967 
 5955      6874735F 
 5955      45786974 
 5955      43726974 
 5956              	.LASF10:
 5957 0483 75696E74 		.ascii	"uint32\000"
 5957      333200
 5958              	.LASF53:
 5959 048a 78446966 		.ascii	"xDiff\000"
 5959      6600
 5960              	.LASF15:
 5961 0490 72656738 		.ascii	"reg8\000"
 5961      00
 5962              	.LASF78:
 5963 0495 53747269 		.ascii	"StripLights_fisr_StartEx\000"
 5963      704C6967 
 5963      6874735F 
 5963      66697372 
 5963      5F537461 
 5964              	.LASF45:
 5965 04ae 6464465F 		.ascii	"ddF_x\000"
 5965      7800
 5966              	.LASF11:
 5967 04b4 696E7433 		.ascii	"int32\000"
 5967      3200
 5968              	.LASF58:
 5969 04ba 53747269 		.ascii	"StripLights_Bplot8\000"
 5969      704C6967 
 5969      6874735F 
 5969      42706C6F 
 5969      743800
 5970              	.LASF22:
 5971 04cd 53747269 		.ascii	"StripLights_CISR\000"
 5971      704C6967 
 5971      6874735F 
 5971      43495352 
 5971      00
 5972              	.LASF85:
 5973 04de 53747269 		.ascii	"StripLights_Stop\000"
 5973      704C6967 
 5973      6874735F 
ARM GAS  C:\Users\JAMESS~1\AppData\Local\Temp\ccWH4kxb.s 			page 133


 5973      53746F70 
 5973      00
 5974              	.LASF21:
 5975 04ef 53747269 		.ascii	"StripLights_FISR\000"
 5975      704C6967 
 5975      6874735F 
 5975      46495352 
 5975      00
 5976              	.LASF80:
 5977 0500 53747269 		.ascii	"StripLights_fisr_SetPriority\000"
 5977      704C6967 
 5977      6874735F 
 5977      66697372 
 5977      5F536574 
 5978              	.LASF38:
 5979 051d 53747269 		.ascii	"StripLights_MemClear\000"
 5979      704C6967 
 5979      6874735F 
 5979      4D656D43 
 5979      6C656172 
 5980              	.LASF61:
 5981 0532 61696E64 		.ascii	"aindex\000"
 5981      657800
 5982              	.LASF41:
 5983 0539 53747269 		.ascii	"StripLights_Pixel\000"
 5983      704C6967 
 5983      6874735F 
 5983      50697865 
 5983      6C00
 5984              	.LASF17:
 5985 054b 73697A65 		.ascii	"sizetype\000"
 5985      74797065 
 5985      00
 5986              	.LASF26:
 5987 0554 456E4372 		.ascii	"EnCriticalFunc\000"
 5987      69746963 
 5987      616C4675 
 5987      6E6300
 5988              	.LASF13:
 5989 0563 646F7562 		.ascii	"double\000"
 5989      6C6500
 5990              	.LASF56:
 5991 056a 53747269 		.ascii	"StripLights_Start\000"
 5991      704C6967 
 5991      6874735F 
 5991      53746172 
 5991      7400
 5992              	.LASF44:
 5993 057c 72616469 		.ascii	"radius\000"
 5993      757300
 5994              	.LASF73:
 5995 0583 53747269 		.ascii	"StripLights_row\000"
 5995      704C6967 
 5995      6874735F 
 5995      726F7700 
 5996              	.LASF16:
 5997 0593 66756E63 		.ascii	"funcPtr\000"
ARM GAS  C:\Users\JAMESS~1\AppData\Local\Temp\ccWH4kxb.s 			page 134


 5997      50747200 
 5998              	.LASF68:
 5999 059b 6E657743 		.ascii	"newColor\000"
 5999      6F6C6F72 
 5999      00
 6000              	.LASF59:
 6001 05a4 6269744D 		.ascii	"bitMap\000"
 6001      617000
 6002              	.LASF47:
 6003 05ab 53747269 		.ascii	"StripLights_DrawLine\000"
 6003      704C6967 
 6003      6874735F 
 6003      44726177 
 6003      4C696E65 
 6004              	.LASF65:
 6005 05c0 53747269 		.ascii	"StripLights_RgbBlend\000"
 6005      704C6967 
 6005      6874735F 
 6005      52676242 
 6005      6C656E64 
 6006              		.ident	"GCC: (GNU Tools for ARM Embedded Processors) 5.4.1 20160609 (release) [ARM/embedded-5-bran
