ARM GAS  C:\Users\JAMESS~1\AppData\Local\Temp\cce8FrJG.s 			page 1


   1              		.syntax unified
   2              		.cpu cortex-m0
   3              		.fpu softvfp
   4              		.eabi_attribute 20, 1
   5              		.eabi_attribute 21, 1
   6              		.eabi_attribute 23, 3
   7              		.eabi_attribute 24, 1
   8              		.eabi_attribute 25, 1
   9              		.eabi_attribute 26, 1
  10              		.eabi_attribute 30, 1
  11              		.eabi_attribute 34, 0
  12              		.eabi_attribute 18, 4
  13              		.thumb
  14              		.syntax unified
  15              		.file	"StripLights.c"
  16              		.text
  17              	.Ltext0:
  18              		.cfi_sections	.debug_frame
  19              		.section	.text.StripLights_FISR,"ax",%progbits
  20              		.align	2
  21              		.global	StripLights_FISR
  22              		.code	16
  23              		.thumb_func
  24              		.type	StripLights_FISR, %function
  25              	StripLights_FISR:
  26              	.LFB41:
  27              		.file 1 "Generated_Source\\PSoC4\\StripLights.c"
   1:Generated_Source\PSoC4/StripLights.c **** /* =========================================================
   2:Generated_Source\PSoC4/StripLights.c ****  *
   3:Generated_Source\PSoC4/StripLights.c ****  * Strip Light Controller
   4:Generated_Source\PSoC4/StripLights.c ****  * By Mark Hastings
   5:Generated_Source\PSoC4/StripLights.c ****  *
   6:Generated_Source\PSoC4/StripLights.c ****  * 10/28/2015 MEH Added support for SF2812RGBW
   7:Generated_Source\PSoC4/StripLights.c ****  *                Allow for a more flexible bus clock selection
   8:Generated_Source\PSoC4/StripLights.c ****  * 12/12/2015 MEH Fixed a bug that may cause the interface
   9:Generated_Source\PSoC4/StripLights.c ****  *                to hang when many other ISRs are running.
  10:Generated_Source\PSoC4/StripLights.c ****  *
  11:Generated_Source\PSoC4/StripLights.c ****  * This file contains the functions required to control each
  12:Generated_Source\PSoC4/StripLights.c ****  * lighting control channel.
  13:Generated_Source\PSoC4/StripLights.c ****  *
  14:Generated_Source\PSoC4/StripLights.c ****  * =========================================================
  15:Generated_Source\PSoC4/StripLights.c **** */
  16:Generated_Source\PSoC4/StripLights.c **** 
  17:Generated_Source\PSoC4/StripLights.c **** #include <project.h>
  18:Generated_Source\PSoC4/StripLights.c **** #include "cytypes.h"
  19:Generated_Source\PSoC4/StripLights.c **** #include "stdlib.h"
  20:Generated_Source\PSoC4/StripLights.c **** #include "cyfitter.h"
  21:Generated_Source\PSoC4/StripLights.c **** #include "StripLights.h"
  22:Generated_Source\PSoC4/StripLights.c **** #include "StripLights_fonts.h"
  23:Generated_Source\PSoC4/StripLights.c **** 
  24:Generated_Source\PSoC4/StripLights.c **** 
  25:Generated_Source\PSoC4/StripLights.c **** void   (*StripLights_EnterCritical)() = (funcPtr)0;
  26:Generated_Source\PSoC4/StripLights.c **** void   (*StripLights_ExitCritical)() = (funcPtr)0;
  27:Generated_Source\PSoC4/StripLights.c **** 
  28:Generated_Source\PSoC4/StripLights.c **** 
  29:Generated_Source\PSoC4/StripLights.c **** uint8  StripLights_initvar = 0;
  30:Generated_Source\PSoC4/StripLights.c **** 
ARM GAS  C:\Users\JAMESS~1\AppData\Local\Temp\cce8FrJG.s 			page 2


  31:Generated_Source\PSoC4/StripLights.c **** #if(StripLights_MEMORY_TYPE == StripLights_MEMORY_RGB)
  32:Generated_Source\PSoC4/StripLights.c **** uint32  StripLights_ledArray[StripLights_ARRAY_ROWS][StripLights_ARRAY_COLS];
  33:Generated_Source\PSoC4/StripLights.c **** #else
  34:Generated_Source\PSoC4/StripLights.c **** uint8   StripLights_ledArray[StripLights_ARRAY_ROWS][StripLights_ARRAY_COLS];
  35:Generated_Source\PSoC4/StripLights.c **** #endif
  36:Generated_Source\PSoC4/StripLights.c **** 
  37:Generated_Source\PSoC4/StripLights.c **** uint32  StripLights_ledIndex = 0;  
  38:Generated_Source\PSoC4/StripLights.c **** uint32  StripLights_row = 0;
  39:Generated_Source\PSoC4/StripLights.c **** uint32  StripLights_refreshComplete;
  40:Generated_Source\PSoC4/StripLights.c **** 
  41:Generated_Source\PSoC4/StripLights.c **** uint32  StripLights_DimMask;
  42:Generated_Source\PSoC4/StripLights.c **** uint32  StripLights_DimShift;
  43:Generated_Source\PSoC4/StripLights.c **** 
  44:Generated_Source\PSoC4/StripLights.c **** #if( StripLights_GAMMA_CORRECTION == StripLights_GAMMA_ON )
  45:Generated_Source\PSoC4/StripLights.c **** const uint8 StripLights_gamma[] = {
  46:Generated_Source\PSoC4/StripLights.c ****     0,  0,  0,  0,  0,  0,  0,  0,  0,  0,  0,  0,  0,  0,  0,  0,
  47:Generated_Source\PSoC4/StripLights.c ****     0,  0,  0,  0,  0,  0,  0,  0,  0,  0,  0,  0,  1,  1,  1,  1,
  48:Generated_Source\PSoC4/StripLights.c ****     1,  1,  1,  1,  1,  1,  1,  1,  1,  2,  2,  2,  2,  2,  2,  2,
  49:Generated_Source\PSoC4/StripLights.c ****     2,  3,  3,  3,  3,  3,  3,  3,  4,  4,  4,  4,  4,  5,  5,  5,
  50:Generated_Source\PSoC4/StripLights.c ****     5,  6,  6,  6,  6,  7,  7,  7,  7,  8,  8,  8,  9,  9,  9, 10,
  51:Generated_Source\PSoC4/StripLights.c ****    10, 10, 11, 11, 11, 12, 12, 13, 13, 13, 14, 14, 15, 15, 16, 16,
  52:Generated_Source\PSoC4/StripLights.c ****    17, 17, 18, 18, 19, 19, 20, 20, 21, 21, 22, 22, 23, 24, 24, 25,
  53:Generated_Source\PSoC4/StripLights.c ****    25, 26, 27, 27, 28, 29, 29, 30, 31, 32, 32, 33, 34, 35, 35, 36,
  54:Generated_Source\PSoC4/StripLights.c ****    37, 38, 39, 39, 40, 41, 42, 43, 44, 45, 46, 47, 48, 49, 50, 50,
  55:Generated_Source\PSoC4/StripLights.c ****    51, 52, 54, 55, 56, 57, 58, 59, 60, 61, 62, 63, 64, 66, 67, 68,
  56:Generated_Source\PSoC4/StripLights.c ****    69, 70, 72, 73, 74, 75, 77, 78, 79, 81, 82, 83, 85, 86, 87, 89,
  57:Generated_Source\PSoC4/StripLights.c ****    90, 92, 93, 95, 96, 98, 99,101,102,104,105,107,109,110,112,114,
  58:Generated_Source\PSoC4/StripLights.c ****   115,117,119,120,122,124,126,127,129,131,133,135,137,138,140,142,
  59:Generated_Source\PSoC4/StripLights.c ****   144,146,148,150,152,154,156,158,160,162,164,167,169,171,173,175,
  60:Generated_Source\PSoC4/StripLights.c ****   177,180,182,184,186,189,191,193,196,198,200,203,205,208,210,213,
  61:Generated_Source\PSoC4/StripLights.c ****   215,218,220,223,225,228,231,233,236,239,241,244,247,249,252,255 };
  62:Generated_Source\PSoC4/StripLights.c **** 
  63:Generated_Source\PSoC4/StripLights.c **** #endif
  64:Generated_Source\PSoC4/StripLights.c **** 
  65:Generated_Source\PSoC4/StripLights.c **** #if (StripLights_LED_LAYOUT == StripLights_LED_LAYOUT_GRID16X16)
  66:Generated_Source\PSoC4/StripLights.c ****  uint8 const StripLights_cTrans[16][16] =  {
  67:Generated_Source\PSoC4/StripLights.c **** 	/*  0  */  {  0,  1,  2,  3,  4,  5,  6,  7,  8,  9, 10, 11, 12, 13, 14, 15},
  68:Generated_Source\PSoC4/StripLights.c ****     /*  1  */  { 31, 30, 29, 28, 27, 26, 25, 24, 23, 22, 21, 20, 19, 18, 17, 16},
  69:Generated_Source\PSoC4/StripLights.c **** 	/*  2  */  { 32, 33, 34, 35, 36, 37, 38, 39, 40, 41, 42, 43, 44, 45, 46, 47},
  70:Generated_Source\PSoC4/StripLights.c **** 	/*  3  */  { 63, 62, 61, 60, 59, 58, 57, 56, 55, 54, 53, 52, 51, 50, 49, 48}, 
  71:Generated_Source\PSoC4/StripLights.c **** 	/*  4  */  { 64, 65, 66, 67, 68, 69, 70, 71, 72, 73, 74, 75, 76, 77, 78, 79},
  72:Generated_Source\PSoC4/StripLights.c **** 	/*  5  */  { 95, 94, 93, 92, 91, 90, 89, 88, 87, 86, 85, 84, 83, 82, 81, 80},
  73:Generated_Source\PSoC4/StripLights.c **** 	/*  6  */  { 96, 97, 98, 99,100,101,102,103,104,105,106,107,108,109,110,111},
  74:Generated_Source\PSoC4/StripLights.c **** 	/*  7  */  {127,126,125,124,123,122,121,120,119,118,117,116,115,114,113,112},
  75:Generated_Source\PSoC4/StripLights.c **** 	/*  8  */  {128,129,130,131,132,133,134,135,136,137,138,139,140,141,142,143},
  76:Generated_Source\PSoC4/StripLights.c **** 	/*  9  */  {159,158,157,156,155,154,153,152,151,150,149,148,147,146,145,144},
  77:Generated_Source\PSoC4/StripLights.c **** 	/* 10  */  {160,161,162,163,164,165,166,167,168,169,170,171,172,173,174,175},
  78:Generated_Source\PSoC4/StripLights.c **** 	/* 11  */  {191,190,189,188,187,186,185,184,183,182,181,180,179,178,177,176},
  79:Generated_Source\PSoC4/StripLights.c **** 	/* 12  */  {192,193,194,195,196,197,198,199,200,201,202,203,204,205,206,207},
  80:Generated_Source\PSoC4/StripLights.c **** 	/* 13  */  {223,222,221,220,219,218,217,216,215,214,213,212,211,210,209,208},
  81:Generated_Source\PSoC4/StripLights.c **** 	/* 14  */  {224,225,226,227,228,229,230,231,232,233,234,235,236,237,238,239},
  82:Generated_Source\PSoC4/StripLights.c **** 	/* 15  */  {255,254,253,252,251,250,249,248,247,246,245,244,243,242,241,240}};   
  83:Generated_Source\PSoC4/StripLights.c **** #endif
  84:Generated_Source\PSoC4/StripLights.c **** 
  85:Generated_Source\PSoC4/StripLights.c **** 
  86:Generated_Source\PSoC4/StripLights.c **** #if((StripLights_CHIP == StripLights_CHIP_WS2812) || (StripLights_CHIP == StripLights_CHIP_SF2812RG
  87:Generated_Source\PSoC4/StripLights.c **** const uint32 StripLights_CLUT[ ] = {
ARM GAS  C:\Users\JAMESS~1\AppData\Local\Temp\cce8FrJG.s 			page 3


  88:Generated_Source\PSoC4/StripLights.c **** //xxBBRRGG (WS2812)
  89:Generated_Source\PSoC4/StripLights.c **** //     (24)   [ Index = 0 ]
  90:Generated_Source\PSoC4/StripLights.c **** 0x0000FFFF,  // 0 Yellow
  91:Generated_Source\PSoC4/StripLights.c **** 0x0000CCFF,
  92:Generated_Source\PSoC4/StripLights.c **** 0x000099FF,
  93:Generated_Source\PSoC4/StripLights.c **** 0x000033FF,
  94:Generated_Source\PSoC4/StripLights.c **** 0x000000FF,  // 5  Green
  95:Generated_Source\PSoC4/StripLights.c **** 0x006600B3,
  96:Generated_Source\PSoC4/StripLights.c **** 0x00990099, 
  97:Generated_Source\PSoC4/StripLights.c **** 0x00B30066, 
  98:Generated_Source\PSoC4/StripLights.c **** 0x00CC0033,  // 9 Blue
  99:Generated_Source\PSoC4/StripLights.c **** 0x00B31919, 
 100:Generated_Source\PSoC4/StripLights.c **** 0x00993300, 
 101:Generated_Source\PSoC4/StripLights.c **** 0x00994000, 
 102:Generated_Source\PSoC4/StripLights.c **** 0x00996600, 
 103:Generated_Source\PSoC4/StripLights.c **** 0x00999900, 
 104:Generated_Source\PSoC4/StripLights.c **** 0x0099CC00, 
 105:Generated_Source\PSoC4/StripLights.c **** 0x0066E600, 
 106:Generated_Source\PSoC4/StripLights.c **** 0x0000FF00, // Red
 107:Generated_Source\PSoC4/StripLights.c **** 0x0000FF33, 
 108:Generated_Source\PSoC4/StripLights.c **** 0x0000FF66, 
 109:Generated_Source\PSoC4/StripLights.c **** 0x0000FF80, 
 110:Generated_Source\PSoC4/StripLights.c **** 0x0000FF99,  // 20 Orange
 111:Generated_Source\PSoC4/StripLights.c **** 0x0000FFB2, 
 112:Generated_Source\PSoC4/StripLights.c **** 0x0000FFCC, 
 113:Generated_Source\PSoC4/StripLights.c **** 0x0000FFE5,
 114:Generated_Source\PSoC4/StripLights.c **** // #24
 115:Generated_Source\PSoC4/StripLights.c **** 
 116:Generated_Source\PSoC4/StripLights.c **** //xxBBRRGG  (64)  [ Index = 24 ]
 117:Generated_Source\PSoC4/StripLights.c **** 0x00000000, 0x00550000, 0x00AA0000, 0x00FF0000,  // 0, Black,  LtBlue, MBlue, Blue
 118:Generated_Source\PSoC4/StripLights.c **** 0x00000055, 0x00550055, 0x00AA0055, 0x00FF0055,  // 4, LtGreen
 119:Generated_Source\PSoC4/StripLights.c **** 0x000000AA, 0x005500AA, 0x00AA00AA, 0x00FF00AA,  // 8, MGreen
 120:Generated_Source\PSoC4/StripLights.c **** 0x000000FF, 0x005500FF, 0x00AA00FF, 0x00FF00FF,  // 12 Green
 121:Generated_Source\PSoC4/StripLights.c **** 
 122:Generated_Source\PSoC4/StripLights.c **** 0x00005500, 0x00555500, 0x00AA5500, 0x00FF5500,  // 16, LtRed
 123:Generated_Source\PSoC4/StripLights.c **** 0x00005555, 0x00555555, 0x00AA5555, 0x00FF5555,  // 20, LtYellow
 124:Generated_Source\PSoC4/StripLights.c **** 0x000055AA, 0x005555AA, 0x00AA55AA, 0x00FF55AA,  // 24, 
 125:Generated_Source\PSoC4/StripLights.c **** 0x000055FF, 0x005555FF, 0x00AA55FF, 0x00FF55FF,  // 28,
 126:Generated_Source\PSoC4/StripLights.c **** 
 127:Generated_Source\PSoC4/StripLights.c **** 0x0000AA00, 0x0055AA00, 0x00AAAA00, 0x00FFAA00,  // 32, MRed
 128:Generated_Source\PSoC4/StripLights.c **** 0x0000AA55, 0x0055AA55, 0x00AAAA55, 0x00FFAA55,  // 36, 
 129:Generated_Source\PSoC4/StripLights.c **** 0x0000AAAA, 0x0055AAAA, 0x00AAAAAA, 0x00FFAAAA,  // 55, 
 130:Generated_Source\PSoC4/StripLights.c **** 0x0000AAFF, 0x0055AAFF, 0x00AAAAFF, 0x00FFAAFF,  // 44, 
 131:Generated_Source\PSoC4/StripLights.c **** 
 132:Generated_Source\PSoC4/StripLights.c **** 0x0000FF00, 0x0055FF00, 0x00AAFF00, 0x00FFFF00,  // 48, Red, ??, ??, Magenta
 133:Generated_Source\PSoC4/StripLights.c **** 0x0000FF55, 0x0055FF55, 0x00AAFF55, 0x00FFFF55,  // 52,
 134:Generated_Source\PSoC4/StripLights.c **** 0x0000FFAA, 0x0055FFAA, 0x00AAFFAA, 0x00FFFFAA,  // 56,
 135:Generated_Source\PSoC4/StripLights.c **** 0x0000FFFF, 0x0055FFFF, 0x00AAFFFF, 0x00FFFFFF,  // 60, Yellow,??, ??, White
 136:Generated_Source\PSoC4/StripLights.c **** 
 137:Generated_Source\PSoC4/StripLights.c **** // Misc ( 16 )  [ Index = 88 ]
 138:Generated_Source\PSoC4/StripLights.c **** 0x000080FF,  // SPRING_GREEN
 139:Generated_Source\PSoC4/StripLights.c **** 0x008000FF,  // TURQUOSE
 140:Generated_Source\PSoC4/StripLights.c **** 0x00FF00FF,  // CYAN
 141:Generated_Source\PSoC4/StripLights.c **** 0x00FF0080,  // OCEAN
 142:Generated_Source\PSoC4/StripLights.c **** 0x00FF8000,  // VIOLET
 143:Generated_Source\PSoC4/StripLights.c **** 0x0080FF00,  // RASPBERRY
 144:Generated_Source\PSoC4/StripLights.c **** 0x000000FF,  // GREEN
ARM GAS  C:\Users\JAMESS~1\AppData\Local\Temp\cce8FrJG.s 			page 4


 145:Generated_Source\PSoC4/StripLights.c **** 0x00202020,  // DIM WHITE
 146:Generated_Source\PSoC4/StripLights.c **** 0x00200000,  // DIM BLUE
 147:Generated_Source\PSoC4/StripLights.c **** 0x10000000,  // INVISIBLE
 148:Generated_Source\PSoC4/StripLights.c **** 0x0000FF00,  // Fire_Dark
 149:Generated_Source\PSoC4/StripLights.c **** 0x0000FF30,  // Fire_Light  // 00FF80
 150:Generated_Source\PSoC4/StripLights.c **** 0xFFFFFFFF,  // Full White
 151:Generated_Source\PSoC4/StripLights.c **** 0xFF000000,  // LED_WHITE
 152:Generated_Source\PSoC4/StripLights.c **** 0xFF808080,  // WHITE_RGB50
 153:Generated_Source\PSoC4/StripLights.c **** 0xFF404040,  // WHITE_RGB25
 154:Generated_Source\PSoC4/StripLights.c **** 
 155:Generated_Source\PSoC4/StripLights.c **** // Temperture Color Blue to Red (16) [ Index = 104 ]
 156:Generated_Source\PSoC4/StripLights.c **** 0x00FF0000, 0x00F01000, 0x00E02000, 0x00D03000,
 157:Generated_Source\PSoC4/StripLights.c **** 0x00C04000, 0x00B05000, 0x00A06000, 0x00907000,
 158:Generated_Source\PSoC4/StripLights.c **** 0x00808000, 0x00709000, 0x0060A000, 0x0050B000,
 159:Generated_Source\PSoC4/StripLights.c **** 0x0040C000, 0x0030D000, 0x0020E000, 0x0000FF00
 160:Generated_Source\PSoC4/StripLights.c **** };
 161:Generated_Source\PSoC4/StripLights.c **** #else  //xxBBGGRR (WS2811)
 162:Generated_Source\PSoC4/StripLights.c **** const uint32 StripLights_CLUT[ ] = {
 163:Generated_Source\PSoC4/StripLights.c **** //     (24)   [ Index = 0 ]
 164:Generated_Source\PSoC4/StripLights.c **** 0x0000FFFF,  // 0 Yellow
 165:Generated_Source\PSoC4/StripLights.c **** 0x0000FFCC,
 166:Generated_Source\PSoC4/StripLights.c **** 0x0000FF99,
 167:Generated_Source\PSoC4/StripLights.c **** 0x0000FF33,
 168:Generated_Source\PSoC4/StripLights.c **** 0x0000FF00,  // 5  Green
 169:Generated_Source\PSoC4/StripLights.c **** 0x0066B300,
 170:Generated_Source\PSoC4/StripLights.c **** 0x00999900, 
 171:Generated_Source\PSoC4/StripLights.c **** 0x00B36600, 
 172:Generated_Source\PSoC4/StripLights.c **** 0x00CC3300,  // 9 Blue
 173:Generated_Source\PSoC4/StripLights.c **** 0x00B31919, 
 174:Generated_Source\PSoC4/StripLights.c **** 0x00990033, 
 175:Generated_Source\PSoC4/StripLights.c **** 0x00990040, 
 176:Generated_Source\PSoC4/StripLights.c **** 0x00990066, 
 177:Generated_Source\PSoC4/StripLights.c **** 0x00990099, 
 178:Generated_Source\PSoC4/StripLights.c **** 0x009900CC, 
 179:Generated_Source\PSoC4/StripLights.c **** 0x006600E6, 
 180:Generated_Source\PSoC4/StripLights.c **** 0x000000FF, 
 181:Generated_Source\PSoC4/StripLights.c **** 0x000033FF, 
 182:Generated_Source\PSoC4/StripLights.c **** 0x000066FF, 
 183:Generated_Source\PSoC4/StripLights.c **** 0x000080FF, 
 184:Generated_Source\PSoC4/StripLights.c **** 0x000080FF,  // 20 Orange
 185:Generated_Source\PSoC4/StripLights.c **** 0x0000B2FF, 
 186:Generated_Source\PSoC4/StripLights.c **** 0x0000CCFF, 
 187:Generated_Source\PSoC4/StripLights.c **** 0x0000E5FF,
 188:Generated_Source\PSoC4/StripLights.c **** // #24
 189:Generated_Source\PSoC4/StripLights.c **** 
 190:Generated_Source\PSoC4/StripLights.c **** //xxBBGGRR  (64)  [ Index = 24 ]
 191:Generated_Source\PSoC4/StripLights.c **** 0x00000000, 0x00550000, 0x00AA0000, 0x00FF0000,  // 0, Black,  LtBlue, MBlue, Blue
 192:Generated_Source\PSoC4/StripLights.c **** 0x00005500, 0x00555500, 0x00AA5500, 0x00FF5500,  // 4, LtGreen
 193:Generated_Source\PSoC4/StripLights.c **** 0x0000AA00, 0x0055AA00, 0x00AAAA00, 0x00FFAA00,  // 8, MGreen
 194:Generated_Source\PSoC4/StripLights.c **** 0x0000FF00, 0x0055FF00, 0x00AAFF00, 0x00FFFF00,  // 12 Green
 195:Generated_Source\PSoC4/StripLights.c **** 
 196:Generated_Source\PSoC4/StripLights.c **** 0x00000055, 0x00550055, 0x00AA0055, 0x00FF0055,  // 16, LtRed
 197:Generated_Source\PSoC4/StripLights.c **** 0x00005555, 0x00555555, 0x00AA5555, 0x00FF5555,  // 20, LtYellow
 198:Generated_Source\PSoC4/StripLights.c **** 0x0000AA55, 0x0055AA55, 0x00AAAA55, 0x00FFAA55,  // 24, 
 199:Generated_Source\PSoC4/StripLights.c **** 0x0000FF55, 0x0055FF55, 0x00AAFF55, 0x00FFFF55,  // 28,
 200:Generated_Source\PSoC4/StripLights.c **** 
 201:Generated_Source\PSoC4/StripLights.c **** 0x000000AA, 0x005500AA, 0x00AA00AA, 0x00FF00AA,  // 32, MRed
ARM GAS  C:\Users\JAMESS~1\AppData\Local\Temp\cce8FrJG.s 			page 5


 202:Generated_Source\PSoC4/StripLights.c **** 0x000055AA, 0x005555AA, 0x00AA55AA, 0x00FF55AA,  // 36, 
 203:Generated_Source\PSoC4/StripLights.c **** 0x0000AAAA, 0x0055AAAA, 0x00AAAAAA, 0x00FFAAAA,  // 55, 
 204:Generated_Source\PSoC4/StripLights.c **** 0x0000FFAA, 0x0055FFAA, 0x00AAFFAA, 0x00FFFFAA,  // 44, 
 205:Generated_Source\PSoC4/StripLights.c **** 
 206:Generated_Source\PSoC4/StripLights.c **** 0x000000FF, 0x005500FF, 0x00AA00FF, 0x00F00FFF,  // 48, Red, ??, ??, Magenta
 207:Generated_Source\PSoC4/StripLights.c **** 0x000055FF, 0x005555FF, 0x00AA55FF, 0x00FF55FF,  // 52,
 208:Generated_Source\PSoC4/StripLights.c **** 0x0000AAFF, 0x0055AAFF, 0x00AAAAFF, 0x00FFAAFF,  // 56,
 209:Generated_Source\PSoC4/StripLights.c **** 0x0000FFFF, 0x0055FFFF, 0x00AAFFFF, 0x00FFFFFF,  // 60, Yellow,??, ??, White
 210:Generated_Source\PSoC4/StripLights.c **** 
 211:Generated_Source\PSoC4/StripLights.c **** // Misc ( 16 )  [ Index = 88 ]   //xxBBGGRR
 212:Generated_Source\PSoC4/StripLights.c **** 0x0000FF80,  // SPRING_GREEN
 213:Generated_Source\PSoC4/StripLights.c **** 0x0080FF00,  // TURQUOSE
 214:Generated_Source\PSoC4/StripLights.c **** 0x00FFFF00,  // CYAN
 215:Generated_Source\PSoC4/StripLights.c **** 0x00FF8000,  // OCEAN
 216:Generated_Source\PSoC4/StripLights.c **** 0x00FF0080,  // VIOLET
 217:Generated_Source\PSoC4/StripLights.c **** 0x008000FF,  // RASPBERRY
 218:Generated_Source\PSoC4/StripLights.c **** 0x0000FF00,  // GREEN
 219:Generated_Source\PSoC4/StripLights.c **** 0x00202020,  // DIM WHITE
 220:Generated_Source\PSoC4/StripLights.c **** 0x00200000,  // DIM BLUE
 221:Generated_Source\PSoC4/StripLights.c **** 0x10000000,  // INVISIBLE
 222:Generated_Source\PSoC4/StripLights.c **** 0x000000FF,  // Fire_Dark
 223:Generated_Source\PSoC4/StripLights.c **** 0x000030FF,  // Fire_Light  // 0080FF
 224:Generated_Source\PSoC4/StripLights.c **** 0xFFFFFFFF,  // Full White
 225:Generated_Source\PSoC4/StripLights.c **** 0xFF000000,  // White_LED
 226:Generated_Source\PSoC4/StripLights.c **** 0xFF808080,  // WHITE_RGB50
 227:Generated_Source\PSoC4/StripLights.c **** 0xFF404040,  // WHITE_RGB25
 228:Generated_Source\PSoC4/StripLights.c **** 
 229:Generated_Source\PSoC4/StripLights.c **** // Temperture Color Blue to Red (16) [ Index = 104 ]
 230:Generated_Source\PSoC4/StripLights.c **** 0x00FF0000, 0x00F00010, 0x00E00020, 0x00D00030,
 231:Generated_Source\PSoC4/StripLights.c **** 0x00C00040, 0x00B00050, 0x00A00060, 0x00900070,
 232:Generated_Source\PSoC4/StripLights.c **** 0x00800080, 0x00700090, 0x006000A0, 0x005000B0,
 233:Generated_Source\PSoC4/StripLights.c **** 0x004000C0, 0x003000D0, 0x002000E0, 0x000000FF
 234:Generated_Source\PSoC4/StripLights.c **** };
 235:Generated_Source\PSoC4/StripLights.c **** #endif
 236:Generated_Source\PSoC4/StripLights.c **** 
 237:Generated_Source\PSoC4/StripLights.c **** 
 238:Generated_Source\PSoC4/StripLights.c **** 
 239:Generated_Source\PSoC4/StripLights.c **** /*******************************************************************************
 240:Generated_Source\PSoC4/StripLights.c **** * Function Name: StripLights_Start
 241:Generated_Source\PSoC4/StripLights.c **** ********************************************************************************
 242:Generated_Source\PSoC4/StripLights.c **** * Summary:
 243:Generated_Source\PSoC4/StripLights.c **** *  Initialize the hardware. 
 244:Generated_Source\PSoC4/StripLights.c **** *
 245:Generated_Source\PSoC4/StripLights.c **** * Parameters:  
 246:Generated_Source\PSoC4/StripLights.c **** *  void  
 247:Generated_Source\PSoC4/StripLights.c **** *
 248:Generated_Source\PSoC4/StripLights.c **** * Return: 
 249:Generated_Source\PSoC4/StripLights.c **** *  void
 250:Generated_Source\PSoC4/StripLights.c **** *
 251:Generated_Source\PSoC4/StripLights.c **** *******************************************************************************/
 252:Generated_Source\PSoC4/StripLights.c **** void StripLights_Start()
 253:Generated_Source\PSoC4/StripLights.c **** {
 254:Generated_Source\PSoC4/StripLights.c ****     extern uint8 StripLights_initvar;
 255:Generated_Source\PSoC4/StripLights.c ****     extern uint32 StripLights_refreshComplete;
 256:Generated_Source\PSoC4/StripLights.c **** 
 257:Generated_Source\PSoC4/StripLights.c ****     #if (CY_PSOC3 || CY_PSOC5LP)
 258:Generated_Source\PSoC4/StripLights.c ****         int32   StripLights_realClock; 
ARM GAS  C:\Users\JAMESS~1\AppData\Local\Temp\cce8FrJG.s 			page 6


 259:Generated_Source\PSoC4/StripLights.c ****         int16   StripLights_period;
 260:Generated_Source\PSoC4/StripLights.c ****         int16   StripLights_dataZero;
 261:Generated_Source\PSoC4/StripLights.c ****         int16   StripLights_dataOne;
 262:Generated_Source\PSoC4/StripLights.c ****     #endif /* CY_PSOC5A */
 263:Generated_Source\PSoC4/StripLights.c **** 
 264:Generated_Source\PSoC4/StripLights.c ****     StripLights_ACTL0_REG = StripLights_DISABLE_FIFO;
 265:Generated_Source\PSoC4/StripLights.c **** 
 266:Generated_Source\PSoC4/StripLights.c ****     #if (CY_PSOC3 || CY_PSOC5LP)
 267:Generated_Source\PSoC4/StripLights.c ****         StripLights_realClock = (int32)StripLights_INPUT_CLOCK / (int32)(StripLights_Clock_DIV_LSB 
 268:Generated_Source\PSoC4/StripLights.c ****         StripLights_period    = (int16)(StripLights_realClock/StripLights_WS281X_CLOCK );
 269:Generated_Source\PSoC4/StripLights.c ****         
 270:Generated_Source\PSoC4/StripLights.c ****         StripLights_dataZero  = ((StripLights_period * StripLights_TIME_T0H)/StripLights_TIME_TL_TH
 271:Generated_Source\PSoC4/StripLights.c ****         StripLights_dataOne   = ((StripLights_period * StripLights_TIME_T1H)/StripLights_TIME_TL_TH
 272:Generated_Source\PSoC4/StripLights.c ****         
 273:Generated_Source\PSoC4/StripLights.c ****         StripLights_Period    = (uint8)(StripLights_period - 1);
 274:Generated_Source\PSoC4/StripLights.c ****         StripLights_Compare0  = (uint8)(StripLights_period - StripLights_dataZero);
 275:Generated_Source\PSoC4/StripLights.c ****         StripLights_Compare1  = (uint8)(StripLights_period - StripLights_dataOne);
 276:Generated_Source\PSoC4/StripLights.c **** 
 277:Generated_Source\PSoC4/StripLights.c ****     #elif (CY_PSOC4)
 278:Generated_Source\PSoC4/StripLights.c ****  
 279:Generated_Source\PSoC4/StripLights.c ****         StripLights_Period   = (uint8)StripLights_PERIOD-1;
 280:Generated_Source\PSoC4/StripLights.c ****         StripLights_Compare0 = (uint8)StripLights_COMPARE_ZERO;
 281:Generated_Source\PSoC4/StripLights.c ****         StripLights_Compare1 = (uint8)StripLights_COMPARE_ONE;        
 282:Generated_Source\PSoC4/StripLights.c ****     #endif /* CY_PSOC5A */
 283:Generated_Source\PSoC4/StripLights.c **** 
 284:Generated_Source\PSoC4/StripLights.c ****     
 285:Generated_Source\PSoC4/StripLights.c ****     StripLights_CONTROL = StripLights_ENABLE;
 286:Generated_Source\PSoC4/StripLights.c ****     StripLights_MemClear(StripLights_OFF);
 287:Generated_Source\PSoC4/StripLights.c ****     StripLights_CONTROL = StripLights_DISABLE;
 288:Generated_Source\PSoC4/StripLights.c ****     
 289:Generated_Source\PSoC4/StripLights.c ****     StripLights_SetFont( StripLights_FONT_5X7);
 290:Generated_Source\PSoC4/StripLights.c ****     
 291:Generated_Source\PSoC4/StripLights.c ****     /* Set no dimming, full brightness */
 292:Generated_Source\PSoC4/StripLights.c ****     StripLights_Dim(0); 
 293:Generated_Source\PSoC4/StripLights.c **** 
 294:Generated_Source\PSoC4/StripLights.c ****     if(StripLights_initvar == 0)
 295:Generated_Source\PSoC4/StripLights.c ****     {
 296:Generated_Source\PSoC4/StripLights.c **** 
 297:Generated_Source\PSoC4/StripLights.c ****         StripLights_initvar = 1;
 298:Generated_Source\PSoC4/StripLights.c ****  
 299:Generated_Source\PSoC4/StripLights.c ****          /* Start and set interrupt vector */
 300:Generated_Source\PSoC4/StripLights.c **** 
 301:Generated_Source\PSoC4/StripLights.c **** #if(StripLights_TRANSFER == StripLights_TRANSFER_ISR)
 302:Generated_Source\PSoC4/StripLights.c ****        {
 303:Generated_Source\PSoC4/StripLights.c ****            StripLights_cisr_StartEx(StripLights_CISR);
 304:Generated_Source\PSoC4/StripLights.c **** 		   StripLights_fisr_StartEx(StripLights_FISR);
 305:Generated_Source\PSoC4/StripLights.c ****         
 306:Generated_Source\PSoC4/StripLights.c ****            /* Set the ISRs to the highest priority */
 307:Generated_Source\PSoC4/StripLights.c ****            StripLights_cisr_SetPriority(1u);
 308:Generated_Source\PSoC4/StripLights.c ****            StripLights_fisr_SetPriority(0u);
 309:Generated_Source\PSoC4/StripLights.c ****        }
 310:Generated_Source\PSoC4/StripLights.c **** #endif       
 311:Generated_Source\PSoC4/StripLights.c ****        if(StripLights_TRANSFER == StripLights_TRANSFER_FIRMWARE)
 312:Generated_Source\PSoC4/StripLights.c ****        {
 313:Generated_Source\PSoC4/StripLights.c ****            StripLights_CONTROL = StripLights_ENABLE;    
 314:Generated_Source\PSoC4/StripLights.c ****        }
 315:Generated_Source\PSoC4/StripLights.c ****     }
ARM GAS  C:\Users\JAMESS~1\AppData\Local\Temp\cce8FrJG.s 			page 7


 316:Generated_Source\PSoC4/StripLights.c ****     StripLights_refreshComplete = 1;
 317:Generated_Source\PSoC4/StripLights.c **** }
 318:Generated_Source\PSoC4/StripLights.c **** 
 319:Generated_Source\PSoC4/StripLights.c **** /*******************************************************************************
 320:Generated_Source\PSoC4/StripLights.c **** * Function Name: StripLights_SetCriticalFuncs
 321:Generated_Source\PSoC4/StripLights.c **** ********************************************************************************
 322:Generated_Source\PSoC4/StripLights.c **** * Summary:
 323:Generated_Source\PSoC4/StripLights.c **** *   Set the enter and exit critical functions
 324:Generated_Source\PSoC4/StripLights.c **** *
 325:Generated_Source\PSoC4/StripLights.c **** * Parameters:  
 326:Generated_Source\PSoC4/StripLights.c **** *  void  
 327:Generated_Source\PSoC4/StripLights.c **** *
 328:Generated_Source\PSoC4/StripLights.c **** * Return: 
 329:Generated_Source\PSoC4/StripLights.c **** *  void
 330:Generated_Source\PSoC4/StripLights.c **** *
 331:Generated_Source\PSoC4/StripLights.c **** *******************************************************************************/
 332:Generated_Source\PSoC4/StripLights.c **** void StripLights_SetCriticalFuncs(funcPtr EnCriticalFunc, funcPtr ExCriticalFunc)
 333:Generated_Source\PSoC4/StripLights.c **** {
 334:Generated_Source\PSoC4/StripLights.c ****     StripLights_EnterCritical = EnCriticalFunc;
 335:Generated_Source\PSoC4/StripLights.c ****     StripLights_ExitCritical  = ExCriticalFunc;   
 336:Generated_Source\PSoC4/StripLights.c **** }
 337:Generated_Source\PSoC4/StripLights.c **** 
 338:Generated_Source\PSoC4/StripLights.c **** /*******************************************************************************
 339:Generated_Source\PSoC4/StripLights.c **** * Function Name: StripLights_TriggerWaitDelay
 340:Generated_Source\PSoC4/StripLights.c **** ********************************************************************************
 341:Generated_Source\PSoC4/StripLights.c **** * Summary:
 342:Generated_Source\PSoC4/StripLights.c **** *   Update the LEDs then wait for completion.
 343:Generated_Source\PSoC4/StripLights.c **** *
 344:Generated_Source\PSoC4/StripLights.c **** * Parameters:  
 345:Generated_Source\PSoC4/StripLights.c **** *  void  
 346:Generated_Source\PSoC4/StripLights.c **** *
 347:Generated_Source\PSoC4/StripLights.c **** * Return: 
 348:Generated_Source\PSoC4/StripLights.c **** *  void
 349:Generated_Source\PSoC4/StripLights.c **** *
 350:Generated_Source\PSoC4/StripLights.c **** *******************************************************************************/
 351:Generated_Source\PSoC4/StripLights.c **** void StripLights_TriggerWaitDelay(uint32 delay)
 352:Generated_Source\PSoC4/StripLights.c **** {
 353:Generated_Source\PSoC4/StripLights.c **** 
 354:Generated_Source\PSoC4/StripLights.c ****     uint32 toCount = 0;
 355:Generated_Source\PSoC4/StripLights.c ****     
 356:Generated_Source\PSoC4/StripLights.c ****     // Call Critical section function here
 357:Generated_Source\PSoC4/StripLights.c ****     if(StripLights_EnterCritical != (funcPtr)0)
 358:Generated_Source\PSoC4/StripLights.c ****     {
 359:Generated_Source\PSoC4/StripLights.c ****         StripLights_EnterCritical();    
 360:Generated_Source\PSoC4/StripLights.c ****     }
 361:Generated_Source\PSoC4/StripLights.c ****     
 362:Generated_Source\PSoC4/StripLights.c ****     StripLights_Trigger(1);           // Trigger the LED update
 363:Generated_Source\PSoC4/StripLights.c ****     
 364:Generated_Source\PSoC4/StripLights.c ****     while( StripLights_Ready() == 0)
 365:Generated_Source\PSoC4/StripLights.c ****     {
 366:Generated_Source\PSoC4/StripLights.c ****         if(toCount > (StripLights_READY_TIMEOUT  * 10)) break; 
 367:Generated_Source\PSoC4/StripLights.c ****         CyDelayUs(100);  
 368:Generated_Source\PSoC4/StripLights.c ****         toCount++;
 369:Generated_Source\PSoC4/StripLights.c ****     }
 370:Generated_Source\PSoC4/StripLights.c ****     
 371:Generated_Source\PSoC4/StripLights.c ****     while(toCount < (delay*10)) 
 372:Generated_Source\PSoC4/StripLights.c ****     {
ARM GAS  C:\Users\JAMESS~1\AppData\Local\Temp\cce8FrJG.s 			page 8


 373:Generated_Source\PSoC4/StripLights.c ****         toCount++;
 374:Generated_Source\PSoC4/StripLights.c ****         CyDelayUs(100); 
 375:Generated_Source\PSoC4/StripLights.c ****     }
 376:Generated_Source\PSoC4/StripLights.c ****     
 377:Generated_Source\PSoC4/StripLights.c ****     
 378:Generated_Source\PSoC4/StripLights.c ****     // Call undo critical function here
 379:Generated_Source\PSoC4/StripLights.c ****       if(StripLights_ExitCritical != (funcPtr)0)
 380:Generated_Source\PSoC4/StripLights.c ****     {
 381:Generated_Source\PSoC4/StripLights.c ****         StripLights_ExitCritical();    
 382:Generated_Source\PSoC4/StripLights.c ****     }
 383:Generated_Source\PSoC4/StripLights.c ****     
 384:Generated_Source\PSoC4/StripLights.c ****     
 385:Generated_Source\PSoC4/StripLights.c **** }
 386:Generated_Source\PSoC4/StripLights.c **** 
 387:Generated_Source\PSoC4/StripLights.c **** /*******************************************************************************
 388:Generated_Source\PSoC4/StripLights.c **** * Function Name: StripLights_TriggerWait
 389:Generated_Source\PSoC4/StripLights.c **** ********************************************************************************
 390:Generated_Source\PSoC4/StripLights.c **** * Summary:
 391:Generated_Source\PSoC4/StripLights.c **** *   Update the LEDs then waits for completion.
 392:Generated_Source\PSoC4/StripLights.c **** *
 393:Generated_Source\PSoC4/StripLights.c **** * Parameters:  
 394:Generated_Source\PSoC4/StripLights.c ****   rst: Resets the row and column parameters.    
 395:Generated_Source\PSoC4/StripLights.c **** *
 396:Generated_Source\PSoC4/StripLights.c **** * Return: 
 397:Generated_Source\PSoC4/StripLights.c **** *  void
 398:Generated_Source\PSoC4/StripLights.c **** *
 399:Generated_Source\PSoC4/StripLights.c **** *******************************************************************************/
 400:Generated_Source\PSoC4/StripLights.c **** void StripLights_TriggerWait(uint32 rst)
 401:Generated_Source\PSoC4/StripLights.c **** {
 402:Generated_Source\PSoC4/StripLights.c **** 
 403:Generated_Source\PSoC4/StripLights.c ****     
 404:Generated_Source\PSoC4/StripLights.c ****     // Call Critical section function here
 405:Generated_Source\PSoC4/StripLights.c ****     if(StripLights_EnterCritical != (funcPtr)0)
 406:Generated_Source\PSoC4/StripLights.c ****     {
 407:Generated_Source\PSoC4/StripLights.c ****         StripLights_EnterCritical();    
 408:Generated_Source\PSoC4/StripLights.c ****     }
 409:Generated_Source\PSoC4/StripLights.c ****     
 410:Generated_Source\PSoC4/StripLights.c ****     StripLights_Trigger(rst);
 411:Generated_Source\PSoC4/StripLights.c ****     
 412:Generated_Source\PSoC4/StripLights.c ****     while( StripLights_Ready() == 0);
 413:Generated_Source\PSoC4/StripLights.c ****     
 414:Generated_Source\PSoC4/StripLights.c ****     
 415:Generated_Source\PSoC4/StripLights.c ****     // Call undo critical function here
 416:Generated_Source\PSoC4/StripLights.c ****       if(StripLights_ExitCritical != (funcPtr)0)
 417:Generated_Source\PSoC4/StripLights.c ****     {
 418:Generated_Source\PSoC4/StripLights.c ****         StripLights_ExitCritical();    
 419:Generated_Source\PSoC4/StripLights.c ****     }
 420:Generated_Source\PSoC4/StripLights.c ****     
 421:Generated_Source\PSoC4/StripLights.c ****     
 422:Generated_Source\PSoC4/StripLights.c **** }
 423:Generated_Source\PSoC4/StripLights.c **** 
 424:Generated_Source\PSoC4/StripLights.c **** 
 425:Generated_Source\PSoC4/StripLights.c **** /*******************************************************************************
 426:Generated_Source\PSoC4/StripLights.c **** * Function Name: StripLights_Trigger
 427:Generated_Source\PSoC4/StripLights.c **** ********************************************************************************
 428:Generated_Source\PSoC4/StripLights.c **** * Summary:
 429:Generated_Source\PSoC4/StripLights.c **** *   Update the LEDs with graphics memory.
ARM GAS  C:\Users\JAMESS~1\AppData\Local\Temp\cce8FrJG.s 			page 9


 430:Generated_Source\PSoC4/StripLights.c **** *
 431:Generated_Source\PSoC4/StripLights.c **** * Parameters:  
 432:Generated_Source\PSoC4/StripLights.c **** *  rst: Resets the row and column parameters.  
 433:Generated_Source\PSoC4/StripLights.c **** *
 434:Generated_Source\PSoC4/StripLights.c **** * Return: 
 435:Generated_Source\PSoC4/StripLights.c **** *  void
 436:Generated_Source\PSoC4/StripLights.c **** *
 437:Generated_Source\PSoC4/StripLights.c **** *******************************************************************************/
 438:Generated_Source\PSoC4/StripLights.c **** void StripLights_Trigger(uint32 rst)
 439:Generated_Source\PSoC4/StripLights.c **** {
 440:Generated_Source\PSoC4/StripLights.c ****     uint32 color;
 441:Generated_Source\PSoC4/StripLights.c ****     
 442:Generated_Source\PSoC4/StripLights.c ****     if(rst) 
 443:Generated_Source\PSoC4/StripLights.c ****     {
 444:Generated_Source\PSoC4/StripLights.c ****         StripLights_row = 0;  /* Reset the row */
 445:Generated_Source\PSoC4/StripLights.c ****         StripLights_Channel = 0;
 446:Generated_Source\PSoC4/StripLights.c ****     }
 447:Generated_Source\PSoC4/StripLights.c ****     
 448:Generated_Source\PSoC4/StripLights.c ****     #if(StripLights_MEMORY_TYPE == StripLights_MEMORY_RGB)
 449:Generated_Source\PSoC4/StripLights.c ****        color = StripLights_ledArray[StripLights_row][0];
 450:Generated_Source\PSoC4/StripLights.c ****     #else  /* Else use lookup table */
 451:Generated_Source\PSoC4/StripLights.c ****        color = StripLights_CLUT[ (StripLights_ledArray[StripLights_row][0]) ];
 452:Generated_Source\PSoC4/StripLights.c ****     #endif
 453:Generated_Source\PSoC4/StripLights.c ****     
 454:Generated_Source\PSoC4/StripLights.c ****      color = (color >> StripLights_DimShift) & StripLights_DimMask;
 455:Generated_Source\PSoC4/StripLights.c ****      
 456:Generated_Source\PSoC4/StripLights.c ****     #if(StripLights_GAMMA_CORRECTION == StripLights_GAMMA_ON)
 457:Generated_Source\PSoC4/StripLights.c ****         StripLights_DATA = StripLights_gamma[color & 0x000000FF];  // Write Green
 458:Generated_Source\PSoC4/StripLights.c ****         color = color >> 8;
 459:Generated_Source\PSoC4/StripLights.c ****         StripLights_DATA = StripLights_gamma[color & 0x000000FF];  // Write Red
 460:Generated_Source\PSoC4/StripLights.c ****         color = color >> 8;
 461:Generated_Source\PSoC4/StripLights.c ****         StripLights_DATA = StripLights_gamma[color & 0x000000FF];  // Write Blue
 462:Generated_Source\PSoC4/StripLights.c ****         #if(StripLights_CHIP == StripLights_CHIP_SF2812RGBW)
 463:Generated_Source\PSoC4/StripLights.c ****             color = color >> 8;
 464:Generated_Source\PSoC4/StripLights.c ****             StripLights_DATA = StripLights_gamma[color & 0x000000FF];  // Write White
 465:Generated_Source\PSoC4/StripLights.c ****         #endif
 466:Generated_Source\PSoC4/StripLights.c ****     #else
 467:Generated_Source\PSoC4/StripLights.c ****         StripLights_DATA = (uint8)(color & 0x000000FF);  // Write Green
 468:Generated_Source\PSoC4/StripLights.c ****         color = color >> 8;
 469:Generated_Source\PSoC4/StripLights.c ****         StripLights_DATA = (uint8)(color & 0x000000FF);  // Write Red
 470:Generated_Source\PSoC4/StripLights.c ****         color = color >> 8;
 471:Generated_Source\PSoC4/StripLights.c ****         StripLights_DATA = (uint8)(color & 0x000000FF);  // Write Blue  
 472:Generated_Source\PSoC4/StripLights.c ****         #if(StripLights_CHIP == StripLights_CHIP_SF2812RGBW)
 473:Generated_Source\PSoC4/StripLights.c ****             color = color >> 8;
 474:Generated_Source\PSoC4/StripLights.c ****         StripLights_DATA = (uint8)(color & 0x000000FF);  // Write White 
 475:Generated_Source\PSoC4/StripLights.c ****         #endif
 476:Generated_Source\PSoC4/StripLights.c ****     #endif
 477:Generated_Source\PSoC4/StripLights.c ****   
 478:Generated_Source\PSoC4/StripLights.c ****     StripLights_ledIndex = 1;
 479:Generated_Source\PSoC4/StripLights.c **** 	
 480:Generated_Source\PSoC4/StripLights.c **** 	StripLights_CONTROL = StripLights_ENABLE | StripLights_XFRCMPT_IRQ_EN | StripLights_FIFO_IRQ_EN; 
 481:Generated_Source\PSoC4/StripLights.c ****     StripLights_refreshComplete = 0;
 482:Generated_Source\PSoC4/StripLights.c **** }
 483:Generated_Source\PSoC4/StripLights.c **** 
 484:Generated_Source\PSoC4/StripLights.c **** /*******************************************************************************
 485:Generated_Source\PSoC4/StripLights.c **** * Function Name: StripLights_Ready
 486:Generated_Source\PSoC4/StripLights.c **** ********************************************************************************
ARM GAS  C:\Users\JAMESS~1\AppData\Local\Temp\cce8FrJG.s 			page 10


 487:Generated_Source\PSoC4/StripLights.c **** * Summary:
 488:Generated_Source\PSoC4/StripLights.c **** *  Checks to see if transfer is complete.
 489:Generated_Source\PSoC4/StripLights.c **** *
 490:Generated_Source\PSoC4/StripLights.c **** * Parameters:  
 491:Generated_Source\PSoC4/StripLights.c **** *  none  
 492:Generated_Source\PSoC4/StripLights.c **** *
 493:Generated_Source\PSoC4/StripLights.c **** * Return: 
 494:Generated_Source\PSoC4/StripLights.c **** *  Zero if not complete, non-zero if transfer complete.
 495:Generated_Source\PSoC4/StripLights.c **** *
 496:Generated_Source\PSoC4/StripLights.c **** *******************************************************************************/
 497:Generated_Source\PSoC4/StripLights.c **** uint32 StripLights_Ready(void)
 498:Generated_Source\PSoC4/StripLights.c **** {
 499:Generated_Source\PSoC4/StripLights.c ****     if(StripLights_refreshComplete )
 500:Generated_Source\PSoC4/StripLights.c ****     {
 501:Generated_Source\PSoC4/StripLights.c ****         StripLights_CONTROL = StripLights_DISABLE;
 502:Generated_Source\PSoC4/StripLights.c ****         return((uint32)1);
 503:Generated_Source\PSoC4/StripLights.c ****     }
 504:Generated_Source\PSoC4/StripLights.c ****     else
 505:Generated_Source\PSoC4/StripLights.c ****     {
 506:Generated_Source\PSoC4/StripLights.c ****          return((uint32)0);
 507:Generated_Source\PSoC4/StripLights.c ****     }
 508:Generated_Source\PSoC4/StripLights.c **** }
 509:Generated_Source\PSoC4/StripLights.c **** 
 510:Generated_Source\PSoC4/StripLights.c **** 
 511:Generated_Source\PSoC4/StripLights.c **** /*******************************************************************************
 512:Generated_Source\PSoC4/StripLights.c **** * Function Name: StripLights_Stop
 513:Generated_Source\PSoC4/StripLights.c **** ********************************************************************************
 514:Generated_Source\PSoC4/StripLights.c **** * Summary:
 515:Generated_Source\PSoC4/StripLights.c **** *  Stop all transfers.
 516:Generated_Source\PSoC4/StripLights.c **** *
 517:Generated_Source\PSoC4/StripLights.c **** * Parameters:  
 518:Generated_Source\PSoC4/StripLights.c **** *  None 
 519:Generated_Source\PSoC4/StripLights.c **** *
 520:Generated_Source\PSoC4/StripLights.c **** * Return: 
 521:Generated_Source\PSoC4/StripLights.c **** *  void
 522:Generated_Source\PSoC4/StripLights.c **** *
 523:Generated_Source\PSoC4/StripLights.c **** *******************************************************************************/
 524:Generated_Source\PSoC4/StripLights.c **** void StripLights_Stop()
 525:Generated_Source\PSoC4/StripLights.c **** {
 526:Generated_Source\PSoC4/StripLights.c ****     StripLights_CONTROL = StripLights_DISABLE;
 527:Generated_Source\PSoC4/StripLights.c **** }
 528:Generated_Source\PSoC4/StripLights.c **** 
 529:Generated_Source\PSoC4/StripLights.c **** uint32 StripLights_getColor( uint32 color)
 530:Generated_Source\PSoC4/StripLights.c **** {
 531:Generated_Source\PSoC4/StripLights.c ****     #if(StripLights_MEMORY_TYPE == StripLights_MEMORY_RGB)
 532:Generated_Source\PSoC4/StripLights.c ****     color = StripLights_CLUT[color];
 533:Generated_Source\PSoC4/StripLights.c ****     #endif
 534:Generated_Source\PSoC4/StripLights.c **** 
 535:Generated_Source\PSoC4/StripLights.c ****     return(color);
 536:Generated_Source\PSoC4/StripLights.c **** }
 537:Generated_Source\PSoC4/StripLights.c **** 
 538:Generated_Source\PSoC4/StripLights.c **** /*******************************************************************************
 539:Generated_Source\PSoC4/StripLights.c **** * Function Name: StripLights_ColorInc
 540:Generated_Source\PSoC4/StripLights.c **** ********************************************************************************
 541:Generated_Source\PSoC4/StripLights.c **** * Summary:
 542:Generated_Source\PSoC4/StripLights.c **** *  Increment color throught the color lookup table.
 543:Generated_Source\PSoC4/StripLights.c **** *
ARM GAS  C:\Users\JAMESS~1\AppData\Local\Temp\cce8FrJG.s 			page 11


 544:Generated_Source\PSoC4/StripLights.c **** * Parameters:  
 545:Generated_Source\PSoC4/StripLights.c **** *  uint32 incValue: Increment through color table by incValue. 
 546:Generated_Source\PSoC4/StripLights.c **** *
 547:Generated_Source\PSoC4/StripLights.c **** * Return: Color at next location.
 548:Generated_Source\PSoC4/StripLights.c **** *  
 549:Generated_Source\PSoC4/StripLights.c **** *
 550:Generated_Source\PSoC4/StripLights.c **** *******************************************************************************/
 551:Generated_Source\PSoC4/StripLights.c **** uint32 StripLights_ColorInc(uint32 incValue)
 552:Generated_Source\PSoC4/StripLights.c **** {
 553:Generated_Source\PSoC4/StripLights.c ****     uint32 color;
 554:Generated_Source\PSoC4/StripLights.c ****     extern const uint32 StripLights_CLUT[];
 555:Generated_Source\PSoC4/StripLights.c ****     static uint32 colorIndex = 0;
 556:Generated_Source\PSoC4/StripLights.c ****     
 557:Generated_Source\PSoC4/StripLights.c ****     colorIndex += incValue;
 558:Generated_Source\PSoC4/StripLights.c ****     colorIndex = colorIndex % StripLights_COLOR_WHEEL_SIZE;
 559:Generated_Source\PSoC4/StripLights.c **** 
 560:Generated_Source\PSoC4/StripLights.c ****     #if(StripLights_MEMORY_TYPE == StripLights_MEMORY_RGB)
 561:Generated_Source\PSoC4/StripLights.c ****        color = StripLights_CLUT[ colorIndex ];
 562:Generated_Source\PSoC4/StripLights.c ****     #else
 563:Generated_Source\PSoC4/StripLights.c ****         color = colorIndex;
 564:Generated_Source\PSoC4/StripLights.c ****     #endif
 565:Generated_Source\PSoC4/StripLights.c ****     return(color);
 566:Generated_Source\PSoC4/StripLights.c **** }
 567:Generated_Source\PSoC4/StripLights.c **** /*****************************************************************************
 568:Generated_Source\PSoC4/StripLights.c **** * Function Name: StripLights_FISR
 569:Generated_Source\PSoC4/StripLights.c **** ******************************************************************************
 570:Generated_Source\PSoC4/StripLights.c **** *
 571:Generated_Source\PSoC4/StripLights.c **** * Summary:
 572:Generated_Source\PSoC4/StripLights.c **** *  Interrupt service handler for data transfer for each LED 
 573:Generated_Source\PSoC4/StripLights.c **** *
 574:Generated_Source\PSoC4/StripLights.c **** * Parameters:  
 575:Generated_Source\PSoC4/StripLights.c **** *  void
 576:Generated_Source\PSoC4/StripLights.c **** *
 577:Generated_Source\PSoC4/StripLights.c **** * Return: 
 578:Generated_Source\PSoC4/StripLights.c **** *  void 
 579:Generated_Source\PSoC4/StripLights.c **** *
 580:Generated_Source\PSoC4/StripLights.c **** * Reentrant: 
 581:Generated_Source\PSoC4/StripLights.c **** *  No
 582:Generated_Source\PSoC4/StripLights.c **** *
 583:Generated_Source\PSoC4/StripLights.c **** *****************************************************************************/
 584:Generated_Source\PSoC4/StripLights.c **** CY_ISR( StripLights_FISR)
 585:Generated_Source\PSoC4/StripLights.c **** {
  28              		.loc 1 585 0
  29              		.cfi_startproc
  30              		@ args = 0, pretend = 0, frame = 0
  31              		@ frame_needed = 0, uses_anonymous_args = 0
  32 0000 70B5     		push	{r4, r5, r6, lr}
  33              		.cfi_def_cfa_offset 16
  34              		.cfi_offset 4, -16
  35              		.cfi_offset 5, -12
  36              		.cfi_offset 6, -8
  37              		.cfi_offset 14, -4
 586:Generated_Source\PSoC4/StripLights.c ****     extern uint32  StripLights_DimMask;
 587:Generated_Source\PSoC4/StripLights.c ****     extern uint32  StripLights_DimShift;
 588:Generated_Source\PSoC4/StripLights.c ****     uint32 static color;
 589:Generated_Source\PSoC4/StripLights.c ****    
 590:Generated_Source\PSoC4/StripLights.c ****     #if(StripLights_MEMORY_TYPE == StripLights_MEMORY_RGB)
ARM GAS  C:\Users\JAMESS~1\AppData\Local\Temp\cce8FrJG.s 			page 12


 591:Generated_Source\PSoC4/StripLights.c ****         color = StripLights_ledArray[StripLights_row][StripLights_ledIndex];
  38              		.loc 1 591 0
  39 0002 1549     		ldr	r1, .L3
  40 0004 9623     		movs	r3, #150
  41 0006 5B00     		lsls	r3, r3, #1
  42 0008 0A68     		ldr	r2, [r1]
  43 000a 5343     		muls	r3, r2
  44 000c 4A68     		ldr	r2, [r1, #4]
  45 000e 9B18     		adds	r3, r3, r2
  46 0010 9B00     		lsls	r3, r3, #2
  47 0012 1248     		ldr	r0, .L3+4
  48 0014 1B58     		ldr	r3, [r3, r0]
 592:Generated_Source\PSoC4/StripLights.c ****     #else  /* Else use lookup table */
 593:Generated_Source\PSoC4/StripLights.c ****         color = StripLights_CLUT[ (StripLights_ledArray[StripLights_row][StripLights_ledIndex]) ];
 594:Generated_Source\PSoC4/StripLights.c ****     #endif
 595:Generated_Source\PSoC4/StripLights.c **** 
 596:Generated_Source\PSoC4/StripLights.c ****     color = (color >> StripLights_DimShift) & StripLights_DimMask;  
  49              		.loc 1 596 0
  50 0016 1248     		ldr	r0, .L3+8
  51 0018 0068     		ldr	r0, [r0]
  52 001a C340     		lsrs	r3, r3, r0
  53 001c 1148     		ldr	r0, .L3+12
  54 001e 0068     		ldr	r0, [r0]
  55 0020 0340     		ands	r3, r0
 597:Generated_Source\PSoC4/StripLights.c **** 
 598:Generated_Source\PSoC4/StripLights.c ****     #if(StripLights_GAMMA_CORRECTION == StripLights_GAMMA_ON)
 599:Generated_Source\PSoC4/StripLights.c **** 
 600:Generated_Source\PSoC4/StripLights.c ****         StripLights_DATA = StripLights_gamma[color & 0x000000FF];  // Write Green
  56              		.loc 1 600 0
  57 0022 FF25     		movs	r5, #255
  58 0024 2800     		movs	r0, r5
  59 0026 1840     		ands	r0, r3
  60 0028 0F4C     		ldr	r4, .L3+16
  61 002a 265C     		ldrb	r6, [r4, r0]
  62 002c 0F48     		ldr	r0, .L3+20
  63 002e 0670     		strb	r6, [r0]
 601:Generated_Source\PSoC4/StripLights.c ****         color = color >> 8;
  64              		.loc 1 601 0
  65 0030 1E0A     		lsrs	r6, r3, #8
 602:Generated_Source\PSoC4/StripLights.c ****         StripLights_DATA = StripLights_gamma[color & 0x000000FF];  // Write Red
  66              		.loc 1 602 0
  67 0032 2E40     		ands	r6, r5
  68 0034 A65D     		ldrb	r6, [r4, r6]
  69 0036 0670     		strb	r6, [r0]
 603:Generated_Source\PSoC4/StripLights.c ****         color = color >> 8;
  70              		.loc 1 603 0
  71 0038 1B0C     		lsrs	r3, r3, #16
  72 003a 8B60     		str	r3, [r1, #8]
 604:Generated_Source\PSoC4/StripLights.c ****         StripLights_DATA = StripLights_gamma[color & 0x000000FF];  // Write Blue
  73              		.loc 1 604 0
  74 003c 2B40     		ands	r3, r5
  75 003e E35C     		ldrb	r3, [r4, r3]
  76 0040 0370     		strb	r3, [r0]
 605:Generated_Source\PSoC4/StripLights.c ****         #if(StripLights_CHIP == StripLights_CHIP_SF2812RGBW)
 606:Generated_Source\PSoC4/StripLights.c ****             color = color >> 8;
 607:Generated_Source\PSoC4/StripLights.c ****             StripLights_DATA = StripLights_gamma[color & 0x000000FF];  // Write White 
 608:Generated_Source\PSoC4/StripLights.c ****         #endif
ARM GAS  C:\Users\JAMESS~1\AppData\Local\Temp\cce8FrJG.s 			page 13


 609:Generated_Source\PSoC4/StripLights.c ****     #else
 610:Generated_Source\PSoC4/StripLights.c **** 
 611:Generated_Source\PSoC4/StripLights.c ****         StripLights_DATA = (uint8)(color & 0x000000FF);  // Write Green
 612:Generated_Source\PSoC4/StripLights.c ****         color = color >> 8;
 613:Generated_Source\PSoC4/StripLights.c ****         StripLights_DATA = (uint8)(color & 0x000000FF);  // Write Red
 614:Generated_Source\PSoC4/StripLights.c ****         color = color >> 8;
 615:Generated_Source\PSoC4/StripLights.c ****         StripLights_DATA = (uint8)(color & 0x000000FF);  // Write Blue    
 616:Generated_Source\PSoC4/StripLights.c ****          #if(StripLights_CHIP == StripLights_CHIP_SF2812RGBW)
 617:Generated_Source\PSoC4/StripLights.c ****             color = color >> 8;
 618:Generated_Source\PSoC4/StripLights.c ****             StripLights_DATA = (uint8)(color & 0x000000FF);  // Write White 
 619:Generated_Source\PSoC4/StripLights.c ****         #endif 
 620:Generated_Source\PSoC4/StripLights.c ****     #endif
 621:Generated_Source\PSoC4/StripLights.c ****     
 622:Generated_Source\PSoC4/StripLights.c ****     StripLights_ledIndex++;
  77              		.loc 1 622 0
  78 0042 0132     		adds	r2, r2, #1
  79 0044 4A60     		str	r2, [r1, #4]
 623:Generated_Source\PSoC4/StripLights.c ****     if(StripLights_ledIndex >= StripLights_ARRAY_COLS)
  80              		.loc 1 623 0
  81 0046 2C23     		movs	r3, #44
  82 0048 FF33     		adds	r3, r3, #255
  83 004a 9A42     		cmp	r2, r3
  84 004c 02D9     		bls	.L1
 624:Generated_Source\PSoC4/StripLights.c ****     {
 625:Generated_Source\PSoC4/StripLights.c ****         StripLights_CONTROL = StripLights_ENABLE | StripLights_XFRCMPT_IRQ_EN; 
  85              		.loc 1 625 0
  86 004e 1122     		movs	r2, #17
  87 0050 074B     		ldr	r3, .L3+24
  88 0052 1A70     		strb	r2, [r3]
  89              	.L1:
 626:Generated_Source\PSoC4/StripLights.c ****     }
 627:Generated_Source\PSoC4/StripLights.c **** }
  90              		.loc 1 627 0
  91              		@ sp needed
  92 0054 70BD     		pop	{r4, r5, r6, pc}
  93              	.L4:
  94 0056 C046     		.align	2
  95              	.L3:
  96 0058 00000000 		.word	.LANCHOR0
  97 005c 00000000 		.word	StripLights_ledArray
  98 0060 00000000 		.word	StripLights_DimShift
  99 0064 00000000 		.word	StripLights_DimMask
 100 0068 00000000 		.word	.LANCHOR1
 101 006c 42000F40 		.word	1074724930
 102 0070 72000F40 		.word	1074724978
 103              		.cfi_endproc
 104              	.LFE41:
 105              		.size	StripLights_FISR, .-StripLights_FISR
 106              		.section	.text.StripLights_CISR,"ax",%progbits
 107              		.align	2
 108              		.global	StripLights_CISR
 109              		.code	16
 110              		.thumb_func
 111              		.type	StripLights_CISR, %function
 112              	StripLights_CISR:
 113              	.LFB42:
 628:Generated_Source\PSoC4/StripLights.c **** 
ARM GAS  C:\Users\JAMESS~1\AppData\Local\Temp\cce8FrJG.s 			page 14


 629:Generated_Source\PSoC4/StripLights.c **** /*****************************************************************************
 630:Generated_Source\PSoC4/StripLights.c **** * Function Name: StripLights_CISR
 631:Generated_Source\PSoC4/StripLights.c **** ******************************************************************************
 632:Generated_Source\PSoC4/StripLights.c **** *
 633:Generated_Source\PSoC4/StripLights.c **** * Summary:
 634:Generated_Source\PSoC4/StripLights.c **** *  Interrupt service handler after each row is complete.
 635:Generated_Source\PSoC4/StripLights.c **** *
 636:Generated_Source\PSoC4/StripLights.c **** * Parameters:  
 637:Generated_Source\PSoC4/StripLights.c **** *  void
 638:Generated_Source\PSoC4/StripLights.c **** *
 639:Generated_Source\PSoC4/StripLights.c **** * Return: 
 640:Generated_Source\PSoC4/StripLights.c **** *  void 
 641:Generated_Source\PSoC4/StripLights.c **** *
 642:Generated_Source\PSoC4/StripLights.c **** * Reentrant: 
 643:Generated_Source\PSoC4/StripLights.c **** *  No
 644:Generated_Source\PSoC4/StripLights.c **** *
 645:Generated_Source\PSoC4/StripLights.c **** *****************************************************************************/
 646:Generated_Source\PSoC4/StripLights.c **** CY_ISR( StripLights_CISR)
 647:Generated_Source\PSoC4/StripLights.c **** {
 114              		.loc 1 647 0
 115              		.cfi_startproc
 116              		@ args = 0, pretend = 0, frame = 0
 117              		@ frame_needed = 0, uses_anonymous_args = 0
 118 0000 30B5     		push	{r4, r5, lr}
 119              		.cfi_def_cfa_offset 12
 120              		.cfi_offset 4, -12
 121              		.cfi_offset 5, -8
 122              		.cfi_offset 14, -4
 648:Generated_Source\PSoC4/StripLights.c ****     extern uint32  StripLights_DimMask;
 649:Generated_Source\PSoC4/StripLights.c ****     extern uint32  StripLights_DimShift;
 650:Generated_Source\PSoC4/StripLights.c ****     uint32 static color;
 651:Generated_Source\PSoC4/StripLights.c ****     extern uint32 StripLights_refreshComplete;
 652:Generated_Source\PSoC4/StripLights.c **** 
 653:Generated_Source\PSoC4/StripLights.c **** 	StripLights_CONTROL = StripLights_ENABLE |StripLights_NEXT_ROW;
 123              		.loc 1 653 0
 124 0002 2122     		movs	r2, #33
 125 0004 184B     		ldr	r3, .L8
 126 0006 1A70     		strb	r2, [r3]
 654:Generated_Source\PSoC4/StripLights.c ****     StripLights_row++;
 127              		.loc 1 654 0
 128 0008 184A     		ldr	r2, .L8+4
 129 000a 1368     		ldr	r3, [r2]
 130 000c 0133     		adds	r3, r3, #1
 131 000e 1360     		str	r3, [r2]
 655:Generated_Source\PSoC4/StripLights.c ****     if( StripLights_row < StripLights_ARRAY_ROWS)  /* More Rows to do  */
 132              		.loc 1 655 0
 133 0010 002B     		cmp	r3, #0
 134 0012 25D1     		bne	.L6
 656:Generated_Source\PSoC4/StripLights.c ****     {
 657:Generated_Source\PSoC4/StripLights.c ****         StripLights_Channel = StripLights_row;  
 135              		.loc 1 657 0
 136 0014 DBB2     		uxtb	r3, r3
 137 0016 164A     		ldr	r2, .L8+8
 138 0018 1370     		strb	r3, [r2]
 658:Generated_Source\PSoC4/StripLights.c **** 
 659:Generated_Source\PSoC4/StripLights.c **** 		#if(StripLights_MEMORY_TYPE == StripLights_MEMORY_RGB)
 660:Generated_Source\PSoC4/StripLights.c ****              color = StripLights_ledArray[StripLights_row][0];
ARM GAS  C:\Users\JAMESS~1\AppData\Local\Temp\cce8FrJG.s 			page 15


 139              		.loc 1 660 0
 140 001a 144A     		ldr	r2, .L8+4
 141 001c 9623     		movs	r3, #150
 142 001e DB00     		lsls	r3, r3, #3
 143 0020 1168     		ldr	r1, [r2]
 144 0022 4B43     		muls	r3, r1
 145 0024 1349     		ldr	r1, .L8+12
 146 0026 5B58     		ldr	r3, [r3, r1]
 661:Generated_Source\PSoC4/StripLights.c ****         #else  /* Else use lookup table */
 662:Generated_Source\PSoC4/StripLights.c ****              color = StripLights_CLUT[ (StripLights_ledArray[StripLights_row][0]) ];
 663:Generated_Source\PSoC4/StripLights.c ****         #endif
 664:Generated_Source\PSoC4/StripLights.c **** 
 665:Generated_Source\PSoC4/StripLights.c ****         color = (color >> StripLights_DimShift) & StripLights_DimMask;
 147              		.loc 1 665 0
 148 0028 1349     		ldr	r1, .L8+16
 149 002a 0968     		ldr	r1, [r1]
 150 002c CB40     		lsrs	r3, r3, r1
 151 002e 1349     		ldr	r1, .L8+20
 152 0030 0968     		ldr	r1, [r1]
 153 0032 0B40     		ands	r3, r1
 666:Generated_Source\PSoC4/StripLights.c ****  
 667:Generated_Source\PSoC4/StripLights.c ****         #if(StripLights_GAMMA_CORRECTION == StripLights_GAMMA_ON)
 668:Generated_Source\PSoC4/StripLights.c ****             StripLights_DATA = StripLights_gamma[color & 0x000000FF];  // Write Green
 154              		.loc 1 668 0
 155 0034 FF24     		movs	r4, #255
 156 0036 2100     		movs	r1, r4
 157 0038 1940     		ands	r1, r3
 158 003a 1148     		ldr	r0, .L8+24
 159 003c 455C     		ldrb	r5, [r0, r1]
 160 003e 1149     		ldr	r1, .L8+28
 161 0040 0D70     		strb	r5, [r1]
 669:Generated_Source\PSoC4/StripLights.c ****             color = color >> 8;
 162              		.loc 1 669 0
 163 0042 1D0A     		lsrs	r5, r3, #8
 670:Generated_Source\PSoC4/StripLights.c ****             StripLights_DATA = StripLights_gamma[color & 0x000000FF];  // Write Red
 164              		.loc 1 670 0
 165 0044 2540     		ands	r5, r4
 166 0046 455D     		ldrb	r5, [r0, r5]
 167 0048 0D70     		strb	r5, [r1]
 671:Generated_Source\PSoC4/StripLights.c ****             color = color >> 8;
 168              		.loc 1 671 0
 169 004a 1B0C     		lsrs	r3, r3, #16
 170 004c D360     		str	r3, [r2, #12]
 672:Generated_Source\PSoC4/StripLights.c ****             StripLights_DATA = StripLights_gamma[color & 0x000000FF];  // Write Blue
 171              		.loc 1 672 0
 172 004e 2340     		ands	r3, r4
 173 0050 C35C     		ldrb	r3, [r0, r3]
 174 0052 0B70     		strb	r3, [r1]
 673:Generated_Source\PSoC4/StripLights.c ****              #if(StripLights_CHIP == StripLights_CHIP_SF2812RGBW)
 674:Generated_Source\PSoC4/StripLights.c ****                 color = color >> 8;
 675:Generated_Source\PSoC4/StripLights.c ****                 StripLights_DATA = StripLights_gamma[color & 0x000000FF];  // Write White 
 676:Generated_Source\PSoC4/StripLights.c ****             #endif 
 677:Generated_Source\PSoC4/StripLights.c ****         #else
 678:Generated_Source\PSoC4/StripLights.c ****             StripLights_DATA = (uint8)(color & 0x000000FF);  // Write Green
 679:Generated_Source\PSoC4/StripLights.c ****             color = color >> 8;
 680:Generated_Source\PSoC4/StripLights.c ****             StripLights_DATA = (uint8)(color & 0x000000FF);  // Write Red
 681:Generated_Source\PSoC4/StripLights.c ****             color = color >> 8;
ARM GAS  C:\Users\JAMESS~1\AppData\Local\Temp\cce8FrJG.s 			page 16


 682:Generated_Source\PSoC4/StripLights.c ****             StripLights_DATA = (uint8)(color & 0x000000FF);  // Write Blue  
 683:Generated_Source\PSoC4/StripLights.c ****             #if(StripLights_CHIP == StripLights_CHIP_SF2812RGBW)
 684:Generated_Source\PSoC4/StripLights.c ****                 color = color >> 8;
 685:Generated_Source\PSoC4/StripLights.c ****                 StripLights_DATA = (uint8)(color & 0x000000FF);  // Write White 
 686:Generated_Source\PSoC4/StripLights.c ****             #endif  
 687:Generated_Source\PSoC4/StripLights.c ****         #endif
 688:Generated_Source\PSoC4/StripLights.c ****        
 689:Generated_Source\PSoC4/StripLights.c ****         StripLights_ledIndex = 1;
 175              		.loc 1 689 0
 176 0054 0123     		movs	r3, #1
 177 0056 5360     		str	r3, [r2, #4]
 690:Generated_Source\PSoC4/StripLights.c **** 		StripLights_CONTROL = StripLights_ENABLE | StripLights_XFRCMPT_IRQ_EN | StripLights_FIFO_IRQ_EN; 
 178              		.loc 1 690 0
 179 0058 1922     		movs	r2, #25
 180 005a 034B     		ldr	r3, .L8
 181 005c 1A70     		strb	r2, [r3]
 182 005e 02E0     		b	.L5
 183              	.L6:
 691:Generated_Source\PSoC4/StripLights.c ****     }
 692:Generated_Source\PSoC4/StripLights.c ****     else
 693:Generated_Source\PSoC4/StripLights.c ****     {
 694:Generated_Source\PSoC4/StripLights.c ****         StripLights_refreshComplete = 1u;
 184              		.loc 1 694 0
 185 0060 0122     		movs	r2, #1
 186 0062 094B     		ldr	r3, .L8+32
 187 0064 1A60     		str	r2, [r3]
 188              	.L5:
 695:Generated_Source\PSoC4/StripLights.c ****     }
 696:Generated_Source\PSoC4/StripLights.c **** }
 189              		.loc 1 696 0
 190              		@ sp needed
 191 0066 30BD     		pop	{r4, r5, pc}
 192              	.L9:
 193              		.align	2
 194              	.L8:
 195 0068 72000F40 		.word	1074724978
 196 006c 00000000 		.word	.LANCHOR0
 197 0070 70000F40 		.word	1074724976
 198 0074 00000000 		.word	StripLights_ledArray
 199 0078 00000000 		.word	StripLights_DimShift
 200 007c 00000000 		.word	StripLights_DimMask
 201 0080 00000000 		.word	.LANCHOR1
 202 0084 42000F40 		.word	1074724930
 203 0088 00000000 		.word	StripLights_refreshComplete
 204              		.cfi_endproc
 205              	.LFE42:
 206              		.size	StripLights_CISR, .-StripLights_CISR
 207              		.section	.text.StripLights_SetCriticalFuncs,"ax",%progbits
 208              		.align	2
 209              		.global	StripLights_SetCriticalFuncs
 210              		.code	16
 211              		.thumb_func
 212              		.type	StripLights_SetCriticalFuncs, %function
 213              	StripLights_SetCriticalFuncs:
 214              	.LFB33:
 333:Generated_Source\PSoC4/StripLights.c ****     StripLights_EnterCritical = EnCriticalFunc;
 215              		.loc 1 333 0
ARM GAS  C:\Users\JAMESS~1\AppData\Local\Temp\cce8FrJG.s 			page 17


 216              		.cfi_startproc
 217              		@ args = 0, pretend = 0, frame = 0
 218              		@ frame_needed = 0, uses_anonymous_args = 0
 219              		@ link register save eliminated.
 220              	.LVL0:
 334:Generated_Source\PSoC4/StripLights.c ****     StripLights_ExitCritical  = ExCriticalFunc;   
 221              		.loc 1 334 0
 222 0000 014B     		ldr	r3, .L11
 223 0002 1861     		str	r0, [r3, #16]
 335:Generated_Source\PSoC4/StripLights.c **** }
 224              		.loc 1 335 0
 225 0004 5961     		str	r1, [r3, #20]
 336:Generated_Source\PSoC4/StripLights.c **** 
 226              		.loc 1 336 0
 227              		@ sp needed
 228 0006 7047     		bx	lr
 229              	.L12:
 230              		.align	2
 231              	.L11:
 232 0008 00000000 		.word	.LANCHOR0
 233              		.cfi_endproc
 234              	.LFE33:
 235              		.size	StripLights_SetCriticalFuncs, .-StripLights_SetCriticalFuncs
 236              		.section	.text.StripLights_Trigger,"ax",%progbits
 237              		.align	2
 238              		.global	StripLights_Trigger
 239              		.code	16
 240              		.thumb_func
 241              		.type	StripLights_Trigger, %function
 242              	StripLights_Trigger:
 243              	.LFB36:
 439:Generated_Source\PSoC4/StripLights.c ****     uint32 color;
 244              		.loc 1 439 0
 245              		.cfi_startproc
 246              		@ args = 0, pretend = 0, frame = 0
 247              		@ frame_needed = 0, uses_anonymous_args = 0
 248              	.LVL1:
 249 0000 30B5     		push	{r4, r5, lr}
 250              		.cfi_def_cfa_offset 12
 251              		.cfi_offset 4, -12
 252              		.cfi_offset 5, -8
 253              		.cfi_offset 14, -4
 442:Generated_Source\PSoC4/StripLights.c ****     {
 254              		.loc 1 442 0
 255 0002 0028     		cmp	r0, #0
 256 0004 04D0     		beq	.L14
 444:Generated_Source\PSoC4/StripLights.c ****         StripLights_Channel = 0;
 257              		.loc 1 444 0
 258 0006 0023     		movs	r3, #0
 259 0008 144A     		ldr	r2, .L15
 260 000a 1360     		str	r3, [r2]
 445:Generated_Source\PSoC4/StripLights.c ****     }
 261              		.loc 1 445 0
 262 000c 144A     		ldr	r2, .L15+4
 263 000e 1370     		strb	r3, [r2]
 264              	.L14:
 449:Generated_Source\PSoC4/StripLights.c ****     #else  /* Else use lookup table */
ARM GAS  C:\Users\JAMESS~1\AppData\Local\Temp\cce8FrJG.s 			page 18


 265              		.loc 1 449 0
 266 0010 124D     		ldr	r5, .L15
 267 0012 9623     		movs	r3, #150
 268 0014 DB00     		lsls	r3, r3, #3
 269 0016 2A68     		ldr	r2, [r5]
 270 0018 5343     		muls	r3, r2
 271 001a 124A     		ldr	r2, .L15+8
 272 001c 9B58     		ldr	r3, [r3, r2]
 273              	.LVL2:
 454:Generated_Source\PSoC4/StripLights.c ****      
 274              		.loc 1 454 0
 275 001e 124A     		ldr	r2, .L15+12
 276 0020 1268     		ldr	r2, [r2]
 277 0022 D340     		lsrs	r3, r3, r2
 278              	.LVL3:
 279 0024 114A     		ldr	r2, .L15+16
 280 0026 1268     		ldr	r2, [r2]
 281 0028 1340     		ands	r3, r2
 282              	.LVL4:
 457:Generated_Source\PSoC4/StripLights.c ****         color = color >> 8;
 283              		.loc 1 457 0
 284 002a FF20     		movs	r0, #255
 285              	.LVL5:
 286 002c 0200     		movs	r2, r0
 287 002e 1A40     		ands	r2, r3
 288 0030 0F49     		ldr	r1, .L15+20
 289 0032 8C5C     		ldrb	r4, [r1, r2]
 290 0034 0F4A     		ldr	r2, .L15+24
 291 0036 1470     		strb	r4, [r2]
 458:Generated_Source\PSoC4/StripLights.c ****         StripLights_DATA = StripLights_gamma[color & 0x000000FF];  // Write Red
 292              		.loc 1 458 0
 293 0038 1C0A     		lsrs	r4, r3, #8
 294              	.LVL6:
 459:Generated_Source\PSoC4/StripLights.c ****         color = color >> 8;
 295              		.loc 1 459 0
 296 003a 0440     		ands	r4, r0
 297              	.LVL7:
 298 003c 0C5D     		ldrb	r4, [r1, r4]
 299 003e 1470     		strb	r4, [r2]
 460:Generated_Source\PSoC4/StripLights.c ****         StripLights_DATA = StripLights_gamma[color & 0x000000FF];  // Write Blue
 300              		.loc 1 460 0
 301 0040 1B0C     		lsrs	r3, r3, #16
 302              	.LVL8:
 461:Generated_Source\PSoC4/StripLights.c ****         #if(StripLights_CHIP == StripLights_CHIP_SF2812RGBW)
 303              		.loc 1 461 0
 304 0042 0340     		ands	r3, r0
 305              	.LVL9:
 306 0044 CB5C     		ldrb	r3, [r1, r3]
 307 0046 1370     		strb	r3, [r2]
 478:Generated_Source\PSoC4/StripLights.c **** 	
 308              		.loc 1 478 0
 309 0048 0123     		movs	r3, #1
 310 004a 6B60     		str	r3, [r5, #4]
 480:Generated_Source\PSoC4/StripLights.c ****     StripLights_refreshComplete = 0;
 311              		.loc 1 480 0
 312 004c 1922     		movs	r2, #25
 313 004e 0A4B     		ldr	r3, .L15+28
ARM GAS  C:\Users\JAMESS~1\AppData\Local\Temp\cce8FrJG.s 			page 19


 314 0050 1A70     		strb	r2, [r3]
 481:Generated_Source\PSoC4/StripLights.c **** }
 315              		.loc 1 481 0
 316 0052 0022     		movs	r2, #0
 317 0054 094B     		ldr	r3, .L15+32
 318 0056 1A60     		str	r2, [r3]
 482:Generated_Source\PSoC4/StripLights.c **** 
 319              		.loc 1 482 0
 320              		@ sp needed
 321 0058 30BD     		pop	{r4, r5, pc}
 322              	.L16:
 323 005a C046     		.align	2
 324              	.L15:
 325 005c 00000000 		.word	.LANCHOR0
 326 0060 70000F40 		.word	1074724976
 327 0064 00000000 		.word	StripLights_ledArray
 328 0068 00000000 		.word	StripLights_DimShift
 329 006c 00000000 		.word	StripLights_DimMask
 330 0070 00000000 		.word	.LANCHOR1
 331 0074 42000F40 		.word	1074724930
 332 0078 72000F40 		.word	1074724978
 333 007c 00000000 		.word	StripLights_refreshComplete
 334              		.cfi_endproc
 335              	.LFE36:
 336              		.size	StripLights_Trigger, .-StripLights_Trigger
 337              		.section	.text.StripLights_Ready,"ax",%progbits
 338              		.align	2
 339              		.global	StripLights_Ready
 340              		.code	16
 341              		.thumb_func
 342              		.type	StripLights_Ready, %function
 343              	StripLights_Ready:
 344              	.LFB37:
 498:Generated_Source\PSoC4/StripLights.c ****     if(StripLights_refreshComplete )
 345              		.loc 1 498 0
 346              		.cfi_startproc
 347              		@ args = 0, pretend = 0, frame = 0
 348              		@ frame_needed = 0, uses_anonymous_args = 0
 349              		@ link register save eliminated.
 499:Generated_Source\PSoC4/StripLights.c ****     {
 350              		.loc 1 499 0
 351 0000 044B     		ldr	r3, .L19
 352 0002 1868     		ldr	r0, [r3]
 353 0004 0028     		cmp	r0, #0
 354 0006 03D0     		beq	.L18
 501:Generated_Source\PSoC4/StripLights.c ****         return((uint32)1);
 355              		.loc 1 501 0
 356 0008 0022     		movs	r2, #0
 357 000a 034B     		ldr	r3, .L19+4
 358 000c 1A70     		strb	r2, [r3]
 502:Generated_Source\PSoC4/StripLights.c ****     }
 359              		.loc 1 502 0
 360 000e 0120     		movs	r0, #1
 361              	.L18:
 508:Generated_Source\PSoC4/StripLights.c **** 
 362              		.loc 1 508 0
 363              		@ sp needed
ARM GAS  C:\Users\JAMESS~1\AppData\Local\Temp\cce8FrJG.s 			page 20


 364 0010 7047     		bx	lr
 365              	.L20:
 366 0012 C046     		.align	2
 367              	.L19:
 368 0014 00000000 		.word	StripLights_refreshComplete
 369 0018 72000F40 		.word	1074724978
 370              		.cfi_endproc
 371              	.LFE37:
 372              		.size	StripLights_Ready, .-StripLights_Ready
 373              		.section	.text.StripLights_TriggerWaitDelay,"ax",%progbits
 374              		.align	2
 375              		.global	StripLights_TriggerWaitDelay
 376              		.code	16
 377              		.thumb_func
 378              		.type	StripLights_TriggerWaitDelay, %function
 379              	StripLights_TriggerWaitDelay:
 380              	.LFB34:
 352:Generated_Source\PSoC4/StripLights.c **** 
 381              		.loc 1 352 0
 382              		.cfi_startproc
 383              		@ args = 0, pretend = 0, frame = 0
 384              		@ frame_needed = 0, uses_anonymous_args = 0
 385              	.LVL10:
 386 0000 70B5     		push	{r4, r5, r6, lr}
 387              		.cfi_def_cfa_offset 16
 388              		.cfi_offset 4, -16
 389              		.cfi_offset 5, -12
 390              		.cfi_offset 6, -8
 391              		.cfi_offset 14, -4
 392 0002 0500     		movs	r5, r0
 393              	.LVL11:
 357:Generated_Source\PSoC4/StripLights.c ****     {
 394              		.loc 1 357 0
 395 0004 124B     		ldr	r3, .L28
 396 0006 1B69     		ldr	r3, [r3, #16]
 397 0008 002B     		cmp	r3, #0
 398 000a 00D0     		beq	.L22
 359:Generated_Source\PSoC4/StripLights.c ****     }
 399              		.loc 1 359 0
 400 000c 9847     		blx	r3
 401              	.LVL12:
 402              	.L22:
 362:Generated_Source\PSoC4/StripLights.c ****     
 403              		.loc 1 362 0
 404 000e 0120     		movs	r0, #1
 405 0010 FFF7FEFF 		bl	StripLights_Trigger
 406              	.LVL13:
 354:Generated_Source\PSoC4/StripLights.c ****     
 407              		.loc 1 354 0
 408 0014 0024     		movs	r4, #0
 364:Generated_Source\PSoC4/StripLights.c ****     {
 409              		.loc 1 364 0
 410 0016 07E0     		b	.L23
 411              	.LVL14:
 412              	.L25:
 366:Generated_Source\PSoC4/StripLights.c ****         CyDelayUs(100);  
 413              		.loc 1 366 0
ARM GAS  C:\Users\JAMESS~1\AppData\Local\Temp\cce8FrJG.s 			page 21


 414 0018 FA23     		movs	r3, #250
 415 001a DB00     		lsls	r3, r3, #3
 416 001c 9C42     		cmp	r4, r3
 417 001e 0CD8     		bhi	.L24
 367:Generated_Source\PSoC4/StripLights.c ****         toCount++;
 418              		.loc 1 367 0
 419 0020 6420     		movs	r0, #100
 420 0022 FFF7FEFF 		bl	CyDelayUs
 421              	.LVL15:
 368:Generated_Source\PSoC4/StripLights.c ****     }
 422              		.loc 1 368 0
 423 0026 0134     		adds	r4, r4, #1
 424              	.LVL16:
 425              	.L23:
 364:Generated_Source\PSoC4/StripLights.c ****     {
 426              		.loc 1 364 0
 427 0028 FFF7FEFF 		bl	StripLights_Ready
 428              	.LVL17:
 429 002c 0028     		cmp	r0, #0
 430 002e F3D0     		beq	.L25
 431 0030 03E0     		b	.L24
 432              	.L26:
 373:Generated_Source\PSoC4/StripLights.c ****         CyDelayUs(100); 
 433              		.loc 1 373 0
 434 0032 0134     		adds	r4, r4, #1
 435              	.LVL18:
 374:Generated_Source\PSoC4/StripLights.c ****     }
 436              		.loc 1 374 0
 437 0034 6420     		movs	r0, #100
 438 0036 FFF7FEFF 		bl	CyDelayUs
 439              	.LVL19:
 440              	.L24:
 371:Generated_Source\PSoC4/StripLights.c ****     {
 441              		.loc 1 371 0
 442 003a AB00     		lsls	r3, r5, #2
 443 003c 5B19     		adds	r3, r3, r5
 444 003e 5A00     		lsls	r2, r3, #1
 445 0040 9442     		cmp	r4, r2
 446 0042 F6D3     		bcc	.L26
 379:Generated_Source\PSoC4/StripLights.c ****     {
 447              		.loc 1 379 0
 448 0044 024B     		ldr	r3, .L28
 449 0046 5B69     		ldr	r3, [r3, #20]
 450 0048 002B     		cmp	r3, #0
 451 004a 00D0     		beq	.L21
 381:Generated_Source\PSoC4/StripLights.c ****     }
 452              		.loc 1 381 0
 453 004c 9847     		blx	r3
 454              	.LVL20:
 455              	.L21:
 385:Generated_Source\PSoC4/StripLights.c **** 
 456              		.loc 1 385 0
 457              		@ sp needed
 458              	.LVL21:
 459              	.LVL22:
 460 004e 70BD     		pop	{r4, r5, r6, pc}
 461              	.L29:
ARM GAS  C:\Users\JAMESS~1\AppData\Local\Temp\cce8FrJG.s 			page 22


 462              		.align	2
 463              	.L28:
 464 0050 00000000 		.word	.LANCHOR0
 465              		.cfi_endproc
 466              	.LFE34:
 467              		.size	StripLights_TriggerWaitDelay, .-StripLights_TriggerWaitDelay
 468              		.section	.text.StripLights_TriggerWait,"ax",%progbits
 469              		.align	2
 470              		.global	StripLights_TriggerWait
 471              		.code	16
 472              		.thumb_func
 473              		.type	StripLights_TriggerWait, %function
 474              	StripLights_TriggerWait:
 475              	.LFB35:
 401:Generated_Source\PSoC4/StripLights.c **** 
 476              		.loc 1 401 0
 477              		.cfi_startproc
 478              		@ args = 0, pretend = 0, frame = 0
 479              		@ frame_needed = 0, uses_anonymous_args = 0
 480              	.LVL23:
 481 0000 10B5     		push	{r4, lr}
 482              		.cfi_def_cfa_offset 8
 483              		.cfi_offset 4, -8
 484              		.cfi_offset 14, -4
 485 0002 0400     		movs	r4, r0
 405:Generated_Source\PSoC4/StripLights.c ****     {
 486              		.loc 1 405 0
 487 0004 084B     		ldr	r3, .L34
 488 0006 1B69     		ldr	r3, [r3, #16]
 489 0008 002B     		cmp	r3, #0
 490 000a 00D0     		beq	.L31
 407:Generated_Source\PSoC4/StripLights.c ****     }
 491              		.loc 1 407 0
 492 000c 9847     		blx	r3
 493              	.LVL24:
 494              	.L31:
 410:Generated_Source\PSoC4/StripLights.c ****     
 495              		.loc 1 410 0
 496 000e 2000     		movs	r0, r4
 497 0010 FFF7FEFF 		bl	StripLights_Trigger
 498              	.LVL25:
 499              	.L32:
 412:Generated_Source\PSoC4/StripLights.c ****     
 500              		.loc 1 412 0 discriminator 1
 501 0014 FFF7FEFF 		bl	StripLights_Ready
 502              	.LVL26:
 503 0018 0028     		cmp	r0, #0
 504 001a FBD0     		beq	.L32
 416:Generated_Source\PSoC4/StripLights.c ****     {
 505              		.loc 1 416 0
 506 001c 024B     		ldr	r3, .L34
 507 001e 5B69     		ldr	r3, [r3, #20]
 508 0020 002B     		cmp	r3, #0
 509 0022 00D0     		beq	.L30
 418:Generated_Source\PSoC4/StripLights.c ****     }
 510              		.loc 1 418 0
 511 0024 9847     		blx	r3
ARM GAS  C:\Users\JAMESS~1\AppData\Local\Temp\cce8FrJG.s 			page 23


 512              	.LVL27:
 513              	.L30:
 422:Generated_Source\PSoC4/StripLights.c **** 
 514              		.loc 1 422 0
 515              		@ sp needed
 516              	.LVL28:
 517 0026 10BD     		pop	{r4, pc}
 518              	.L35:
 519              		.align	2
 520              	.L34:
 521 0028 00000000 		.word	.LANCHOR0
 522              		.cfi_endproc
 523              	.LFE35:
 524              		.size	StripLights_TriggerWait, .-StripLights_TriggerWait
 525              		.section	.text.StripLights_Stop,"ax",%progbits
 526              		.align	2
 527              		.global	StripLights_Stop
 528              		.code	16
 529              		.thumb_func
 530              		.type	StripLights_Stop, %function
 531              	StripLights_Stop:
 532              	.LFB38:
 525:Generated_Source\PSoC4/StripLights.c ****     StripLights_CONTROL = StripLights_DISABLE;
 533              		.loc 1 525 0
 534              		.cfi_startproc
 535              		@ args = 0, pretend = 0, frame = 0
 536              		@ frame_needed = 0, uses_anonymous_args = 0
 537              		@ link register save eliminated.
 526:Generated_Source\PSoC4/StripLights.c **** }
 538              		.loc 1 526 0
 539 0000 0022     		movs	r2, #0
 540 0002 014B     		ldr	r3, .L37
 541 0004 1A70     		strb	r2, [r3]
 527:Generated_Source\PSoC4/StripLights.c **** 
 542              		.loc 1 527 0
 543              		@ sp needed
 544 0006 7047     		bx	lr
 545              	.L38:
 546              		.align	2
 547              	.L37:
 548 0008 72000F40 		.word	1074724978
 549              		.cfi_endproc
 550              	.LFE38:
 551              		.size	StripLights_Stop, .-StripLights_Stop
 552              		.section	.text.StripLights_getColor,"ax",%progbits
 553              		.align	2
 554              		.global	StripLights_getColor
 555              		.code	16
 556              		.thumb_func
 557              		.type	StripLights_getColor, %function
 558              	StripLights_getColor:
 559              	.LFB39:
 530:Generated_Source\PSoC4/StripLights.c ****     #if(StripLights_MEMORY_TYPE == StripLights_MEMORY_RGB)
 560              		.loc 1 530 0
 561              		.cfi_startproc
 562              		@ args = 0, pretend = 0, frame = 0
 563              		@ frame_needed = 0, uses_anonymous_args = 0
ARM GAS  C:\Users\JAMESS~1\AppData\Local\Temp\cce8FrJG.s 			page 24


 564              		@ link register save eliminated.
 565              	.LVL29:
 532:Generated_Source\PSoC4/StripLights.c ****     #endif
 566              		.loc 1 532 0
 567 0000 8000     		lsls	r0, r0, #2
 568              	.LVL30:
 569 0002 014B     		ldr	r3, .L40
 570 0004 C058     		ldr	r0, [r0, r3]
 571              	.LVL31:
 536:Generated_Source\PSoC4/StripLights.c **** 
 572              		.loc 1 536 0
 573              		@ sp needed
 574 0006 7047     		bx	lr
 575              	.L41:
 576              		.align	2
 577              	.L40:
 578 0008 00010000 		.word	.LANCHOR2
 579              		.cfi_endproc
 580              	.LFE39:
 581              		.size	StripLights_getColor, .-StripLights_getColor
 582              		.global	__aeabi_uidivmod
 583              		.section	.text.StripLights_ColorInc,"ax",%progbits
 584              		.align	2
 585              		.global	StripLights_ColorInc
 586              		.code	16
 587              		.thumb_func
 588              		.type	StripLights_ColorInc, %function
 589              	StripLights_ColorInc:
 590              	.LFB40:
 552:Generated_Source\PSoC4/StripLights.c ****     uint32 color;
 591              		.loc 1 552 0
 592              		.cfi_startproc
 593              		@ args = 0, pretend = 0, frame = 0
 594              		@ frame_needed = 0, uses_anonymous_args = 0
 595              	.LVL32:
 596 0000 10B5     		push	{r4, lr}
 597              		.cfi_def_cfa_offset 8
 598              		.cfi_offset 4, -8
 599              		.cfi_offset 14, -4
 557:Generated_Source\PSoC4/StripLights.c ****     colorIndex = colorIndex % StripLights_COLOR_WHEEL_SIZE;
 600              		.loc 1 557 0
 601 0002 064C     		ldr	r4, .L43
 602 0004 A369     		ldr	r3, [r4, #24]
 603 0006 9C46     		mov	ip, r3
 604 0008 6044     		add	r0, r0, ip
 605              	.LVL33:
 558:Generated_Source\PSoC4/StripLights.c **** 
 606              		.loc 1 558 0
 607 000a 1821     		movs	r1, #24
 608 000c FFF7FEFF 		bl	__aeabi_uidivmod
 609              	.LVL34:
 610 0010 A161     		str	r1, [r4, #24]
 561:Generated_Source\PSoC4/StripLights.c ****     #else
 611              		.loc 1 561 0
 612 0012 8900     		lsls	r1, r1, #2
 613 0014 024B     		ldr	r3, .L43+4
 614 0016 C858     		ldr	r0, [r1, r3]
ARM GAS  C:\Users\JAMESS~1\AppData\Local\Temp\cce8FrJG.s 			page 25


 615              	.LVL35:
 566:Generated_Source\PSoC4/StripLights.c **** /*****************************************************************************
 616              		.loc 1 566 0
 617              		@ sp needed
 618 0018 10BD     		pop	{r4, pc}
 619              	.L44:
 620 001a C046     		.align	2
 621              	.L43:
 622 001c 00000000 		.word	.LANCHOR0
 623 0020 00010000 		.word	.LANCHOR2
 624              		.cfi_endproc
 625              	.LFE40:
 626              		.size	StripLights_ColorInc, .-StripLights_ColorInc
 627              		.section	.text.StripLights_MemClear,"ax",%progbits
 628              		.align	2
 629              		.global	StripLights_MemClear
 630              		.code	16
 631              		.thumb_func
 632              		.type	StripLights_MemClear, %function
 633              	StripLights_MemClear:
 634              	.LFB44:
 697:Generated_Source\PSoC4/StripLights.c **** 
 698:Generated_Source\PSoC4/StripLights.c **** 
 699:Generated_Source\PSoC4/StripLights.c **** /*******************************************************************************
 700:Generated_Source\PSoC4/StripLights.c **** * Function Name: StripLights_DisplayClear
 701:Generated_Source\PSoC4/StripLights.c **** ********************************************************************************
 702:Generated_Source\PSoC4/StripLights.c **** * Summary:
 703:Generated_Source\PSoC4/StripLights.c **** *   Clear memory with a given value and update the display.
 704:Generated_Source\PSoC4/StripLights.c **** *
 705:Generated_Source\PSoC4/StripLights.c **** * Parameters:  
 706:Generated_Source\PSoC4/StripLights.c **** *  uint32 color: Color to clear display. 
 707:Generated_Source\PSoC4/StripLights.c **** *
 708:Generated_Source\PSoC4/StripLights.c **** * Return: 
 709:Generated_Source\PSoC4/StripLights.c **** *  void
 710:Generated_Source\PSoC4/StripLights.c **** *
 711:Generated_Source\PSoC4/StripLights.c **** *******************************************************************************/
 712:Generated_Source\PSoC4/StripLights.c **** void StripLights_DisplayClear(uint32 color)
 713:Generated_Source\PSoC4/StripLights.c **** {   
 714:Generated_Source\PSoC4/StripLights.c ****     StripLights_MemClear(color);
 715:Generated_Source\PSoC4/StripLights.c ****     StripLights_Trigger(1);
 716:Generated_Source\PSoC4/StripLights.c **** }
 717:Generated_Source\PSoC4/StripLights.c **** 
 718:Generated_Source\PSoC4/StripLights.c **** /*******************************************************************************
 719:Generated_Source\PSoC4/StripLights.c **** * Function Name: StripLights_MemClear
 720:Generated_Source\PSoC4/StripLights.c **** ********************************************************************************
 721:Generated_Source\PSoC4/StripLights.c **** * Summary:
 722:Generated_Source\PSoC4/StripLights.c **** *   Clear LED memory with given color, but do not update display.
 723:Generated_Source\PSoC4/StripLights.c **** *
 724:Generated_Source\PSoC4/StripLights.c **** * Parameters:  
 725:Generated_Source\PSoC4/StripLights.c **** *  uint32 color: Color to clear display.  
 726:Generated_Source\PSoC4/StripLights.c **** *
 727:Generated_Source\PSoC4/StripLights.c **** * Return: 
 728:Generated_Source\PSoC4/StripLights.c **** *  void
 729:Generated_Source\PSoC4/StripLights.c **** *
 730:Generated_Source\PSoC4/StripLights.c **** *******************************************************************************/
 731:Generated_Source\PSoC4/StripLights.c **** void StripLights_MemClear(uint32 color)
 732:Generated_Source\PSoC4/StripLights.c **** {
ARM GAS  C:\Users\JAMESS~1\AppData\Local\Temp\cce8FrJG.s 			page 26


 635              		.loc 1 732 0
 636              		.cfi_startproc
 637              		@ args = 0, pretend = 0, frame = 0
 638              		@ frame_needed = 0, uses_anonymous_args = 0
 639              	.LVL36:
 640 0000 10B5     		push	{r4, lr}
 641              		.cfi_def_cfa_offset 8
 642              		.cfi_offset 4, -8
 643              		.cfi_offset 14, -4
 644              	.LVL37:
 733:Generated_Source\PSoC4/StripLights.c ****     uint32  row, col;
 734:Generated_Source\PSoC4/StripLights.c ****     
 735:Generated_Source\PSoC4/StripLights.c ****     for(row=0; row < StripLights_ARRAY_ROWS; row++)
 645              		.loc 1 735 0
 646 0002 0024     		movs	r4, #0
 647 0004 0EE0     		b	.L46
 648              	.LVL38:
 649              	.L47:
 736:Generated_Source\PSoC4/StripLights.c ****     {
 737:Generated_Source\PSoC4/StripLights.c ****         for(col=0; col < StripLights_ARRAY_COLS; col++)
 738:Generated_Source\PSoC4/StripLights.c ****         {
 739:Generated_Source\PSoC4/StripLights.c ****             #if(StripLights_MEMORY_TYPE == StripLights_MEMORY_RGB)
 740:Generated_Source\PSoC4/StripLights.c ****                 StripLights_ledArray[row][col] = color;
 650              		.loc 1 740 0 discriminator 3
 651 0006 9623     		movs	r3, #150
 652 0008 5B00     		lsls	r3, r3, #1
 653 000a 6343     		muls	r3, r4
 654 000c 9B18     		adds	r3, r3, r2
 655 000e 9B00     		lsls	r3, r3, #2
 656 0010 0649     		ldr	r1, .L50
 657 0012 5850     		str	r0, [r3, r1]
 737:Generated_Source\PSoC4/StripLights.c ****         {
 658              		.loc 1 737 0 discriminator 3
 659 0014 0132     		adds	r2, r2, #1
 660              	.LVL39:
 661 0016 00E0     		b	.L48
 662              	.LVL40:
 663              	.L49:
 664 0018 0022     		movs	r2, #0
 665              	.L48:
 666              	.LVL41:
 737:Generated_Source\PSoC4/StripLights.c ****         {
 667              		.loc 1 737 0 is_stmt 0 discriminator 1
 668 001a 2C23     		movs	r3, #44
 669 001c FF33     		adds	r3, r3, #255
 670 001e 9A42     		cmp	r2, r3
 671 0020 F1D9     		bls	.L47
 735:Generated_Source\PSoC4/StripLights.c ****     {
 672              		.loc 1 735 0 is_stmt 1 discriminator 2
 673 0022 0134     		adds	r4, r4, #1
 674              	.LVL42:
 675              	.L46:
 735:Generated_Source\PSoC4/StripLights.c ****     {
 676              		.loc 1 735 0 is_stmt 0 discriminator 1
 677 0024 002C     		cmp	r4, #0
 678 0026 F7D0     		beq	.L49
 741:Generated_Source\PSoC4/StripLights.c ****             #else  /* Else use lookup table */
ARM GAS  C:\Users\JAMESS~1\AppData\Local\Temp\cce8FrJG.s 			page 27


 742:Generated_Source\PSoC4/StripLights.c ****                  StripLights_ledArray[row][col] = (uint8)color;
 743:Generated_Source\PSoC4/StripLights.c ****             #endif
 744:Generated_Source\PSoC4/StripLights.c ****         }
 745:Generated_Source\PSoC4/StripLights.c ****     }
 746:Generated_Source\PSoC4/StripLights.c **** }
 679              		.loc 1 746 0 is_stmt 1
 680              		@ sp needed
 681              	.LVL43:
 682 0028 10BD     		pop	{r4, pc}
 683              	.L51:
 684 002a C046     		.align	2
 685              	.L50:
 686 002c 00000000 		.word	StripLights_ledArray
 687              		.cfi_endproc
 688              	.LFE44:
 689              		.size	StripLights_MemClear, .-StripLights_MemClear
 690              		.section	.text.StripLights_DisplayClear,"ax",%progbits
 691              		.align	2
 692              		.global	StripLights_DisplayClear
 693              		.code	16
 694              		.thumb_func
 695              		.type	StripLights_DisplayClear, %function
 696              	StripLights_DisplayClear:
 697              	.LFB43:
 713:Generated_Source\PSoC4/StripLights.c ****     StripLights_MemClear(color);
 698              		.loc 1 713 0
 699              		.cfi_startproc
 700              		@ args = 0, pretend = 0, frame = 0
 701              		@ frame_needed = 0, uses_anonymous_args = 0
 702              	.LVL44:
 703 0000 10B5     		push	{r4, lr}
 704              		.cfi_def_cfa_offset 8
 705              		.cfi_offset 4, -8
 706              		.cfi_offset 14, -4
 714:Generated_Source\PSoC4/StripLights.c ****     StripLights_Trigger(1);
 707              		.loc 1 714 0
 708 0002 FFF7FEFF 		bl	StripLights_MemClear
 709              	.LVL45:
 715:Generated_Source\PSoC4/StripLights.c **** }
 710              		.loc 1 715 0
 711 0006 0120     		movs	r0, #1
 712 0008 FFF7FEFF 		bl	StripLights_Trigger
 713              	.LVL46:
 716:Generated_Source\PSoC4/StripLights.c **** 
 714              		.loc 1 716 0
 715              		@ sp needed
 716 000c 10BD     		pop	{r4, pc}
 717              		.cfi_endproc
 718              	.LFE43:
 719              		.size	StripLights_DisplayClear, .-StripLights_DisplayClear
 720 000e C046     		.section	.text.StripLights_WriteColor,"ax",%progbits
 721              		.align	2
 722              		.global	StripLights_WriteColor
 723              		.code	16
 724              		.thumb_func
 725              		.type	StripLights_WriteColor, %function
 726              	StripLights_WriteColor:
ARM GAS  C:\Users\JAMESS~1\AppData\Local\Temp\cce8FrJG.s 			page 28


 727              	.LFB45:
 747:Generated_Source\PSoC4/StripLights.c **** 
 748:Generated_Source\PSoC4/StripLights.c **** 
 749:Generated_Source\PSoC4/StripLights.c **** 
 750:Generated_Source\PSoC4/StripLights.c **** /*******************************************************************************
 751:Generated_Source\PSoC4/StripLights.c **** * Function Name: StripLights_WriteColor
 752:Generated_Source\PSoC4/StripLights.c **** ********************************************************************************
 753:Generated_Source\PSoC4/StripLights.c **** * Summary:
 754:Generated_Source\PSoC4/StripLights.c **** *   Write given color directly to output register.
 755:Generated_Source\PSoC4/StripLights.c **** *
 756:Generated_Source\PSoC4/StripLights.c **** * Parameters:  
 757:Generated_Source\PSoC4/StripLights.c **** *  uint32 color: Color to write to display. 
 758:Generated_Source\PSoC4/StripLights.c **** *
 759:Generated_Source\PSoC4/StripLights.c **** * Return: 
 760:Generated_Source\PSoC4/StripLights.c **** *  void
 761:Generated_Source\PSoC4/StripLights.c **** *
 762:Generated_Source\PSoC4/StripLights.c **** *******************************************************************************/
 763:Generated_Source\PSoC4/StripLights.c **** void StripLights_WriteColor(uint32 color)
 764:Generated_Source\PSoC4/StripLights.c **** {
 728              		.loc 1 764 0
 729              		.cfi_startproc
 730              		@ args = 0, pretend = 0, frame = 0
 731              		@ frame_needed = 0, uses_anonymous_args = 0
 732              		@ link register save eliminated.
 733              	.LVL47:
 734              	.L54:
 765:Generated_Source\PSoC4/StripLights.c ****     while( (StripLights_STATUS & StripLights_FIFO_EMPTY) == 0); 
 735              		.loc 1 765 0 discriminator 1
 736 0000 064B     		ldr	r3, .L55
 737 0002 1B78     		ldrb	r3, [r3]
 738 0004 DB07     		lsls	r3, r3, #31
 739 0006 FBD5     		bpl	.L54
 766:Generated_Source\PSoC4/StripLights.c **** 
 767:Generated_Source\PSoC4/StripLights.c ****     StripLights_DATA = (uint8)(color & 0x000000FF);  // Write Green
 740              		.loc 1 767 0
 741 0008 C2B2     		uxtb	r2, r0
 742 000a 054B     		ldr	r3, .L55+4
 743 000c 1A70     		strb	r2, [r3]
 768:Generated_Source\PSoC4/StripLights.c ****     color = color >> 8;
 744              		.loc 1 768 0
 745 000e 020A     		lsrs	r2, r0, #8
 746              	.LVL48:
 769:Generated_Source\PSoC4/StripLights.c ****     StripLights_DATA = (uint8)(color & 0x000000FF);  // Write Red
 747              		.loc 1 769 0
 748 0010 D2B2     		uxtb	r2, r2
 749              	.LVL49:
 750 0012 1A70     		strb	r2, [r3]
 770:Generated_Source\PSoC4/StripLights.c ****     color = color >> 8;
 751              		.loc 1 770 0
 752 0014 000C     		lsrs	r0, r0, #16
 753              	.LVL50:
 771:Generated_Source\PSoC4/StripLights.c ****     StripLights_DATA = (uint8)(color & 0x000000FF);  // Write Blue
 754              		.loc 1 771 0
 755 0016 C0B2     		uxtb	r0, r0
 756              	.LVL51:
 757 0018 1870     		strb	r0, [r3]
 772:Generated_Source\PSoC4/StripLights.c ****     
ARM GAS  C:\Users\JAMESS~1\AppData\Local\Temp\cce8FrJG.s 			page 29


 773:Generated_Source\PSoC4/StripLights.c ****     #if(StripLights_CHIP == StripLights_CHIP_SF2812RGBW)
 774:Generated_Source\PSoC4/StripLights.c ****         color = color >> 8;
 775:Generated_Source\PSoC4/StripLights.c ****         StripLights_DATA = (uint8)(color & 0x000000FF);  // Write White 
 776:Generated_Source\PSoC4/StripLights.c ****     #endif 
 777:Generated_Source\PSoC4/StripLights.c **** }
 758              		.loc 1 777 0
 759              		@ sp needed
 760 001a 7047     		bx	lr
 761              	.L56:
 762              		.align	2
 763              	.L55:
 764 001c 62000F40 		.word	1074724962
 765 0020 42000F40 		.word	1074724930
 766              		.cfi_endproc
 767              	.LFE45:
 768              		.size	StripLights_WriteColor, .-StripLights_WriteColor
 769              		.section	.text.StripLights_Pixel,"ax",%progbits
 770              		.align	2
 771              		.global	StripLights_Pixel
 772              		.code	16
 773              		.thumb_func
 774              		.type	StripLights_Pixel, %function
 775              	StripLights_Pixel:
 776              	.LFB46:
 778:Generated_Source\PSoC4/StripLights.c **** 
 779:Generated_Source\PSoC4/StripLights.c **** 
 780:Generated_Source\PSoC4/StripLights.c **** /*******************************************************************************
 781:Generated_Source\PSoC4/StripLights.c **** * Function Name: StripLights_Pixel
 782:Generated_Source\PSoC4/StripLights.c **** ********************************************************************************
 783:Generated_Source\PSoC4/StripLights.c **** *
 784:Generated_Source\PSoC4/StripLights.c **** * Summary:
 785:Generated_Source\PSoC4/StripLights.c **** *  Draw Pixel  
 786:Generated_Source\PSoC4/StripLights.c **** *
 787:Generated_Source\PSoC4/StripLights.c **** * Parameters:  
 788:Generated_Source\PSoC4/StripLights.c **** *  x,y:    Location to draw the pixel
 789:Generated_Source\PSoC4/StripLights.c **** *  color:  Color of the pixel
 790:Generated_Source\PSoC4/StripLights.c **** *
 791:Generated_Source\PSoC4/StripLights.c **** * Return: 
 792:Generated_Source\PSoC4/StripLights.c **** *  None 
 793:Generated_Source\PSoC4/StripLights.c **** *******************************************************************************/
 794:Generated_Source\PSoC4/StripLights.c **** void StripLights_Pixel(int32 x, int32 y, uint32 color)
 795:Generated_Source\PSoC4/StripLights.c **** {
 777              		.loc 1 795 0
 778              		.cfi_startproc
 779              		@ args = 0, pretend = 0, frame = 0
 780              		@ frame_needed = 0, uses_anonymous_args = 0
 781              		@ link register save eliminated.
 782              	.LVL52:
 796:Generated_Source\PSoC4/StripLights.c **** 
 797:Generated_Source\PSoC4/StripLights.c ****     // Swap X-Y Coordinates
 798:Generated_Source\PSoC4/StripLights.c ****     #if(StripLights_SWAP_XY_COORD == StripLights_XY_SWAPED)
 799:Generated_Source\PSoC4/StripLights.c ****         uint32 xyTmp;
 800:Generated_Source\PSoC4/StripLights.c ****         xyTmp = x;
 801:Generated_Source\PSoC4/StripLights.c ****         x = y;
 802:Generated_Source\PSoC4/StripLights.c ****         y = xyTmp;
 803:Generated_Source\PSoC4/StripLights.c ****     #endif
 804:Generated_Source\PSoC4/StripLights.c ****     
ARM GAS  C:\Users\JAMESS~1\AppData\Local\Temp\cce8FrJG.s 			page 30


 805:Generated_Source\PSoC4/StripLights.c ****     // X-Wrap
 806:Generated_Source\PSoC4/StripLights.c ****     #if (StripLights_COORD_WRAP & StripLights_COORD_XAXIS )
 807:Generated_Source\PSoC4/StripLights.c ****         x = x % (StripLights_MAX_X+1);
 808:Generated_Source\PSoC4/StripLights.c ****     #endif
 809:Generated_Source\PSoC4/StripLights.c ****     
 810:Generated_Source\PSoC4/StripLights.c ****     // Y-Wrap
 811:Generated_Source\PSoC4/StripLights.c ****     #if (StripLights_COORD_WRAP & StripLights_COORD_YAXIS )
 812:Generated_Source\PSoC4/StripLights.c ****         y = y % (StripLights_MAX_Y+1);
 813:Generated_Source\PSoC4/StripLights.c ****     #endif
 814:Generated_Source\PSoC4/StripLights.c ****     
 815:Generated_Source\PSoC4/StripLights.c ****     // Flip X-Axis
 816:Generated_Source\PSoC4/StripLights.c ****     #if (StripLights_FLIP_X_COORD == StripLights_FLIP_COORD )
 817:Generated_Source\PSoC4/StripLights.c ****         x = StripLights_MAX_X - x;
 818:Generated_Source\PSoC4/StripLights.c ****     #endif
 819:Generated_Source\PSoC4/StripLights.c ****     
 820:Generated_Source\PSoC4/StripLights.c ****     // Flip Y-Axis
 821:Generated_Source\PSoC4/StripLights.c ****     #if (StripLights_FLIP_Y_COORD == StripLights_FLIP_COORD )
 822:Generated_Source\PSoC4/StripLights.c ****         y = StripLights_MAX_Y - y;
 823:Generated_Source\PSoC4/StripLights.c ****     #endif
 824:Generated_Source\PSoC4/StripLights.c ****     
 825:Generated_Source\PSoC4/StripLights.c ****     // Make sure X-Y values are in range
 826:Generated_Source\PSoC4/StripLights.c ****    	if((x >= StripLights_MIN_X) && (y >= StripLights_MIN_Y) && (x <= StripLights_MAX_X) && (y <= St
 783              		.loc 1 826 0
 784 0000 0028     		cmp	r0, #0
 785 0002 0CDB     		blt	.L57
 786              		.loc 1 826 0 is_stmt 0 discriminator 1
 787 0004 0029     		cmp	r1, #0
 788 0006 0ADB     		blt	.L57
 789              		.loc 1 826 0 discriminator 2
 790 0008 3B28     		cmp	r0, #59
 791 000a 08DC     		bgt	.L57
 792              		.loc 1 826 0 discriminator 3
 793 000c 0329     		cmp	r1, #3
 794 000e 06DC     		bgt	.L57
 827:Generated_Source\PSoC4/StripLights.c ****     {
 828:Generated_Source\PSoC4/StripLights.c ****         
 829:Generated_Source\PSoC4/StripLights.c ****         #if (StripLights_LED_LAYOUT == StripLights_LED_LAYOUT_STANDARD)
 830:Generated_Source\PSoC4/StripLights.c ****              // Do nothing special   
 831:Generated_Source\PSoC4/StripLights.c ****         #elif (StripLights_LED_LAYOUT == StripLights_LED_LAYOUT_SPIRAL)
 832:Generated_Source\PSoC4/StripLights.c ****             x = x + (y * StripLights_COLUMNS);
 795              		.loc 1 832 0 is_stmt 1
 796 0010 0B01     		lsls	r3, r1, #4
 797 0012 591A     		subs	r1, r3, r1
 798              	.LVL53:
 799 0014 8B00     		lsls	r3, r1, #2
 800 0016 C018     		adds	r0, r0, r3
 801              	.LVL54:
 833:Generated_Source\PSoC4/StripLights.c ****             y = 0;
 834:Generated_Source\PSoC4/StripLights.c ****             
 835:Generated_Source\PSoC4/StripLights.c ****         #elif (StripLights_LED_LAYOUT == StripLights_LED_LAYOUT_GRID16X16)
 836:Generated_Source\PSoC4/StripLights.c ****             	x = (((x/(int32)16)*(int32)256) + (uint32)StripLights_cTrans[y % 16][x % 16]);
 837:Generated_Source\PSoC4/StripLights.c **** 		        y = (y/(int32)16);    
 838:Generated_Source\PSoC4/StripLights.c ****         #endif
 839:Generated_Source\PSoC4/StripLights.c ****          
 840:Generated_Source\PSoC4/StripLights.c ****         #if(StripLights_MEMORY_TYPE == StripLights_MEMORY_RGB)
 841:Generated_Source\PSoC4/StripLights.c ****             StripLights_ledArray[y][x] = color;
 802              		.loc 1 841 0
ARM GAS  C:\Users\JAMESS~1\AppData\Local\Temp\cce8FrJG.s 			page 31


 803 0018 8000     		lsls	r0, r0, #2
 804              	.LVL55:
 805 001a 014B     		ldr	r3, .L59
 806              	.LVL56:
 807 001c C250     		str	r2, [r0, r3]
 808              	.LVL57:
 809              	.L57:
 842:Generated_Source\PSoC4/StripLights.c ****         #else  /* Else use lookup table */
 843:Generated_Source\PSoC4/StripLights.c ****             StripLights_ledArray[y][x] = (uint8)color;
 844:Generated_Source\PSoC4/StripLights.c ****         #endif    
 845:Generated_Source\PSoC4/StripLights.c ****             
 846:Generated_Source\PSoC4/StripLights.c **** 
 847:Generated_Source\PSoC4/StripLights.c ****     }
 848:Generated_Source\PSoC4/StripLights.c **** }
 810              		.loc 1 848 0
 811              		@ sp needed
 812 001e 7047     		bx	lr
 813              	.L60:
 814              		.align	2
 815              	.L59:
 816 0020 00000000 		.word	StripLights_ledArray
 817              		.cfi_endproc
 818              	.LFE46:
 819              		.size	StripLights_Pixel, .-StripLights_Pixel
 820              		.section	.text.StripLights_GetPixel,"ax",%progbits
 821              		.align	2
 822              		.global	StripLights_GetPixel
 823              		.code	16
 824              		.thumb_func
 825              		.type	StripLights_GetPixel, %function
 826              	StripLights_GetPixel:
 827              	.LFB47:
 849:Generated_Source\PSoC4/StripLights.c **** 
 850:Generated_Source\PSoC4/StripLights.c **** 
 851:Generated_Source\PSoC4/StripLights.c **** 
 852:Generated_Source\PSoC4/StripLights.c **** /*******************************************************************************
 853:Generated_Source\PSoC4/StripLights.c **** * Function Name: StripLights_GetPixel
 854:Generated_Source\PSoC4/StripLights.c **** ********************************************************************************
 855:Generated_Source\PSoC4/StripLights.c **** *
 856:Generated_Source\PSoC4/StripLights.c **** * Summary:
 857:Generated_Source\PSoC4/StripLights.c **** *  Get Pixel Color  
 858:Generated_Source\PSoC4/StripLights.c **** *
 859:Generated_Source\PSoC4/StripLights.c **** * Parameters:  
 860:Generated_Source\PSoC4/StripLights.c **** *  x,y:    Location to get pixel color
 861:Generated_Source\PSoC4/StripLights.c **** *
 862:Generated_Source\PSoC4/StripLights.c **** * Return: 
 863:Generated_Source\PSoC4/StripLights.c **** *  None 
 864:Generated_Source\PSoC4/StripLights.c **** *******************************************************************************/
 865:Generated_Source\PSoC4/StripLights.c **** uint32 StripLights_GetPixel(int32 x, int32 y)
 866:Generated_Source\PSoC4/StripLights.c **** {
 828              		.loc 1 866 0
 829              		.cfi_startproc
 830              		@ args = 0, pretend = 0, frame = 0
 831              		@ frame_needed = 0, uses_anonymous_args = 0
 832              		@ link register save eliminated.
 833              	.LVL58:
 867:Generated_Source\PSoC4/StripLights.c ****     uint32 color = 0;
ARM GAS  C:\Users\JAMESS~1\AppData\Local\Temp\cce8FrJG.s 			page 32


 868:Generated_Source\PSoC4/StripLights.c ****     #if (StripLights_COORD_WRAP & StripLights_COORD_XAXIS )
 869:Generated_Source\PSoC4/StripLights.c ****         x = x % (StripLights_MAX_X+1);
 870:Generated_Source\PSoC4/StripLights.c ****     #endif
 871:Generated_Source\PSoC4/StripLights.c ****     #if (StripLights_COORD_WRAP & StripLights_COORD_YAXIS )
 872:Generated_Source\PSoC4/StripLights.c ****         y = y % (StripLights_MAX_Y+1);
 873:Generated_Source\PSoC4/StripLights.c ****     #endif
 874:Generated_Source\PSoC4/StripLights.c ****     
 875:Generated_Source\PSoC4/StripLights.c ****     if((x>=0) && (y>=0) && (x < StripLights_ARRAY_COLS) && (y < StripLights_ARRAY_ROWS))
 834              		.loc 1 875 0
 835 0000 0028     		cmp	r0, #0
 836 0002 0FDB     		blt	.L63
 837              		.loc 1 875 0 is_stmt 0 discriminator 1
 838 0004 0029     		cmp	r1, #0
 839 0006 0FDB     		blt	.L64
 840              		.loc 1 875 0 discriminator 2
 841 0008 2C23     		movs	r3, #44
 842 000a FF33     		adds	r3, r3, #255
 843 000c 9842     		cmp	r0, r3
 844 000e 0DDC     		bgt	.L65
 845              		.loc 1 875 0 discriminator 3
 846 0010 0029     		cmp	r1, #0
 847 0012 0DDC     		bgt	.L66
 876:Generated_Source\PSoC4/StripLights.c ****     {
 877:Generated_Source\PSoC4/StripLights.c ****                 
 878:Generated_Source\PSoC4/StripLights.c ****         #if (StripLights_LED_LAYOUT == StripLights_LED_LAYOUT_STANDARD)
 879:Generated_Source\PSoC4/StripLights.c ****             
 880:Generated_Source\PSoC4/StripLights.c ****         #elif (StripLights_LED_LAYOUT == StripLights_LED_LAYOUT_SPIRAL)
 881:Generated_Source\PSoC4/StripLights.c ****             x = x + (y * StripLights_COLUMNS);
 848              		.loc 1 881 0 is_stmt 1
 849 0014 0B01     		lsls	r3, r1, #4
 850 0016 591A     		subs	r1, r3, r1
 851              	.LVL59:
 852 0018 8B00     		lsls	r3, r1, #2
 853 001a C018     		adds	r0, r0, r3
 854              	.LVL60:
 882:Generated_Source\PSoC4/StripLights.c ****             y = 0;
 883:Generated_Source\PSoC4/StripLights.c ****             
 884:Generated_Source\PSoC4/StripLights.c ****         #elif (StripLights_LED_LAYOUT == StripLights_LED_LAYOUT_GRID16X16)
 885:Generated_Source\PSoC4/StripLights.c ****             	x = (((x/(int32)16)*(int32)256) + (uint32)StripLights_cTrans[y % 16][x % 16]);
 886:Generated_Source\PSoC4/StripLights.c **** 		        y = (y/(int32)16);    
 887:Generated_Source\PSoC4/StripLights.c ****         #endif
 888:Generated_Source\PSoC4/StripLights.c ****     
 889:Generated_Source\PSoC4/StripLights.c ****         #if(StripLights_MEMORY_TYPE == StripLights_MEMORY_RGB)
 890:Generated_Source\PSoC4/StripLights.c ****             color = StripLights_ledArray[y][x];
 855              		.loc 1 890 0
 856 001c 8000     		lsls	r0, r0, #2
 857              	.LVL61:
 858 001e 054B     		ldr	r3, .L67
 859              	.LVL62:
 860 0020 C058     		ldr	r0, [r0, r3]
 861              	.LVL63:
 862 0022 06E0     		b	.L62
 863              	.LVL64:
 864              	.L63:
 867:Generated_Source\PSoC4/StripLights.c ****     #if (StripLights_COORD_WRAP & StripLights_COORD_XAXIS )
 865              		.loc 1 867 0
 866 0024 0020     		movs	r0, #0
ARM GAS  C:\Users\JAMESS~1\AppData\Local\Temp\cce8FrJG.s 			page 33


 867              	.LVL65:
 868 0026 04E0     		b	.L62
 869              	.LVL66:
 870              	.L64:
 871 0028 0020     		movs	r0, #0
 872              	.LVL67:
 873 002a 02E0     		b	.L62
 874              	.LVL68:
 875              	.L65:
 876 002c 0020     		movs	r0, #0
 877              	.LVL69:
 878 002e 00E0     		b	.L62
 879              	.LVL70:
 880              	.L66:
 881 0030 0020     		movs	r0, #0
 882              	.LVL71:
 883              	.L62:
 891:Generated_Source\PSoC4/StripLights.c ****         #else  /* Else use lookup table */
 892:Generated_Source\PSoC4/StripLights.c ****             color = (uint32)StripLights_ledArray[y][x];
 893:Generated_Source\PSoC4/StripLights.c ****         #endif
 894:Generated_Source\PSoC4/StripLights.c **** 
 895:Generated_Source\PSoC4/StripLights.c ****     }
 896:Generated_Source\PSoC4/StripLights.c ****     return(color);
 897:Generated_Source\PSoC4/StripLights.c **** }
 884              		.loc 1 897 0
 885              		@ sp needed
 886 0032 7047     		bx	lr
 887              	.L68:
 888              		.align	2
 889              	.L67:
 890 0034 00000000 		.word	StripLights_ledArray
 891              		.cfi_endproc
 892              	.LFE47:
 893              		.size	StripLights_GetPixel, .-StripLights_GetPixel
 894              		.section	.text.StripLights_DrawCircle,"ax",%progbits
 895              		.align	2
 896              		.global	StripLights_DrawCircle
 897              		.code	16
 898              		.thumb_func
 899              		.type	StripLights_DrawCircle, %function
 900              	StripLights_DrawCircle:
 901              	.LFB48:
 898:Generated_Source\PSoC4/StripLights.c **** 
 899:Generated_Source\PSoC4/StripLights.c **** /*******************************************************************************
 900:Generated_Source\PSoC4/StripLights.c **** * Function Name: StripLights_DrawCircle
 901:Generated_Source\PSoC4/StripLights.c **** ********************************************************************************
 902:Generated_Source\PSoC4/StripLights.c **** *
 903:Generated_Source\PSoC4/StripLights.c **** * Summary:
 904:Generated_Source\PSoC4/StripLights.c **** *  Draw a circle on the display given a start point and radius.  
 905:Generated_Source\PSoC4/StripLights.c **** *
 906:Generated_Source\PSoC4/StripLights.c **** *  This code uses Bresenham's Circle Algorithm. 
 907:Generated_Source\PSoC4/StripLights.c **** *
 908:Generated_Source\PSoC4/StripLights.c **** * Parameters:  
 909:Generated_Source\PSoC4/StripLights.c **** *  x0, y0: Center of circle
 910:Generated_Source\PSoC4/StripLights.c **** *  radius: Radius of circle
 911:Generated_Source\PSoC4/StripLights.c **** *  color:  Color of circle
 912:Generated_Source\PSoC4/StripLights.c **** *
ARM GAS  C:\Users\JAMESS~1\AppData\Local\Temp\cce8FrJG.s 			page 34


 913:Generated_Source\PSoC4/StripLights.c **** * Return: 
 914:Generated_Source\PSoC4/StripLights.c **** *  None 
 915:Generated_Source\PSoC4/StripLights.c **** *  
 916:Generated_Source\PSoC4/StripLights.c **** *******************************************************************************/
 917:Generated_Source\PSoC4/StripLights.c **** void StripLights_DrawCircle (int32 x0, int32 y0, int32 radius, uint32 color)
 918:Generated_Source\PSoC4/StripLights.c **** {
 902              		.loc 1 918 0
 903              		.cfi_startproc
 904              		@ args = 0, pretend = 0, frame = 16
 905              		@ frame_needed = 0, uses_anonymous_args = 0
 906              	.LVL72:
 907 0000 F0B5     		push	{r4, r5, r6, r7, lr}
 908              		.cfi_def_cfa_offset 20
 909              		.cfi_offset 4, -20
 910              		.cfi_offset 5, -16
 911              		.cfi_offset 6, -12
 912              		.cfi_offset 7, -8
 913              		.cfi_offset 14, -4
 914 0002 5F46     		mov	r7, fp
 915 0004 5646     		mov	r6, r10
 916 0006 4D46     		mov	r5, r9
 917 0008 4446     		mov	r4, r8
 918 000a F0B4     		push	{r4, r5, r6, r7}
 919              		.cfi_def_cfa_offset 36
 920              		.cfi_offset 8, -36
 921              		.cfi_offset 9, -32
 922              		.cfi_offset 10, -28
 923              		.cfi_offset 11, -24
 924 000c 85B0     		sub	sp, sp, #20
 925              		.cfi_def_cfa_offset 56
 926 000e 8346     		mov	fp, r0
 927 0010 8846     		mov	r8, r1
 928 0012 1400     		movs	r4, r2
 929 0014 1D00     		movs	r5, r3
 930 0016 0193     		str	r3, [sp, #4]
 919:Generated_Source\PSoC4/StripLights.c **** 	int32 f = 1 - radius;
 931              		.loc 1 919 0
 932 0018 0123     		movs	r3, #1
 933              	.LVL73:
 934 001a 9B1A     		subs	r3, r3, r2
 935 001c 9946     		mov	r9, r3
 936              	.LVL74:
 920:Generated_Source\PSoC4/StripLights.c **** 	int32 ddF_x = 0;
 921:Generated_Source\PSoC4/StripLights.c **** 	int32 ddF_y = -2 * radius;
 937              		.loc 1 921 0
 938 001e D307     		lsls	r3, r2, #31
 939              	.LVL75:
 940 0020 9B1A     		subs	r3, r3, r2
 941 0022 5A00     		lsls	r2, r3, #1
 942              	.LVL76:
 943 0024 9246     		mov	r10, r2
 944              	.LVL77:
 922:Generated_Source\PSoC4/StripLights.c **** 	int32 x = 0;
 923:Generated_Source\PSoC4/StripLights.c **** 	int32 y = radius;
 924:Generated_Source\PSoC4/StripLights.c **** 
 925:Generated_Source\PSoC4/StripLights.c **** 	StripLights_Pixel(x0, y0 + radius, color);
 945              		.loc 1 925 0
ARM GAS  C:\Users\JAMESS~1\AppData\Local\Temp\cce8FrJG.s 			page 35


 946 0026 6118     		adds	r1, r4, r1
 947              	.LVL78:
 948 0028 2A00     		movs	r2, r5
 949              	.LVL79:
 950 002a FFF7FEFF 		bl	StripLights_Pixel
 951              	.LVL80:
 926:Generated_Source\PSoC4/StripLights.c **** 	StripLights_Pixel(x0, y0 - radius, color);
 952              		.loc 1 926 0
 953 002e 4346     		mov	r3, r8
 954 0030 191B     		subs	r1, r3, r4
 955 0032 2A00     		movs	r2, r5
 956 0034 5846     		mov	r0, fp
 957 0036 FFF7FEFF 		bl	StripLights_Pixel
 958              	.LVL81:
 927:Generated_Source\PSoC4/StripLights.c **** 	StripLights_Pixel( x0 + radius, y0, color);
 959              		.loc 1 927 0
 960 003a 5B46     		mov	r3, fp
 961 003c E018     		adds	r0, r4, r3
 962 003e 2A00     		movs	r2, r5
 963 0040 4146     		mov	r1, r8
 964 0042 FFF7FEFF 		bl	StripLights_Pixel
 965              	.LVL82:
 928:Generated_Source\PSoC4/StripLights.c **** 	StripLights_Pixel( x0 - radius, y0, color);
 966              		.loc 1 928 0
 967 0046 5B46     		mov	r3, fp
 968 0048 181B     		subs	r0, r3, r4
 969 004a 2A00     		movs	r2, r5
 970 004c 4146     		mov	r1, r8
 971 004e FFF7FEFF 		bl	StripLights_Pixel
 972              	.LVL83:
 922:Generated_Source\PSoC4/StripLights.c **** 	int32 y = radius;
 973              		.loc 1 922 0
 974 0052 0026     		movs	r6, #0
 920:Generated_Source\PSoC4/StripLights.c **** 	int32 ddF_y = -2 * radius;
 975              		.loc 1 920 0
 976 0054 0023     		movs	r3, #0
 929:Generated_Source\PSoC4/StripLights.c **** 
 930:Generated_Source\PSoC4/StripLights.c **** 	while(x < y)
 977              		.loc 1 930 0
 978 0056 48E0     		b	.L70
 979              	.LVL84:
 980              	.L72:
 931:Generated_Source\PSoC4/StripLights.c **** 	{
 932:Generated_Source\PSoC4/StripLights.c **** 		if(f >= 0)
 981              		.loc 1 932 0
 982 0058 4A46     		mov	r2, r9
 983 005a 002A     		cmp	r2, #0
 984 005c 04DB     		blt	.L71
 985              	.LVL85:
 933:Generated_Source\PSoC4/StripLights.c **** 		{
 934:Generated_Source\PSoC4/StripLights.c **** 			y--;
 986              		.loc 1 934 0
 987 005e 013C     		subs	r4, r4, #1
 988              	.LVL86:
 935:Generated_Source\PSoC4/StripLights.c **** 			ddF_y += 2;
 989              		.loc 1 935 0
 990 0060 0222     		movs	r2, #2
ARM GAS  C:\Users\JAMESS~1\AppData\Local\Temp\cce8FrJG.s 			page 36


 991              	.LVL87:
 992 0062 9446     		mov	ip, r2
 993 0064 E244     		add	r10, r10, ip
 994              	.LVL88:
 936:Generated_Source\PSoC4/StripLights.c **** 			f += ddF_y;
 995              		.loc 1 936 0
 996 0066 D144     		add	r9, r9, r10
 997              	.LVL89:
 998              	.L71:
 937:Generated_Source\PSoC4/StripLights.c **** 		}
 938:Generated_Source\PSoC4/StripLights.c **** 		x++;
 999              		.loc 1 938 0
 1000 0068 0136     		adds	r6, r6, #1
 1001              	.LVL90:
 939:Generated_Source\PSoC4/StripLights.c **** 		ddF_x += 2;
 1002              		.loc 1 939 0
 1003 006a 9A1C     		adds	r2, r3, #2
 1004 006c 0292     		str	r2, [sp, #8]
 1005              	.LVL91:
 940:Generated_Source\PSoC4/StripLights.c **** 		f += ddF_x + 1;
 1006              		.loc 1 940 0
 1007 006e 0333     		adds	r3, r3, #3
 1008 0070 9944     		add	r9, r9, r3
 1009              	.LVL92:
 941:Generated_Source\PSoC4/StripLights.c **** 
 942:Generated_Source\PSoC4/StripLights.c **** 		StripLights_Pixel(x0 + x, y0 + y, color);
 1010              		.loc 1 942 0
 1011 0072 5946     		mov	r1, fp
 1012 0074 8F19     		adds	r7, r1, r6
 1013 0076 4146     		mov	r1, r8
 1014 0078 6318     		adds	r3, r4, r1
 1015 007a 019A     		ldr	r2, [sp, #4]
 1016              	.LVL93:
 1017 007c 0393     		str	r3, [sp, #12]
 1018 007e 1900     		movs	r1, r3
 1019 0080 3800     		movs	r0, r7
 1020 0082 FFF7FEFF 		bl	StripLights_Pixel
 1021              	.LVL94:
 943:Generated_Source\PSoC4/StripLights.c **** 		StripLights_Pixel(x0 - x, y0 + y, color);
 1022              		.loc 1 943 0
 1023 0086 5846     		mov	r0, fp
 1024 0088 851B     		subs	r5, r0, r6
 1025 008a 019A     		ldr	r2, [sp, #4]
 1026 008c 0399     		ldr	r1, [sp, #12]
 1027 008e 2800     		movs	r0, r5
 1028 0090 FFF7FEFF 		bl	StripLights_Pixel
 1029              	.LVL95:
 944:Generated_Source\PSoC4/StripLights.c **** 		StripLights_Pixel( x0 + x, y0 - y, color);
 1030              		.loc 1 944 0
 1031 0094 4146     		mov	r1, r8
 1032 0096 0B1B     		subs	r3, r1, r4
 1033 0098 019A     		ldr	r2, [sp, #4]
 1034 009a 0393     		str	r3, [sp, #12]
 1035 009c 1900     		movs	r1, r3
 1036 009e 3800     		movs	r0, r7
 1037 00a0 FFF7FEFF 		bl	StripLights_Pixel
 1038              	.LVL96:
ARM GAS  C:\Users\JAMESS~1\AppData\Local\Temp\cce8FrJG.s 			page 37


 945:Generated_Source\PSoC4/StripLights.c **** 		StripLights_Pixel( x0 - x, y0 - y, color);
 1039              		.loc 1 945 0
 1040 00a4 019A     		ldr	r2, [sp, #4]
 1041 00a6 0399     		ldr	r1, [sp, #12]
 1042 00a8 2800     		movs	r0, r5
 1043 00aa FFF7FEFF 		bl	StripLights_Pixel
 1044              	.LVL97:
 946:Generated_Source\PSoC4/StripLights.c **** 		StripLights_Pixel( x0 + y, y0 + x, color);
 1045              		.loc 1 946 0
 1046 00ae 5946     		mov	r1, fp
 1047 00b0 6718     		adds	r7, r4, r1
 1048 00b2 4146     		mov	r1, r8
 1049 00b4 8D19     		adds	r5, r1, r6
 1050 00b6 019A     		ldr	r2, [sp, #4]
 1051 00b8 2900     		movs	r1, r5
 1052 00ba 3800     		movs	r0, r7
 1053 00bc FFF7FEFF 		bl	StripLights_Pixel
 1054              	.LVL98:
 947:Generated_Source\PSoC4/StripLights.c **** 		StripLights_Pixel( x0 - y, y0 + x, color);
 1055              		.loc 1 947 0
 1056 00c0 5946     		mov	r1, fp
 1057 00c2 0B1B     		subs	r3, r1, r4
 1058 00c4 019A     		ldr	r2, [sp, #4]
 1059 00c6 2900     		movs	r1, r5
 1060 00c8 0393     		str	r3, [sp, #12]
 1061 00ca 1800     		movs	r0, r3
 1062 00cc FFF7FEFF 		bl	StripLights_Pixel
 1063              	.LVL99:
 948:Generated_Source\PSoC4/StripLights.c **** 		StripLights_Pixel( x0 + y, y0 - x, color);
 1064              		.loc 1 948 0
 1065 00d0 4146     		mov	r1, r8
 1066 00d2 8D1B     		subs	r5, r1, r6
 1067 00d4 019A     		ldr	r2, [sp, #4]
 1068 00d6 2900     		movs	r1, r5
 1069 00d8 3800     		movs	r0, r7
 1070 00da FFF7FEFF 		bl	StripLights_Pixel
 1071              	.LVL100:
 949:Generated_Source\PSoC4/StripLights.c **** 		StripLights_Pixel( x0 - y, y0 - x, color);
 1072              		.loc 1 949 0
 1073 00de 019A     		ldr	r2, [sp, #4]
 1074 00e0 2900     		movs	r1, r5
 1075 00e2 0398     		ldr	r0, [sp, #12]
 1076 00e4 FFF7FEFF 		bl	StripLights_Pixel
 1077              	.LVL101:
 939:Generated_Source\PSoC4/StripLights.c **** 		f += ddF_x + 1;
 1078              		.loc 1 939 0
 1079 00e8 029B     		ldr	r3, [sp, #8]
 1080              	.LVL102:
 1081              	.L70:
 930:Generated_Source\PSoC4/StripLights.c **** 	{
 1082              		.loc 1 930 0
 1083 00ea A642     		cmp	r6, r4
 1084 00ec B4DB     		blt	.L72
 950:Generated_Source\PSoC4/StripLights.c **** 	}
 951:Generated_Source\PSoC4/StripLights.c **** }
 1085              		.loc 1 951 0
 1086 00ee 05B0     		add	sp, sp, #20
ARM GAS  C:\Users\JAMESS~1\AppData\Local\Temp\cce8FrJG.s 			page 38


 1087              		@ sp needed
 1088              	.LVL103:
 1089              	.LVL104:
 1090              	.LVL105:
 1091              	.LVL106:
 1092              	.LVL107:
 1093              	.LVL108:
 1094 00f0 3CBC     		pop	{r2, r3, r4, r5}
 1095 00f2 9046     		mov	r8, r2
 1096 00f4 9946     		mov	r9, r3
 1097 00f6 A246     		mov	r10, r4
 1098 00f8 AB46     		mov	fp, r5
 1099 00fa F0BD     		pop	{r4, r5, r6, r7, pc}
 1100              		.cfi_endproc
 1101              	.LFE48:
 1102              		.size	StripLights_DrawCircle, .-StripLights_DrawCircle
 1103              		.section	.text.StripLights_DrawLine,"ax",%progbits
 1104              		.align	2
 1105              		.global	StripLights_DrawLine
 1106              		.code	16
 1107              		.thumb_func
 1108              		.type	StripLights_DrawLine, %function
 1109              	StripLights_DrawLine:
 1110              	.LFB49:
 952:Generated_Source\PSoC4/StripLights.c **** 
 953:Generated_Source\PSoC4/StripLights.c **** 
 954:Generated_Source\PSoC4/StripLights.c **** /*******************************************************************************
 955:Generated_Source\PSoC4/StripLights.c **** * Function Name: StripLights_DrawLine
 956:Generated_Source\PSoC4/StripLights.c **** ********************************************************************************
 957:Generated_Source\PSoC4/StripLights.c **** *
 958:Generated_Source\PSoC4/StripLights.c **** * Summary:
 959:Generated_Source\PSoC4/StripLights.c **** *  Draw a line on the display.  
 960:Generated_Source\PSoC4/StripLights.c **** *
 961:Generated_Source\PSoC4/StripLights.c **** * Parameters:  
 962:Generated_Source\PSoC4/StripLights.c **** *  x0, y0:  The beginning endpoint
 963:Generated_Source\PSoC4/StripLights.c **** *  x1, y1:  The end endpoint.
 964:Generated_Source\PSoC4/StripLights.c **** *  color:   Color of the line.
 965:Generated_Source\PSoC4/StripLights.c **** *
 966:Generated_Source\PSoC4/StripLights.c **** * Return: 
 967:Generated_Source\PSoC4/StripLights.c **** *  None 
 968:Generated_Source\PSoC4/StripLights.c **** *  
 969:Generated_Source\PSoC4/StripLights.c **** *******************************************************************************/
 970:Generated_Source\PSoC4/StripLights.c **** void StripLights_DrawLine(int32 x0, int32 y0, int32 x1, int32 y1, uint32 color)
 971:Generated_Source\PSoC4/StripLights.c **** {
 1111              		.loc 1 971 0
 1112              		.cfi_startproc
 1113              		@ args = 4, pretend = 0, frame = 8
 1114              		@ frame_needed = 0, uses_anonymous_args = 0
 1115              	.LVL109:
 1116 0000 F0B5     		push	{r4, r5, r6, r7, lr}
 1117              		.cfi_def_cfa_offset 20
 1118              		.cfi_offset 4, -20
 1119              		.cfi_offset 5, -16
 1120              		.cfi_offset 6, -12
 1121              		.cfi_offset 7, -8
 1122              		.cfi_offset 14, -4
 1123 0002 5F46     		mov	r7, fp
ARM GAS  C:\Users\JAMESS~1\AppData\Local\Temp\cce8FrJG.s 			page 39


 1124 0004 5646     		mov	r6, r10
 1125 0006 4D46     		mov	r5, r9
 1126 0008 4446     		mov	r4, r8
 1127 000a F0B4     		push	{r4, r5, r6, r7}
 1128              		.cfi_def_cfa_offset 36
 1129              		.cfi_offset 8, -36
 1130              		.cfi_offset 9, -32
 1131              		.cfi_offset 10, -28
 1132              		.cfi_offset 11, -24
 1133 000c 83B0     		sub	sp, sp, #12
 1134              		.cfi_def_cfa_offset 48
 1135 000e 0400     		movs	r4, r0
 1136 0010 0D00     		movs	r5, r1
 1137 0012 0192     		str	r2, [sp, #4]
 1138 0014 9B46     		mov	fp, r3
 972:Generated_Source\PSoC4/StripLights.c **** 	int32 dy = y1 - y0; /* Difference between y0 and y1 */
 1139              		.loc 1 972 0
 1140 0016 5B1A     		subs	r3, r3, r1
 1141              	.LVL110:
 973:Generated_Source\PSoC4/StripLights.c **** 	int32 dx = x1 - x0; /* Difference between x0 and x1 */
 1142              		.loc 1 973 0
 1143 0018 171A     		subs	r7, r2, r0
 1144              	.LVL111:
 974:Generated_Source\PSoC4/StripLights.c **** 	int32 stepx, stepy;
 975:Generated_Source\PSoC4/StripLights.c **** 
 976:Generated_Source\PSoC4/StripLights.c **** 	if (dy < 0)
 1145              		.loc 1 976 0
 1146 001a 002B     		cmp	r3, #0
 1147 001c 04DA     		bge	.L84
 977:Generated_Source\PSoC4/StripLights.c **** 	{
 978:Generated_Source\PSoC4/StripLights.c **** 		dy = -dy;
 1148              		.loc 1 978 0
 1149 001e 5B42     		rsbs	r3, r3, #0
 1150              	.LVL112:
 979:Generated_Source\PSoC4/StripLights.c **** 		stepy = -1;
 1151              		.loc 1 979 0
 1152 0020 0122     		movs	r2, #1
 1153              	.LVL113:
 1154 0022 5242     		rsbs	r2, r2, #0
 1155 0024 9246     		mov	r10, r2
 1156 0026 01E0     		b	.L74
 1157              	.LVL114:
 1158              	.L84:
 980:Generated_Source\PSoC4/StripLights.c **** 	}
 981:Generated_Source\PSoC4/StripLights.c **** 	else
 982:Generated_Source\PSoC4/StripLights.c **** 	{
 983:Generated_Source\PSoC4/StripLights.c **** 		stepy = 1;
 1159              		.loc 1 983 0
 1160 0028 0122     		movs	r2, #1
 1161              	.LVL115:
 1162 002a 9246     		mov	r10, r2
 1163              	.L74:
 1164              	.LVL116:
 984:Generated_Source\PSoC4/StripLights.c **** 	}
 985:Generated_Source\PSoC4/StripLights.c **** 
 986:Generated_Source\PSoC4/StripLights.c **** 	if (dx < 0)
 1165              		.loc 1 986 0
ARM GAS  C:\Users\JAMESS~1\AppData\Local\Temp\cce8FrJG.s 			page 40


 1166 002c 002F     		cmp	r7, #0
 1167 002e 04DA     		bge	.L85
 987:Generated_Source\PSoC4/StripLights.c **** 	{
 988:Generated_Source\PSoC4/StripLights.c **** 		dx = -dx;
 1168              		.loc 1 988 0
 1169 0030 7F42     		rsbs	r7, r7, #0
 1170              	.LVL117:
 989:Generated_Source\PSoC4/StripLights.c **** 		stepx = -1;
 1171              		.loc 1 989 0
 1172 0032 0122     		movs	r2, #1
 1173 0034 5242     		rsbs	r2, r2, #0
 1174 0036 9146     		mov	r9, r2
 1175 0038 01E0     		b	.L75
 1176              	.LVL118:
 1177              	.L85:
 990:Generated_Source\PSoC4/StripLights.c **** 	}
 991:Generated_Source\PSoC4/StripLights.c **** 	else
 992:Generated_Source\PSoC4/StripLights.c **** 	{
 993:Generated_Source\PSoC4/StripLights.c **** 		stepx = 1;
 1178              		.loc 1 993 0
 1179 003a 0122     		movs	r2, #1
 1180 003c 9146     		mov	r9, r2
 1181              	.L75:
 1182              	.LVL119:
 994:Generated_Source\PSoC4/StripLights.c **** 	}
 995:Generated_Source\PSoC4/StripLights.c **** 
 996:Generated_Source\PSoC4/StripLights.c **** 	dy <<= 1; /* dy is now 2*dy  */
 1183              		.loc 1 996 0
 1184 003e 5B00     		lsls	r3, r3, #1
 1185              	.LVL120:
 1186 0040 9846     		mov	r8, r3
 1187              	.LVL121:
 997:Generated_Source\PSoC4/StripLights.c **** 	dx <<= 1; /* dx is now 2*dx  */
 1188              		.loc 1 997 0
 1189 0042 7F00     		lsls	r7, r7, #1
 1190              	.LVL122:
 998:Generated_Source\PSoC4/StripLights.c **** 	StripLights_Pixel(x0, y0, color);
 1191              		.loc 1 998 0
 1192 0044 0C9A     		ldr	r2, [sp, #48]
 1193 0046 2900     		movs	r1, r5
 1194              	.LVL123:
 1195 0048 2000     		movs	r0, r4
 1196              	.LVL124:
 1197 004a FFF7FEFF 		bl	StripLights_Pixel
 1198              	.LVL125:
 999:Generated_Source\PSoC4/StripLights.c **** 
1000:Generated_Source\PSoC4/StripLights.c **** 	if (dx > dy) 
 1199              		.loc 1 1000 0
 1200 004e B845     		cmp	r8, r7
 1201 0050 12DA     		bge	.L76
 1202              	.LBB2:
1001:Generated_Source\PSoC4/StripLights.c **** 	{
1002:Generated_Source\PSoC4/StripLights.c **** 		int fraction = dy - (dx >> 1);
 1203              		.loc 1 1002 0
 1204 0052 7B10     		asrs	r3, r7, #1
 1205 0054 4246     		mov	r2, r8
 1206 0056 D61A     		subs	r6, r2, r3
ARM GAS  C:\Users\JAMESS~1\AppData\Local\Temp\cce8FrJG.s 			page 41


 1207              	.LVL126:
1003:Generated_Source\PSoC4/StripLights.c **** 		while (x0 != x1)
 1208              		.loc 1 1003 0
 1209 0058 0AE0     		b	.L77
 1210              	.L79:
1004:Generated_Source\PSoC4/StripLights.c **** 		{
1005:Generated_Source\PSoC4/StripLights.c **** 			if (fraction >= 0)
 1211              		.loc 1 1005 0
 1212 005a 002E     		cmp	r6, #0
 1213 005c 01DB     		blt	.L78
1006:Generated_Source\PSoC4/StripLights.c **** 			{
1007:Generated_Source\PSoC4/StripLights.c **** 				y0 += stepy;
 1214              		.loc 1 1007 0
 1215 005e 5544     		add	r5, r5, r10
 1216              	.LVL127:
1008:Generated_Source\PSoC4/StripLights.c **** 				fraction -= dx;
 1217              		.loc 1 1008 0
 1218 0060 F61B     		subs	r6, r6, r7
 1219              	.LVL128:
 1220              	.L78:
1009:Generated_Source\PSoC4/StripLights.c **** 			}
1010:Generated_Source\PSoC4/StripLights.c **** 			x0 += stepx;
 1221              		.loc 1 1010 0
 1222 0062 4C44     		add	r4, r4, r9
 1223              	.LVL129:
1011:Generated_Source\PSoC4/StripLights.c **** 			fraction += dy;
 1224              		.loc 1 1011 0
 1225 0064 4644     		add	r6, r6, r8
 1226              	.LVL130:
1012:Generated_Source\PSoC4/StripLights.c **** 			StripLights_Pixel(x0, y0, color);
 1227              		.loc 1 1012 0
 1228 0066 0C9A     		ldr	r2, [sp, #48]
 1229 0068 2900     		movs	r1, r5
 1230 006a 2000     		movs	r0, r4
 1231 006c FFF7FEFF 		bl	StripLights_Pixel
 1232              	.LVL131:
 1233              	.L77:
1003:Generated_Source\PSoC4/StripLights.c **** 		{
 1234              		.loc 1 1003 0
 1235 0070 019B     		ldr	r3, [sp, #4]
 1236 0072 9C42     		cmp	r4, r3
 1237 0074 F1D1     		bne	.L79
 1238 0076 11E0     		b	.L73
 1239              	.LVL132:
 1240              	.L76:
 1241              	.LBE2:
 1242              	.LBB3:
1013:Generated_Source\PSoC4/StripLights.c **** 		}
1014:Generated_Source\PSoC4/StripLights.c **** 	}
1015:Generated_Source\PSoC4/StripLights.c **** 	else
1016:Generated_Source\PSoC4/StripLights.c **** 	{
1017:Generated_Source\PSoC4/StripLights.c **** 		int fraction = dx - (dy >> 1);
 1243              		.loc 1 1017 0
 1244 0078 4346     		mov	r3, r8
 1245 007a 5E10     		asrs	r6, r3, #1
 1246 007c BE1B     		subs	r6, r7, r6
 1247              	.LVL133:
ARM GAS  C:\Users\JAMESS~1\AppData\Local\Temp\cce8FrJG.s 			page 42


1018:Generated_Source\PSoC4/StripLights.c **** 		while (y0 != y1)
 1248              		.loc 1 1018 0
 1249 007e 0BE0     		b	.L81
 1250              	.L83:
1019:Generated_Source\PSoC4/StripLights.c **** 		{
1020:Generated_Source\PSoC4/StripLights.c **** 			if (fraction >= 0)
 1251              		.loc 1 1020 0
 1252 0080 002E     		cmp	r6, #0
 1253 0082 02DB     		blt	.L82
1021:Generated_Source\PSoC4/StripLights.c **** 			{
1022:Generated_Source\PSoC4/StripLights.c **** 				x0 += stepx;
 1254              		.loc 1 1022 0
 1255 0084 4C44     		add	r4, r4, r9
 1256              	.LVL134:
1023:Generated_Source\PSoC4/StripLights.c **** 				fraction -= dy;
 1257              		.loc 1 1023 0
 1258 0086 4346     		mov	r3, r8
 1259 0088 F61A     		subs	r6, r6, r3
 1260              	.LVL135:
 1261              	.L82:
1024:Generated_Source\PSoC4/StripLights.c **** 			}
1025:Generated_Source\PSoC4/StripLights.c **** 			y0 += stepy;
 1262              		.loc 1 1025 0
 1263 008a 5544     		add	r5, r5, r10
 1264              	.LVL136:
1026:Generated_Source\PSoC4/StripLights.c **** 			fraction += dx;
 1265              		.loc 1 1026 0
 1266 008c F619     		adds	r6, r6, r7
 1267              	.LVL137:
1027:Generated_Source\PSoC4/StripLights.c **** 			StripLights_Pixel( x0, y0, color);
 1268              		.loc 1 1027 0
 1269 008e 0C9A     		ldr	r2, [sp, #48]
 1270 0090 2900     		movs	r1, r5
 1271 0092 2000     		movs	r0, r4
 1272 0094 FFF7FEFF 		bl	StripLights_Pixel
 1273              	.LVL138:
 1274              	.L81:
1018:Generated_Source\PSoC4/StripLights.c **** 		{
 1275              		.loc 1 1018 0
 1276 0098 5D45     		cmp	r5, fp
 1277 009a F1D1     		bne	.L83
 1278              	.LVL139:
 1279              	.L73:
 1280              	.LBE3:
1028:Generated_Source\PSoC4/StripLights.c **** 		}
1029:Generated_Source\PSoC4/StripLights.c **** 	}
1030:Generated_Source\PSoC4/StripLights.c **** }
 1281              		.loc 1 1030 0
 1282 009c 03B0     		add	sp, sp, #12
 1283              		@ sp needed
 1284              	.LVL140:
 1285              	.LVL141:
 1286              	.LVL142:
 1287              	.LVL143:
 1288              	.LVL144:
 1289              	.LVL145:
 1290              	.LVL146:
ARM GAS  C:\Users\JAMESS~1\AppData\Local\Temp\cce8FrJG.s 			page 43


 1291 009e 3CBC     		pop	{r2, r3, r4, r5}
 1292 00a0 9046     		mov	r8, r2
 1293 00a2 9946     		mov	r9, r3
 1294 00a4 A246     		mov	r10, r4
 1295 00a6 AB46     		mov	fp, r5
 1296 00a8 F0BD     		pop	{r4, r5, r6, r7, pc}
 1297              		.cfi_endproc
 1298              	.LFE49:
 1299              		.size	StripLights_DrawLine, .-StripLights_DrawLine
 1300 00aa C046     		.section	.text.StripLights_DrawRect,"ax",%progbits
 1301              		.align	2
 1302              		.global	StripLights_DrawRect
 1303              		.code	16
 1304              		.thumb_func
 1305              		.type	StripLights_DrawRect, %function
 1306              	StripLights_DrawRect:
 1307              	.LFB50:
1031:Generated_Source\PSoC4/StripLights.c **** 
1032:Generated_Source\PSoC4/StripLights.c **** /*******************************************************************************
1033:Generated_Source\PSoC4/StripLights.c **** * Function Name: StripLights_DrawRect
1034:Generated_Source\PSoC4/StripLights.c **** ********************************************************************************
1035:Generated_Source\PSoC4/StripLights.c **** *
1036:Generated_Source\PSoC4/StripLights.c **** * Summary:
1037:Generated_Source\PSoC4/StripLights.c **** *  Draw a rectangle, filled or not.  
1038:Generated_Source\PSoC4/StripLights.c **** *
1039:Generated_Source\PSoC4/StripLights.c **** * Parameters:  
1040:Generated_Source\PSoC4/StripLights.c **** *  x0, y0:  The upper lefthand corner.
1041:Generated_Source\PSoC4/StripLights.c **** *  x1, y1:  The lower right corner.
1042:Generated_Source\PSoC4/StripLights.c **** *  fill:    Non-Zero if retangle is to be filled.
1043:Generated_Source\PSoC4/StripLights.c **** *  color:   Color for rectangle, border and fill.
1044:Generated_Source\PSoC4/StripLights.c **** *
1045:Generated_Source\PSoC4/StripLights.c **** * Return: 
1046:Generated_Source\PSoC4/StripLights.c **** *  None 
1047:Generated_Source\PSoC4/StripLights.c **** *  
1048:Generated_Source\PSoC4/StripLights.c **** *******************************************************************************/
1049:Generated_Source\PSoC4/StripLights.c **** void StripLights_DrawRect(int32 x0, int32 y0, int32 x1, int32 y1, int32 fill, uint32 color)
1050:Generated_Source\PSoC4/StripLights.c **** {	
 1308              		.loc 1 1050 0
 1309              		.cfi_startproc
 1310              		@ args = 8, pretend = 0, frame = 8
 1311              		@ frame_needed = 0, uses_anonymous_args = 0
 1312              	.LVL147:
 1313 0000 F0B5     		push	{r4, r5, r6, r7, lr}
 1314              		.cfi_def_cfa_offset 20
 1315              		.cfi_offset 4, -20
 1316              		.cfi_offset 5, -16
 1317              		.cfi_offset 6, -12
 1318              		.cfi_offset 7, -8
 1319              		.cfi_offset 14, -4
 1320 0002 85B0     		sub	sp, sp, #20
 1321              		.cfi_def_cfa_offset 40
 1322 0004 0400     		movs	r4, r0
 1323 0006 0391     		str	r1, [sp, #12]
 1324 0008 1600     		movs	r6, r2
 1325 000a 0293     		str	r3, [sp, #8]
 1326 000c 0B9F     		ldr	r7, [sp, #44]
1051:Generated_Source\PSoC4/StripLights.c ****      int xDiff;
ARM GAS  C:\Users\JAMESS~1\AppData\Local\Temp\cce8FrJG.s 			page 44


1052:Generated_Source\PSoC4/StripLights.c **** 	/* Check if the rectangle is to be filled    */
1053:Generated_Source\PSoC4/StripLights.c **** 	if (fill != 0)
 1327              		.loc 1 1053 0
 1328 000e 0A9B     		ldr	r3, [sp, #40]
 1329              	.LVL148:
 1330 0010 002B     		cmp	r3, #0
 1331 0012 15D0     		beq	.L87
1054:Generated_Source\PSoC4/StripLights.c **** 	{	
1055:Generated_Source\PSoC4/StripLights.c ****         /* Find the difference between the x vars */
1056:Generated_Source\PSoC4/StripLights.c **** 		if(x0 > x1)
 1332              		.loc 1 1056 0
 1333 0014 9042     		cmp	r0, r2
 1334 0016 01DD     		ble	.L88
1057:Generated_Source\PSoC4/StripLights.c **** 		{
1058:Generated_Source\PSoC4/StripLights.c **** 			xDiff = x0 - x1; 
 1335              		.loc 1 1058 0
 1336 0018 851A     		subs	r5, r0, r2
 1337              	.LVL149:
 1338 001a 0EE0     		b	.L89
 1339              	.LVL150:
 1340              	.L88:
1059:Generated_Source\PSoC4/StripLights.c **** 		}
1060:Generated_Source\PSoC4/StripLights.c **** 		else
1061:Generated_Source\PSoC4/StripLights.c **** 		{
1062:Generated_Source\PSoC4/StripLights.c **** 			xDiff = x1 - x0;
 1341              		.loc 1 1062 0
 1342 001c 151A     		subs	r5, r2, r0
 1343              	.LVL151:
 1344 001e 0CE0     		b	.L89
 1345              	.LVL152:
 1346              	.L93:
1063:Generated_Source\PSoC4/StripLights.c **** 		}
1064:Generated_Source\PSoC4/StripLights.c **** 	
1065:Generated_Source\PSoC4/StripLights.c **** 	    /* Fill it with lines  */
1066:Generated_Source\PSoC4/StripLights.c **** 		while(xDiff >= 0)
1067:Generated_Source\PSoC4/StripLights.c **** 		{
1068:Generated_Source\PSoC4/StripLights.c **** 			StripLights_DrawLine(x0, y0, x0, y1, color);
 1347              		.loc 1 1068 0
 1348 0020 0097     		str	r7, [sp]
 1349 0022 029B     		ldr	r3, [sp, #8]
 1350 0024 2200     		movs	r2, r4
 1351 0026 0399     		ldr	r1, [sp, #12]
 1352 0028 2000     		movs	r0, r4
 1353 002a FFF7FEFF 		bl	StripLights_DrawLine
 1354              	.LVL153:
1069:Generated_Source\PSoC4/StripLights.c **** 		
1070:Generated_Source\PSoC4/StripLights.c **** 			if(x0 > x1)
 1355              		.loc 1 1070 0
 1356 002e B442     		cmp	r4, r6
 1357 0030 01DD     		ble	.L91
1071:Generated_Source\PSoC4/StripLights.c **** 				x0--;
 1358              		.loc 1 1071 0
 1359 0032 013C     		subs	r4, r4, #1
 1360              	.LVL154:
 1361 0034 00E0     		b	.L92
 1362              	.L91:
1072:Generated_Source\PSoC4/StripLights.c **** 			else
ARM GAS  C:\Users\JAMESS~1\AppData\Local\Temp\cce8FrJG.s 			page 45


1073:Generated_Source\PSoC4/StripLights.c **** 				x0++;
 1363              		.loc 1 1073 0
 1364 0036 0134     		adds	r4, r4, #1
 1365              	.LVL155:
 1366              	.L92:
1074:Generated_Source\PSoC4/StripLights.c **** 		
1075:Generated_Source\PSoC4/StripLights.c **** 			xDiff--;
 1367              		.loc 1 1075 0
 1368 0038 013D     		subs	r5, r5, #1
 1369              	.LVL156:
 1370              	.L89:
1066:Generated_Source\PSoC4/StripLights.c **** 		{
 1371              		.loc 1 1066 0
 1372 003a 002D     		cmp	r5, #0
 1373 003c F0DA     		bge	.L93
 1374 003e 1AE0     		b	.L86
 1375              	.LVL157:
 1376              	.L87:
1076:Generated_Source\PSoC4/StripLights.c **** 		}
1077:Generated_Source\PSoC4/StripLights.c **** 	}
1078:Generated_Source\PSoC4/StripLights.c **** 	else 
1079:Generated_Source\PSoC4/StripLights.c **** 	{
1080:Generated_Source\PSoC4/StripLights.c **** 		/* Draw the four sides of the rectangle */
1081:Generated_Source\PSoC4/StripLights.c **** 		StripLights_DrawLine(x0, y0, x1, y0, color);
 1377              		.loc 1 1081 0
 1378 0040 0097     		str	r7, [sp]
 1379 0042 039D     		ldr	r5, [sp, #12]
 1380 0044 2B00     		movs	r3, r5
 1381 0046 2900     		movs	r1, r5
 1382              	.LVL158:
 1383 0048 FFF7FEFF 		bl	StripLights_DrawLine
 1384              	.LVL159:
1082:Generated_Source\PSoC4/StripLights.c **** 		StripLights_DrawLine(x0, y1, x1, y1, color);
 1385              		.loc 1 1082 0
 1386 004c 0097     		str	r7, [sp]
 1387 004e 0299     		ldr	r1, [sp, #8]
 1388 0050 0B00     		movs	r3, r1
 1389 0052 3200     		movs	r2, r6
 1390 0054 2000     		movs	r0, r4
 1391 0056 FFF7FEFF 		bl	StripLights_DrawLine
 1392              	.LVL160:
1083:Generated_Source\PSoC4/StripLights.c **** 		StripLights_DrawLine(x0, y0, x0, y1, color);
 1393              		.loc 1 1083 0
 1394 005a 0097     		str	r7, [sp]
 1395 005c 029B     		ldr	r3, [sp, #8]
 1396 005e 2200     		movs	r2, r4
 1397 0060 2900     		movs	r1, r5
 1398 0062 2000     		movs	r0, r4
 1399 0064 FFF7FEFF 		bl	StripLights_DrawLine
 1400              	.LVL161:
1084:Generated_Source\PSoC4/StripLights.c **** 		StripLights_DrawLine(x1, y0, x1, y1, color);
 1401              		.loc 1 1084 0
 1402 0068 0097     		str	r7, [sp]
 1403 006a 029B     		ldr	r3, [sp, #8]
 1404 006c 3200     		movs	r2, r6
 1405 006e 2900     		movs	r1, r5
 1406 0070 3000     		movs	r0, r6
ARM GAS  C:\Users\JAMESS~1\AppData\Local\Temp\cce8FrJG.s 			page 46


 1407 0072 FFF7FEFF 		bl	StripLights_DrawLine
 1408              	.LVL162:
 1409              	.L86:
1085:Generated_Source\PSoC4/StripLights.c **** 	}
1086:Generated_Source\PSoC4/StripLights.c **** }
 1410              		.loc 1 1086 0
 1411 0076 05B0     		add	sp, sp, #20
 1412              		@ sp needed
 1413              	.LVL163:
 1414              	.LVL164:
 1415 0078 F0BD     		pop	{r4, r5, r6, r7, pc}
 1416              		.cfi_endproc
 1417              	.LFE50:
 1418              		.size	StripLights_DrawRect, .-StripLights_DrawRect
 1419 007a C046     		.section	.text.StripLights_Dim,"ax",%progbits
 1420              		.align	2
 1421              		.global	StripLights_Dim
 1422              		.code	16
 1423              		.thumb_func
 1424              		.type	StripLights_Dim, %function
 1425              	StripLights_Dim:
 1426              	.LFB51:
1087:Generated_Source\PSoC4/StripLights.c **** 
1088:Generated_Source\PSoC4/StripLights.c **** /*******************************************************************************
1089:Generated_Source\PSoC4/StripLights.c **** * Function Name: StripLights_Dim
1090:Generated_Source\PSoC4/StripLights.c **** ********************************************************************************
1091:Generated_Source\PSoC4/StripLights.c **** *
1092:Generated_Source\PSoC4/StripLights.c **** * Summary:
1093:Generated_Source\PSoC4/StripLights.c **** *  Dim all output by a specific level (0,1,2,3,4)  
1094:Generated_Source\PSoC4/StripLights.c **** *
1095:Generated_Source\PSoC4/StripLights.c **** * Parameters:  
1096:Generated_Source\PSoC4/StripLights.c **** *  dimLevel:  Dim level 1 to 4, 0 => No dimming.
1097:Generated_Source\PSoC4/StripLights.c **** *
1098:Generated_Source\PSoC4/StripLights.c **** * Return: 
1099:Generated_Source\PSoC4/StripLights.c **** *  None 
1100:Generated_Source\PSoC4/StripLights.c **** *  
1101:Generated_Source\PSoC4/StripLights.c **** *******************************************************************************/
1102:Generated_Source\PSoC4/StripLights.c **** void StripLights_Dim(uint32 dimLevel) 
1103:Generated_Source\PSoC4/StripLights.c **** {
 1427              		.loc 1 1103 0
 1428              		.cfi_startproc
 1429              		@ args = 0, pretend = 0, frame = 0
 1430              		@ frame_needed = 0, uses_anonymous_args = 0
 1431              		@ link register save eliminated.
 1432              	.LVL165:
1104:Generated_Source\PSoC4/StripLights.c **** extern uint32  StripLights_DimMask;
1105:Generated_Source\PSoC4/StripLights.c **** extern uint32  StripLights_DimShift;
1106:Generated_Source\PSoC4/StripLights.c **** 
1107:Generated_Source\PSoC4/StripLights.c ****     switch(dimLevel)
 1433              		.loc 1 1107 0
 1434 0000 0228     		cmp	r0, #2
 1435 0002 0FD0     		beq	.L97
 1436 0004 02D8     		bhi	.L98
 1437 0006 0128     		cmp	r0, #1
 1438 0008 05D0     		beq	.L99
 1439 000a 20E0     		b	.L96
 1440              	.L98:
ARM GAS  C:\Users\JAMESS~1\AppData\Local\Temp\cce8FrJG.s 			page 47


 1441 000c 0328     		cmp	r0, #3
 1442 000e 10D0     		beq	.L100
 1443 0010 0428     		cmp	r0, #4
 1444 0012 15D0     		beq	.L101
 1445 0014 1BE0     		b	.L96
 1446              	.L99:
1108:Generated_Source\PSoC4/StripLights.c ****     {
1109:Generated_Source\PSoC4/StripLights.c ****        case 1:  // 1/2 bright
1110:Generated_Source\PSoC4/StripLights.c ****            StripLights_DimMask = 0x7F7F7F7F;
 1447              		.loc 1 1110 0
 1448 0016 124A     		ldr	r2, .L103
 1449 0018 124B     		ldr	r3, .L103+4
 1450 001a 1A60     		str	r2, [r3]
1111:Generated_Source\PSoC4/StripLights.c ****            StripLights_DimShift = 1;
 1451              		.loc 1 1111 0
 1452 001c 0122     		movs	r2, #1
 1453 001e 124B     		ldr	r3, .L103+8
 1454 0020 1A60     		str	r2, [r3]
1112:Generated_Source\PSoC4/StripLights.c ****            break;
 1455              		.loc 1 1112 0
 1456 0022 1BE0     		b	.L95
 1457              	.L97:
1113:Generated_Source\PSoC4/StripLights.c ****            
1114:Generated_Source\PSoC4/StripLights.c ****        case 2:
1115:Generated_Source\PSoC4/StripLights.c ****            StripLights_DimMask = 0x3F3F3F3F;
 1458              		.loc 1 1115 0
 1459 0024 114A     		ldr	r2, .L103+12
 1460 0026 0F4B     		ldr	r3, .L103+4
 1461 0028 1A60     		str	r2, [r3]
1116:Generated_Source\PSoC4/StripLights.c ****            StripLights_DimShift = 2;
 1462              		.loc 1 1116 0
 1463 002a 0222     		movs	r2, #2
 1464 002c 0E4B     		ldr	r3, .L103+8
 1465 002e 1A60     		str	r2, [r3]
1117:Generated_Source\PSoC4/StripLights.c ****            break;
 1466              		.loc 1 1117 0
 1467 0030 14E0     		b	.L95
 1468              	.L100:
1118:Generated_Source\PSoC4/StripLights.c ****            
1119:Generated_Source\PSoC4/StripLights.c ****        case 3:
1120:Generated_Source\PSoC4/StripLights.c ****            StripLights_DimMask = 0x1F1F1F1F;
 1469              		.loc 1 1120 0
 1470 0032 0F4A     		ldr	r2, .L103+16
 1471 0034 0B4B     		ldr	r3, .L103+4
 1472 0036 1A60     		str	r2, [r3]
1121:Generated_Source\PSoC4/StripLights.c ****            StripLights_DimShift = 3;
 1473              		.loc 1 1121 0
 1474 0038 0322     		movs	r2, #3
 1475 003a 0B4B     		ldr	r3, .L103+8
 1476 003c 1A60     		str	r2, [r3]
1122:Generated_Source\PSoC4/StripLights.c ****            break;
 1477              		.loc 1 1122 0
 1478 003e 0DE0     		b	.L95
 1479              	.L101:
1123:Generated_Source\PSoC4/StripLights.c ****            
1124:Generated_Source\PSoC4/StripLights.c ****        case 4:
1125:Generated_Source\PSoC4/StripLights.c ****            StripLights_DimMask = 0x0F0F0F0F;
ARM GAS  C:\Users\JAMESS~1\AppData\Local\Temp\cce8FrJG.s 			page 48


 1480              		.loc 1 1125 0
 1481 0040 0C4A     		ldr	r2, .L103+20
 1482 0042 084B     		ldr	r3, .L103+4
 1483 0044 1A60     		str	r2, [r3]
1126:Generated_Source\PSoC4/StripLights.c ****            StripLights_DimShift = 4;
 1484              		.loc 1 1126 0
 1485 0046 0422     		movs	r2, #4
 1486 0048 074B     		ldr	r3, .L103+8
 1487 004a 1A60     		str	r2, [r3]
1127:Generated_Source\PSoC4/StripLights.c ****            break;
 1488              		.loc 1 1127 0
 1489 004c 06E0     		b	.L95
 1490              	.L96:
1128:Generated_Source\PSoC4/StripLights.c ****            
1129:Generated_Source\PSoC4/StripLights.c ****        default:
1130:Generated_Source\PSoC4/StripLights.c ****            StripLights_DimMask = 0xFFFFFFFF;
 1491              		.loc 1 1130 0
 1492 004e 0122     		movs	r2, #1
 1493 0050 5242     		rsbs	r2, r2, #0
 1494 0052 044B     		ldr	r3, .L103+4
 1495 0054 1A60     		str	r2, [r3]
1131:Generated_Source\PSoC4/StripLights.c ****            StripLights_DimShift = 0;
 1496              		.loc 1 1131 0
 1497 0056 0022     		movs	r2, #0
 1498 0058 034B     		ldr	r3, .L103+8
 1499 005a 1A60     		str	r2, [r3]
 1500              	.L95:
1132:Generated_Source\PSoC4/StripLights.c ****            break; 
1133:Generated_Source\PSoC4/StripLights.c ****     }
1134:Generated_Source\PSoC4/StripLights.c **** }
 1501              		.loc 1 1134 0
 1502              		@ sp needed
 1503 005c 7047     		bx	lr
 1504              	.L104:
 1505 005e C046     		.align	2
 1506              	.L103:
 1507 0060 7F7F7F7F 		.word	2139062143
 1508 0064 00000000 		.word	StripLights_DimMask
 1509 0068 00000000 		.word	StripLights_DimShift
 1510 006c 3F3F3F3F 		.word	1061109567
 1511 0070 1F1F1F1F 		.word	522133279
 1512 0074 0F0F0F0F 		.word	252645135
 1513              		.cfi_endproc
 1514              	.LFE51:
 1515              		.size	StripLights_Dim, .-StripLights_Dim
 1516              		.section	.text.StripLights_Start,"ax",%progbits
 1517              		.align	2
 1518              		.global	StripLights_Start
 1519              		.code	16
 1520              		.thumb_func
 1521              		.type	StripLights_Start, %function
 1522              	StripLights_Start:
 1523              	.LFB32:
 253:Generated_Source\PSoC4/StripLights.c ****     extern uint8 StripLights_initvar;
 1524              		.loc 1 253 0
 1525              		.cfi_startproc
 1526              		@ args = 0, pretend = 0, frame = 0
ARM GAS  C:\Users\JAMESS~1\AppData\Local\Temp\cce8FrJG.s 			page 49


 1527              		@ frame_needed = 0, uses_anonymous_args = 0
 1528 0000 10B5     		push	{r4, lr}
 1529              		.cfi_def_cfa_offset 8
 1530              		.cfi_offset 4, -8
 1531              		.cfi_offset 14, -4
 264:Generated_Source\PSoC4/StripLights.c **** 
 1532              		.loc 1 264 0
 1533 0002 0322     		movs	r2, #3
 1534 0004 184B     		ldr	r3, .L107
 1535 0006 1A70     		strb	r2, [r3]
 279:Generated_Source\PSoC4/StripLights.c ****         StripLights_Compare0 = (uint8)StripLights_COMPARE_ZERO;
 1536              		.loc 1 279 0
 1537 0008 0B32     		adds	r2, r2, #11
 1538 000a 184B     		ldr	r3, .L107+4
 1539 000c 1A70     		strb	r2, [r3]
 280:Generated_Source\PSoC4/StripLights.c ****         StripLights_Compare1 = (uint8)StripLights_COMPARE_ONE;        
 1540              		.loc 1 280 0
 1541 000e 023A     		subs	r2, r2, #2
 1542 0010 174B     		ldr	r3, .L107+8
 1543 0012 1A70     		strb	r2, [r3]
 281:Generated_Source\PSoC4/StripLights.c ****     #endif /* CY_PSOC5A */
 1544              		.loc 1 281 0
 1545 0014 053A     		subs	r2, r2, #5
 1546 0016 174B     		ldr	r3, .L107+12
 1547 0018 1A70     		strb	r2, [r3]
 285:Generated_Source\PSoC4/StripLights.c ****     StripLights_MemClear(StripLights_OFF);
 1548              		.loc 1 285 0
 1549 001a 174C     		ldr	r4, .L107+16
 1550 001c 0123     		movs	r3, #1
 1551 001e 2370     		strb	r3, [r4]
 286:Generated_Source\PSoC4/StripLights.c ****     StripLights_CONTROL = StripLights_DISABLE;
 1552              		.loc 1 286 0
 1553 0020 1820     		movs	r0, #24
 1554 0022 FFF7FEFF 		bl	StripLights_getColor
 1555              	.LVL166:
 1556 0026 FFF7FEFF 		bl	StripLights_MemClear
 1557              	.LVL167:
 287:Generated_Source\PSoC4/StripLights.c ****     
 1558              		.loc 1 287 0
 1559 002a 0023     		movs	r3, #0
 1560 002c 2370     		strb	r3, [r4]
 289:Generated_Source\PSoC4/StripLights.c ****     
 1561              		.loc 1 289 0
 1562 002e 0020     		movs	r0, #0
 1563 0030 FFF7FEFF 		bl	StripLights_SetFont
 1564              	.LVL168:
 292:Generated_Source\PSoC4/StripLights.c **** 
 1565              		.loc 1 292 0
 1566 0034 0020     		movs	r0, #0
 1567 0036 FFF7FEFF 		bl	StripLights_Dim
 1568              	.LVL169:
 294:Generated_Source\PSoC4/StripLights.c ****     {
 1569              		.loc 1 294 0
 1570 003a 104B     		ldr	r3, .L107+20
 1571 003c 1B7F     		ldrb	r3, [r3, #28]
 1572 003e 002B     		cmp	r3, #0
 1573 0040 0ED1     		bne	.L106
ARM GAS  C:\Users\JAMESS~1\AppData\Local\Temp\cce8FrJG.s 			page 50


 297:Generated_Source\PSoC4/StripLights.c ****  
 1574              		.loc 1 297 0
 1575 0042 0122     		movs	r2, #1
 1576 0044 0D4B     		ldr	r3, .L107+20
 1577 0046 1A77     		strb	r2, [r3, #28]
 303:Generated_Source\PSoC4/StripLights.c **** 		   StripLights_fisr_StartEx(StripLights_FISR);
 1578              		.loc 1 303 0
 1579 0048 0D48     		ldr	r0, .L107+24
 1580 004a FFF7FEFF 		bl	StripLights_cisr_StartEx
 1581              	.LVL170:
 304:Generated_Source\PSoC4/StripLights.c ****         
 1582              		.loc 1 304 0
 1583 004e 0D48     		ldr	r0, .L107+28
 1584 0050 FFF7FEFF 		bl	StripLights_fisr_StartEx
 1585              	.LVL171:
 307:Generated_Source\PSoC4/StripLights.c ****            StripLights_fisr_SetPriority(0u);
 1586              		.loc 1 307 0
 1587 0054 0120     		movs	r0, #1
 1588 0056 FFF7FEFF 		bl	StripLights_cisr_SetPriority
 1589              	.LVL172:
 308:Generated_Source\PSoC4/StripLights.c ****        }
 1590              		.loc 1 308 0
 1591 005a 0020     		movs	r0, #0
 1592 005c FFF7FEFF 		bl	StripLights_fisr_SetPriority
 1593              	.LVL173:
 1594              	.L106:
 316:Generated_Source\PSoC4/StripLights.c **** }
 1595              		.loc 1 316 0
 1596 0060 0122     		movs	r2, #1
 1597 0062 094B     		ldr	r3, .L107+32
 1598 0064 1A60     		str	r2, [r3]
 317:Generated_Source\PSoC4/StripLights.c **** 
 1599              		.loc 1 317 0
 1600              		@ sp needed
 1601 0066 10BD     		pop	{r4, pc}
 1602              	.L108:
 1603              		.align	2
 1604              	.L107:
 1605 0068 91000F40 		.word	1074725009
 1606 006c 41000F40 		.word	1074724929
 1607 0070 21000F40 		.word	1074724897
 1608 0074 31000F40 		.word	1074724913
 1609 0078 72000F40 		.word	1074724978
 1610 007c 00000000 		.word	.LANCHOR0
 1611 0080 00000000 		.word	StripLights_CISR
 1612 0084 00000000 		.word	StripLights_FISR
 1613 0088 00000000 		.word	StripLights_refreshComplete
 1614              		.cfi_endproc
 1615              	.LFE32:
 1616              		.size	StripLights_Start, .-StripLights_Start
 1617              		.section	.text.StripLights_Bplot8,"ax",%progbits
 1618              		.align	2
 1619              		.global	StripLights_Bplot8
 1620              		.code	16
 1621              		.thumb_func
 1622              		.type	StripLights_Bplot8, %function
 1623              	StripLights_Bplot8:
ARM GAS  C:\Users\JAMESS~1\AppData\Local\Temp\cce8FrJG.s 			page 51


 1624              	.LFB52:
1135:Generated_Source\PSoC4/StripLights.c **** 
1136:Generated_Source\PSoC4/StripLights.c **** /*******************************************************************************
1137:Generated_Source\PSoC4/StripLights.c **** * Function Name: StripLights_Bplot8
1138:Generated_Source\PSoC4/StripLights.c **** ********************************************************************************
1139:Generated_Source\PSoC4/StripLights.c **** *
1140:Generated_Source\PSoC4/StripLights.c **** * Summary:
1141:Generated_Source\PSoC4/StripLights.c **** *  Draw a bitmap image on the display using 8-bit color. 
1142:Generated_Source\PSoC4/StripLights.c **** *
1143:Generated_Source\PSoC4/StripLights.c **** * Parameters:  
1144:Generated_Source\PSoC4/StripLights.c **** *    x, y:  The upper left corner of the image location
1145:Generated_Source\PSoC4/StripLights.c **** *  bitMap:  A pointer to an image array.  The first two values is the X and Y
1146:Generated_Source\PSoC4/StripLights.c **** *           size of the bitmap.
1147:Generated_Source\PSoC4/StripLights.c **** *  update:  If not 0 update the display after drawing image.
1148:Generated_Source\PSoC4/StripLights.c **** *
1149:Generated_Source\PSoC4/StripLights.c **** * Return: 
1150:Generated_Source\PSoC4/StripLights.c **** *  None 
1151:Generated_Source\PSoC4/StripLights.c **** *  
1152:Generated_Source\PSoC4/StripLights.c **** *******************************************************************************/
1153:Generated_Source\PSoC4/StripLights.c **** void StripLights_Bplot8( int32 x, int32 y, uint8 * bitMap, int32 update)
1154:Generated_Source\PSoC4/StripLights.c **** {
 1625              		.loc 1 1154 0
 1626              		.cfi_startproc
 1627              		@ args = 0, pretend = 0, frame = 8
 1628              		@ frame_needed = 0, uses_anonymous_args = 0
 1629              	.LVL174:
 1630 0000 F0B5     		push	{r4, r5, r6, r7, lr}
 1631              		.cfi_def_cfa_offset 20
 1632              		.cfi_offset 4, -20
 1633              		.cfi_offset 5, -16
 1634              		.cfi_offset 6, -12
 1635              		.cfi_offset 7, -8
 1636              		.cfi_offset 14, -4
 1637 0002 5F46     		mov	r7, fp
 1638 0004 4646     		mov	r6, r8
 1639 0006 C0B4     		push	{r6, r7}
 1640              		.cfi_def_cfa_offset 28
 1641              		.cfi_offset 8, -28
 1642              		.cfi_offset 11, -24
 1643 0008 83B0     		sub	sp, sp, #12
 1644              		.cfi_def_cfa_offset 40
 1645 000a 0190     		str	r0, [sp, #4]
 1646 000c 0091     		str	r1, [sp]
 1647 000e 1700     		movs	r7, r2
 1648 0010 9B46     		mov	fp, r3
 1649              	.LVL175:
1155:Generated_Source\PSoC4/StripLights.c ****     int32 dx, dy;
1156:Generated_Source\PSoC4/StripLights.c ****     int32 aindex = 0;
1157:Generated_Source\PSoC4/StripLights.c ****     int32 maxX, maxY;
1158:Generated_Source\PSoC4/StripLights.c **** 
1159:Generated_Source\PSoC4/StripLights.c ****     maxX = x + (int32)bitMap[aindex++];
 1650              		.loc 1 1159 0
 1651 0012 1378     		ldrb	r3, [r2]
 1652              	.LVL176:
 1653 0014 1E18     		adds	r6, r3, r0
 1654              	.LVL177:
1160:Generated_Source\PSoC4/StripLights.c ****     maxY = y  + (int32)bitMap[aindex++];
ARM GAS  C:\Users\JAMESS~1\AppData\Local\Temp\cce8FrJG.s 			page 52


 1655              		.loc 1 1160 0
 1656 0016 7B78     		ldrb	r3, [r7, #1]
 1657 0018 8846     		mov	r8, r1
 1658 001a 9844     		add	r8, r8, r3
 1659              	.LVL178:
 1660 001c 0223     		movs	r3, #2
1161:Generated_Source\PSoC4/StripLights.c **** 
1162:Generated_Source\PSoC4/StripLights.c **** 	for(dy = y; dy < maxY; dy++)
 1661              		.loc 1 1162 0
 1662 001e 0EE0     		b	.L110
 1663              	.LVL179:
 1664              	.L111:
1163:Generated_Source\PSoC4/StripLights.c ****     {
1164:Generated_Source\PSoC4/StripLights.c **** 		for(dx = x; dx < maxX; dx++)
1165:Generated_Source\PSoC4/StripLights.c ****         {
1166:Generated_Source\PSoC4/StripLights.c ****             StripLights_Pixel(dx, dy, bitMap[aindex++]);
 1665              		.loc 1 1166 0 discriminator 3
 1666 0020 5D1C     		adds	r5, r3, #1
 1667              	.LVL180:
 1668 0022 FA5C     		ldrb	r2, [r7, r3]
 1669 0024 0099     		ldr	r1, [sp]
 1670 0026 2000     		movs	r0, r4
 1671 0028 FFF7FEFF 		bl	StripLights_Pixel
 1672              	.LVL181:
1164:Generated_Source\PSoC4/StripLights.c ****         {
 1673              		.loc 1 1164 0 discriminator 3
 1674 002c 0134     		adds	r4, r4, #1
 1675              	.LVL182:
 1676              		.loc 1 1166 0 discriminator 3
 1677 002e 2B00     		movs	r3, r5
 1678 0030 00E0     		b	.L112
 1679              	.LVL183:
 1680              	.L114:
 1681 0032 019C     		ldr	r4, [sp, #4]
 1682              	.LVL184:
 1683              	.L112:
1164:Generated_Source\PSoC4/StripLights.c ****         {
 1684              		.loc 1 1164 0 discriminator 1
 1685 0034 B442     		cmp	r4, r6
 1686 0036 F3DB     		blt	.L111
1162:Generated_Source\PSoC4/StripLights.c ****     {
 1687              		.loc 1 1162 0 discriminator 2
 1688 0038 009A     		ldr	r2, [sp]
 1689 003a 0132     		adds	r2, r2, #1
 1690 003c 0092     		str	r2, [sp]
 1691              	.LVL185:
 1692              	.L110:
1162:Generated_Source\PSoC4/StripLights.c ****     {
 1693              		.loc 1 1162 0 is_stmt 0 discriminator 1
 1694 003e 009A     		ldr	r2, [sp]
 1695 0040 4245     		cmp	r2, r8
 1696 0042 F6DB     		blt	.L114
1167:Generated_Source\PSoC4/StripLights.c ****         }
1168:Generated_Source\PSoC4/StripLights.c ****     }
1169:Generated_Source\PSoC4/StripLights.c **** 	if(update) StripLights_Trigger(1);
 1697              		.loc 1 1169 0 is_stmt 1
 1698 0044 5B46     		mov	r3, fp
ARM GAS  C:\Users\JAMESS~1\AppData\Local\Temp\cce8FrJG.s 			page 53


 1699              	.LVL186:
 1700 0046 002B     		cmp	r3, #0
 1701 0048 02D0     		beq	.L109
 1702              	.LVL187:
 1703              		.loc 1 1169 0 is_stmt 0 discriminator 1
 1704 004a 0120     		movs	r0, #1
 1705 004c FFF7FEFF 		bl	StripLights_Trigger
 1706              	.LVL188:
 1707              	.L109:
1170:Generated_Source\PSoC4/StripLights.c **** }
 1708              		.loc 1 1170 0 is_stmt 1
 1709 0050 03B0     		add	sp, sp, #12
 1710              	.LVL189:
 1711              		@ sp needed
 1712              	.LVL190:
 1713              	.LVL191:
 1714              	.LVL192:
 1715              	.LVL193:
 1716 0052 0CBC     		pop	{r2, r3}
 1717 0054 9046     		mov	r8, r2
 1718 0056 9B46     		mov	fp, r3
 1719 0058 F0BD     		pop	{r4, r5, r6, r7, pc}
 1720              		.cfi_endproc
 1721              	.LFE52:
 1722              		.size	StripLights_Bplot8, .-StripLights_Bplot8
 1723 005a C046     		.section	.text.StripLights_Bplot32,"ax",%progbits
 1724              		.align	2
 1725              		.global	StripLights_Bplot32
 1726              		.code	16
 1727              		.thumb_func
 1728              		.type	StripLights_Bplot32, %function
 1729              	StripLights_Bplot32:
 1730              	.LFB53:
1171:Generated_Source\PSoC4/StripLights.c **** 
1172:Generated_Source\PSoC4/StripLights.c **** /*******************************************************************************
1173:Generated_Source\PSoC4/StripLights.c **** * Function Name: StripLights_Bplot32
1174:Generated_Source\PSoC4/StripLights.c **** ********************************************************************************
1175:Generated_Source\PSoC4/StripLights.c **** *
1176:Generated_Source\PSoC4/StripLights.c **** * Summary:
1177:Generated_Source\PSoC4/StripLights.c **** *  Draw a bitmap image on the display using 32-bit color. 
1178:Generated_Source\PSoC4/StripLights.c **** *
1179:Generated_Source\PSoC4/StripLights.c **** * Parameters:  
1180:Generated_Source\PSoC4/StripLights.c **** *    x, y:  The upper left corner of the image location
1181:Generated_Source\PSoC4/StripLights.c **** *  bitMap:  A pointer to an image array.  The first two values is the X and Y
1182:Generated_Source\PSoC4/StripLights.c **** *           size of the bitmap.
1183:Generated_Source\PSoC4/StripLights.c **** *  update:  If not 0 update the display after drawing image.
1184:Generated_Source\PSoC4/StripLights.c **** *
1185:Generated_Source\PSoC4/StripLights.c **** * Return: 
1186:Generated_Source\PSoC4/StripLights.c **** *  None 
1187:Generated_Source\PSoC4/StripLights.c **** *  
1188:Generated_Source\PSoC4/StripLights.c **** *******************************************************************************/
1189:Generated_Source\PSoC4/StripLights.c **** void StripLights_Bplot32( int32 x, int32 y, uint32 * bitMap, int32 update)
1190:Generated_Source\PSoC4/StripLights.c **** {
 1731              		.loc 1 1190 0
 1732              		.cfi_startproc
 1733              		@ args = 0, pretend = 0, frame = 8
 1734              		@ frame_needed = 0, uses_anonymous_args = 0
ARM GAS  C:\Users\JAMESS~1\AppData\Local\Temp\cce8FrJG.s 			page 54


 1735              	.LVL194:
 1736 0000 F0B5     		push	{r4, r5, r6, r7, lr}
 1737              		.cfi_def_cfa_offset 20
 1738              		.cfi_offset 4, -20
 1739              		.cfi_offset 5, -16
 1740              		.cfi_offset 6, -12
 1741              		.cfi_offset 7, -8
 1742              		.cfi_offset 14, -4
 1743 0002 5F46     		mov	r7, fp
 1744 0004 4646     		mov	r6, r8
 1745 0006 C0B4     		push	{r6, r7}
 1746              		.cfi_def_cfa_offset 28
 1747              		.cfi_offset 8, -28
 1748              		.cfi_offset 11, -24
 1749 0008 83B0     		sub	sp, sp, #12
 1750              		.cfi_def_cfa_offset 40
 1751 000a 0190     		str	r0, [sp, #4]
 1752 000c 0091     		str	r1, [sp]
 1753 000e 1700     		movs	r7, r2
 1754 0010 9B46     		mov	fp, r3
 1755              	.LVL195:
1191:Generated_Source\PSoC4/StripLights.c ****     int32 dx, dy;
1192:Generated_Source\PSoC4/StripLights.c ****     int32 aindex = 0;
1193:Generated_Source\PSoC4/StripLights.c ****     int32 maxX, maxY;
1194:Generated_Source\PSoC4/StripLights.c **** 
1195:Generated_Source\PSoC4/StripLights.c ****     maxX = x + (int32)bitMap[aindex++];
 1756              		.loc 1 1195 0
 1757 0012 1368     		ldr	r3, [r2]
 1758              	.LVL196:
 1759 0014 1E00     		movs	r6, r3
 1760 0016 8446     		mov	ip, r0
 1761 0018 6644     		add	r6, r6, ip
 1762              	.LVL197:
1196:Generated_Source\PSoC4/StripLights.c ****     maxY = y  + (int32)bitMap[aindex++];
 1763              		.loc 1 1196 0
 1764 001a 5368     		ldr	r3, [r2, #4]
 1765 001c 9846     		mov	r8, r3
 1766 001e 8C46     		mov	ip, r1
 1767 0020 E044     		add	r8, r8, ip
 1768              	.LVL198:
 1769 0022 0223     		movs	r3, #2
1197:Generated_Source\PSoC4/StripLights.c **** 
1198:Generated_Source\PSoC4/StripLights.c **** 	for(dy = y; dy < maxY; dy++)
 1770              		.loc 1 1198 0
 1771 0024 0FE0     		b	.L116
 1772              	.LVL199:
 1773              	.L117:
1199:Generated_Source\PSoC4/StripLights.c ****     {
1200:Generated_Source\PSoC4/StripLights.c **** 		for(dx = x; dx < maxX; dx++)
1201:Generated_Source\PSoC4/StripLights.c ****         {
1202:Generated_Source\PSoC4/StripLights.c ****             StripLights_Pixel(dx, dy, bitMap[aindex++]);
 1774              		.loc 1 1202 0 discriminator 3
 1775 0026 5D1C     		adds	r5, r3, #1
 1776              	.LVL200:
 1777 0028 9B00     		lsls	r3, r3, #2
 1778 002a FA58     		ldr	r2, [r7, r3]
 1779 002c 0099     		ldr	r1, [sp]
ARM GAS  C:\Users\JAMESS~1\AppData\Local\Temp\cce8FrJG.s 			page 55


 1780 002e 2000     		movs	r0, r4
 1781 0030 FFF7FEFF 		bl	StripLights_Pixel
 1782              	.LVL201:
1200:Generated_Source\PSoC4/StripLights.c ****         {
 1783              		.loc 1 1200 0 discriminator 3
 1784 0034 0134     		adds	r4, r4, #1
 1785              	.LVL202:
 1786              		.loc 1 1202 0 discriminator 3
 1787 0036 2B00     		movs	r3, r5
 1788 0038 00E0     		b	.L118
 1789              	.LVL203:
 1790              	.L120:
 1791 003a 019C     		ldr	r4, [sp, #4]
 1792              	.LVL204:
 1793              	.L118:
1200:Generated_Source\PSoC4/StripLights.c ****         {
 1794              		.loc 1 1200 0 discriminator 1
 1795 003c B442     		cmp	r4, r6
 1796 003e F2DB     		blt	.L117
1198:Generated_Source\PSoC4/StripLights.c ****     {
 1797              		.loc 1 1198 0 discriminator 2
 1798 0040 009A     		ldr	r2, [sp]
 1799 0042 0132     		adds	r2, r2, #1
 1800 0044 0092     		str	r2, [sp]
 1801              	.LVL205:
 1802              	.L116:
1198:Generated_Source\PSoC4/StripLights.c ****     {
 1803              		.loc 1 1198 0 is_stmt 0 discriminator 1
 1804 0046 009A     		ldr	r2, [sp]
 1805 0048 4245     		cmp	r2, r8
 1806 004a F6DB     		blt	.L120
1203:Generated_Source\PSoC4/StripLights.c ****         }
1204:Generated_Source\PSoC4/StripLights.c ****     }
1205:Generated_Source\PSoC4/StripLights.c **** 	if(update) StripLights_Trigger(1);
 1807              		.loc 1 1205 0 is_stmt 1
 1808 004c 5B46     		mov	r3, fp
 1809              	.LVL206:
 1810 004e 002B     		cmp	r3, #0
 1811 0050 02D0     		beq	.L115
 1812              	.LVL207:
 1813              		.loc 1 1205 0 is_stmt 0 discriminator 1
 1814 0052 0120     		movs	r0, #1
 1815 0054 FFF7FEFF 		bl	StripLights_Trigger
 1816              	.LVL208:
 1817              	.L115:
1206:Generated_Source\PSoC4/StripLights.c **** }
 1818              		.loc 1 1206 0 is_stmt 1
 1819 0058 03B0     		add	sp, sp, #12
 1820              	.LVL209:
 1821              		@ sp needed
 1822              	.LVL210:
 1823              	.LVL211:
 1824              	.LVL212:
 1825              	.LVL213:
 1826 005a 0CBC     		pop	{r2, r3}
 1827 005c 9046     		mov	r8, r2
 1828 005e 9B46     		mov	fp, r3
ARM GAS  C:\Users\JAMESS~1\AppData\Local\Temp\cce8FrJG.s 			page 56


 1829 0060 F0BD     		pop	{r4, r5, r6, r7, pc}
 1830              		.cfi_endproc
 1831              	.LFE53:
 1832              		.size	StripLights_Bplot32, .-StripLights_Bplot32
 1833              		.global	__aeabi_uidiv
 1834 0062 C046     		.section	.text.StripLights_RgbBlend,"ax",%progbits
 1835              		.align	2
 1836              		.global	StripLights_RgbBlend
 1837              		.code	16
 1838              		.thumb_func
 1839              		.type	StripLights_RgbBlend, %function
 1840              	StripLights_RgbBlend:
 1841              	.LFB54:
1207:Generated_Source\PSoC4/StripLights.c **** 
1208:Generated_Source\PSoC4/StripLights.c **** /*******************************************************************************
1209:Generated_Source\PSoC4/StripLights.c **** * Function Name: StripLights_RgbBlend()
1210:Generated_Source\PSoC4/StripLights.c **** ********************************************************************************
1211:Generated_Source\PSoC4/StripLights.c **** * Summary:  Blend two colors into one.
1212:Generated_Source\PSoC4/StripLights.c **** *    
1213:Generated_Source\PSoC4/StripLights.c **** *    newColor = (pct * toColor)  + ((100-pct) * fromColor)
1214:Generated_Source\PSoC4/StripLights.c **** *
1215:Generated_Source\PSoC4/StripLights.c **** * Parameters:  
1216:Generated_Source\PSoC4/StripLights.c **** *  void  
1217:Generated_Source\PSoC4/StripLights.c **** *
1218:Generated_Source\PSoC4/StripLights.c **** * Return: 
1219:Generated_Source\PSoC4/StripLights.c **** *  void
1220:Generated_Source\PSoC4/StripLights.c **** *
1221:Generated_Source\PSoC4/StripLights.c **** *******************************************************************************/
1222:Generated_Source\PSoC4/StripLights.c **** uint32 StripLights_RgbBlend(uint32 fromColor, uint32 toColor, uint32 pct)
1223:Generated_Source\PSoC4/StripLights.c **** {
 1842              		.loc 1 1223 0
 1843              		.cfi_startproc
 1844              		@ args = 0, pretend = 0, frame = 0
 1845              		@ frame_needed = 0, uses_anonymous_args = 0
 1846              	.LVL214:
 1847 0000 F8B5     		push	{r3, r4, r5, r6, r7, lr}
 1848              		.cfi_def_cfa_offset 24
 1849              		.cfi_offset 3, -24
 1850              		.cfi_offset 4, -20
 1851              		.cfi_offset 5, -16
 1852              		.cfi_offset 6, -12
 1853              		.cfi_offset 7, -8
 1854              		.cfi_offset 14, -4
 1855 0002 4F46     		mov	r7, r9
 1856 0004 4646     		mov	r6, r8
 1857 0006 C0B4     		push	{r6, r7}
 1858              		.cfi_def_cfa_offset 32
 1859              		.cfi_offset 8, -32
 1860              		.cfi_offset 9, -28
 1861 0008 0400     		movs	r4, r0
 1862 000a 0E00     		movs	r6, r1
 1863 000c 9146     		mov	r9, r2
 1864              	.LVL215:
1224:Generated_Source\PSoC4/StripLights.c ****     uint32 newColor = 0;
1225:Generated_Source\PSoC4/StripLights.c ****  
1226:Generated_Source\PSoC4/StripLights.c ****     #if(StripLights_CHIP == StripLights_CHIP_SF2812RGBW)
1227:Generated_Source\PSoC4/StripLights.c ****         uint32 tc, fc;
ARM GAS  C:\Users\JAMESS~1\AppData\Local\Temp\cce8FrJG.s 			page 57


1228:Generated_Source\PSoC4/StripLights.c ****         
1229:Generated_Source\PSoC4/StripLights.c ****         tc = toColor >> 8;
1230:Generated_Source\PSoC4/StripLights.c ****         fc = fromColor >> 8;
1231:Generated_Source\PSoC4/StripLights.c ****         newColor = ((((pct * (tc & 0x00FF0000)) + ((100-pct) * (fc & 0x00FF0000)))/100) & 0x00FF000
1232:Generated_Source\PSoC4/StripLights.c ****     #endif
1233:Generated_Source\PSoC4/StripLights.c ****     newColor |= (((pct * (toColor & 0x00FF0000)) + ((100-pct) * (fromColor & 0x00FF0000)))/100) & 0
 1865              		.loc 1 1233 0
 1866 000e FF25     		movs	r5, #255
 1867 0010 2D04     		lsls	r5, r5, #16
 1868 0012 0800     		movs	r0, r1
 1869              	.LVL216:
 1870 0014 2840     		ands	r0, r5
 1871 0016 5043     		muls	r0, r2
 1872 0018 6423     		movs	r3, #100
 1873 001a 9B1A     		subs	r3, r3, r2
 1874 001c 9846     		mov	r8, r3
 1875 001e 2300     		movs	r3, r4
 1876 0020 2B40     		ands	r3, r5
 1877 0022 4246     		mov	r2, r8
 1878              	.LVL217:
 1879 0024 5343     		muls	r3, r2
 1880 0026 C018     		adds	r0, r0, r3
 1881 0028 6421     		movs	r1, #100
 1882              	.LVL218:
 1883 002a FFF7FEFF 		bl	__aeabi_uidiv
 1884              	.LVL219:
 1885 002e 0540     		ands	r5, r0
 1886              	.LVL220:
1234:Generated_Source\PSoC4/StripLights.c ****     newColor |= (((pct * (toColor & 0x0000FF00)) + ((100-pct) * (fromColor & 0x0000FF00)))/100) & 0
 1887              		.loc 1 1234 0
 1888 0030 FF27     		movs	r7, #255
 1889 0032 3F02     		lsls	r7, r7, #8
 1890 0034 3000     		movs	r0, r6
 1891 0036 3840     		ands	r0, r7
 1892 0038 4B46     		mov	r3, r9
 1893 003a 5843     		muls	r0, r3
 1894 003c 2300     		movs	r3, r4
 1895 003e 3B40     		ands	r3, r7
 1896 0040 4246     		mov	r2, r8
 1897 0042 5343     		muls	r3, r2
 1898 0044 C018     		adds	r0, r0, r3
 1899 0046 6421     		movs	r1, #100
 1900 0048 FFF7FEFF 		bl	__aeabi_uidiv
 1901              	.LVL221:
 1902 004c 0740     		ands	r7, r0
 1903 004e 3D43     		orrs	r5, r7
 1904              	.LVL222:
1235:Generated_Source\PSoC4/StripLights.c ****     newColor |= (((pct * (toColor & 0x000000FF)) + ((100-pct) * (fromColor & 0x000000FF)))/100) & 0
 1905              		.loc 1 1235 0
 1906 0050 FF27     		movs	r7, #255
 1907 0052 3000     		movs	r0, r6
 1908 0054 3840     		ands	r0, r7
 1909 0056 4B46     		mov	r3, r9
 1910 0058 5843     		muls	r0, r3
 1911 005a 3C40     		ands	r4, r7
 1912              	.LVL223:
 1913 005c 4346     		mov	r3, r8
ARM GAS  C:\Users\JAMESS~1\AppData\Local\Temp\cce8FrJG.s 			page 58


 1914 005e 5C43     		muls	r4, r3
 1915 0060 0019     		adds	r0, r0, r4
 1916 0062 6421     		movs	r1, #100
 1917 0064 FFF7FEFF 		bl	__aeabi_uidiv
 1918              	.LVL224:
 1919 0068 3840     		ands	r0, r7
 1920 006a 2843     		orrs	r0, r5
 1921              	.LVL225:
1236:Generated_Source\PSoC4/StripLights.c ****  
1237:Generated_Source\PSoC4/StripLights.c ****    return(newColor);
1238:Generated_Source\PSoC4/StripLights.c **** }
 1922              		.loc 1 1238 0
 1923              		@ sp needed
 1924              	.LVL226:
 1925              	.LVL227:
 1926 006c 0CBC     		pop	{r2, r3}
 1927 006e 9046     		mov	r8, r2
 1928 0070 9946     		mov	r9, r3
 1929 0072 F8BD     		pop	{r3, r4, r5, r6, r7, pc}
 1930              		.cfi_endproc
 1931              	.LFE54:
 1932              		.size	StripLights_RgbBlend, .-StripLights_RgbBlend
 1933              		.global	StripLights_CLUT
 1934              		.global	StripLights_gamma
 1935              		.comm	StripLights_DimShift,4,4
 1936              		.comm	StripLights_DimMask,4,4
 1937              		.comm	StripLights_refreshComplete,4,4
 1938              		.global	StripLights_row
 1939              		.global	StripLights_ledIndex
 1940              		.comm	StripLights_ledArray,1200,4
 1941              		.global	StripLights_initvar
 1942              		.global	StripLights_ExitCritical
 1943              		.global	StripLights_EnterCritical
 1944              		.section	.rodata
 1945              		.align	2
 1946              		.set	.LANCHOR1,. + 0
 1947              		.set	.LANCHOR2,. + 256
 1948              		.type	StripLights_gamma, %object
 1949              		.size	StripLights_gamma, 256
 1950              	StripLights_gamma:
 1951 0000 00       		.byte	0
 1952 0001 00       		.byte	0
 1953 0002 00       		.byte	0
 1954 0003 00       		.byte	0
 1955 0004 00       		.byte	0
 1956 0005 00       		.byte	0
 1957 0006 00       		.byte	0
 1958 0007 00       		.byte	0
 1959 0008 00       		.byte	0
 1960 0009 00       		.byte	0
 1961 000a 00       		.byte	0
 1962 000b 00       		.byte	0
 1963 000c 00       		.byte	0
 1964 000d 00       		.byte	0
 1965 000e 00       		.byte	0
 1966 000f 00       		.byte	0
 1967 0010 00       		.byte	0
ARM GAS  C:\Users\JAMESS~1\AppData\Local\Temp\cce8FrJG.s 			page 59


 1968 0011 00       		.byte	0
 1969 0012 00       		.byte	0
 1970 0013 00       		.byte	0
 1971 0014 00       		.byte	0
 1972 0015 00       		.byte	0
 1973 0016 00       		.byte	0
 1974 0017 00       		.byte	0
 1975 0018 00       		.byte	0
 1976 0019 00       		.byte	0
 1977 001a 00       		.byte	0
 1978 001b 00       		.byte	0
 1979 001c 01       		.byte	1
 1980 001d 01       		.byte	1
 1981 001e 01       		.byte	1
 1982 001f 01       		.byte	1
 1983 0020 01       		.byte	1
 1984 0021 01       		.byte	1
 1985 0022 01       		.byte	1
 1986 0023 01       		.byte	1
 1987 0024 01       		.byte	1
 1988 0025 01       		.byte	1
 1989 0026 01       		.byte	1
 1990 0027 01       		.byte	1
 1991 0028 01       		.byte	1
 1992 0029 02       		.byte	2
 1993 002a 02       		.byte	2
 1994 002b 02       		.byte	2
 1995 002c 02       		.byte	2
 1996 002d 02       		.byte	2
 1997 002e 02       		.byte	2
 1998 002f 02       		.byte	2
 1999 0030 02       		.byte	2
 2000 0031 03       		.byte	3
 2001 0032 03       		.byte	3
 2002 0033 03       		.byte	3
 2003 0034 03       		.byte	3
 2004 0035 03       		.byte	3
 2005 0036 03       		.byte	3
 2006 0037 03       		.byte	3
 2007 0038 04       		.byte	4
 2008 0039 04       		.byte	4
 2009 003a 04       		.byte	4
 2010 003b 04       		.byte	4
 2011 003c 04       		.byte	4
 2012 003d 05       		.byte	5
 2013 003e 05       		.byte	5
 2014 003f 05       		.byte	5
 2015 0040 05       		.byte	5
 2016 0041 06       		.byte	6
 2017 0042 06       		.byte	6
 2018 0043 06       		.byte	6
 2019 0044 06       		.byte	6
 2020 0045 07       		.byte	7
 2021 0046 07       		.byte	7
 2022 0047 07       		.byte	7
 2023 0048 07       		.byte	7
 2024 0049 08       		.byte	8
ARM GAS  C:\Users\JAMESS~1\AppData\Local\Temp\cce8FrJG.s 			page 60


 2025 004a 08       		.byte	8
 2026 004b 08       		.byte	8
 2027 004c 09       		.byte	9
 2028 004d 09       		.byte	9
 2029 004e 09       		.byte	9
 2030 004f 0A       		.byte	10
 2031 0050 0A       		.byte	10
 2032 0051 0A       		.byte	10
 2033 0052 0B       		.byte	11
 2034 0053 0B       		.byte	11
 2035 0054 0B       		.byte	11
 2036 0055 0C       		.byte	12
 2037 0056 0C       		.byte	12
 2038 0057 0D       		.byte	13
 2039 0058 0D       		.byte	13
 2040 0059 0D       		.byte	13
 2041 005a 0E       		.byte	14
 2042 005b 0E       		.byte	14
 2043 005c 0F       		.byte	15
 2044 005d 0F       		.byte	15
 2045 005e 10       		.byte	16
 2046 005f 10       		.byte	16
 2047 0060 11       		.byte	17
 2048 0061 11       		.byte	17
 2049 0062 12       		.byte	18
 2050 0063 12       		.byte	18
 2051 0064 13       		.byte	19
 2052 0065 13       		.byte	19
 2053 0066 14       		.byte	20
 2054 0067 14       		.byte	20
 2055 0068 15       		.byte	21
 2056 0069 15       		.byte	21
 2057 006a 16       		.byte	22
 2058 006b 16       		.byte	22
 2059 006c 17       		.byte	23
 2060 006d 18       		.byte	24
 2061 006e 18       		.byte	24
 2062 006f 19       		.byte	25
 2063 0070 19       		.byte	25
 2064 0071 1A       		.byte	26
 2065 0072 1B       		.byte	27
 2066 0073 1B       		.byte	27
 2067 0074 1C       		.byte	28
 2068 0075 1D       		.byte	29
 2069 0076 1D       		.byte	29
 2070 0077 1E       		.byte	30
 2071 0078 1F       		.byte	31
 2072 0079 20       		.byte	32
 2073 007a 20       		.byte	32
 2074 007b 21       		.byte	33
 2075 007c 22       		.byte	34
 2076 007d 23       		.byte	35
 2077 007e 23       		.byte	35
 2078 007f 24       		.byte	36
 2079 0080 25       		.byte	37
 2080 0081 26       		.byte	38
 2081 0082 27       		.byte	39
ARM GAS  C:\Users\JAMESS~1\AppData\Local\Temp\cce8FrJG.s 			page 61


 2082 0083 27       		.byte	39
 2083 0084 28       		.byte	40
 2084 0085 29       		.byte	41
 2085 0086 2A       		.byte	42
 2086 0087 2B       		.byte	43
 2087 0088 2C       		.byte	44
 2088 0089 2D       		.byte	45
 2089 008a 2E       		.byte	46
 2090 008b 2F       		.byte	47
 2091 008c 30       		.byte	48
 2092 008d 31       		.byte	49
 2093 008e 32       		.byte	50
 2094 008f 32       		.byte	50
 2095 0090 33       		.byte	51
 2096 0091 34       		.byte	52
 2097 0092 36       		.byte	54
 2098 0093 37       		.byte	55
 2099 0094 38       		.byte	56
 2100 0095 39       		.byte	57
 2101 0096 3A       		.byte	58
 2102 0097 3B       		.byte	59
 2103 0098 3C       		.byte	60
 2104 0099 3D       		.byte	61
 2105 009a 3E       		.byte	62
 2106 009b 3F       		.byte	63
 2107 009c 40       		.byte	64
 2108 009d 42       		.byte	66
 2109 009e 43       		.byte	67
 2110 009f 44       		.byte	68
 2111 00a0 45       		.byte	69
 2112 00a1 46       		.byte	70
 2113 00a2 48       		.byte	72
 2114 00a3 49       		.byte	73
 2115 00a4 4A       		.byte	74
 2116 00a5 4B       		.byte	75
 2117 00a6 4D       		.byte	77
 2118 00a7 4E       		.byte	78
 2119 00a8 4F       		.byte	79
 2120 00a9 51       		.byte	81
 2121 00aa 52       		.byte	82
 2122 00ab 53       		.byte	83
 2123 00ac 55       		.byte	85
 2124 00ad 56       		.byte	86
 2125 00ae 57       		.byte	87
 2126 00af 59       		.byte	89
 2127 00b0 5A       		.byte	90
 2128 00b1 5C       		.byte	92
 2129 00b2 5D       		.byte	93
 2130 00b3 5F       		.byte	95
 2131 00b4 60       		.byte	96
 2132 00b5 62       		.byte	98
 2133 00b6 63       		.byte	99
 2134 00b7 65       		.byte	101
 2135 00b8 66       		.byte	102
 2136 00b9 68       		.byte	104
 2137 00ba 69       		.byte	105
 2138 00bb 6B       		.byte	107
ARM GAS  C:\Users\JAMESS~1\AppData\Local\Temp\cce8FrJG.s 			page 62


 2139 00bc 6D       		.byte	109
 2140 00bd 6E       		.byte	110
 2141 00be 70       		.byte	112
 2142 00bf 72       		.byte	114
 2143 00c0 73       		.byte	115
 2144 00c1 75       		.byte	117
 2145 00c2 77       		.byte	119
 2146 00c3 78       		.byte	120
 2147 00c4 7A       		.byte	122
 2148 00c5 7C       		.byte	124
 2149 00c6 7E       		.byte	126
 2150 00c7 7F       		.byte	127
 2151 00c8 81       		.byte	-127
 2152 00c9 83       		.byte	-125
 2153 00ca 85       		.byte	-123
 2154 00cb 87       		.byte	-121
 2155 00cc 89       		.byte	-119
 2156 00cd 8A       		.byte	-118
 2157 00ce 8C       		.byte	-116
 2158 00cf 8E       		.byte	-114
 2159 00d0 90       		.byte	-112
 2160 00d1 92       		.byte	-110
 2161 00d2 94       		.byte	-108
 2162 00d3 96       		.byte	-106
 2163 00d4 98       		.byte	-104
 2164 00d5 9A       		.byte	-102
 2165 00d6 9C       		.byte	-100
 2166 00d7 9E       		.byte	-98
 2167 00d8 A0       		.byte	-96
 2168 00d9 A2       		.byte	-94
 2169 00da A4       		.byte	-92
 2170 00db A7       		.byte	-89
 2171 00dc A9       		.byte	-87
 2172 00dd AB       		.byte	-85
 2173 00de AD       		.byte	-83
 2174 00df AF       		.byte	-81
 2175 00e0 B1       		.byte	-79
 2176 00e1 B4       		.byte	-76
 2177 00e2 B6       		.byte	-74
 2178 00e3 B8       		.byte	-72
 2179 00e4 BA       		.byte	-70
 2180 00e5 BD       		.byte	-67
 2181 00e6 BF       		.byte	-65
 2182 00e7 C1       		.byte	-63
 2183 00e8 C4       		.byte	-60
 2184 00e9 C6       		.byte	-58
 2185 00ea C8       		.byte	-56
 2186 00eb CB       		.byte	-53
 2187 00ec CD       		.byte	-51
 2188 00ed D0       		.byte	-48
 2189 00ee D2       		.byte	-46
 2190 00ef D5       		.byte	-43
 2191 00f0 D7       		.byte	-41
 2192 00f1 DA       		.byte	-38
 2193 00f2 DC       		.byte	-36
 2194 00f3 DF       		.byte	-33
 2195 00f4 E1       		.byte	-31
ARM GAS  C:\Users\JAMESS~1\AppData\Local\Temp\cce8FrJG.s 			page 63


 2196 00f5 E4       		.byte	-28
 2197 00f6 E7       		.byte	-25
 2198 00f7 E9       		.byte	-23
 2199 00f8 EC       		.byte	-20
 2200 00f9 EF       		.byte	-17
 2201 00fa F1       		.byte	-15
 2202 00fb F4       		.byte	-12
 2203 00fc F7       		.byte	-9
 2204 00fd F9       		.byte	-7
 2205 00fe FC       		.byte	-4
 2206 00ff FF       		.byte	-1
 2207              		.type	StripLights_CLUT, %object
 2208              		.size	StripLights_CLUT, 480
 2209              	StripLights_CLUT:
 2210 0100 FFFF0000 		.word	65535
 2211 0104 FFCC0000 		.word	52479
 2212 0108 FF990000 		.word	39423
 2213 010c FF330000 		.word	13311
 2214 0110 FF000000 		.word	255
 2215 0114 B3006600 		.word	6684851
 2216 0118 99009900 		.word	10027161
 2217 011c 6600B300 		.word	11731046
 2218 0120 3300CC00 		.word	13369395
 2219 0124 1919B300 		.word	11737369
 2220 0128 00339900 		.word	10040064
 2221 012c 00409900 		.word	10043392
 2222 0130 00669900 		.word	10053120
 2223 0134 00999900 		.word	10066176
 2224 0138 00CC9900 		.word	10079232
 2225 013c 00E66600 		.word	6743552
 2226 0140 00FF0000 		.word	65280
 2227 0144 33FF0000 		.word	65331
 2228 0148 66FF0000 		.word	65382
 2229 014c 80FF0000 		.word	65408
 2230 0150 99FF0000 		.word	65433
 2231 0154 B2FF0000 		.word	65458
 2232 0158 CCFF0000 		.word	65484
 2233 015c E5FF0000 		.word	65509
 2234 0160 00000000 		.word	0
 2235 0164 00005500 		.word	5570560
 2236 0168 0000AA00 		.word	11141120
 2237 016c 0000FF00 		.word	16711680
 2238 0170 55000000 		.word	85
 2239 0174 55005500 		.word	5570645
 2240 0178 5500AA00 		.word	11141205
 2241 017c 5500FF00 		.word	16711765
 2242 0180 AA000000 		.word	170
 2243 0184 AA005500 		.word	5570730
 2244 0188 AA00AA00 		.word	11141290
 2245 018c AA00FF00 		.word	16711850
 2246 0190 FF000000 		.word	255
 2247 0194 FF005500 		.word	5570815
 2248 0198 FF00AA00 		.word	11141375
 2249 019c FF00FF00 		.word	16711935
 2250 01a0 00550000 		.word	21760
 2251 01a4 00555500 		.word	5592320
 2252 01a8 0055AA00 		.word	11162880
ARM GAS  C:\Users\JAMESS~1\AppData\Local\Temp\cce8FrJG.s 			page 64


 2253 01ac 0055FF00 		.word	16733440
 2254 01b0 55550000 		.word	21845
 2255 01b4 55555500 		.word	5592405
 2256 01b8 5555AA00 		.word	11162965
 2257 01bc 5555FF00 		.word	16733525
 2258 01c0 AA550000 		.word	21930
 2259 01c4 AA555500 		.word	5592490
 2260 01c8 AA55AA00 		.word	11163050
 2261 01cc AA55FF00 		.word	16733610
 2262 01d0 FF550000 		.word	22015
 2263 01d4 FF555500 		.word	5592575
 2264 01d8 FF55AA00 		.word	11163135
 2265 01dc FF55FF00 		.word	16733695
 2266 01e0 00AA0000 		.word	43520
 2267 01e4 00AA5500 		.word	5614080
 2268 01e8 00AAAA00 		.word	11184640
 2269 01ec 00AAFF00 		.word	16755200
 2270 01f0 55AA0000 		.word	43605
 2271 01f4 55AA5500 		.word	5614165
 2272 01f8 55AAAA00 		.word	11184725
 2273 01fc 55AAFF00 		.word	16755285
 2274 0200 AAAA0000 		.word	43690
 2275 0204 AAAA5500 		.word	5614250
 2276 0208 AAAAAA00 		.word	11184810
 2277 020c AAAAFF00 		.word	16755370
 2278 0210 FFAA0000 		.word	43775
 2279 0214 FFAA5500 		.word	5614335
 2280 0218 FFAAAA00 		.word	11184895
 2281 021c FFAAFF00 		.word	16755455
 2282 0220 00FF0000 		.word	65280
 2283 0224 00FF5500 		.word	5635840
 2284 0228 00FFAA00 		.word	11206400
 2285 022c 00FFFF00 		.word	16776960
 2286 0230 55FF0000 		.word	65365
 2287 0234 55FF5500 		.word	5635925
 2288 0238 55FFAA00 		.word	11206485
 2289 023c 55FFFF00 		.word	16777045
 2290 0240 AAFF0000 		.word	65450
 2291 0244 AAFF5500 		.word	5636010
 2292 0248 AAFFAA00 		.word	11206570
 2293 024c AAFFFF00 		.word	16777130
 2294 0250 FFFF0000 		.word	65535
 2295 0254 FFFF5500 		.word	5636095
 2296 0258 FFFFAA00 		.word	11206655
 2297 025c FFFFFF00 		.word	16777215
 2298 0260 FF800000 		.word	33023
 2299 0264 FF008000 		.word	8388863
 2300 0268 FF00FF00 		.word	16711935
 2301 026c 8000FF00 		.word	16711808
 2302 0270 0080FF00 		.word	16744448
 2303 0274 00FF8000 		.word	8453888
 2304 0278 FF000000 		.word	255
 2305 027c 20202000 		.word	2105376
 2306 0280 00002000 		.word	2097152
 2307 0284 00000010 		.word	268435456
 2308 0288 00FF0000 		.word	65280
 2309 028c 30FF0000 		.word	65328
ARM GAS  C:\Users\JAMESS~1\AppData\Local\Temp\cce8FrJG.s 			page 65


 2310 0290 FFFFFFFF 		.word	-1
 2311 0294 000000FF 		.word	-16777216
 2312 0298 808080FF 		.word	-8355712
 2313 029c 404040FF 		.word	-12566464
 2314 02a0 0000FF00 		.word	16711680
 2315 02a4 0010F000 		.word	15732736
 2316 02a8 0020E000 		.word	14688256
 2317 02ac 0030D000 		.word	13643776
 2318 02b0 0040C000 		.word	12599296
 2319 02b4 0050B000 		.word	11554816
 2320 02b8 0060A000 		.word	10510336
 2321 02bc 00709000 		.word	9465856
 2322 02c0 00808000 		.word	8421376
 2323 02c4 00907000 		.word	7376896
 2324 02c8 00A06000 		.word	6332416
 2325 02cc 00B05000 		.word	5287936
 2326 02d0 00C04000 		.word	4243456
 2327 02d4 00D03000 		.word	3198976
 2328 02d8 00E02000 		.word	2154496
 2329 02dc 00FF0000 		.word	65280
 2330              		.bss
 2331              		.align	2
 2332              		.set	.LANCHOR0,. + 0
 2333              		.type	StripLights_row, %object
 2334              		.size	StripLights_row, 4
 2335              	StripLights_row:
 2336 0000 00000000 		.space	4
 2337              		.type	StripLights_ledIndex, %object
 2338              		.size	StripLights_ledIndex, 4
 2339              	StripLights_ledIndex:
 2340 0004 00000000 		.space	4
 2341              		.type	color.5824, %object
 2342              		.size	color.5824, 4
 2343              	color.5824:
 2344 0008 00000000 		.space	4
 2345              		.type	color.5832, %object
 2346              		.size	color.5832, 4
 2347              	color.5832:
 2348 000c 00000000 		.space	4
 2349              		.type	StripLights_EnterCritical, %object
 2350              		.size	StripLights_EnterCritical, 4
 2351              	StripLights_EnterCritical:
 2352 0010 00000000 		.space	4
 2353              		.type	StripLights_ExitCritical, %object
 2354              		.size	StripLights_ExitCritical, 4
 2355              	StripLights_ExitCritical:
 2356 0014 00000000 		.space	4
 2357              		.type	colorIndex.5817, %object
 2358              		.size	colorIndex.5817, 4
 2359              	colorIndex.5817:
 2360 0018 00000000 		.space	4
 2361              		.type	StripLights_initvar, %object
 2362              		.size	StripLights_initvar, 1
 2363              	StripLights_initvar:
 2364 001c 00       		.space	1
 2365              		.text
 2366              	.Letext0:
ARM GAS  C:\Users\JAMESS~1\AppData\Local\Temp\cce8FrJG.s 			page 66


 2367              		.file 2 "Generated_Source\\PSoC4/cytypes.h"
 2368              		.file 3 "Generated_Source\\PSoC4/StripLights.h"
 2369              		.file 4 "Generated_Source\\PSoC4/CyLib.h"
 2370              		.file 5 "Generated_Source\\PSoC4\\StripLights_fonts.h"
 2371              		.file 6 "Generated_Source\\PSoC4/StripLights_cisr.h"
 2372              		.file 7 "Generated_Source\\PSoC4/StripLights_fisr.h"
 2373              		.section	.debug_info,"",%progbits
 2374              	.Ldebug_info0:
 2375 0000 830D0000 		.4byte	0xd83
 2376 0004 0400     		.2byte	0x4
 2377 0006 00000000 		.4byte	.Ldebug_abbrev0
 2378 000a 04       		.byte	0x4
 2379 000b 01       		.uleb128 0x1
 2380 000c 12010000 		.4byte	.LASF81
 2381 0010 0C       		.byte	0xc
 2382 0011 88000000 		.4byte	.LASF82
 2383 0015 8F020000 		.4byte	.LASF83
 2384 0019 00000000 		.4byte	.Ldebug_ranges0+0
 2385 001d 00000000 		.4byte	0
 2386 0021 00000000 		.4byte	.Ldebug_line0
 2387 0025 02       		.uleb128 0x2
 2388 0026 01       		.byte	0x1
 2389 0027 06       		.byte	0x6
 2390 0028 28020000 		.4byte	.LASF0
 2391 002c 02       		.uleb128 0x2
 2392 002d 01       		.byte	0x1
 2393 002e 08       		.byte	0x8
 2394 002f ED020000 		.4byte	.LASF1
 2395 0033 02       		.uleb128 0x2
 2396 0034 02       		.byte	0x2
 2397 0035 05       		.byte	0x5
 2398 0036 4F000000 		.4byte	.LASF2
 2399 003a 02       		.uleb128 0x2
 2400 003b 02       		.byte	0x2
 2401 003c 07       		.byte	0x7
 2402 003d 18040000 		.4byte	.LASF3
 2403 0041 02       		.uleb128 0x2
 2404 0042 04       		.byte	0x4
 2405 0043 05       		.byte	0x5
 2406 0044 6D020000 		.4byte	.LASF4
 2407 0048 02       		.uleb128 0x2
 2408 0049 04       		.byte	0x4
 2409 004a 07       		.byte	0x7
 2410 004b 80030000 		.4byte	.LASF5
 2411 004f 02       		.uleb128 0x2
 2412 0050 08       		.byte	0x8
 2413 0051 05       		.byte	0x5
 2414 0052 52020000 		.4byte	.LASF6
 2415 0056 02       		.uleb128 0x2
 2416 0057 08       		.byte	0x8
 2417 0058 07       		.byte	0x7
 2418 0059 37030000 		.4byte	.LASF7
 2419 005d 03       		.uleb128 0x3
 2420 005e 04       		.byte	0x4
 2421 005f 05       		.byte	0x5
 2422 0060 696E7400 		.ascii	"int\000"
 2423 0064 02       		.uleb128 0x2
ARM GAS  C:\Users\JAMESS~1\AppData\Local\Temp\cce8FrJG.s 			page 67


 2424 0065 04       		.byte	0x4
 2425 0066 07       		.byte	0x7
 2426 0067 73030000 		.4byte	.LASF8
 2427 006b 04       		.uleb128 0x4
 2428 006c D3010000 		.4byte	.LASF9
 2429 0070 02       		.byte	0x2
 2430 0071 D201     		.2byte	0x1d2
 2431 0073 2C000000 		.4byte	0x2c
 2432 0077 04       		.uleb128 0x4
 2433 0078 83040000 		.4byte	.LASF10
 2434 007c 02       		.byte	0x2
 2435 007d D401     		.2byte	0x1d4
 2436 007f 48000000 		.4byte	0x48
 2437 0083 04       		.uleb128 0x4
 2438 0084 B4040000 		.4byte	.LASF11
 2439 0088 02       		.byte	0x2
 2440 0089 D701     		.2byte	0x1d7
 2441 008b 41000000 		.4byte	0x41
 2442 008f 02       		.uleb128 0x2
 2443 0090 04       		.byte	0x4
 2444 0091 04       		.byte	0x4
 2445 0092 34020000 		.4byte	.LASF12
 2446 0096 02       		.uleb128 0x2
 2447 0097 08       		.byte	0x8
 2448 0098 04       		.byte	0x4
 2449 0099 63050000 		.4byte	.LASF13
 2450 009d 02       		.uleb128 0x2
 2451 009e 01       		.byte	0x1
 2452 009f 08       		.byte	0x8
 2453 00a0 20000000 		.4byte	.LASF14
 2454 00a4 04       		.uleb128 0x4
 2455 00a5 90040000 		.4byte	.LASF15
 2456 00a9 02       		.byte	0x2
 2457 00aa 7C02     		.2byte	0x27c
 2458 00ac B0000000 		.4byte	0xb0
 2459 00b0 05       		.uleb128 0x5
 2460 00b1 6B000000 		.4byte	0x6b
 2461 00b5 06       		.uleb128 0x6
 2462 00b6 04       		.byte	0x4
 2463 00b7 BB000000 		.4byte	0xbb
 2464 00bb 07       		.uleb128 0x7
 2465 00bc 08       		.uleb128 0x8
 2466 00bd 93050000 		.4byte	.LASF16
 2467 00c1 03       		.byte	0x3
 2468 00c2 12       		.byte	0x12
 2469 00c3 B5000000 		.4byte	0xb5
 2470 00c7 02       		.uleb128 0x2
 2471 00c8 04       		.byte	0x4
 2472 00c9 07       		.byte	0x7
 2473 00ca 4B050000 		.4byte	.LASF17
 2474 00ce 02       		.uleb128 0x2
 2475 00cf 08       		.byte	0x8
 2476 00d0 04       		.byte	0x4
 2477 00d1 D7020000 		.4byte	.LASF18
 2478 00d5 09       		.uleb128 0x9
 2479 00d6 EF040000 		.4byte	.LASF21
 2480 00da 01       		.byte	0x1
ARM GAS  C:\Users\JAMESS~1\AppData\Local\Temp\cce8FrJG.s 			page 68


 2481 00db 4802     		.2byte	0x248
 2482 00dd 00000000 		.4byte	.LFB41
 2483 00e1 74000000 		.4byte	.LFE41-.LFB41
 2484 00e5 01       		.uleb128 0x1
 2485 00e6 9C       		.byte	0x9c
 2486 00e7 16010000 		.4byte	0x116
 2487 00eb 0A       		.uleb128 0xa
 2488 00ec A0010000 		.4byte	.LASF19
 2489 00f0 01       		.byte	0x1
 2490 00f1 4A02     		.2byte	0x24a
 2491 00f3 77000000 		.4byte	0x77
 2492 00f7 0A       		.uleb128 0xa
 2493 00f8 3A000000 		.4byte	.LASF20
 2494 00fc 01       		.byte	0x1
 2495 00fd 4B02     		.2byte	0x24b
 2496 00ff 77000000 		.4byte	0x77
 2497 0103 0B       		.uleb128 0xb
 2498 0104 59000000 		.4byte	.LASF23
 2499 0108 01       		.byte	0x1
 2500 0109 4C02     		.2byte	0x24c
 2501 010b 77000000 		.4byte	0x77
 2502 010f 05       		.uleb128 0x5
 2503 0110 03       		.byte	0x3
 2504 0111 08000000 		.4byte	color.5824
 2505 0115 00       		.byte	0
 2506 0116 09       		.uleb128 0x9
 2507 0117 CD040000 		.4byte	.LASF22
 2508 011b 01       		.byte	0x1
 2509 011c 8602     		.2byte	0x286
 2510 011e 00000000 		.4byte	.LFB42
 2511 0122 8C000000 		.4byte	.LFE42-.LFB42
 2512 0126 01       		.uleb128 0x1
 2513 0127 9C       		.byte	0x9c
 2514 0128 63010000 		.4byte	0x163
 2515 012c 0A       		.uleb128 0xa
 2516 012d A0010000 		.4byte	.LASF19
 2517 0131 01       		.byte	0x1
 2518 0132 8802     		.2byte	0x288
 2519 0134 77000000 		.4byte	0x77
 2520 0138 0A       		.uleb128 0xa
 2521 0139 3A000000 		.4byte	.LASF20
 2522 013d 01       		.byte	0x1
 2523 013e 8902     		.2byte	0x289
 2524 0140 77000000 		.4byte	0x77
 2525 0144 0B       		.uleb128 0xb
 2526 0145 59000000 		.4byte	.LASF23
 2527 0149 01       		.byte	0x1
 2528 014a 8A02     		.2byte	0x28a
 2529 014c 77000000 		.4byte	0x77
 2530 0150 05       		.uleb128 0x5
 2531 0151 03       		.byte	0x3
 2532 0152 0C000000 		.4byte	color.5832
 2533 0156 0A       		.uleb128 0xa
 2534 0157 9B030000 		.4byte	.LASF24
 2535 015b 01       		.byte	0x1
 2536 015c 8B02     		.2byte	0x28b
 2537 015e 77000000 		.4byte	0x77
ARM GAS  C:\Users\JAMESS~1\AppData\Local\Temp\cce8FrJG.s 			page 69


 2538 0162 00       		.byte	0
 2539 0163 09       		.uleb128 0x9
 2540 0164 4D040000 		.4byte	.LASF25
 2541 0168 01       		.byte	0x1
 2542 0169 4C01     		.2byte	0x14c
 2543 016b 00000000 		.4byte	.LFB33
 2544 016f 0C000000 		.4byte	.LFE33-.LFB33
 2545 0173 01       		.uleb128 0x1
 2546 0174 9C       		.byte	0x9c
 2547 0175 96010000 		.4byte	0x196
 2548 0179 0C       		.uleb128 0xc
 2549 017a 54050000 		.4byte	.LASF26
 2550 017e 01       		.byte	0x1
 2551 017f 4C01     		.2byte	0x14c
 2552 0181 BC000000 		.4byte	0xbc
 2553 0185 01       		.uleb128 0x1
 2554 0186 50       		.byte	0x50
 2555 0187 0C       		.uleb128 0xc
 2556 0188 11000000 		.4byte	.LASF27
 2557 018c 01       		.byte	0x1
 2558 018d 4C01     		.2byte	0x14c
 2559 018f BC000000 		.4byte	0xbc
 2560 0193 01       		.uleb128 0x1
 2561 0194 51       		.byte	0x51
 2562 0195 00       		.byte	0
 2563 0196 09       		.uleb128 0x9
 2564 0197 0A020000 		.4byte	.LASF28
 2565 019b 01       		.byte	0x1
 2566 019c B601     		.2byte	0x1b6
 2567 019e 00000000 		.4byte	.LFB36
 2568 01a2 80000000 		.4byte	.LFE36-.LFB36
 2569 01a6 01       		.uleb128 0x1
 2570 01a7 9C       		.byte	0x9c
 2571 01a8 CD010000 		.4byte	0x1cd
 2572 01ac 0D       		.uleb128 0xd
 2573 01ad 72737400 		.ascii	"rst\000"
 2574 01b1 01       		.byte	0x1
 2575 01b2 B601     		.2byte	0x1b6
 2576 01b4 77000000 		.4byte	0x77
 2577 01b8 00000000 		.4byte	.LLST0
 2578 01bc 0E       		.uleb128 0xe
 2579 01bd 59000000 		.4byte	.LASF23
 2580 01c1 01       		.byte	0x1
 2581 01c2 B801     		.2byte	0x1b8
 2582 01c4 77000000 		.4byte	0x77
 2583 01c8 21000000 		.4byte	.LLST1
 2584 01cc 00       		.byte	0
 2585 01cd 0F       		.uleb128 0xf
 2586 01ce F1030000 		.4byte	.LASF84
 2587 01d2 01       		.byte	0x1
 2588 01d3 F101     		.2byte	0x1f1
 2589 01d5 77000000 		.4byte	0x77
 2590 01d9 00000000 		.4byte	.LFB37
 2591 01dd 1C000000 		.4byte	.LFE37-.LFB37
 2592 01e1 01       		.uleb128 0x1
 2593 01e2 9C       		.byte	0x9c
 2594 01e3 10       		.uleb128 0x10
ARM GAS  C:\Users\JAMESS~1\AppData\Local\Temp\cce8FrJG.s 			page 70


 2595 01e4 D9010000 		.4byte	.LASF29
 2596 01e8 01       		.byte	0x1
 2597 01e9 5F01     		.2byte	0x15f
 2598 01eb 00000000 		.4byte	.LFB34
 2599 01ef 54000000 		.4byte	.LFE34-.LFB34
 2600 01f3 01       		.uleb128 0x1
 2601 01f4 9C       		.byte	0x9c
 2602 01f5 5A020000 		.4byte	0x25a
 2603 01f9 11       		.uleb128 0x11
 2604 01fa DB000000 		.4byte	.LASF30
 2605 01fe 01       		.byte	0x1
 2606 01ff 5F01     		.2byte	0x15f
 2607 0201 77000000 		.4byte	0x77
 2608 0205 7E000000 		.4byte	.LLST2
 2609 0209 0E       		.uleb128 0xe
 2610 020a CB010000 		.4byte	.LASF31
 2611 020e 01       		.byte	0x1
 2612 020f 6201     		.2byte	0x162
 2613 0211 77000000 		.4byte	0x77
 2614 0215 AA000000 		.4byte	.LLST3
 2615 0219 12       		.uleb128 0x12
 2616 021a 14000000 		.4byte	.LVL13
 2617 021e 96010000 		.4byte	0x196
 2618 0222 2C020000 		.4byte	0x22c
 2619 0226 13       		.uleb128 0x13
 2620 0227 01       		.uleb128 0x1
 2621 0228 50       		.byte	0x50
 2622 0229 01       		.uleb128 0x1
 2623 022a 31       		.byte	0x31
 2624 022b 00       		.byte	0
 2625 022c 12       		.uleb128 0x12
 2626 022d 26000000 		.4byte	.LVL15
 2627 0231 440D0000 		.4byte	0xd44
 2628 0235 40020000 		.4byte	0x240
 2629 0239 13       		.uleb128 0x13
 2630 023a 01       		.uleb128 0x1
 2631 023b 50       		.byte	0x50
 2632 023c 02       		.uleb128 0x2
 2633 023d 08       		.byte	0x8
 2634 023e 64       		.byte	0x64
 2635 023f 00       		.byte	0
 2636 0240 14       		.uleb128 0x14
 2637 0241 2C000000 		.4byte	.LVL17
 2638 0245 CD010000 		.4byte	0x1cd
 2639 0249 15       		.uleb128 0x15
 2640 024a 3A000000 		.4byte	.LVL19
 2641 024e 440D0000 		.4byte	0xd44
 2642 0252 13       		.uleb128 0x13
 2643 0253 01       		.uleb128 0x1
 2644 0254 50       		.byte	0x50
 2645 0255 02       		.uleb128 0x2
 2646 0256 08       		.byte	0x8
 2647 0257 64       		.byte	0x64
 2648 0258 00       		.byte	0
 2649 0259 00       		.byte	0
 2650 025a 10       		.uleb128 0x10
 2651 025b 3A020000 		.4byte	.LASF32
ARM GAS  C:\Users\JAMESS~1\AppData\Local\Temp\cce8FrJG.s 			page 71


 2652 025f 01       		.byte	0x1
 2653 0260 9001     		.2byte	0x190
 2654 0262 00000000 		.4byte	.LFB35
 2655 0266 2C000000 		.4byte	.LFE35-.LFB35
 2656 026a 01       		.uleb128 0x1
 2657 026b 9C       		.byte	0x9c
 2658 026c 9E020000 		.4byte	0x29e
 2659 0270 0D       		.uleb128 0xd
 2660 0271 72737400 		.ascii	"rst\000"
 2661 0275 01       		.byte	0x1
 2662 0276 9001     		.2byte	0x190
 2663 0278 77000000 		.4byte	0x77
 2664 027c C9000000 		.4byte	.LLST4
 2665 0280 12       		.uleb128 0x12
 2666 0281 14000000 		.4byte	.LVL25
 2667 0285 96010000 		.4byte	0x196
 2668 0289 94020000 		.4byte	0x294
 2669 028d 13       		.uleb128 0x13
 2670 028e 01       		.uleb128 0x1
 2671 028f 50       		.byte	0x50
 2672 0290 02       		.uleb128 0x2
 2673 0291 74       		.byte	0x74
 2674 0292 00       		.sleb128 0
 2675 0293 00       		.byte	0
 2676 0294 14       		.uleb128 0x14
 2677 0295 18000000 		.4byte	.LVL26
 2678 0299 CD010000 		.4byte	0x1cd
 2679 029d 00       		.byte	0
 2680 029e 16       		.uleb128 0x16
 2681 029f DE040000 		.4byte	.LASF85
 2682 02a3 01       		.byte	0x1
 2683 02a4 0C02     		.2byte	0x20c
 2684 02a6 00000000 		.4byte	.LFB38
 2685 02aa 0C000000 		.4byte	.LFE38-.LFB38
 2686 02ae 01       		.uleb128 0x1
 2687 02af 9C       		.byte	0x9c
 2688 02b0 17       		.uleb128 0x17
 2689 02b1 03040000 		.4byte	.LASF33
 2690 02b5 01       		.byte	0x1
 2691 02b6 1102     		.2byte	0x211
 2692 02b8 77000000 		.4byte	0x77
 2693 02bc 00000000 		.4byte	.LFB39
 2694 02c0 0C000000 		.4byte	.LFE39-.LFB39
 2695 02c4 01       		.uleb128 0x1
 2696 02c5 9C       		.byte	0x9c
 2697 02c6 DB020000 		.4byte	0x2db
 2698 02ca 11       		.uleb128 0x11
 2699 02cb 59000000 		.4byte	.LASF23
 2700 02cf 01       		.byte	0x1
 2701 02d0 1102     		.2byte	0x211
 2702 02d2 77000000 		.4byte	0x77
 2703 02d6 F5000000 		.4byte	.LLST5
 2704 02da 00       		.byte	0
 2705 02db 18       		.uleb128 0x18
 2706 02dc FB020000 		.4byte	.LASF34
 2707 02e0 01       		.byte	0x1
 2708 02e1 2702     		.2byte	0x227
ARM GAS  C:\Users\JAMESS~1\AppData\Local\Temp\cce8FrJG.s 			page 72


 2709 02e3 77000000 		.4byte	0x77
 2710 02e7 00000000 		.4byte	.LFB40
 2711 02eb 24000000 		.4byte	.LFE40-.LFB40
 2712 02ef 01       		.uleb128 0x1
 2713 02f0 9C       		.byte	0x9c
 2714 02f1 32030000 		.4byte	0x332
 2715 02f5 11       		.uleb128 0x11
 2716 02f6 44040000 		.4byte	.LASF35
 2717 02fa 01       		.byte	0x1
 2718 02fb 2702     		.2byte	0x227
 2719 02fd 77000000 		.4byte	0x77
 2720 0301 21010000 		.4byte	.LLST6
 2721 0305 0B       		.uleb128 0xb
 2722 0306 59000000 		.4byte	.LASF23
 2723 030a 01       		.byte	0x1
 2724 030b 2902     		.2byte	0x229
 2725 030d 77000000 		.4byte	0x77
 2726 0311 01       		.uleb128 0x1
 2727 0312 50       		.byte	0x50
 2728 0313 0A       		.uleb128 0xa
 2729 0314 00000000 		.4byte	.LASF36
 2730 0318 01       		.byte	0x1
 2731 0319 2A02     		.2byte	0x22a
 2732 031b 47030000 		.4byte	0x347
 2733 031f 0B       		.uleb128 0xb
 2734 0320 27030000 		.4byte	.LASF37
 2735 0324 01       		.byte	0x1
 2736 0325 2B02     		.2byte	0x22b
 2737 0327 77000000 		.4byte	0x77
 2738 032b 05       		.uleb128 0x5
 2739 032c 03       		.byte	0x3
 2740 032d 18000000 		.4byte	colorIndex.5817
 2741 0331 00       		.byte	0
 2742 0332 19       		.uleb128 0x19
 2743 0333 42030000 		.4byte	0x342
 2744 0337 42030000 		.4byte	0x342
 2745 033b 1A       		.uleb128 0x1a
 2746 033c C7000000 		.4byte	0xc7
 2747 0340 77       		.byte	0x77
 2748 0341 00       		.byte	0
 2749 0342 1B       		.uleb128 0x1b
 2750 0343 77000000 		.4byte	0x77
 2751 0347 1B       		.uleb128 0x1b
 2752 0348 32030000 		.4byte	0x332
 2753 034c 09       		.uleb128 0x9
 2754 034d 1D050000 		.4byte	.LASF38
 2755 0351 01       		.byte	0x1
 2756 0352 DB02     		.2byte	0x2db
 2757 0354 00000000 		.4byte	.LFB44
 2758 0358 30000000 		.4byte	.LFE44-.LFB44
 2759 035c 01       		.uleb128 0x1
 2760 035d 9C       		.byte	0x9c
 2761 035e 91030000 		.4byte	0x391
 2762 0362 0C       		.uleb128 0xc
 2763 0363 59000000 		.4byte	.LASF23
 2764 0367 01       		.byte	0x1
 2765 0368 DB02     		.2byte	0x2db
ARM GAS  C:\Users\JAMESS~1\AppData\Local\Temp\cce8FrJG.s 			page 73


 2766 036a 77000000 		.4byte	0x77
 2767 036e 01       		.uleb128 0x1
 2768 036f 50       		.byte	0x50
 2769 0370 1C       		.uleb128 0x1c
 2770 0371 726F7700 		.ascii	"row\000"
 2771 0375 01       		.byte	0x1
 2772 0376 DD02     		.2byte	0x2dd
 2773 0378 77000000 		.4byte	0x77
 2774 037c 42010000 		.4byte	.LLST7
 2775 0380 1C       		.uleb128 0x1c
 2776 0381 636F6C00 		.ascii	"col\000"
 2777 0385 01       		.byte	0x1
 2778 0386 DD02     		.2byte	0x2dd
 2779 0388 77000000 		.4byte	0x77
 2780 038c 61010000 		.4byte	.LLST8
 2781 0390 00       		.byte	0
 2782 0391 09       		.uleb128 0x9
 2783 0392 2B040000 		.4byte	.LASF39
 2784 0396 01       		.byte	0x1
 2785 0397 C802     		.2byte	0x2c8
 2786 0399 00000000 		.4byte	.LFB43
 2787 039d 0E000000 		.4byte	.LFE43-.LFB43
 2788 03a1 01       		.uleb128 0x1
 2789 03a2 9C       		.byte	0x9c
 2790 03a3 DC030000 		.4byte	0x3dc
 2791 03a7 11       		.uleb128 0x11
 2792 03a8 59000000 		.4byte	.LASF23
 2793 03ac 01       		.byte	0x1
 2794 03ad C802     		.2byte	0x2c8
 2795 03af 77000000 		.4byte	0x77
 2796 03b3 7F010000 		.4byte	.LLST9
 2797 03b7 12       		.uleb128 0x12
 2798 03b8 06000000 		.4byte	.LVL45
 2799 03bc 4C030000 		.4byte	0x34c
 2800 03c0 CC030000 		.4byte	0x3cc
 2801 03c4 13       		.uleb128 0x13
 2802 03c5 01       		.uleb128 0x1
 2803 03c6 50       		.byte	0x50
 2804 03c7 03       		.uleb128 0x3
 2805 03c8 F3       		.byte	0xf3
 2806 03c9 01       		.uleb128 0x1
 2807 03ca 50       		.byte	0x50
 2808 03cb 00       		.byte	0
 2809 03cc 15       		.uleb128 0x15
 2810 03cd 0C000000 		.4byte	.LVL46
 2811 03d1 96010000 		.4byte	0x196
 2812 03d5 13       		.uleb128 0x13
 2813 03d6 01       		.uleb128 0x1
 2814 03d7 50       		.byte	0x50
 2815 03d8 01       		.uleb128 0x1
 2816 03d9 31       		.byte	0x31
 2817 03da 00       		.byte	0
 2818 03db 00       		.byte	0
 2819 03dc 09       		.uleb128 0x9
 2820 03dd B4010000 		.4byte	.LASF40
 2821 03e1 01       		.byte	0x1
 2822 03e2 FB02     		.2byte	0x2fb
ARM GAS  C:\Users\JAMESS~1\AppData\Local\Temp\cce8FrJG.s 			page 74


 2823 03e4 00000000 		.4byte	.LFB45
 2824 03e8 24000000 		.4byte	.LFE45-.LFB45
 2825 03ec 01       		.uleb128 0x1
 2826 03ed 9C       		.byte	0x9c
 2827 03ee 03040000 		.4byte	0x403
 2828 03f2 11       		.uleb128 0x11
 2829 03f3 59000000 		.4byte	.LASF23
 2830 03f7 01       		.byte	0x1
 2831 03f8 FB02     		.2byte	0x2fb
 2832 03fa 77000000 		.4byte	0x77
 2833 03fe A0010000 		.4byte	.LLST10
 2834 0402 00       		.byte	0
 2835 0403 09       		.uleb128 0x9
 2836 0404 39050000 		.4byte	.LASF41
 2837 0408 01       		.byte	0x1
 2838 0409 1A03     		.2byte	0x31a
 2839 040b 00000000 		.4byte	.LFB46
 2840 040f 24000000 		.4byte	.LFE46-.LFB46
 2841 0413 01       		.uleb128 0x1
 2842 0414 9C       		.byte	0x9c
 2843 0415 44040000 		.4byte	0x444
 2844 0419 0D       		.uleb128 0xd
 2845 041a 7800     		.ascii	"x\000"
 2846 041c 01       		.byte	0x1
 2847 041d 1A03     		.2byte	0x31a
 2848 041f 83000000 		.4byte	0x83
 2849 0423 E8010000 		.4byte	.LLST11
 2850 0427 0D       		.uleb128 0xd
 2851 0428 7900     		.ascii	"y\000"
 2852 042a 01       		.byte	0x1
 2853 042b 1A03     		.2byte	0x31a
 2854 042d 83000000 		.4byte	0x83
 2855 0431 2A020000 		.4byte	.LLST12
 2856 0435 0C       		.uleb128 0xc
 2857 0436 59000000 		.4byte	.LASF23
 2858 043a 01       		.byte	0x1
 2859 043b 1A03     		.2byte	0x31a
 2860 043d 77000000 		.4byte	0x77
 2861 0441 01       		.uleb128 0x1
 2862 0442 52       		.byte	0x52
 2863 0443 00       		.byte	0
 2864 0444 17       		.uleb128 0x17
 2865 0445 25000000 		.4byte	.LASF42
 2866 0449 01       		.byte	0x1
 2867 044a 6103     		.2byte	0x361
 2868 044c 77000000 		.4byte	0x77
 2869 0450 00000000 		.4byte	.LFB47
 2870 0454 38000000 		.4byte	.LFE47-.LFB47
 2871 0458 01       		.uleb128 0x1
 2872 0459 9C       		.byte	0x9c
 2873 045a 8B040000 		.4byte	0x48b
 2874 045e 0D       		.uleb128 0xd
 2875 045f 7800     		.ascii	"x\000"
 2876 0461 01       		.byte	0x1
 2877 0462 6103     		.2byte	0x361
 2878 0464 83000000 		.4byte	0x83
 2879 0468 57020000 		.4byte	.LLST13
ARM GAS  C:\Users\JAMESS~1\AppData\Local\Temp\cce8FrJG.s 			page 75


 2880 046c 0D       		.uleb128 0xd
 2881 046d 7900     		.ascii	"y\000"
 2882 046f 01       		.byte	0x1
 2883 0470 6103     		.2byte	0x361
 2884 0472 83000000 		.4byte	0x83
 2885 0476 EF020000 		.4byte	.LLST14
 2886 047a 0E       		.uleb128 0xe
 2887 047b 59000000 		.4byte	.LASF23
 2888 047f 01       		.byte	0x1
 2889 0480 6303     		.2byte	0x363
 2890 0482 77000000 		.4byte	0x77
 2891 0486 27030000 		.4byte	.LLST15
 2892 048a 00       		.byte	0
 2893 048b 09       		.uleb128 0x9
 2894 048c 10030000 		.4byte	.LASF43
 2895 0490 01       		.byte	0x1
 2896 0491 9503     		.2byte	0x395
 2897 0493 00000000 		.4byte	.LFB48
 2898 0497 FC000000 		.4byte	.LFE48-.LFB48
 2899 049b 01       		.uleb128 0x1
 2900 049c 9C       		.byte	0x9c
 2901 049d C0060000 		.4byte	0x6c0
 2902 04a1 0D       		.uleb128 0xd
 2903 04a2 783000   		.ascii	"x0\000"
 2904 04a5 01       		.byte	0x1
 2905 04a6 9503     		.2byte	0x395
 2906 04a8 83000000 		.4byte	0x83
 2907 04ac 5D030000 		.4byte	.LLST16
 2908 04b0 0D       		.uleb128 0xd
 2909 04b1 793000   		.ascii	"y0\000"
 2910 04b4 01       		.byte	0x1
 2911 04b5 9503     		.2byte	0x395
 2912 04b7 83000000 		.4byte	0x83
 2913 04bb 89030000 		.4byte	.LLST17
 2914 04bf 11       		.uleb128 0x11
 2915 04c0 7C050000 		.4byte	.LASF44
 2916 04c4 01       		.byte	0x1
 2917 04c5 9503     		.2byte	0x395
 2918 04c7 83000000 		.4byte	0x83
 2919 04cb B5030000 		.4byte	.LLST18
 2920 04cf 11       		.uleb128 0x11
 2921 04d0 59000000 		.4byte	.LASF23
 2922 04d4 01       		.byte	0x1
 2923 04d5 9503     		.2byte	0x395
 2924 04d7 77000000 		.4byte	0x77
 2925 04db E1030000 		.4byte	.LLST19
 2926 04df 1C       		.uleb128 0x1c
 2927 04e0 6600     		.ascii	"f\000"
 2928 04e2 01       		.byte	0x1
 2929 04e3 9703     		.2byte	0x397
 2930 04e5 83000000 		.4byte	0x83
 2931 04e9 0B040000 		.4byte	.LLST20
 2932 04ed 0E       		.uleb128 0xe
 2933 04ee AE040000 		.4byte	.LASF45
 2934 04f2 01       		.byte	0x1
 2935 04f3 9803     		.2byte	0x398
 2936 04f5 83000000 		.4byte	0x83
ARM GAS  C:\Users\JAMESS~1\AppData\Local\Temp\cce8FrJG.s 			page 76


 2937 04f9 3F040000 		.4byte	.LLST21
 2938 04fd 0E       		.uleb128 0xe
 2939 04fe 60020000 		.4byte	.LASF46
 2940 0502 01       		.byte	0x1
 2941 0503 9903     		.2byte	0x399
 2942 0505 83000000 		.4byte	0x83
 2943 0509 80040000 		.4byte	.LLST22
 2944 050d 1C       		.uleb128 0x1c
 2945 050e 7800     		.ascii	"x\000"
 2946 0510 01       		.byte	0x1
 2947 0511 9A03     		.2byte	0x39a
 2948 0513 83000000 		.4byte	0x83
 2949 0517 9E040000 		.4byte	.LLST23
 2950 051b 1C       		.uleb128 0x1c
 2951 051c 7900     		.ascii	"y\000"
 2952 051e 01       		.byte	0x1
 2953 051f 9B03     		.2byte	0x39b
 2954 0521 83000000 		.4byte	0x83
 2955 0525 BD040000 		.4byte	.LLST24
 2956 0529 12       		.uleb128 0x12
 2957 052a 2E000000 		.4byte	.LVL80
 2958 052e 03040000 		.4byte	0x403
 2959 0532 4C050000 		.4byte	0x54c
 2960 0536 13       		.uleb128 0x13
 2961 0537 01       		.uleb128 0x1
 2962 0538 50       		.byte	0x50
 2963 0539 02       		.uleb128 0x2
 2964 053a 7B       		.byte	0x7b
 2965 053b 00       		.sleb128 0
 2966 053c 13       		.uleb128 0x13
 2967 053d 01       		.uleb128 0x1
 2968 053e 51       		.byte	0x51
 2969 053f 05       		.uleb128 0x5
 2970 0540 74       		.byte	0x74
 2971 0541 00       		.sleb128 0
 2972 0542 78       		.byte	0x78
 2973 0543 00       		.sleb128 0
 2974 0544 22       		.byte	0x22
 2975 0545 13       		.uleb128 0x13
 2976 0546 01       		.uleb128 0x1
 2977 0547 52       		.byte	0x52
 2978 0548 02       		.uleb128 0x2
 2979 0549 75       		.byte	0x75
 2980 054a 00       		.sleb128 0
 2981 054b 00       		.byte	0
 2982 054c 12       		.uleb128 0x12
 2983 054d 3A000000 		.4byte	.LVL81
 2984 0551 03040000 		.4byte	0x403
 2985 0555 6F050000 		.4byte	0x56f
 2986 0559 13       		.uleb128 0x13
 2987 055a 01       		.uleb128 0x1
 2988 055b 50       		.byte	0x50
 2989 055c 02       		.uleb128 0x2
 2990 055d 7B       		.byte	0x7b
 2991 055e 00       		.sleb128 0
 2992 055f 13       		.uleb128 0x13
 2993 0560 01       		.uleb128 0x1
ARM GAS  C:\Users\JAMESS~1\AppData\Local\Temp\cce8FrJG.s 			page 77


 2994 0561 51       		.byte	0x51
 2995 0562 05       		.uleb128 0x5
 2996 0563 78       		.byte	0x78
 2997 0564 00       		.sleb128 0
 2998 0565 74       		.byte	0x74
 2999 0566 00       		.sleb128 0
 3000 0567 1C       		.byte	0x1c
 3001 0568 13       		.uleb128 0x13
 3002 0569 01       		.uleb128 0x1
 3003 056a 52       		.byte	0x52
 3004 056b 02       		.uleb128 0x2
 3005 056c 75       		.byte	0x75
 3006 056d 00       		.sleb128 0
 3007 056e 00       		.byte	0
 3008 056f 12       		.uleb128 0x12
 3009 0570 46000000 		.4byte	.LVL82
 3010 0574 03040000 		.4byte	0x403
 3011 0578 92050000 		.4byte	0x592
 3012 057c 13       		.uleb128 0x13
 3013 057d 01       		.uleb128 0x1
 3014 057e 50       		.byte	0x50
 3015 057f 05       		.uleb128 0x5
 3016 0580 74       		.byte	0x74
 3017 0581 00       		.sleb128 0
 3018 0582 7B       		.byte	0x7b
 3019 0583 00       		.sleb128 0
 3020 0584 22       		.byte	0x22
 3021 0585 13       		.uleb128 0x13
 3022 0586 01       		.uleb128 0x1
 3023 0587 51       		.byte	0x51
 3024 0588 02       		.uleb128 0x2
 3025 0589 78       		.byte	0x78
 3026 058a 00       		.sleb128 0
 3027 058b 13       		.uleb128 0x13
 3028 058c 01       		.uleb128 0x1
 3029 058d 52       		.byte	0x52
 3030 058e 02       		.uleb128 0x2
 3031 058f 75       		.byte	0x75
 3032 0590 00       		.sleb128 0
 3033 0591 00       		.byte	0
 3034 0592 12       		.uleb128 0x12
 3035 0593 52000000 		.4byte	.LVL83
 3036 0597 03040000 		.4byte	0x403
 3037 059b B5050000 		.4byte	0x5b5
 3038 059f 13       		.uleb128 0x13
 3039 05a0 01       		.uleb128 0x1
 3040 05a1 50       		.byte	0x50
 3041 05a2 05       		.uleb128 0x5
 3042 05a3 7B       		.byte	0x7b
 3043 05a4 00       		.sleb128 0
 3044 05a5 74       		.byte	0x74
 3045 05a6 00       		.sleb128 0
 3046 05a7 1C       		.byte	0x1c
 3047 05a8 13       		.uleb128 0x13
 3048 05a9 01       		.uleb128 0x1
 3049 05aa 51       		.byte	0x51
 3050 05ab 02       		.uleb128 0x2
ARM GAS  C:\Users\JAMESS~1\AppData\Local\Temp\cce8FrJG.s 			page 78


 3051 05ac 78       		.byte	0x78
 3052 05ad 00       		.sleb128 0
 3053 05ae 13       		.uleb128 0x13
 3054 05af 01       		.uleb128 0x1
 3055 05b0 52       		.byte	0x52
 3056 05b1 02       		.uleb128 0x2
 3057 05b2 75       		.byte	0x75
 3058 05b3 00       		.sleb128 0
 3059 05b4 00       		.byte	0
 3060 05b5 12       		.uleb128 0x12
 3061 05b6 86000000 		.4byte	.LVL94
 3062 05ba 03040000 		.4byte	0x403
 3063 05be D7050000 		.4byte	0x5d7
 3064 05c2 13       		.uleb128 0x13
 3065 05c3 01       		.uleb128 0x1
 3066 05c4 50       		.byte	0x50
 3067 05c5 02       		.uleb128 0x2
 3068 05c6 77       		.byte	0x77
 3069 05c7 00       		.sleb128 0
 3070 05c8 13       		.uleb128 0x13
 3071 05c9 01       		.uleb128 0x1
 3072 05ca 51       		.byte	0x51
 3073 05cb 03       		.uleb128 0x3
 3074 05cc 91       		.byte	0x91
 3075 05cd 54       		.sleb128 -44
 3076 05ce 06       		.byte	0x6
 3077 05cf 13       		.uleb128 0x13
 3078 05d0 01       		.uleb128 0x1
 3079 05d1 52       		.byte	0x52
 3080 05d2 03       		.uleb128 0x3
 3081 05d3 91       		.byte	0x91
 3082 05d4 4C       		.sleb128 -52
 3083 05d5 06       		.byte	0x6
 3084 05d6 00       		.byte	0
 3085 05d7 12       		.uleb128 0x12
 3086 05d8 94000000 		.4byte	.LVL95
 3087 05dc 03040000 		.4byte	0x403
 3088 05e0 F9050000 		.4byte	0x5f9
 3089 05e4 13       		.uleb128 0x13
 3090 05e5 01       		.uleb128 0x1
 3091 05e6 50       		.byte	0x50
 3092 05e7 02       		.uleb128 0x2
 3093 05e8 75       		.byte	0x75
 3094 05e9 00       		.sleb128 0
 3095 05ea 13       		.uleb128 0x13
 3096 05eb 01       		.uleb128 0x1
 3097 05ec 51       		.byte	0x51
 3098 05ed 03       		.uleb128 0x3
 3099 05ee 91       		.byte	0x91
 3100 05ef 54       		.sleb128 -44
 3101 05f0 06       		.byte	0x6
 3102 05f1 13       		.uleb128 0x13
 3103 05f2 01       		.uleb128 0x1
 3104 05f3 52       		.byte	0x52
 3105 05f4 03       		.uleb128 0x3
 3106 05f5 91       		.byte	0x91
 3107 05f6 4C       		.sleb128 -52
ARM GAS  C:\Users\JAMESS~1\AppData\Local\Temp\cce8FrJG.s 			page 79


 3108 05f7 06       		.byte	0x6
 3109 05f8 00       		.byte	0
 3110 05f9 12       		.uleb128 0x12
 3111 05fa A4000000 		.4byte	.LVL96
 3112 05fe 03040000 		.4byte	0x403
 3113 0602 1B060000 		.4byte	0x61b
 3114 0606 13       		.uleb128 0x13
 3115 0607 01       		.uleb128 0x1
 3116 0608 50       		.byte	0x50
 3117 0609 02       		.uleb128 0x2
 3118 060a 77       		.byte	0x77
 3119 060b 00       		.sleb128 0
 3120 060c 13       		.uleb128 0x13
 3121 060d 01       		.uleb128 0x1
 3122 060e 51       		.byte	0x51
 3123 060f 03       		.uleb128 0x3
 3124 0610 91       		.byte	0x91
 3125 0611 54       		.sleb128 -44
 3126 0612 06       		.byte	0x6
 3127 0613 13       		.uleb128 0x13
 3128 0614 01       		.uleb128 0x1
 3129 0615 52       		.byte	0x52
 3130 0616 03       		.uleb128 0x3
 3131 0617 91       		.byte	0x91
 3132 0618 4C       		.sleb128 -52
 3133 0619 06       		.byte	0x6
 3134 061a 00       		.byte	0
 3135 061b 12       		.uleb128 0x12
 3136 061c AE000000 		.4byte	.LVL97
 3137 0620 03040000 		.4byte	0x403
 3138 0624 3D060000 		.4byte	0x63d
 3139 0628 13       		.uleb128 0x13
 3140 0629 01       		.uleb128 0x1
 3141 062a 50       		.byte	0x50
 3142 062b 02       		.uleb128 0x2
 3143 062c 75       		.byte	0x75
 3144 062d 00       		.sleb128 0
 3145 062e 13       		.uleb128 0x13
 3146 062f 01       		.uleb128 0x1
 3147 0630 51       		.byte	0x51
 3148 0631 03       		.uleb128 0x3
 3149 0632 91       		.byte	0x91
 3150 0633 54       		.sleb128 -44
 3151 0634 06       		.byte	0x6
 3152 0635 13       		.uleb128 0x13
 3153 0636 01       		.uleb128 0x1
 3154 0637 52       		.byte	0x52
 3155 0638 03       		.uleb128 0x3
 3156 0639 91       		.byte	0x91
 3157 063a 4C       		.sleb128 -52
 3158 063b 06       		.byte	0x6
 3159 063c 00       		.byte	0
 3160 063d 12       		.uleb128 0x12
 3161 063e C0000000 		.4byte	.LVL98
 3162 0642 03040000 		.4byte	0x403
 3163 0646 5E060000 		.4byte	0x65e
 3164 064a 13       		.uleb128 0x13
ARM GAS  C:\Users\JAMESS~1\AppData\Local\Temp\cce8FrJG.s 			page 80


 3165 064b 01       		.uleb128 0x1
 3166 064c 50       		.byte	0x50
 3167 064d 02       		.uleb128 0x2
 3168 064e 77       		.byte	0x77
 3169 064f 00       		.sleb128 0
 3170 0650 13       		.uleb128 0x13
 3171 0651 01       		.uleb128 0x1
 3172 0652 51       		.byte	0x51
 3173 0653 02       		.uleb128 0x2
 3174 0654 75       		.byte	0x75
 3175 0655 00       		.sleb128 0
 3176 0656 13       		.uleb128 0x13
 3177 0657 01       		.uleb128 0x1
 3178 0658 52       		.byte	0x52
 3179 0659 03       		.uleb128 0x3
 3180 065a 91       		.byte	0x91
 3181 065b 4C       		.sleb128 -52
 3182 065c 06       		.byte	0x6
 3183 065d 00       		.byte	0
 3184 065e 12       		.uleb128 0x12
 3185 065f D0000000 		.4byte	.LVL99
 3186 0663 03040000 		.4byte	0x403
 3187 0667 80060000 		.4byte	0x680
 3188 066b 13       		.uleb128 0x13
 3189 066c 01       		.uleb128 0x1
 3190 066d 50       		.byte	0x50
 3191 066e 03       		.uleb128 0x3
 3192 066f 91       		.byte	0x91
 3193 0670 54       		.sleb128 -44
 3194 0671 06       		.byte	0x6
 3195 0672 13       		.uleb128 0x13
 3196 0673 01       		.uleb128 0x1
 3197 0674 51       		.byte	0x51
 3198 0675 02       		.uleb128 0x2
 3199 0676 75       		.byte	0x75
 3200 0677 00       		.sleb128 0
 3201 0678 13       		.uleb128 0x13
 3202 0679 01       		.uleb128 0x1
 3203 067a 52       		.byte	0x52
 3204 067b 03       		.uleb128 0x3
 3205 067c 91       		.byte	0x91
 3206 067d 4C       		.sleb128 -52
 3207 067e 06       		.byte	0x6
 3208 067f 00       		.byte	0
 3209 0680 12       		.uleb128 0x12
 3210 0681 DE000000 		.4byte	.LVL100
 3211 0685 03040000 		.4byte	0x403
 3212 0689 A1060000 		.4byte	0x6a1
 3213 068d 13       		.uleb128 0x13
 3214 068e 01       		.uleb128 0x1
 3215 068f 50       		.byte	0x50
 3216 0690 02       		.uleb128 0x2
 3217 0691 77       		.byte	0x77
 3218 0692 00       		.sleb128 0
 3219 0693 13       		.uleb128 0x13
 3220 0694 01       		.uleb128 0x1
 3221 0695 51       		.byte	0x51
ARM GAS  C:\Users\JAMESS~1\AppData\Local\Temp\cce8FrJG.s 			page 81


 3222 0696 02       		.uleb128 0x2
 3223 0697 75       		.byte	0x75
 3224 0698 00       		.sleb128 0
 3225 0699 13       		.uleb128 0x13
 3226 069a 01       		.uleb128 0x1
 3227 069b 52       		.byte	0x52
 3228 069c 03       		.uleb128 0x3
 3229 069d 91       		.byte	0x91
 3230 069e 4C       		.sleb128 -52
 3231 069f 06       		.byte	0x6
 3232 06a0 00       		.byte	0
 3233 06a1 15       		.uleb128 0x15
 3234 06a2 E8000000 		.4byte	.LVL101
 3235 06a6 03040000 		.4byte	0x403
 3236 06aa 13       		.uleb128 0x13
 3237 06ab 01       		.uleb128 0x1
 3238 06ac 50       		.byte	0x50
 3239 06ad 03       		.uleb128 0x3
 3240 06ae 91       		.byte	0x91
 3241 06af 54       		.sleb128 -44
 3242 06b0 06       		.byte	0x6
 3243 06b1 13       		.uleb128 0x13
 3244 06b2 01       		.uleb128 0x1
 3245 06b3 51       		.byte	0x51
 3246 06b4 02       		.uleb128 0x2
 3247 06b5 75       		.byte	0x75
 3248 06b6 00       		.sleb128 0
 3249 06b7 13       		.uleb128 0x13
 3250 06b8 01       		.uleb128 0x1
 3251 06b9 52       		.byte	0x52
 3252 06ba 03       		.uleb128 0x3
 3253 06bb 91       		.byte	0x91
 3254 06bc 4C       		.sleb128 -52
 3255 06bd 06       		.byte	0x6
 3256 06be 00       		.byte	0
 3257 06bf 00       		.byte	0
 3258 06c0 09       		.uleb128 0x9
 3259 06c1 AB050000 		.4byte	.LASF47
 3260 06c5 01       		.byte	0x1
 3261 06c6 CA03     		.2byte	0x3ca
 3262 06c8 00000000 		.4byte	.LFB49
 3263 06cc AA000000 		.4byte	.LFE49-.LFB49
 3264 06d0 01       		.uleb128 0x1
 3265 06d1 9C       		.byte	0x9c
 3266 06d2 F3070000 		.4byte	0x7f3
 3267 06d6 0D       		.uleb128 0xd
 3268 06d7 783000   		.ascii	"x0\000"
 3269 06da 01       		.byte	0x1
 3270 06db CA03     		.2byte	0x3ca
 3271 06dd 83000000 		.4byte	0x83
 3272 06e1 D0040000 		.4byte	.LLST25
 3273 06e5 0D       		.uleb128 0xd
 3274 06e6 793000   		.ascii	"y0\000"
 3275 06e9 01       		.byte	0x1
 3276 06ea CA03     		.2byte	0x3ca
 3277 06ec 83000000 		.4byte	0x83
 3278 06f0 EE040000 		.4byte	.LLST26
ARM GAS  C:\Users\JAMESS~1\AppData\Local\Temp\cce8FrJG.s 			page 82


 3279 06f4 0D       		.uleb128 0xd
 3280 06f5 783100   		.ascii	"x1\000"
 3281 06f8 01       		.byte	0x1
 3282 06f9 CA03     		.2byte	0x3ca
 3283 06fb 83000000 		.4byte	0x83
 3284 06ff 0C050000 		.4byte	.LLST27
 3285 0703 0D       		.uleb128 0xd
 3286 0704 793100   		.ascii	"y1\000"
 3287 0707 01       		.byte	0x1
 3288 0708 CA03     		.2byte	0x3ca
 3289 070a 83000000 		.4byte	0x83
 3290 070e 42050000 		.4byte	.LLST28
 3291 0712 0C       		.uleb128 0xc
 3292 0713 59000000 		.4byte	.LASF23
 3293 0717 01       		.byte	0x1
 3294 0718 CA03     		.2byte	0x3ca
 3295 071a 77000000 		.4byte	0x77
 3296 071e 02       		.uleb128 0x2
 3297 071f 91       		.byte	0x91
 3298 0720 00       		.sleb128 0
 3299 0721 1C       		.uleb128 0x1c
 3300 0722 647900   		.ascii	"dy\000"
 3301 0725 01       		.byte	0x1
 3302 0726 CC03     		.2byte	0x3cc
 3303 0728 83000000 		.4byte	0x83
 3304 072c 6E050000 		.4byte	.LLST29
 3305 0730 1C       		.uleb128 0x1c
 3306 0731 647800   		.ascii	"dx\000"
 3307 0734 01       		.byte	0x1
 3308 0735 CD03     		.2byte	0x3cd
 3309 0737 83000000 		.4byte	0x83
 3310 073b 97050000 		.4byte	.LLST30
 3311 073f 0E       		.uleb128 0xe
 3312 0740 E5030000 		.4byte	.LASF48
 3313 0744 01       		.byte	0x1
 3314 0745 CE03     		.2byte	0x3ce
 3315 0747 83000000 		.4byte	0x83
 3316 074b AA050000 		.4byte	.LLST31
 3317 074f 0E       		.uleb128 0xe
 3318 0750 EB030000 		.4byte	.LASF49
 3319 0754 01       		.byte	0x1
 3320 0755 CE03     		.2byte	0x3ce
 3321 0757 83000000 		.4byte	0x83
 3322 075b CA050000 		.4byte	.LLST32
 3323 075f 1D       		.uleb128 0x1d
 3324 0760 52000000 		.4byte	.LBB2
 3325 0764 26000000 		.4byte	.LBE2-.LBB2
 3326 0768 9A070000 		.4byte	0x79a
 3327 076c 0E       		.uleb128 0xe
 3328 076d DC030000 		.4byte	.LASF50
 3329 0771 01       		.byte	0x1
 3330 0772 EA03     		.2byte	0x3ea
 3331 0774 5D000000 		.4byte	0x5d
 3332 0778 EA050000 		.4byte	.LLST33
 3333 077c 15       		.uleb128 0x15
 3334 077d 70000000 		.4byte	.LVL131
 3335 0781 03040000 		.4byte	0x403
ARM GAS  C:\Users\JAMESS~1\AppData\Local\Temp\cce8FrJG.s 			page 83


 3336 0785 13       		.uleb128 0x13
 3337 0786 01       		.uleb128 0x1
 3338 0787 50       		.byte	0x50
 3339 0788 02       		.uleb128 0x2
 3340 0789 74       		.byte	0x74
 3341 078a 00       		.sleb128 0
 3342 078b 13       		.uleb128 0x13
 3343 078c 01       		.uleb128 0x1
 3344 078d 51       		.byte	0x51
 3345 078e 02       		.uleb128 0x2
 3346 078f 75       		.byte	0x75
 3347 0790 00       		.sleb128 0
 3348 0791 13       		.uleb128 0x13
 3349 0792 01       		.uleb128 0x1
 3350 0793 52       		.byte	0x52
 3351 0794 03       		.uleb128 0x3
 3352 0795 91       		.byte	0x91
 3353 0796 00       		.sleb128 0
 3354 0797 06       		.byte	0x6
 3355 0798 00       		.byte	0
 3356 0799 00       		.byte	0
 3357 079a 1D       		.uleb128 0x1d
 3358 079b 78000000 		.4byte	.LBB3
 3359 079f 24000000 		.4byte	.LBE3-.LBB3
 3360 07a3 D5070000 		.4byte	0x7d5
 3361 07a7 0E       		.uleb128 0xe
 3362 07a8 DC030000 		.4byte	.LASF50
 3363 07ac 01       		.byte	0x1
 3364 07ad F903     		.2byte	0x3f9
 3365 07af 5D000000 		.4byte	0x5d
 3366 07b3 FD050000 		.4byte	.LLST34
 3367 07b7 15       		.uleb128 0x15
 3368 07b8 98000000 		.4byte	.LVL138
 3369 07bc 03040000 		.4byte	0x403
 3370 07c0 13       		.uleb128 0x13
 3371 07c1 01       		.uleb128 0x1
 3372 07c2 50       		.byte	0x50
 3373 07c3 02       		.uleb128 0x2
 3374 07c4 74       		.byte	0x74
 3375 07c5 00       		.sleb128 0
 3376 07c6 13       		.uleb128 0x13
 3377 07c7 01       		.uleb128 0x1
 3378 07c8 51       		.byte	0x51
 3379 07c9 02       		.uleb128 0x2
 3380 07ca 75       		.byte	0x75
 3381 07cb 00       		.sleb128 0
 3382 07cc 13       		.uleb128 0x13
 3383 07cd 01       		.uleb128 0x1
 3384 07ce 52       		.byte	0x52
 3385 07cf 03       		.uleb128 0x3
 3386 07d0 91       		.byte	0x91
 3387 07d1 00       		.sleb128 0
 3388 07d2 06       		.byte	0x6
 3389 07d3 00       		.byte	0
 3390 07d4 00       		.byte	0
 3391 07d5 15       		.uleb128 0x15
 3392 07d6 4E000000 		.4byte	.LVL125
ARM GAS  C:\Users\JAMESS~1\AppData\Local\Temp\cce8FrJG.s 			page 84


 3393 07da 03040000 		.4byte	0x403
 3394 07de 13       		.uleb128 0x13
 3395 07df 01       		.uleb128 0x1
 3396 07e0 50       		.byte	0x50
 3397 07e1 02       		.uleb128 0x2
 3398 07e2 74       		.byte	0x74
 3399 07e3 00       		.sleb128 0
 3400 07e4 13       		.uleb128 0x13
 3401 07e5 01       		.uleb128 0x1
 3402 07e6 51       		.byte	0x51
 3403 07e7 02       		.uleb128 0x2
 3404 07e8 75       		.byte	0x75
 3405 07e9 00       		.sleb128 0
 3406 07ea 13       		.uleb128 0x13
 3407 07eb 01       		.uleb128 0x1
 3408 07ec 52       		.byte	0x52
 3409 07ed 03       		.uleb128 0x3
 3410 07ee 91       		.byte	0x91
 3411 07ef 00       		.sleb128 0
 3412 07f0 06       		.byte	0x6
 3413 07f1 00       		.byte	0
 3414 07f2 00       		.byte	0
 3415 07f3 09       		.uleb128 0x9
 3416 07f4 73000000 		.4byte	.LASF51
 3417 07f8 01       		.byte	0x1
 3418 07f9 1904     		.2byte	0x419
 3419 07fb 00000000 		.4byte	.LFB50
 3420 07ff 7A000000 		.4byte	.LFE50-.LFB50
 3421 0803 01       		.uleb128 0x1
 3422 0804 9C       		.byte	0x9c
 3423 0805 4B090000 		.4byte	0x94b
 3424 0809 0D       		.uleb128 0xd
 3425 080a 783000   		.ascii	"x0\000"
 3426 080d 01       		.byte	0x1
 3427 080e 1904     		.2byte	0x419
 3428 0810 83000000 		.4byte	0x83
 3429 0814 10060000 		.4byte	.LLST35
 3430 0818 0D       		.uleb128 0xd
 3431 0819 793000   		.ascii	"y0\000"
 3432 081c 01       		.byte	0x1
 3433 081d 1904     		.2byte	0x419
 3434 081f 83000000 		.4byte	0x83
 3435 0823 44060000 		.4byte	.LLST36
 3436 0827 0D       		.uleb128 0xd
 3437 0828 783100   		.ascii	"x1\000"
 3438 082b 01       		.byte	0x1
 3439 082c 1904     		.2byte	0x419
 3440 082e 83000000 		.4byte	0x83
 3441 0832 7A060000 		.4byte	.LLST37
 3442 0836 0D       		.uleb128 0xd
 3443 0837 793100   		.ascii	"y1\000"
 3444 083a 01       		.byte	0x1
 3445 083b 1904     		.2byte	0x419
 3446 083d 83000000 		.4byte	0x83
 3447 0841 BC060000 		.4byte	.LLST38
 3448 0845 0C       		.uleb128 0xc
 3449 0846 0D010000 		.4byte	.LASF52
ARM GAS  C:\Users\JAMESS~1\AppData\Local\Temp\cce8FrJG.s 			page 85


 3450 084a 01       		.byte	0x1
 3451 084b 1904     		.2byte	0x419
 3452 084d 83000000 		.4byte	0x83
 3453 0851 02       		.uleb128 0x2
 3454 0852 91       		.byte	0x91
 3455 0853 00       		.sleb128 0
 3456 0854 0C       		.uleb128 0xc
 3457 0855 59000000 		.4byte	.LASF23
 3458 0859 01       		.byte	0x1
 3459 085a 1904     		.2byte	0x419
 3460 085c 77000000 		.4byte	0x77
 3461 0860 02       		.uleb128 0x2
 3462 0861 91       		.byte	0x91
 3463 0862 04       		.sleb128 4
 3464 0863 0E       		.uleb128 0xe
 3465 0864 8A040000 		.4byte	.LASF53
 3466 0868 01       		.byte	0x1
 3467 0869 1B04     		.2byte	0x41b
 3468 086b 5D000000 		.4byte	0x5d
 3469 086f DB060000 		.4byte	.LLST39
 3470 0873 12       		.uleb128 0x12
 3471 0874 2E000000 		.4byte	.LVL153
 3472 0878 C0060000 		.4byte	0x6c0
 3473 087c A2080000 		.4byte	0x8a2
 3474 0880 13       		.uleb128 0x13
 3475 0881 01       		.uleb128 0x1
 3476 0882 50       		.byte	0x50
 3477 0883 02       		.uleb128 0x2
 3478 0884 74       		.byte	0x74
 3479 0885 00       		.sleb128 0
 3480 0886 13       		.uleb128 0x13
 3481 0887 01       		.uleb128 0x1
 3482 0888 51       		.byte	0x51
 3483 0889 03       		.uleb128 0x3
 3484 088a 91       		.byte	0x91
 3485 088b 64       		.sleb128 -28
 3486 088c 06       		.byte	0x6
 3487 088d 13       		.uleb128 0x13
 3488 088e 01       		.uleb128 0x1
 3489 088f 52       		.byte	0x52
 3490 0890 02       		.uleb128 0x2
 3491 0891 74       		.byte	0x74
 3492 0892 00       		.sleb128 0
 3493 0893 13       		.uleb128 0x13
 3494 0894 01       		.uleb128 0x1
 3495 0895 53       		.byte	0x53
 3496 0896 03       		.uleb128 0x3
 3497 0897 91       		.byte	0x91
 3498 0898 60       		.sleb128 -32
 3499 0899 06       		.byte	0x6
 3500 089a 13       		.uleb128 0x13
 3501 089b 02       		.uleb128 0x2
 3502 089c 7D       		.byte	0x7d
 3503 089d 00       		.sleb128 0
 3504 089e 02       		.uleb128 0x2
 3505 089f 77       		.byte	0x77
 3506 08a0 00       		.sleb128 0
ARM GAS  C:\Users\JAMESS~1\AppData\Local\Temp\cce8FrJG.s 			page 86


 3507 08a1 00       		.byte	0
 3508 08a2 12       		.uleb128 0x12
 3509 08a3 4C000000 		.4byte	.LVL159
 3510 08a7 C0060000 		.4byte	0x6c0
 3511 08ab C3080000 		.4byte	0x8c3
 3512 08af 13       		.uleb128 0x13
 3513 08b0 01       		.uleb128 0x1
 3514 08b1 51       		.byte	0x51
 3515 08b2 02       		.uleb128 0x2
 3516 08b3 75       		.byte	0x75
 3517 08b4 00       		.sleb128 0
 3518 08b5 13       		.uleb128 0x13
 3519 08b6 01       		.uleb128 0x1
 3520 08b7 53       		.byte	0x53
 3521 08b8 02       		.uleb128 0x2
 3522 08b9 75       		.byte	0x75
 3523 08ba 00       		.sleb128 0
 3524 08bb 13       		.uleb128 0x13
 3525 08bc 02       		.uleb128 0x2
 3526 08bd 7D       		.byte	0x7d
 3527 08be 00       		.sleb128 0
 3528 08bf 02       		.uleb128 0x2
 3529 08c0 77       		.byte	0x77
 3530 08c1 00       		.sleb128 0
 3531 08c2 00       		.byte	0
 3532 08c3 12       		.uleb128 0x12
 3533 08c4 5A000000 		.4byte	.LVL160
 3534 08c8 C0060000 		.4byte	0x6c0
 3535 08cc F2080000 		.4byte	0x8f2
 3536 08d0 13       		.uleb128 0x13
 3537 08d1 01       		.uleb128 0x1
 3538 08d2 50       		.byte	0x50
 3539 08d3 02       		.uleb128 0x2
 3540 08d4 74       		.byte	0x74
 3541 08d5 00       		.sleb128 0
 3542 08d6 13       		.uleb128 0x13
 3543 08d7 01       		.uleb128 0x1
 3544 08d8 51       		.byte	0x51
 3545 08d9 03       		.uleb128 0x3
 3546 08da 91       		.byte	0x91
 3547 08db 60       		.sleb128 -32
 3548 08dc 06       		.byte	0x6
 3549 08dd 13       		.uleb128 0x13
 3550 08de 01       		.uleb128 0x1
 3551 08df 52       		.byte	0x52
 3552 08e0 02       		.uleb128 0x2
 3553 08e1 76       		.byte	0x76
 3554 08e2 00       		.sleb128 0
 3555 08e3 13       		.uleb128 0x13
 3556 08e4 01       		.uleb128 0x1
 3557 08e5 53       		.byte	0x53
 3558 08e6 03       		.uleb128 0x3
 3559 08e7 91       		.byte	0x91
 3560 08e8 60       		.sleb128 -32
 3561 08e9 06       		.byte	0x6
 3562 08ea 13       		.uleb128 0x13
 3563 08eb 02       		.uleb128 0x2
ARM GAS  C:\Users\JAMESS~1\AppData\Local\Temp\cce8FrJG.s 			page 87


 3564 08ec 7D       		.byte	0x7d
 3565 08ed 00       		.sleb128 0
 3566 08ee 02       		.uleb128 0x2
 3567 08ef 77       		.byte	0x77
 3568 08f0 00       		.sleb128 0
 3569 08f1 00       		.byte	0
 3570 08f2 12       		.uleb128 0x12
 3571 08f3 68000000 		.4byte	.LVL161
 3572 08f7 C0060000 		.4byte	0x6c0
 3573 08fb 20090000 		.4byte	0x920
 3574 08ff 13       		.uleb128 0x13
 3575 0900 01       		.uleb128 0x1
 3576 0901 50       		.byte	0x50
 3577 0902 02       		.uleb128 0x2
 3578 0903 74       		.byte	0x74
 3579 0904 00       		.sleb128 0
 3580 0905 13       		.uleb128 0x13
 3581 0906 01       		.uleb128 0x1
 3582 0907 51       		.byte	0x51
 3583 0908 02       		.uleb128 0x2
 3584 0909 75       		.byte	0x75
 3585 090a 00       		.sleb128 0
 3586 090b 13       		.uleb128 0x13
 3587 090c 01       		.uleb128 0x1
 3588 090d 52       		.byte	0x52
 3589 090e 02       		.uleb128 0x2
 3590 090f 74       		.byte	0x74
 3591 0910 00       		.sleb128 0
 3592 0911 13       		.uleb128 0x13
 3593 0912 01       		.uleb128 0x1
 3594 0913 53       		.byte	0x53
 3595 0914 03       		.uleb128 0x3
 3596 0915 91       		.byte	0x91
 3597 0916 60       		.sleb128 -32
 3598 0917 06       		.byte	0x6
 3599 0918 13       		.uleb128 0x13
 3600 0919 02       		.uleb128 0x2
 3601 091a 7D       		.byte	0x7d
 3602 091b 00       		.sleb128 0
 3603 091c 02       		.uleb128 0x2
 3604 091d 77       		.byte	0x77
 3605 091e 00       		.sleb128 0
 3606 091f 00       		.byte	0
 3607 0920 15       		.uleb128 0x15
 3608 0921 76000000 		.4byte	.LVL162
 3609 0925 C0060000 		.4byte	0x6c0
 3610 0929 13       		.uleb128 0x13
 3611 092a 01       		.uleb128 0x1
 3612 092b 50       		.byte	0x50
 3613 092c 02       		.uleb128 0x2
 3614 092d 76       		.byte	0x76
 3615 092e 00       		.sleb128 0
 3616 092f 13       		.uleb128 0x13
 3617 0930 01       		.uleb128 0x1
 3618 0931 51       		.byte	0x51
 3619 0932 02       		.uleb128 0x2
 3620 0933 75       		.byte	0x75
ARM GAS  C:\Users\JAMESS~1\AppData\Local\Temp\cce8FrJG.s 			page 88


 3621 0934 00       		.sleb128 0
 3622 0935 13       		.uleb128 0x13
 3623 0936 01       		.uleb128 0x1
 3624 0937 52       		.byte	0x52
 3625 0938 02       		.uleb128 0x2
 3626 0939 76       		.byte	0x76
 3627 093a 00       		.sleb128 0
 3628 093b 13       		.uleb128 0x13
 3629 093c 01       		.uleb128 0x1
 3630 093d 53       		.byte	0x53
 3631 093e 03       		.uleb128 0x3
 3632 093f 91       		.byte	0x91
 3633 0940 60       		.sleb128 -32
 3634 0941 06       		.byte	0x6
 3635 0942 13       		.uleb128 0x13
 3636 0943 02       		.uleb128 0x2
 3637 0944 7D       		.byte	0x7d
 3638 0945 00       		.sleb128 0
 3639 0946 02       		.uleb128 0x2
 3640 0947 77       		.byte	0x77
 3641 0948 00       		.sleb128 0
 3642 0949 00       		.byte	0
 3643 094a 00       		.byte	0
 3644 094b 09       		.uleb128 0x9
 3645 094c CC030000 		.4byte	.LASF54
 3646 0950 01       		.byte	0x1
 3647 0951 4E04     		.2byte	0x44e
 3648 0953 00000000 		.4byte	.LFB51
 3649 0957 78000000 		.4byte	.LFE51-.LFB51
 3650 095b 01       		.uleb128 0x1
 3651 095c 9C       		.byte	0x9c
 3652 095d 88090000 		.4byte	0x988
 3653 0961 0C       		.uleb128 0xc
 3654 0962 92030000 		.4byte	.LASF55
 3655 0966 01       		.byte	0x1
 3656 0967 4E04     		.2byte	0x44e
 3657 0969 77000000 		.4byte	0x77
 3658 096d 01       		.uleb128 0x1
 3659 096e 50       		.byte	0x50
 3660 096f 0A       		.uleb128 0xa
 3661 0970 A0010000 		.4byte	.LASF19
 3662 0974 01       		.byte	0x1
 3663 0975 5004     		.2byte	0x450
 3664 0977 77000000 		.4byte	0x77
 3665 097b 0A       		.uleb128 0xa
 3666 097c 3A000000 		.4byte	.LASF20
 3667 0980 01       		.byte	0x1
 3668 0981 5104     		.2byte	0x451
 3669 0983 77000000 		.4byte	0x77
 3670 0987 00       		.byte	0
 3671 0988 1E       		.uleb128 0x1e
 3672 0989 6A050000 		.4byte	.LASF56
 3673 098d 01       		.byte	0x1
 3674 098e FC       		.byte	0xfc
 3675 098f 00000000 		.4byte	.LFB32
 3676 0993 8C000000 		.4byte	.LFE32-.LFB32
 3677 0997 01       		.uleb128 0x1
ARM GAS  C:\Users\JAMESS~1\AppData\Local\Temp\cce8FrJG.s 			page 89


 3678 0998 9C       		.byte	0x9c
 3679 0999 460A0000 		.4byte	0xa46
 3680 099d 1F       		.uleb128 0x1f
 3681 099e F6010000 		.4byte	.LASF57
 3682 09a2 01       		.byte	0x1
 3683 09a3 FE       		.byte	0xfe
 3684 09a4 6B000000 		.4byte	0x6b
 3685 09a8 1F       		.uleb128 0x1f
 3686 09a9 9B030000 		.4byte	.LASF24
 3687 09ad 01       		.byte	0x1
 3688 09ae FF       		.byte	0xff
 3689 09af 77000000 		.4byte	0x77
 3690 09b3 12       		.uleb128 0x12
 3691 09b4 26000000 		.4byte	.LVL166
 3692 09b8 B0020000 		.4byte	0x2b0
 3693 09bc C6090000 		.4byte	0x9c6
 3694 09c0 13       		.uleb128 0x13
 3695 09c1 01       		.uleb128 0x1
 3696 09c2 50       		.byte	0x50
 3697 09c3 01       		.uleb128 0x1
 3698 09c4 48       		.byte	0x48
 3699 09c5 00       		.byte	0
 3700 09c6 14       		.uleb128 0x14
 3701 09c7 2A000000 		.4byte	.LVL167
 3702 09cb 4C030000 		.4byte	0x34c
 3703 09cf 12       		.uleb128 0x12
 3704 09d0 34000000 		.4byte	.LVL168
 3705 09d4 4F0D0000 		.4byte	0xd4f
 3706 09d8 E2090000 		.4byte	0x9e2
 3707 09dc 13       		.uleb128 0x13
 3708 09dd 01       		.uleb128 0x1
 3709 09de 50       		.byte	0x50
 3710 09df 01       		.uleb128 0x1
 3711 09e0 30       		.byte	0x30
 3712 09e1 00       		.byte	0
 3713 09e2 12       		.uleb128 0x12
 3714 09e3 3A000000 		.4byte	.LVL169
 3715 09e7 4B090000 		.4byte	0x94b
 3716 09eb F5090000 		.4byte	0x9f5
 3717 09ef 13       		.uleb128 0x13
 3718 09f0 01       		.uleb128 0x1
 3719 09f1 50       		.byte	0x50
 3720 09f2 01       		.uleb128 0x1
 3721 09f3 30       		.byte	0x30
 3722 09f4 00       		.byte	0
 3723 09f5 12       		.uleb128 0x12
 3724 09f6 4E000000 		.4byte	.LVL170
 3725 09fa 5A0D0000 		.4byte	0xd5a
 3726 09fe 0C0A0000 		.4byte	0xa0c
 3727 0a02 13       		.uleb128 0x13
 3728 0a03 01       		.uleb128 0x1
 3729 0a04 50       		.byte	0x50
 3730 0a05 05       		.uleb128 0x5
 3731 0a06 03       		.byte	0x3
 3732 0a07 00000000 		.4byte	StripLights_CISR
 3733 0a0b 00       		.byte	0
 3734 0a0c 12       		.uleb128 0x12
ARM GAS  C:\Users\JAMESS~1\AppData\Local\Temp\cce8FrJG.s 			page 90


 3735 0a0d 54000000 		.4byte	.LVL171
 3736 0a11 650D0000 		.4byte	0xd65
 3737 0a15 230A0000 		.4byte	0xa23
 3738 0a19 13       		.uleb128 0x13
 3739 0a1a 01       		.uleb128 0x1
 3740 0a1b 50       		.byte	0x50
 3741 0a1c 05       		.uleb128 0x5
 3742 0a1d 03       		.byte	0x3
 3743 0a1e 00000000 		.4byte	StripLights_FISR
 3744 0a22 00       		.byte	0
 3745 0a23 12       		.uleb128 0x12
 3746 0a24 5A000000 		.4byte	.LVL172
 3747 0a28 700D0000 		.4byte	0xd70
 3748 0a2c 360A0000 		.4byte	0xa36
 3749 0a30 13       		.uleb128 0x13
 3750 0a31 01       		.uleb128 0x1
 3751 0a32 50       		.byte	0x50
 3752 0a33 01       		.uleb128 0x1
 3753 0a34 31       		.byte	0x31
 3754 0a35 00       		.byte	0
 3755 0a36 15       		.uleb128 0x15
 3756 0a37 60000000 		.4byte	.LVL173
 3757 0a3b 7B0D0000 		.4byte	0xd7b
 3758 0a3f 13       		.uleb128 0x13
 3759 0a40 01       		.uleb128 0x1
 3760 0a41 50       		.byte	0x50
 3761 0a42 01       		.uleb128 0x1
 3762 0a43 30       		.byte	0x30
 3763 0a44 00       		.byte	0
 3764 0a45 00       		.byte	0
 3765 0a46 09       		.uleb128 0x9
 3766 0a47 BA040000 		.4byte	.LASF58
 3767 0a4b 01       		.byte	0x1
 3768 0a4c 8104     		.2byte	0x481
 3769 0a4e 00000000 		.4byte	.LFB52
 3770 0a52 5A000000 		.4byte	.LFE52-.LFB52
 3771 0a56 01       		.uleb128 0x1
 3772 0a57 9C       		.byte	0x9c
 3773 0a58 110B0000 		.4byte	0xb11
 3774 0a5c 0D       		.uleb128 0xd
 3775 0a5d 7800     		.ascii	"x\000"
 3776 0a5f 01       		.byte	0x1
 3777 0a60 8104     		.2byte	0x481
 3778 0a62 83000000 		.4byte	0x83
 3779 0a66 F9060000 		.4byte	.LLST40
 3780 0a6a 0D       		.uleb128 0xd
 3781 0a6b 7900     		.ascii	"y\000"
 3782 0a6d 01       		.byte	0x1
 3783 0a6e 8104     		.2byte	0x481
 3784 0a70 83000000 		.4byte	0x83
 3785 0a74 18070000 		.4byte	.LLST41
 3786 0a78 11       		.uleb128 0x11
 3787 0a79 A4050000 		.4byte	.LASF59
 3788 0a7d 01       		.byte	0x1
 3789 0a7e 8104     		.2byte	0x481
 3790 0a80 110B0000 		.4byte	0xb11
 3791 0a84 39070000 		.4byte	.LLST42
ARM GAS  C:\Users\JAMESS~1\AppData\Local\Temp\cce8FrJG.s 			page 91


 3792 0a88 11       		.uleb128 0x11
 3793 0a89 66020000 		.4byte	.LASF60
 3794 0a8d 01       		.byte	0x1
 3795 0a8e 8104     		.2byte	0x481
 3796 0a90 83000000 		.4byte	0x83
 3797 0a94 65070000 		.4byte	.LLST43
 3798 0a98 1C       		.uleb128 0x1c
 3799 0a99 647800   		.ascii	"dx\000"
 3800 0a9c 01       		.byte	0x1
 3801 0a9d 8304     		.2byte	0x483
 3802 0a9f 83000000 		.4byte	0x83
 3803 0aa3 A7070000 		.4byte	.LLST44
 3804 0aa7 1C       		.uleb128 0x1c
 3805 0aa8 647900   		.ascii	"dy\000"
 3806 0aab 01       		.byte	0x1
 3807 0aac 8304     		.2byte	0x483
 3808 0aae 83000000 		.4byte	0x83
 3809 0ab2 C5070000 		.4byte	.LLST45
 3810 0ab6 0E       		.uleb128 0xe
 3811 0ab7 32050000 		.4byte	.LASF61
 3812 0abb 01       		.byte	0x1
 3813 0abc 8404     		.2byte	0x484
 3814 0abe 83000000 		.4byte	0x83
 3815 0ac2 07080000 		.4byte	.LLST46
 3816 0ac6 0E       		.uleb128 0xe
 3817 0ac7 8A020000 		.4byte	.LASF62
 3818 0acb 01       		.byte	0x1
 3819 0acc 8504     		.2byte	0x485
 3820 0ace 83000000 		.4byte	0x83
 3821 0ad2 48080000 		.4byte	.LLST47
 3822 0ad6 0E       		.uleb128 0xe
 3823 0ad7 32030000 		.4byte	.LASF63
 3824 0adb 01       		.byte	0x1
 3825 0adc 8504     		.2byte	0x485
 3826 0ade 83000000 		.4byte	0x83
 3827 0ae2 5B080000 		.4byte	.LLST48
 3828 0ae6 12       		.uleb128 0x12
 3829 0ae7 2C000000 		.4byte	.LVL181
 3830 0aeb 03040000 		.4byte	0x403
 3831 0aef 010B0000 		.4byte	0xb01
 3832 0af3 13       		.uleb128 0x13
 3833 0af4 01       		.uleb128 0x1
 3834 0af5 50       		.byte	0x50
 3835 0af6 02       		.uleb128 0x2
 3836 0af7 74       		.byte	0x74
 3837 0af8 00       		.sleb128 0
 3838 0af9 13       		.uleb128 0x13
 3839 0afa 01       		.uleb128 0x1
 3840 0afb 51       		.byte	0x51
 3841 0afc 03       		.uleb128 0x3
 3842 0afd 7D       		.byte	0x7d
 3843 0afe 00       		.sleb128 0
 3844 0aff 06       		.byte	0x6
 3845 0b00 00       		.byte	0
 3846 0b01 15       		.uleb128 0x15
 3847 0b02 50000000 		.4byte	.LVL188
 3848 0b06 96010000 		.4byte	0x196
ARM GAS  C:\Users\JAMESS~1\AppData\Local\Temp\cce8FrJG.s 			page 92


 3849 0b0a 13       		.uleb128 0x13
 3850 0b0b 01       		.uleb128 0x1
 3851 0b0c 50       		.byte	0x50
 3852 0b0d 01       		.uleb128 0x1
 3853 0b0e 31       		.byte	0x31
 3854 0b0f 00       		.byte	0
 3855 0b10 00       		.byte	0
 3856 0b11 06       		.uleb128 0x6
 3857 0b12 04       		.byte	0x4
 3858 0b13 6B000000 		.4byte	0x6b
 3859 0b17 09       		.uleb128 0x9
 3860 0b18 76020000 		.4byte	.LASF64
 3861 0b1c 01       		.byte	0x1
 3862 0b1d A504     		.2byte	0x4a5
 3863 0b1f 00000000 		.4byte	.LFB53
 3864 0b23 62000000 		.4byte	.LFE53-.LFB53
 3865 0b27 01       		.uleb128 0x1
 3866 0b28 9C       		.byte	0x9c
 3867 0b29 E20B0000 		.4byte	0xbe2
 3868 0b2d 0D       		.uleb128 0xd
 3869 0b2e 7800     		.ascii	"x\000"
 3870 0b30 01       		.byte	0x1
 3871 0b31 A504     		.2byte	0x4a5
 3872 0b33 83000000 		.4byte	0x83
 3873 0b37 6E080000 		.4byte	.LLST49
 3874 0b3b 0D       		.uleb128 0xd
 3875 0b3c 7900     		.ascii	"y\000"
 3876 0b3e 01       		.byte	0x1
 3877 0b3f A504     		.2byte	0x4a5
 3878 0b41 83000000 		.4byte	0x83
 3879 0b45 8D080000 		.4byte	.LLST50
 3880 0b49 11       		.uleb128 0x11
 3881 0b4a A4050000 		.4byte	.LASF59
 3882 0b4e 01       		.byte	0x1
 3883 0b4f A504     		.2byte	0x4a5
 3884 0b51 E20B0000 		.4byte	0xbe2
 3885 0b55 AE080000 		.4byte	.LLST51
 3886 0b59 11       		.uleb128 0x11
 3887 0b5a 66020000 		.4byte	.LASF60
 3888 0b5e 01       		.byte	0x1
 3889 0b5f A504     		.2byte	0x4a5
 3890 0b61 83000000 		.4byte	0x83
 3891 0b65 DA080000 		.4byte	.LLST52
 3892 0b69 1C       		.uleb128 0x1c
 3893 0b6a 647800   		.ascii	"dx\000"
 3894 0b6d 01       		.byte	0x1
 3895 0b6e A704     		.2byte	0x4a7
 3896 0b70 83000000 		.4byte	0x83
 3897 0b74 1C090000 		.4byte	.LLST53
 3898 0b78 1C       		.uleb128 0x1c
 3899 0b79 647900   		.ascii	"dy\000"
 3900 0b7c 01       		.byte	0x1
 3901 0b7d A704     		.2byte	0x4a7
 3902 0b7f 83000000 		.4byte	0x83
 3903 0b83 3A090000 		.4byte	.LLST54
 3904 0b87 0E       		.uleb128 0xe
 3905 0b88 32050000 		.4byte	.LASF61
ARM GAS  C:\Users\JAMESS~1\AppData\Local\Temp\cce8FrJG.s 			page 93


 3906 0b8c 01       		.byte	0x1
 3907 0b8d A804     		.2byte	0x4a8
 3908 0b8f 83000000 		.4byte	0x83
 3909 0b93 7C090000 		.4byte	.LLST55
 3910 0b97 0E       		.uleb128 0xe
 3911 0b98 8A020000 		.4byte	.LASF62
 3912 0b9c 01       		.byte	0x1
 3913 0b9d A904     		.2byte	0x4a9
 3914 0b9f 83000000 		.4byte	0x83
 3915 0ba3 BD090000 		.4byte	.LLST56
 3916 0ba7 0E       		.uleb128 0xe
 3917 0ba8 32030000 		.4byte	.LASF63
 3918 0bac 01       		.byte	0x1
 3919 0bad A904     		.2byte	0x4a9
 3920 0baf 83000000 		.4byte	0x83
 3921 0bb3 D0090000 		.4byte	.LLST57
 3922 0bb7 12       		.uleb128 0x12
 3923 0bb8 34000000 		.4byte	.LVL201
 3924 0bbc 03040000 		.4byte	0x403
 3925 0bc0 D20B0000 		.4byte	0xbd2
 3926 0bc4 13       		.uleb128 0x13
 3927 0bc5 01       		.uleb128 0x1
 3928 0bc6 50       		.byte	0x50
 3929 0bc7 02       		.uleb128 0x2
 3930 0bc8 74       		.byte	0x74
 3931 0bc9 00       		.sleb128 0
 3932 0bca 13       		.uleb128 0x13
 3933 0bcb 01       		.uleb128 0x1
 3934 0bcc 51       		.byte	0x51
 3935 0bcd 03       		.uleb128 0x3
 3936 0bce 7D       		.byte	0x7d
 3937 0bcf 00       		.sleb128 0
 3938 0bd0 06       		.byte	0x6
 3939 0bd1 00       		.byte	0
 3940 0bd2 15       		.uleb128 0x15
 3941 0bd3 58000000 		.4byte	.LVL208
 3942 0bd7 96010000 		.4byte	0x196
 3943 0bdb 13       		.uleb128 0x13
 3944 0bdc 01       		.uleb128 0x1
 3945 0bdd 50       		.byte	0x50
 3946 0bde 01       		.uleb128 0x1
 3947 0bdf 31       		.byte	0x31
 3948 0be0 00       		.byte	0
 3949 0be1 00       		.byte	0
 3950 0be2 06       		.uleb128 0x6
 3951 0be3 04       		.byte	0x4
 3952 0be4 77000000 		.4byte	0x77
 3953 0be8 18       		.uleb128 0x18
 3954 0be9 C0050000 		.4byte	.LASF65
 3955 0bed 01       		.byte	0x1
 3956 0bee C604     		.2byte	0x4c6
 3957 0bf0 77000000 		.4byte	0x77
 3958 0bf4 00000000 		.4byte	.LFB54
 3959 0bf8 74000000 		.4byte	.LFE54-.LFB54
 3960 0bfc 01       		.uleb128 0x1
 3961 0bfd 9C       		.byte	0x9c
 3962 0bfe 430C0000 		.4byte	0xc43
ARM GAS  C:\Users\JAMESS~1\AppData\Local\Temp\cce8FrJG.s 			page 94


 3963 0c02 11       		.uleb128 0x11
 3964 0c03 1E020000 		.4byte	.LASF66
 3965 0c07 01       		.byte	0x1
 3966 0c08 C604     		.2byte	0x4c6
 3967 0c0a 77000000 		.4byte	0x77
 3968 0c0e E3090000 		.4byte	.LLST58
 3969 0c12 11       		.uleb128 0x11
 3970 0c13 4E030000 		.4byte	.LASF67
 3971 0c17 01       		.byte	0x1
 3972 0c18 C604     		.2byte	0x4c6
 3973 0c1a 77000000 		.4byte	0x77
 3974 0c1e 0F0A0000 		.4byte	.LLST59
 3975 0c22 0D       		.uleb128 0xd
 3976 0c23 70637400 		.ascii	"pct\000"
 3977 0c27 01       		.byte	0x1
 3978 0c28 C604     		.2byte	0x4c6
 3979 0c2a 77000000 		.4byte	0x77
 3980 0c2e 3B0A0000 		.4byte	.LLST60
 3981 0c32 0E       		.uleb128 0xe
 3982 0c33 9B050000 		.4byte	.LASF68
 3983 0c37 01       		.byte	0x1
 3984 0c38 C804     		.2byte	0x4c8
 3985 0c3a 77000000 		.4byte	0x77
 3986 0c3e 670A0000 		.4byte	.LLST61
 3987 0c42 00       		.byte	0
 3988 0c43 20       		.uleb128 0x20
 3989 0c44 4A0C0000 		.4byte	0xc4a
 3990 0c48 21       		.uleb128 0x21
 3991 0c49 00       		.byte	0
 3992 0c4a 22       		.uleb128 0x22
 3993 0c4b E1000000 		.4byte	.LASF69
 3994 0c4f 01       		.byte	0x1
 3995 0c50 19       		.byte	0x19
 3996 0c51 5B0C0000 		.4byte	0xc5b
 3997 0c55 05       		.uleb128 0x5
 3998 0c56 03       		.byte	0x3
 3999 0c57 00000000 		.4byte	StripLights_EnterCritical
 4000 0c5b 06       		.uleb128 0x6
 4001 0c5c 04       		.byte	0x4
 4002 0c5d 430C0000 		.4byte	0xc43
 4003 0c61 22       		.uleb128 0x22
 4004 0c62 6A040000 		.4byte	.LASF70
 4005 0c66 01       		.byte	0x1
 4006 0c67 1A       		.byte	0x1a
 4007 0c68 5B0C0000 		.4byte	0xc5b
 4008 0c6c 05       		.uleb128 0x5
 4009 0c6d 03       		.byte	0x3
 4010 0c6e 00000000 		.4byte	StripLights_ExitCritical
 4011 0c72 22       		.uleb128 0x22
 4012 0c73 F6010000 		.4byte	.LASF57
 4013 0c77 01       		.byte	0x1
 4014 0c78 1D       		.byte	0x1d
 4015 0c79 6B000000 		.4byte	0x6b
 4016 0c7d 05       		.uleb128 0x5
 4017 0c7e 03       		.byte	0x3
 4018 0c7f 00000000 		.4byte	StripLights_initvar
 4019 0c83 19       		.uleb128 0x19
ARM GAS  C:\Users\JAMESS~1\AppData\Local\Temp\cce8FrJG.s 			page 95


 4020 0c84 77000000 		.4byte	0x77
 4021 0c88 9A0C0000 		.4byte	0xc9a
 4022 0c8c 1A       		.uleb128 0x1a
 4023 0c8d C7000000 		.4byte	0xc7
 4024 0c91 00       		.byte	0
 4025 0c92 23       		.uleb128 0x23
 4026 0c93 C7000000 		.4byte	0xc7
 4027 0c97 2B01     		.2byte	0x12b
 4028 0c99 00       		.byte	0
 4029 0c9a 22       		.uleb128 0x22
 4030 0c9b AD000000 		.4byte	.LASF71
 4031 0c9f 01       		.byte	0x1
 4032 0ca0 20       		.byte	0x20
 4033 0ca1 830C0000 		.4byte	0xc83
 4034 0ca5 05       		.uleb128 0x5
 4035 0ca6 03       		.byte	0x3
 4036 0ca7 00000000 		.4byte	StripLights_ledArray
 4037 0cab 22       		.uleb128 0x22
 4038 0cac B7030000 		.4byte	.LASF72
 4039 0cb0 01       		.byte	0x1
 4040 0cb1 25       		.byte	0x25
 4041 0cb2 77000000 		.4byte	0x77
 4042 0cb6 05       		.uleb128 0x5
 4043 0cb7 03       		.byte	0x3
 4044 0cb8 00000000 		.4byte	StripLights_ledIndex
 4045 0cbc 22       		.uleb128 0x22
 4046 0cbd 83050000 		.4byte	.LASF73
 4047 0cc1 01       		.byte	0x1
 4048 0cc2 26       		.byte	0x26
 4049 0cc3 77000000 		.4byte	0x77
 4050 0cc7 05       		.uleb128 0x5
 4051 0cc8 03       		.byte	0x3
 4052 0cc9 00000000 		.4byte	StripLights_row
 4053 0ccd 24       		.uleb128 0x24
 4054 0cce 9B030000 		.4byte	.LASF24
 4055 0cd2 01       		.byte	0x1
 4056 0cd3 8B02     		.2byte	0x28b
 4057 0cd5 77000000 		.4byte	0x77
 4058 0cd9 05       		.uleb128 0x5
 4059 0cda 03       		.byte	0x3
 4060 0cdb 00000000 		.4byte	StripLights_refreshComplete
 4061 0cdf 24       		.uleb128 0x24
 4062 0ce0 A0010000 		.4byte	.LASF19
 4063 0ce4 01       		.byte	0x1
 4064 0ce5 5004     		.2byte	0x450
 4065 0ce7 77000000 		.4byte	0x77
 4066 0ceb 05       		.uleb128 0x5
 4067 0cec 03       		.byte	0x3
 4068 0ced 00000000 		.4byte	StripLights_DimMask
 4069 0cf1 24       		.uleb128 0x24
 4070 0cf2 3A000000 		.4byte	.LASF20
 4071 0cf6 01       		.byte	0x1
 4072 0cf7 5104     		.2byte	0x451
 4073 0cf9 77000000 		.4byte	0x77
 4074 0cfd 05       		.uleb128 0x5
 4075 0cfe 03       		.byte	0x3
 4076 0cff 00000000 		.4byte	StripLights_DimShift
ARM GAS  C:\Users\JAMESS~1\AppData\Local\Temp\cce8FrJG.s 			page 96


 4077 0d03 19       		.uleb128 0x19
 4078 0d04 130D0000 		.4byte	0xd13
 4079 0d08 130D0000 		.4byte	0xd13
 4080 0d0c 1A       		.uleb128 0x1a
 4081 0d0d C7000000 		.4byte	0xc7
 4082 0d11 FF       		.byte	0xff
 4083 0d12 00       		.byte	0
 4084 0d13 1B       		.uleb128 0x1b
 4085 0d14 6B000000 		.4byte	0x6b
 4086 0d18 22       		.uleb128 0x22
 4087 0d19 FB000000 		.4byte	.LASF74
 4088 0d1d 01       		.byte	0x1
 4089 0d1e 2D       		.byte	0x2d
 4090 0d1f 290D0000 		.4byte	0xd29
 4091 0d23 05       		.uleb128 0x5
 4092 0d24 03       		.byte	0x3
 4093 0d25 00000000 		.4byte	StripLights_gamma
 4094 0d29 1B       		.uleb128 0x1b
 4095 0d2a 030D0000 		.4byte	0xd03
 4096 0d2e 22       		.uleb128 0x22
 4097 0d2f 00000000 		.4byte	.LASF36
 4098 0d33 01       		.byte	0x1
 4099 0d34 57       		.byte	0x57
 4100 0d35 3F0D0000 		.4byte	0xd3f
 4101 0d39 05       		.uleb128 0x5
 4102 0d3a 03       		.byte	0x3
 4103 0d3b 00000000 		.4byte	StripLights_CLUT
 4104 0d3f 1B       		.uleb128 0x1b
 4105 0d40 32030000 		.4byte	0x332
 4106 0d44 25       		.uleb128 0x25
 4107 0d45 E3020000 		.4byte	.LASF75
 4108 0d49 E3020000 		.4byte	.LASF75
 4109 0d4d 04       		.byte	0x4
 4110 0d4e DA       		.byte	0xda
 4111 0d4f 25       		.uleb128 0x25
 4112 0d50 5F000000 		.4byte	.LASF76
 4113 0d54 5F000000 		.4byte	.LASF76
 4114 0d58 05       		.byte	0x5
 4115 0d59 1B       		.byte	0x1b
 4116 0d5a 25       		.uleb128 0x25
 4117 0d5b C2000000 		.4byte	.LASF77
 4118 0d5f C2000000 		.4byte	.LASF77
 4119 0d63 06       		.byte	0x6
 4120 0d64 18       		.byte	0x18
 4121 0d65 25       		.uleb128 0x25
 4122 0d66 95040000 		.4byte	.LASF78
 4123 0d6a 95040000 		.4byte	.LASF78
 4124 0d6e 07       		.byte	0x7
 4125 0d6f 18       		.byte	0x18
 4126 0d70 25       		.uleb128 0x25
 4127 0d71 56030000 		.4byte	.LASF79
 4128 0d75 56030000 		.4byte	.LASF79
 4129 0d79 06       		.byte	0x6
 4130 0d7a 20       		.byte	0x20
 4131 0d7b 25       		.uleb128 0x25
 4132 0d7c 00050000 		.4byte	.LASF80
 4133 0d80 00050000 		.4byte	.LASF80
ARM GAS  C:\Users\JAMESS~1\AppData\Local\Temp\cce8FrJG.s 			page 97


 4134 0d84 07       		.byte	0x7
 4135 0d85 20       		.byte	0x20
 4136 0d86 00       		.byte	0
 4137              		.section	.debug_abbrev,"",%progbits
 4138              	.Ldebug_abbrev0:
 4139 0000 01       		.uleb128 0x1
 4140 0001 11       		.uleb128 0x11
 4141 0002 01       		.byte	0x1
 4142 0003 25       		.uleb128 0x25
 4143 0004 0E       		.uleb128 0xe
 4144 0005 13       		.uleb128 0x13
 4145 0006 0B       		.uleb128 0xb
 4146 0007 03       		.uleb128 0x3
 4147 0008 0E       		.uleb128 0xe
 4148 0009 1B       		.uleb128 0x1b
 4149 000a 0E       		.uleb128 0xe
 4150 000b 55       		.uleb128 0x55
 4151 000c 17       		.uleb128 0x17
 4152 000d 11       		.uleb128 0x11
 4153 000e 01       		.uleb128 0x1
 4154 000f 10       		.uleb128 0x10
 4155 0010 17       		.uleb128 0x17
 4156 0011 00       		.byte	0
 4157 0012 00       		.byte	0
 4158 0013 02       		.uleb128 0x2
 4159 0014 24       		.uleb128 0x24
 4160 0015 00       		.byte	0
 4161 0016 0B       		.uleb128 0xb
 4162 0017 0B       		.uleb128 0xb
 4163 0018 3E       		.uleb128 0x3e
 4164 0019 0B       		.uleb128 0xb
 4165 001a 03       		.uleb128 0x3
 4166 001b 0E       		.uleb128 0xe
 4167 001c 00       		.byte	0
 4168 001d 00       		.byte	0
 4169 001e 03       		.uleb128 0x3
 4170 001f 24       		.uleb128 0x24
 4171 0020 00       		.byte	0
 4172 0021 0B       		.uleb128 0xb
 4173 0022 0B       		.uleb128 0xb
 4174 0023 3E       		.uleb128 0x3e
 4175 0024 0B       		.uleb128 0xb
 4176 0025 03       		.uleb128 0x3
 4177 0026 08       		.uleb128 0x8
 4178 0027 00       		.byte	0
 4179 0028 00       		.byte	0
 4180 0029 04       		.uleb128 0x4
 4181 002a 16       		.uleb128 0x16
 4182 002b 00       		.byte	0
 4183 002c 03       		.uleb128 0x3
 4184 002d 0E       		.uleb128 0xe
 4185 002e 3A       		.uleb128 0x3a
 4186 002f 0B       		.uleb128 0xb
 4187 0030 3B       		.uleb128 0x3b
 4188 0031 05       		.uleb128 0x5
 4189 0032 49       		.uleb128 0x49
 4190 0033 13       		.uleb128 0x13
ARM GAS  C:\Users\JAMESS~1\AppData\Local\Temp\cce8FrJG.s 			page 98


 4191 0034 00       		.byte	0
 4192 0035 00       		.byte	0
 4193 0036 05       		.uleb128 0x5
 4194 0037 35       		.uleb128 0x35
 4195 0038 00       		.byte	0
 4196 0039 49       		.uleb128 0x49
 4197 003a 13       		.uleb128 0x13
 4198 003b 00       		.byte	0
 4199 003c 00       		.byte	0
 4200 003d 06       		.uleb128 0x6
 4201 003e 0F       		.uleb128 0xf
 4202 003f 00       		.byte	0
 4203 0040 0B       		.uleb128 0xb
 4204 0041 0B       		.uleb128 0xb
 4205 0042 49       		.uleb128 0x49
 4206 0043 13       		.uleb128 0x13
 4207 0044 00       		.byte	0
 4208 0045 00       		.byte	0
 4209 0046 07       		.uleb128 0x7
 4210 0047 15       		.uleb128 0x15
 4211 0048 00       		.byte	0
 4212 0049 27       		.uleb128 0x27
 4213 004a 19       		.uleb128 0x19
 4214 004b 00       		.byte	0
 4215 004c 00       		.byte	0
 4216 004d 08       		.uleb128 0x8
 4217 004e 16       		.uleb128 0x16
 4218 004f 00       		.byte	0
 4219 0050 03       		.uleb128 0x3
 4220 0051 0E       		.uleb128 0xe
 4221 0052 3A       		.uleb128 0x3a
 4222 0053 0B       		.uleb128 0xb
 4223 0054 3B       		.uleb128 0x3b
 4224 0055 0B       		.uleb128 0xb
 4225 0056 49       		.uleb128 0x49
 4226 0057 13       		.uleb128 0x13
 4227 0058 00       		.byte	0
 4228 0059 00       		.byte	0
 4229 005a 09       		.uleb128 0x9
 4230 005b 2E       		.uleb128 0x2e
 4231 005c 01       		.byte	0x1
 4232 005d 3F       		.uleb128 0x3f
 4233 005e 19       		.uleb128 0x19
 4234 005f 03       		.uleb128 0x3
 4235 0060 0E       		.uleb128 0xe
 4236 0061 3A       		.uleb128 0x3a
 4237 0062 0B       		.uleb128 0xb
 4238 0063 3B       		.uleb128 0x3b
 4239 0064 05       		.uleb128 0x5
 4240 0065 27       		.uleb128 0x27
 4241 0066 19       		.uleb128 0x19
 4242 0067 11       		.uleb128 0x11
 4243 0068 01       		.uleb128 0x1
 4244 0069 12       		.uleb128 0x12
 4245 006a 06       		.uleb128 0x6
 4246 006b 40       		.uleb128 0x40
 4247 006c 18       		.uleb128 0x18
ARM GAS  C:\Users\JAMESS~1\AppData\Local\Temp\cce8FrJG.s 			page 99


 4248 006d 9742     		.uleb128 0x2117
 4249 006f 19       		.uleb128 0x19
 4250 0070 01       		.uleb128 0x1
 4251 0071 13       		.uleb128 0x13
 4252 0072 00       		.byte	0
 4253 0073 00       		.byte	0
 4254 0074 0A       		.uleb128 0xa
 4255 0075 34       		.uleb128 0x34
 4256 0076 00       		.byte	0
 4257 0077 03       		.uleb128 0x3
 4258 0078 0E       		.uleb128 0xe
 4259 0079 3A       		.uleb128 0x3a
 4260 007a 0B       		.uleb128 0xb
 4261 007b 3B       		.uleb128 0x3b
 4262 007c 05       		.uleb128 0x5
 4263 007d 49       		.uleb128 0x49
 4264 007e 13       		.uleb128 0x13
 4265 007f 3F       		.uleb128 0x3f
 4266 0080 19       		.uleb128 0x19
 4267 0081 3C       		.uleb128 0x3c
 4268 0082 19       		.uleb128 0x19
 4269 0083 00       		.byte	0
 4270 0084 00       		.byte	0
 4271 0085 0B       		.uleb128 0xb
 4272 0086 34       		.uleb128 0x34
 4273 0087 00       		.byte	0
 4274 0088 03       		.uleb128 0x3
 4275 0089 0E       		.uleb128 0xe
 4276 008a 3A       		.uleb128 0x3a
 4277 008b 0B       		.uleb128 0xb
 4278 008c 3B       		.uleb128 0x3b
 4279 008d 05       		.uleb128 0x5
 4280 008e 49       		.uleb128 0x49
 4281 008f 13       		.uleb128 0x13
 4282 0090 02       		.uleb128 0x2
 4283 0091 18       		.uleb128 0x18
 4284 0092 00       		.byte	0
 4285 0093 00       		.byte	0
 4286 0094 0C       		.uleb128 0xc
 4287 0095 05       		.uleb128 0x5
 4288 0096 00       		.byte	0
 4289 0097 03       		.uleb128 0x3
 4290 0098 0E       		.uleb128 0xe
 4291 0099 3A       		.uleb128 0x3a
 4292 009a 0B       		.uleb128 0xb
 4293 009b 3B       		.uleb128 0x3b
 4294 009c 05       		.uleb128 0x5
 4295 009d 49       		.uleb128 0x49
 4296 009e 13       		.uleb128 0x13
 4297 009f 02       		.uleb128 0x2
 4298 00a0 18       		.uleb128 0x18
 4299 00a1 00       		.byte	0
 4300 00a2 00       		.byte	0
 4301 00a3 0D       		.uleb128 0xd
 4302 00a4 05       		.uleb128 0x5
 4303 00a5 00       		.byte	0
 4304 00a6 03       		.uleb128 0x3
ARM GAS  C:\Users\JAMESS~1\AppData\Local\Temp\cce8FrJG.s 			page 100


 4305 00a7 08       		.uleb128 0x8
 4306 00a8 3A       		.uleb128 0x3a
 4307 00a9 0B       		.uleb128 0xb
 4308 00aa 3B       		.uleb128 0x3b
 4309 00ab 05       		.uleb128 0x5
 4310 00ac 49       		.uleb128 0x49
 4311 00ad 13       		.uleb128 0x13
 4312 00ae 02       		.uleb128 0x2
 4313 00af 17       		.uleb128 0x17
 4314 00b0 00       		.byte	0
 4315 00b1 00       		.byte	0
 4316 00b2 0E       		.uleb128 0xe
 4317 00b3 34       		.uleb128 0x34
 4318 00b4 00       		.byte	0
 4319 00b5 03       		.uleb128 0x3
 4320 00b6 0E       		.uleb128 0xe
 4321 00b7 3A       		.uleb128 0x3a
 4322 00b8 0B       		.uleb128 0xb
 4323 00b9 3B       		.uleb128 0x3b
 4324 00ba 05       		.uleb128 0x5
 4325 00bb 49       		.uleb128 0x49
 4326 00bc 13       		.uleb128 0x13
 4327 00bd 02       		.uleb128 0x2
 4328 00be 17       		.uleb128 0x17
 4329 00bf 00       		.byte	0
 4330 00c0 00       		.byte	0
 4331 00c1 0F       		.uleb128 0xf
 4332 00c2 2E       		.uleb128 0x2e
 4333 00c3 00       		.byte	0
 4334 00c4 3F       		.uleb128 0x3f
 4335 00c5 19       		.uleb128 0x19
 4336 00c6 03       		.uleb128 0x3
 4337 00c7 0E       		.uleb128 0xe
 4338 00c8 3A       		.uleb128 0x3a
 4339 00c9 0B       		.uleb128 0xb
 4340 00ca 3B       		.uleb128 0x3b
 4341 00cb 05       		.uleb128 0x5
 4342 00cc 27       		.uleb128 0x27
 4343 00cd 19       		.uleb128 0x19
 4344 00ce 49       		.uleb128 0x49
 4345 00cf 13       		.uleb128 0x13
 4346 00d0 11       		.uleb128 0x11
 4347 00d1 01       		.uleb128 0x1
 4348 00d2 12       		.uleb128 0x12
 4349 00d3 06       		.uleb128 0x6
 4350 00d4 40       		.uleb128 0x40
 4351 00d5 18       		.uleb128 0x18
 4352 00d6 9742     		.uleb128 0x2117
 4353 00d8 19       		.uleb128 0x19
 4354 00d9 00       		.byte	0
 4355 00da 00       		.byte	0
 4356 00db 10       		.uleb128 0x10
 4357 00dc 2E       		.uleb128 0x2e
 4358 00dd 01       		.byte	0x1
 4359 00de 3F       		.uleb128 0x3f
 4360 00df 19       		.uleb128 0x19
 4361 00e0 03       		.uleb128 0x3
ARM GAS  C:\Users\JAMESS~1\AppData\Local\Temp\cce8FrJG.s 			page 101


 4362 00e1 0E       		.uleb128 0xe
 4363 00e2 3A       		.uleb128 0x3a
 4364 00e3 0B       		.uleb128 0xb
 4365 00e4 3B       		.uleb128 0x3b
 4366 00e5 05       		.uleb128 0x5
 4367 00e6 27       		.uleb128 0x27
 4368 00e7 19       		.uleb128 0x19
 4369 00e8 11       		.uleb128 0x11
 4370 00e9 01       		.uleb128 0x1
 4371 00ea 12       		.uleb128 0x12
 4372 00eb 06       		.uleb128 0x6
 4373 00ec 40       		.uleb128 0x40
 4374 00ed 18       		.uleb128 0x18
 4375 00ee 9642     		.uleb128 0x2116
 4376 00f0 19       		.uleb128 0x19
 4377 00f1 01       		.uleb128 0x1
 4378 00f2 13       		.uleb128 0x13
 4379 00f3 00       		.byte	0
 4380 00f4 00       		.byte	0
 4381 00f5 11       		.uleb128 0x11
 4382 00f6 05       		.uleb128 0x5
 4383 00f7 00       		.byte	0
 4384 00f8 03       		.uleb128 0x3
 4385 00f9 0E       		.uleb128 0xe
 4386 00fa 3A       		.uleb128 0x3a
 4387 00fb 0B       		.uleb128 0xb
 4388 00fc 3B       		.uleb128 0x3b
 4389 00fd 05       		.uleb128 0x5
 4390 00fe 49       		.uleb128 0x49
 4391 00ff 13       		.uleb128 0x13
 4392 0100 02       		.uleb128 0x2
 4393 0101 17       		.uleb128 0x17
 4394 0102 00       		.byte	0
 4395 0103 00       		.byte	0
 4396 0104 12       		.uleb128 0x12
 4397 0105 898201   		.uleb128 0x4109
 4398 0108 01       		.byte	0x1
 4399 0109 11       		.uleb128 0x11
 4400 010a 01       		.uleb128 0x1
 4401 010b 31       		.uleb128 0x31
 4402 010c 13       		.uleb128 0x13
 4403 010d 01       		.uleb128 0x1
 4404 010e 13       		.uleb128 0x13
 4405 010f 00       		.byte	0
 4406 0110 00       		.byte	0
 4407 0111 13       		.uleb128 0x13
 4408 0112 8A8201   		.uleb128 0x410a
 4409 0115 00       		.byte	0
 4410 0116 02       		.uleb128 0x2
 4411 0117 18       		.uleb128 0x18
 4412 0118 9142     		.uleb128 0x2111
 4413 011a 18       		.uleb128 0x18
 4414 011b 00       		.byte	0
 4415 011c 00       		.byte	0
 4416 011d 14       		.uleb128 0x14
 4417 011e 898201   		.uleb128 0x4109
 4418 0121 00       		.byte	0
ARM GAS  C:\Users\JAMESS~1\AppData\Local\Temp\cce8FrJG.s 			page 102


 4419 0122 11       		.uleb128 0x11
 4420 0123 01       		.uleb128 0x1
 4421 0124 31       		.uleb128 0x31
 4422 0125 13       		.uleb128 0x13
 4423 0126 00       		.byte	0
 4424 0127 00       		.byte	0
 4425 0128 15       		.uleb128 0x15
 4426 0129 898201   		.uleb128 0x4109
 4427 012c 01       		.byte	0x1
 4428 012d 11       		.uleb128 0x11
 4429 012e 01       		.uleb128 0x1
 4430 012f 31       		.uleb128 0x31
 4431 0130 13       		.uleb128 0x13
 4432 0131 00       		.byte	0
 4433 0132 00       		.byte	0
 4434 0133 16       		.uleb128 0x16
 4435 0134 2E       		.uleb128 0x2e
 4436 0135 00       		.byte	0
 4437 0136 3F       		.uleb128 0x3f
 4438 0137 19       		.uleb128 0x19
 4439 0138 03       		.uleb128 0x3
 4440 0139 0E       		.uleb128 0xe
 4441 013a 3A       		.uleb128 0x3a
 4442 013b 0B       		.uleb128 0xb
 4443 013c 3B       		.uleb128 0x3b
 4444 013d 05       		.uleb128 0x5
 4445 013e 27       		.uleb128 0x27
 4446 013f 19       		.uleb128 0x19
 4447 0140 11       		.uleb128 0x11
 4448 0141 01       		.uleb128 0x1
 4449 0142 12       		.uleb128 0x12
 4450 0143 06       		.uleb128 0x6
 4451 0144 40       		.uleb128 0x40
 4452 0145 18       		.uleb128 0x18
 4453 0146 9742     		.uleb128 0x2117
 4454 0148 19       		.uleb128 0x19
 4455 0149 00       		.byte	0
 4456 014a 00       		.byte	0
 4457 014b 17       		.uleb128 0x17
 4458 014c 2E       		.uleb128 0x2e
 4459 014d 01       		.byte	0x1
 4460 014e 3F       		.uleb128 0x3f
 4461 014f 19       		.uleb128 0x19
 4462 0150 03       		.uleb128 0x3
 4463 0151 0E       		.uleb128 0xe
 4464 0152 3A       		.uleb128 0x3a
 4465 0153 0B       		.uleb128 0xb
 4466 0154 3B       		.uleb128 0x3b
 4467 0155 05       		.uleb128 0x5
 4468 0156 27       		.uleb128 0x27
 4469 0157 19       		.uleb128 0x19
 4470 0158 49       		.uleb128 0x49
 4471 0159 13       		.uleb128 0x13
 4472 015a 11       		.uleb128 0x11
 4473 015b 01       		.uleb128 0x1
 4474 015c 12       		.uleb128 0x12
 4475 015d 06       		.uleb128 0x6
ARM GAS  C:\Users\JAMESS~1\AppData\Local\Temp\cce8FrJG.s 			page 103


 4476 015e 40       		.uleb128 0x40
 4477 015f 18       		.uleb128 0x18
 4478 0160 9742     		.uleb128 0x2117
 4479 0162 19       		.uleb128 0x19
 4480 0163 01       		.uleb128 0x1
 4481 0164 13       		.uleb128 0x13
 4482 0165 00       		.byte	0
 4483 0166 00       		.byte	0
 4484 0167 18       		.uleb128 0x18
 4485 0168 2E       		.uleb128 0x2e
 4486 0169 01       		.byte	0x1
 4487 016a 3F       		.uleb128 0x3f
 4488 016b 19       		.uleb128 0x19
 4489 016c 03       		.uleb128 0x3
 4490 016d 0E       		.uleb128 0xe
 4491 016e 3A       		.uleb128 0x3a
 4492 016f 0B       		.uleb128 0xb
 4493 0170 3B       		.uleb128 0x3b
 4494 0171 05       		.uleb128 0x5
 4495 0172 27       		.uleb128 0x27
 4496 0173 19       		.uleb128 0x19
 4497 0174 49       		.uleb128 0x49
 4498 0175 13       		.uleb128 0x13
 4499 0176 11       		.uleb128 0x11
 4500 0177 01       		.uleb128 0x1
 4501 0178 12       		.uleb128 0x12
 4502 0179 06       		.uleb128 0x6
 4503 017a 40       		.uleb128 0x40
 4504 017b 18       		.uleb128 0x18
 4505 017c 9642     		.uleb128 0x2116
 4506 017e 19       		.uleb128 0x19
 4507 017f 01       		.uleb128 0x1
 4508 0180 13       		.uleb128 0x13
 4509 0181 00       		.byte	0
 4510 0182 00       		.byte	0
 4511 0183 19       		.uleb128 0x19
 4512 0184 01       		.uleb128 0x1
 4513 0185 01       		.byte	0x1
 4514 0186 49       		.uleb128 0x49
 4515 0187 13       		.uleb128 0x13
 4516 0188 01       		.uleb128 0x1
 4517 0189 13       		.uleb128 0x13
 4518 018a 00       		.byte	0
 4519 018b 00       		.byte	0
 4520 018c 1A       		.uleb128 0x1a
 4521 018d 21       		.uleb128 0x21
 4522 018e 00       		.byte	0
 4523 018f 49       		.uleb128 0x49
 4524 0190 13       		.uleb128 0x13
 4525 0191 2F       		.uleb128 0x2f
 4526 0192 0B       		.uleb128 0xb
 4527 0193 00       		.byte	0
 4528 0194 00       		.byte	0
 4529 0195 1B       		.uleb128 0x1b
 4530 0196 26       		.uleb128 0x26
 4531 0197 00       		.byte	0
 4532 0198 49       		.uleb128 0x49
ARM GAS  C:\Users\JAMESS~1\AppData\Local\Temp\cce8FrJG.s 			page 104


 4533 0199 13       		.uleb128 0x13
 4534 019a 00       		.byte	0
 4535 019b 00       		.byte	0
 4536 019c 1C       		.uleb128 0x1c
 4537 019d 34       		.uleb128 0x34
 4538 019e 00       		.byte	0
 4539 019f 03       		.uleb128 0x3
 4540 01a0 08       		.uleb128 0x8
 4541 01a1 3A       		.uleb128 0x3a
 4542 01a2 0B       		.uleb128 0xb
 4543 01a3 3B       		.uleb128 0x3b
 4544 01a4 05       		.uleb128 0x5
 4545 01a5 49       		.uleb128 0x49
 4546 01a6 13       		.uleb128 0x13
 4547 01a7 02       		.uleb128 0x2
 4548 01a8 17       		.uleb128 0x17
 4549 01a9 00       		.byte	0
 4550 01aa 00       		.byte	0
 4551 01ab 1D       		.uleb128 0x1d
 4552 01ac 0B       		.uleb128 0xb
 4553 01ad 01       		.byte	0x1
 4554 01ae 11       		.uleb128 0x11
 4555 01af 01       		.uleb128 0x1
 4556 01b0 12       		.uleb128 0x12
 4557 01b1 06       		.uleb128 0x6
 4558 01b2 01       		.uleb128 0x1
 4559 01b3 13       		.uleb128 0x13
 4560 01b4 00       		.byte	0
 4561 01b5 00       		.byte	0
 4562 01b6 1E       		.uleb128 0x1e
 4563 01b7 2E       		.uleb128 0x2e
 4564 01b8 01       		.byte	0x1
 4565 01b9 3F       		.uleb128 0x3f
 4566 01ba 19       		.uleb128 0x19
 4567 01bb 03       		.uleb128 0x3
 4568 01bc 0E       		.uleb128 0xe
 4569 01bd 3A       		.uleb128 0x3a
 4570 01be 0B       		.uleb128 0xb
 4571 01bf 3B       		.uleb128 0x3b
 4572 01c0 0B       		.uleb128 0xb
 4573 01c1 27       		.uleb128 0x27
 4574 01c2 19       		.uleb128 0x19
 4575 01c3 11       		.uleb128 0x11
 4576 01c4 01       		.uleb128 0x1
 4577 01c5 12       		.uleb128 0x12
 4578 01c6 06       		.uleb128 0x6
 4579 01c7 40       		.uleb128 0x40
 4580 01c8 18       		.uleb128 0x18
 4581 01c9 9742     		.uleb128 0x2117
 4582 01cb 19       		.uleb128 0x19
 4583 01cc 01       		.uleb128 0x1
 4584 01cd 13       		.uleb128 0x13
 4585 01ce 00       		.byte	0
 4586 01cf 00       		.byte	0
 4587 01d0 1F       		.uleb128 0x1f
 4588 01d1 34       		.uleb128 0x34
 4589 01d2 00       		.byte	0
ARM GAS  C:\Users\JAMESS~1\AppData\Local\Temp\cce8FrJG.s 			page 105


 4590 01d3 03       		.uleb128 0x3
 4591 01d4 0E       		.uleb128 0xe
 4592 01d5 3A       		.uleb128 0x3a
 4593 01d6 0B       		.uleb128 0xb
 4594 01d7 3B       		.uleb128 0x3b
 4595 01d8 0B       		.uleb128 0xb
 4596 01d9 49       		.uleb128 0x49
 4597 01da 13       		.uleb128 0x13
 4598 01db 3F       		.uleb128 0x3f
 4599 01dc 19       		.uleb128 0x19
 4600 01dd 3C       		.uleb128 0x3c
 4601 01de 19       		.uleb128 0x19
 4602 01df 00       		.byte	0
 4603 01e0 00       		.byte	0
 4604 01e1 20       		.uleb128 0x20
 4605 01e2 15       		.uleb128 0x15
 4606 01e3 01       		.byte	0x1
 4607 01e4 01       		.uleb128 0x1
 4608 01e5 13       		.uleb128 0x13
 4609 01e6 00       		.byte	0
 4610 01e7 00       		.byte	0
 4611 01e8 21       		.uleb128 0x21
 4612 01e9 18       		.uleb128 0x18
 4613 01ea 00       		.byte	0
 4614 01eb 00       		.byte	0
 4615 01ec 00       		.byte	0
 4616 01ed 22       		.uleb128 0x22
 4617 01ee 34       		.uleb128 0x34
 4618 01ef 00       		.byte	0
 4619 01f0 03       		.uleb128 0x3
 4620 01f1 0E       		.uleb128 0xe
 4621 01f2 3A       		.uleb128 0x3a
 4622 01f3 0B       		.uleb128 0xb
 4623 01f4 3B       		.uleb128 0x3b
 4624 01f5 0B       		.uleb128 0xb
 4625 01f6 49       		.uleb128 0x49
 4626 01f7 13       		.uleb128 0x13
 4627 01f8 3F       		.uleb128 0x3f
 4628 01f9 19       		.uleb128 0x19
 4629 01fa 02       		.uleb128 0x2
 4630 01fb 18       		.uleb128 0x18
 4631 01fc 00       		.byte	0
 4632 01fd 00       		.byte	0
 4633 01fe 23       		.uleb128 0x23
 4634 01ff 21       		.uleb128 0x21
 4635 0200 00       		.byte	0
 4636 0201 49       		.uleb128 0x49
 4637 0202 13       		.uleb128 0x13
 4638 0203 2F       		.uleb128 0x2f
 4639 0204 05       		.uleb128 0x5
 4640 0205 00       		.byte	0
 4641 0206 00       		.byte	0
 4642 0207 24       		.uleb128 0x24
 4643 0208 34       		.uleb128 0x34
 4644 0209 00       		.byte	0
 4645 020a 03       		.uleb128 0x3
 4646 020b 0E       		.uleb128 0xe
ARM GAS  C:\Users\JAMESS~1\AppData\Local\Temp\cce8FrJG.s 			page 106


 4647 020c 3A       		.uleb128 0x3a
 4648 020d 0B       		.uleb128 0xb
 4649 020e 3B       		.uleb128 0x3b
 4650 020f 05       		.uleb128 0x5
 4651 0210 49       		.uleb128 0x49
 4652 0211 13       		.uleb128 0x13
 4653 0212 3F       		.uleb128 0x3f
 4654 0213 19       		.uleb128 0x19
 4655 0214 02       		.uleb128 0x2
 4656 0215 18       		.uleb128 0x18
 4657 0216 00       		.byte	0
 4658 0217 00       		.byte	0
 4659 0218 25       		.uleb128 0x25
 4660 0219 2E       		.uleb128 0x2e
 4661 021a 00       		.byte	0
 4662 021b 3F       		.uleb128 0x3f
 4663 021c 19       		.uleb128 0x19
 4664 021d 3C       		.uleb128 0x3c
 4665 021e 19       		.uleb128 0x19
 4666 021f 6E       		.uleb128 0x6e
 4667 0220 0E       		.uleb128 0xe
 4668 0221 03       		.uleb128 0x3
 4669 0222 0E       		.uleb128 0xe
 4670 0223 3A       		.uleb128 0x3a
 4671 0224 0B       		.uleb128 0xb
 4672 0225 3B       		.uleb128 0x3b
 4673 0226 0B       		.uleb128 0xb
 4674 0227 00       		.byte	0
 4675 0228 00       		.byte	0
 4676 0229 00       		.byte	0
 4677              		.section	.debug_loc,"",%progbits
 4678              	.Ldebug_loc0:
 4679              	.LLST0:
 4680 0000 00000000 		.4byte	.LVL1
 4681 0004 2C000000 		.4byte	.LVL5
 4682 0008 0100     		.2byte	0x1
 4683 000a 50       		.byte	0x50
 4684 000b 2C000000 		.4byte	.LVL5
 4685 000f 80000000 		.4byte	.LFE36
 4686 0013 0400     		.2byte	0x4
 4687 0015 F3       		.byte	0xf3
 4688 0016 01       		.uleb128 0x1
 4689 0017 50       		.byte	0x50
 4690 0018 9F       		.byte	0x9f
 4691 0019 00000000 		.4byte	0
 4692 001d 00000000 		.4byte	0
 4693              	.LLST1:
 4694 0021 1E000000 		.4byte	.LVL2
 4695 0025 24000000 		.4byte	.LVL3
 4696 0029 0100     		.2byte	0x1
 4697 002b 53       		.byte	0x53
 4698 002c 24000000 		.4byte	.LVL3
 4699 0030 2A000000 		.4byte	.LVL4
 4700 0034 1000     		.2byte	0x10
 4701 0036 03       		.byte	0x3
 4702 0037 00000000 		.4byte	StripLights_row
 4703 003b 06       		.byte	0x6
ARM GAS  C:\Users\JAMESS~1\AppData\Local\Temp\cce8FrJG.s 			page 107


 4704 003c 0A       		.byte	0xa
 4705 003d B004     		.2byte	0x4b0
 4706 003f 1E       		.byte	0x1e
 4707 0040 03       		.byte	0x3
 4708 0041 00000000 		.4byte	StripLights_ledArray
 4709 0045 22       		.byte	0x22
 4710 0046 2A000000 		.4byte	.LVL4
 4711 004a 3A000000 		.4byte	.LVL6
 4712 004e 0100     		.2byte	0x1
 4713 0050 53       		.byte	0x53
 4714 0051 3A000000 		.4byte	.LVL6
 4715 0055 3C000000 		.4byte	.LVL7
 4716 0059 0100     		.2byte	0x1
 4717 005b 54       		.byte	0x54
 4718 005c 3C000000 		.4byte	.LVL7
 4719 0060 42000000 		.4byte	.LVL8
 4720 0064 0500     		.2byte	0x5
 4721 0066 73       		.byte	0x73
 4722 0067 00       		.sleb128 0
 4723 0068 38       		.byte	0x38
 4724 0069 25       		.byte	0x25
 4725 006a 9F       		.byte	0x9f
 4726 006b 42000000 		.4byte	.LVL8
 4727 006f 44000000 		.4byte	.LVL9
 4728 0073 0100     		.2byte	0x1
 4729 0075 53       		.byte	0x53
 4730 0076 00000000 		.4byte	0
 4731 007a 00000000 		.4byte	0
 4732              	.LLST2:
 4733 007e 00000000 		.4byte	.LVL10
 4734 0082 0D000000 		.4byte	.LVL12-1
 4735 0086 0100     		.2byte	0x1
 4736 0088 50       		.byte	0x50
 4737 0089 0D000000 		.4byte	.LVL12-1
 4738 008d 4E000000 		.4byte	.LVL22
 4739 0091 0100     		.2byte	0x1
 4740 0093 55       		.byte	0x55
 4741 0094 4E000000 		.4byte	.LVL22
 4742 0098 54000000 		.4byte	.LFE34
 4743 009c 0400     		.2byte	0x4
 4744 009e F3       		.byte	0xf3
 4745 009f 01       		.uleb128 0x1
 4746 00a0 50       		.byte	0x50
 4747 00a1 9F       		.byte	0x9f
 4748 00a2 00000000 		.4byte	0
 4749 00a6 00000000 		.4byte	0
 4750              	.LLST3:
 4751 00aa 04000000 		.4byte	.LVL11
 4752 00ae 18000000 		.4byte	.LVL14
 4753 00b2 0200     		.2byte	0x2
 4754 00b4 30       		.byte	0x30
 4755 00b5 9F       		.byte	0x9f
 4756 00b6 18000000 		.4byte	.LVL14
 4757 00ba 4E000000 		.4byte	.LVL21
 4758 00be 0100     		.2byte	0x1
 4759 00c0 54       		.byte	0x54
 4760 00c1 00000000 		.4byte	0
ARM GAS  C:\Users\JAMESS~1\AppData\Local\Temp\cce8FrJG.s 			page 108


 4761 00c5 00000000 		.4byte	0
 4762              	.LLST4:
 4763 00c9 00000000 		.4byte	.LVL23
 4764 00cd 0D000000 		.4byte	.LVL24-1
 4765 00d1 0100     		.2byte	0x1
 4766 00d3 50       		.byte	0x50
 4767 00d4 0D000000 		.4byte	.LVL24-1
 4768 00d8 26000000 		.4byte	.LVL28
 4769 00dc 0100     		.2byte	0x1
 4770 00de 54       		.byte	0x54
 4771 00df 26000000 		.4byte	.LVL28
 4772 00e3 2C000000 		.4byte	.LFE35
 4773 00e7 0400     		.2byte	0x4
 4774 00e9 F3       		.byte	0xf3
 4775 00ea 01       		.uleb128 0x1
 4776 00eb 50       		.byte	0x50
 4777 00ec 9F       		.byte	0x9f
 4778 00ed 00000000 		.4byte	0
 4779 00f1 00000000 		.4byte	0
 4780              	.LLST5:
 4781 00f5 00000000 		.4byte	.LVL29
 4782 00f9 02000000 		.4byte	.LVL30
 4783 00fd 0100     		.2byte	0x1
 4784 00ff 50       		.byte	0x50
 4785 0100 02000000 		.4byte	.LVL30
 4786 0104 06000000 		.4byte	.LVL31
 4787 0108 0400     		.2byte	0x4
 4788 010a F3       		.byte	0xf3
 4789 010b 01       		.uleb128 0x1
 4790 010c 50       		.byte	0x50
 4791 010d 9F       		.byte	0x9f
 4792 010e 06000000 		.4byte	.LVL31
 4793 0112 0C000000 		.4byte	.LFE39
 4794 0116 0100     		.2byte	0x1
 4795 0118 50       		.byte	0x50
 4796 0119 00000000 		.4byte	0
 4797 011d 00000000 		.4byte	0
 4798              	.LLST6:
 4799 0121 00000000 		.4byte	.LVL32
 4800 0125 0A000000 		.4byte	.LVL33
 4801 0129 0100     		.2byte	0x1
 4802 012b 50       		.byte	0x50
 4803 012c 0A000000 		.4byte	.LVL33
 4804 0130 24000000 		.4byte	.LFE40
 4805 0134 0400     		.2byte	0x4
 4806 0136 F3       		.byte	0xf3
 4807 0137 01       		.uleb128 0x1
 4808 0138 50       		.byte	0x50
 4809 0139 9F       		.byte	0x9f
 4810 013a 00000000 		.4byte	0
 4811 013e 00000000 		.4byte	0
 4812              	.LLST7:
 4813 0142 02000000 		.4byte	.LVL37
 4814 0146 06000000 		.4byte	.LVL38
 4815 014a 0200     		.2byte	0x2
 4816 014c 30       		.byte	0x30
 4817 014d 9F       		.byte	0x9f
ARM GAS  C:\Users\JAMESS~1\AppData\Local\Temp\cce8FrJG.s 			page 109


 4818 014e 06000000 		.4byte	.LVL38
 4819 0152 28000000 		.4byte	.LVL43
 4820 0156 0100     		.2byte	0x1
 4821 0158 54       		.byte	0x54
 4822 0159 00000000 		.4byte	0
 4823 015d 00000000 		.4byte	0
 4824              	.LLST8:
 4825 0161 06000000 		.4byte	.LVL38
 4826 0165 18000000 		.4byte	.LVL40
 4827 0169 0100     		.2byte	0x1
 4828 016b 52       		.byte	0x52
 4829 016c 1A000000 		.4byte	.LVL41
 4830 0170 24000000 		.4byte	.LVL42
 4831 0174 0100     		.2byte	0x1
 4832 0176 52       		.byte	0x52
 4833 0177 00000000 		.4byte	0
 4834 017b 00000000 		.4byte	0
 4835              	.LLST9:
 4836 017f 00000000 		.4byte	.LVL44
 4837 0183 05000000 		.4byte	.LVL45-1
 4838 0187 0100     		.2byte	0x1
 4839 0189 50       		.byte	0x50
 4840 018a 05000000 		.4byte	.LVL45-1
 4841 018e 0E000000 		.4byte	.LFE43
 4842 0192 0400     		.2byte	0x4
 4843 0194 F3       		.byte	0xf3
 4844 0195 01       		.uleb128 0x1
 4845 0196 50       		.byte	0x50
 4846 0197 9F       		.byte	0x9f
 4847 0198 00000000 		.4byte	0
 4848 019c 00000000 		.4byte	0
 4849              	.LLST10:
 4850 01a0 00000000 		.4byte	.LVL47
 4851 01a4 10000000 		.4byte	.LVL48
 4852 01a8 0100     		.2byte	0x1
 4853 01aa 50       		.byte	0x50
 4854 01ab 10000000 		.4byte	.LVL48
 4855 01af 12000000 		.4byte	.LVL49
 4856 01b3 0100     		.2byte	0x1
 4857 01b5 52       		.byte	0x52
 4858 01b6 12000000 		.4byte	.LVL49
 4859 01ba 16000000 		.4byte	.LVL50
 4860 01be 0500     		.2byte	0x5
 4861 01c0 70       		.byte	0x70
 4862 01c1 00       		.sleb128 0
 4863 01c2 38       		.byte	0x38
 4864 01c3 25       		.byte	0x25
 4865 01c4 9F       		.byte	0x9f
 4866 01c5 16000000 		.4byte	.LVL50
 4867 01c9 18000000 		.4byte	.LVL51
 4868 01cd 0100     		.2byte	0x1
 4869 01cf 50       		.byte	0x50
 4870 01d0 18000000 		.4byte	.LVL51
 4871 01d4 24000000 		.4byte	.LFE45
 4872 01d8 0600     		.2byte	0x6
 4873 01da F3       		.byte	0xf3
 4874 01db 01       		.uleb128 0x1
ARM GAS  C:\Users\JAMESS~1\AppData\Local\Temp\cce8FrJG.s 			page 110


 4875 01dc 50       		.byte	0x50
 4876 01dd 40       		.byte	0x40
 4877 01de 25       		.byte	0x25
 4878 01df 9F       		.byte	0x9f
 4879 01e0 00000000 		.4byte	0
 4880 01e4 00000000 		.4byte	0
 4881              	.LLST11:
 4882 01e8 00000000 		.4byte	.LVL52
 4883 01ec 18000000 		.4byte	.LVL54
 4884 01f0 0100     		.2byte	0x1
 4885 01f2 50       		.byte	0x50
 4886 01f3 18000000 		.4byte	.LVL54
 4887 01f7 1A000000 		.4byte	.LVL55
 4888 01fb 0100     		.2byte	0x1
 4889 01fd 50       		.byte	0x50
 4890 01fe 1A000000 		.4byte	.LVL55
 4891 0202 1C000000 		.4byte	.LVL56
 4892 0206 0700     		.2byte	0x7
 4893 0208 F3       		.byte	0xf3
 4894 0209 01       		.uleb128 0x1
 4895 020a 50       		.byte	0x50
 4896 020b 73       		.byte	0x73
 4897 020c 00       		.sleb128 0
 4898 020d 22       		.byte	0x22
 4899 020e 9F       		.byte	0x9f
 4900 020f 1C000000 		.4byte	.LVL56
 4901 0213 1E000000 		.4byte	.LVL57
 4902 0217 0900     		.2byte	0x9
 4903 0219 71       		.byte	0x71
 4904 021a 00       		.sleb128 0
 4905 021b 32       		.byte	0x32
 4906 021c 24       		.byte	0x24
 4907 021d F3       		.byte	0xf3
 4908 021e 01       		.uleb128 0x1
 4909 021f 50       		.byte	0x50
 4910 0220 22       		.byte	0x22
 4911 0221 9F       		.byte	0x9f
 4912 0222 00000000 		.4byte	0
 4913 0226 00000000 		.4byte	0
 4914              	.LLST12:
 4915 022a 00000000 		.4byte	.LVL52
 4916 022e 14000000 		.4byte	.LVL53
 4917 0232 0100     		.2byte	0x1
 4918 0234 51       		.byte	0x51
 4919 0235 14000000 		.4byte	.LVL53
 4920 0239 18000000 		.4byte	.LVL54
 4921 023d 0400     		.2byte	0x4
 4922 023f F3       		.byte	0xf3
 4923 0240 01       		.uleb128 0x1
 4924 0241 51       		.byte	0x51
 4925 0242 9F       		.byte	0x9f
 4926 0243 18000000 		.4byte	.LVL54
 4927 0247 1E000000 		.4byte	.LVL57
 4928 024b 0200     		.2byte	0x2
 4929 024d 30       		.byte	0x30
 4930 024e 9F       		.byte	0x9f
 4931 024f 00000000 		.4byte	0
ARM GAS  C:\Users\JAMESS~1\AppData\Local\Temp\cce8FrJG.s 			page 111


 4932 0253 00000000 		.4byte	0
 4933              	.LLST13:
 4934 0257 00000000 		.4byte	.LVL58
 4935 025b 1C000000 		.4byte	.LVL60
 4936 025f 0100     		.2byte	0x1
 4937 0261 50       		.byte	0x50
 4938 0262 1C000000 		.4byte	.LVL60
 4939 0266 1E000000 		.4byte	.LVL61
 4940 026a 0100     		.2byte	0x1
 4941 026c 50       		.byte	0x50
 4942 026d 1E000000 		.4byte	.LVL61
 4943 0271 20000000 		.4byte	.LVL62
 4944 0275 0700     		.2byte	0x7
 4945 0277 F3       		.byte	0xf3
 4946 0278 01       		.uleb128 0x1
 4947 0279 50       		.byte	0x50
 4948 027a 73       		.byte	0x73
 4949 027b 00       		.sleb128 0
 4950 027c 22       		.byte	0x22
 4951 027d 9F       		.byte	0x9f
 4952 027e 20000000 		.4byte	.LVL62
 4953 0282 24000000 		.4byte	.LVL64
 4954 0286 0900     		.2byte	0x9
 4955 0288 71       		.byte	0x71
 4956 0289 00       		.sleb128 0
 4957 028a 32       		.byte	0x32
 4958 028b 24       		.byte	0x24
 4959 028c F3       		.byte	0xf3
 4960 028d 01       		.uleb128 0x1
 4961 028e 50       		.byte	0x50
 4962 028f 22       		.byte	0x22
 4963 0290 9F       		.byte	0x9f
 4964 0291 24000000 		.4byte	.LVL64
 4965 0295 26000000 		.4byte	.LVL65
 4966 0299 0100     		.2byte	0x1
 4967 029b 50       		.byte	0x50
 4968 029c 26000000 		.4byte	.LVL65
 4969 02a0 28000000 		.4byte	.LVL66
 4970 02a4 0400     		.2byte	0x4
 4971 02a6 F3       		.byte	0xf3
 4972 02a7 01       		.uleb128 0x1
 4973 02a8 50       		.byte	0x50
 4974 02a9 9F       		.byte	0x9f
 4975 02aa 28000000 		.4byte	.LVL66
 4976 02ae 2A000000 		.4byte	.LVL67
 4977 02b2 0100     		.2byte	0x1
 4978 02b4 50       		.byte	0x50
 4979 02b5 2A000000 		.4byte	.LVL67
 4980 02b9 2C000000 		.4byte	.LVL68
 4981 02bd 0400     		.2byte	0x4
 4982 02bf F3       		.byte	0xf3
 4983 02c0 01       		.uleb128 0x1
 4984 02c1 50       		.byte	0x50
 4985 02c2 9F       		.byte	0x9f
 4986 02c3 2C000000 		.4byte	.LVL68
 4987 02c7 2E000000 		.4byte	.LVL69
 4988 02cb 0100     		.2byte	0x1
ARM GAS  C:\Users\JAMESS~1\AppData\Local\Temp\cce8FrJG.s 			page 112


 4989 02cd 50       		.byte	0x50
 4990 02ce 2E000000 		.4byte	.LVL69
 4991 02d2 30000000 		.4byte	.LVL70
 4992 02d6 0400     		.2byte	0x4
 4993 02d8 F3       		.byte	0xf3
 4994 02d9 01       		.uleb128 0x1
 4995 02da 50       		.byte	0x50
 4996 02db 9F       		.byte	0x9f
 4997 02dc 30000000 		.4byte	.LVL70
 4998 02e0 32000000 		.4byte	.LVL71
 4999 02e4 0100     		.2byte	0x1
 5000 02e6 50       		.byte	0x50
 5001 02e7 00000000 		.4byte	0
 5002 02eb 00000000 		.4byte	0
 5003              	.LLST14:
 5004 02ef 00000000 		.4byte	.LVL58
 5005 02f3 18000000 		.4byte	.LVL59
 5006 02f7 0100     		.2byte	0x1
 5007 02f9 51       		.byte	0x51
 5008 02fa 18000000 		.4byte	.LVL59
 5009 02fe 1C000000 		.4byte	.LVL60
 5010 0302 0400     		.2byte	0x4
 5011 0304 F3       		.byte	0xf3
 5012 0305 01       		.uleb128 0x1
 5013 0306 51       		.byte	0x51
 5014 0307 9F       		.byte	0x9f
 5015 0308 1C000000 		.4byte	.LVL60
 5016 030c 24000000 		.4byte	.LVL64
 5017 0310 0200     		.2byte	0x2
 5018 0312 30       		.byte	0x30
 5019 0313 9F       		.byte	0x9f
 5020 0314 24000000 		.4byte	.LVL64
 5021 0318 32000000 		.4byte	.LVL71
 5022 031c 0100     		.2byte	0x1
 5023 031e 51       		.byte	0x51
 5024 031f 00000000 		.4byte	0
 5025 0323 00000000 		.4byte	0
 5026              	.LLST15:
 5027 0327 00000000 		.4byte	.LVL58
 5028 032b 22000000 		.4byte	.LVL63
 5029 032f 0200     		.2byte	0x2
 5030 0331 30       		.byte	0x30
 5031 0332 9F       		.byte	0x9f
 5032 0333 22000000 		.4byte	.LVL63
 5033 0337 24000000 		.4byte	.LVL64
 5034 033b 0100     		.2byte	0x1
 5035 033d 50       		.byte	0x50
 5036 033e 24000000 		.4byte	.LVL64
 5037 0342 32000000 		.4byte	.LVL71
 5038 0346 0200     		.2byte	0x2
 5039 0348 30       		.byte	0x30
 5040 0349 9F       		.byte	0x9f
 5041 034a 32000000 		.4byte	.LVL71
 5042 034e 38000000 		.4byte	.LFE47
 5043 0352 0100     		.2byte	0x1
 5044 0354 50       		.byte	0x50
 5045 0355 00000000 		.4byte	0
ARM GAS  C:\Users\JAMESS~1\AppData\Local\Temp\cce8FrJG.s 			page 113


 5046 0359 00000000 		.4byte	0
 5047              	.LLST16:
 5048 035d 00000000 		.4byte	.LVL72
 5049 0361 2D000000 		.4byte	.LVL80-1
 5050 0365 0100     		.2byte	0x1
 5051 0367 50       		.byte	0x50
 5052 0368 2D000000 		.4byte	.LVL80-1
 5053 036c F0000000 		.4byte	.LVL108
 5054 0370 0100     		.2byte	0x1
 5055 0372 5B       		.byte	0x5b
 5056 0373 F0000000 		.4byte	.LVL108
 5057 0377 FC000000 		.4byte	.LFE48
 5058 037b 0400     		.2byte	0x4
 5059 037d F3       		.byte	0xf3
 5060 037e 01       		.uleb128 0x1
 5061 037f 50       		.byte	0x50
 5062 0380 9F       		.byte	0x9f
 5063 0381 00000000 		.4byte	0
 5064 0385 00000000 		.4byte	0
 5065              	.LLST17:
 5066 0389 00000000 		.4byte	.LVL72
 5067 038d 28000000 		.4byte	.LVL78
 5068 0391 0100     		.2byte	0x1
 5069 0393 51       		.byte	0x51
 5070 0394 28000000 		.4byte	.LVL78
 5071 0398 F0000000 		.4byte	.LVL105
 5072 039c 0100     		.2byte	0x1
 5073 039e 58       		.byte	0x58
 5074 039f F0000000 		.4byte	.LVL105
 5075 03a3 FC000000 		.4byte	.LFE48
 5076 03a7 0400     		.2byte	0x4
 5077 03a9 F3       		.byte	0xf3
 5078 03aa 01       		.uleb128 0x1
 5079 03ab 51       		.byte	0x51
 5080 03ac 9F       		.byte	0x9f
 5081 03ad 00000000 		.4byte	0
 5082 03b1 00000000 		.4byte	0
 5083              	.LLST18:
 5084 03b5 00000000 		.4byte	.LVL72
 5085 03b9 24000000 		.4byte	.LVL76
 5086 03bd 0100     		.2byte	0x1
 5087 03bf 52       		.byte	0x52
 5088 03c0 24000000 		.4byte	.LVL76
 5089 03c4 58000000 		.4byte	.LVL84
 5090 03c8 0100     		.2byte	0x1
 5091 03ca 54       		.byte	0x54
 5092 03cb 58000000 		.4byte	.LVL84
 5093 03cf FC000000 		.4byte	.LFE48
 5094 03d3 0400     		.2byte	0x4
 5095 03d5 F3       		.byte	0xf3
 5096 03d6 01       		.uleb128 0x1
 5097 03d7 52       		.byte	0x52
 5098 03d8 9F       		.byte	0x9f
 5099 03d9 00000000 		.4byte	0
 5100 03dd 00000000 		.4byte	0
 5101              	.LLST19:
 5102 03e1 00000000 		.4byte	.LVL72
ARM GAS  C:\Users\JAMESS~1\AppData\Local\Temp\cce8FrJG.s 			page 114


 5103 03e5 1A000000 		.4byte	.LVL73
 5104 03e9 0100     		.2byte	0x1
 5105 03eb 53       		.byte	0x53
 5106 03ec 1A000000 		.4byte	.LVL73
 5107 03f0 58000000 		.4byte	.LVL84
 5108 03f4 0100     		.2byte	0x1
 5109 03f6 55       		.byte	0x55
 5110 03f7 58000000 		.4byte	.LVL84
 5111 03fb FC000000 		.4byte	.LFE48
 5112 03ff 0200     		.2byte	0x2
 5113 0401 91       		.byte	0x91
 5114 0402 4C       		.sleb128 -52
 5115 0403 00000000 		.4byte	0
 5116 0407 00000000 		.4byte	0
 5117              	.LLST20:
 5118 040b 1E000000 		.4byte	.LVL74
 5119 040f 20000000 		.4byte	.LVL75
 5120 0413 0100     		.2byte	0x1
 5121 0415 53       		.byte	0x53
 5122 0416 20000000 		.4byte	.LVL75
 5123 041a 5E000000 		.4byte	.LVL85
 5124 041e 0100     		.2byte	0x1
 5125 0420 59       		.byte	0x59
 5126 0421 5E000000 		.4byte	.LVL85
 5127 0425 62000000 		.4byte	.LVL87
 5128 0429 0100     		.2byte	0x1
 5129 042b 52       		.byte	0x52
 5130 042c 62000000 		.4byte	.LVL87
 5131 0430 F0000000 		.4byte	.LVL106
 5132 0434 0100     		.2byte	0x1
 5133 0436 59       		.byte	0x59
 5134 0437 00000000 		.4byte	0
 5135 043b 00000000 		.4byte	0
 5136              	.LLST21:
 5137 043f 1E000000 		.4byte	.LVL74
 5138 0443 58000000 		.4byte	.LVL84
 5139 0447 0200     		.2byte	0x2
 5140 0449 30       		.byte	0x30
 5141 044a 9F       		.byte	0x9f
 5142 044b 58000000 		.4byte	.LVL84
 5143 044f 6E000000 		.4byte	.LVL91
 5144 0453 0100     		.2byte	0x1
 5145 0455 53       		.byte	0x53
 5146 0456 6E000000 		.4byte	.LVL91
 5147 045a 7C000000 		.4byte	.LVL93
 5148 045e 0100     		.2byte	0x1
 5149 0460 52       		.byte	0x52
 5150 0461 7C000000 		.4byte	.LVL93
 5151 0465 EA000000 		.4byte	.LVL102
 5152 0469 0200     		.2byte	0x2
 5153 046b 91       		.byte	0x91
 5154 046c 50       		.sleb128 -48
 5155 046d EA000000 		.4byte	.LVL102
 5156 0471 FC000000 		.4byte	.LFE48
 5157 0475 0100     		.2byte	0x1
 5158 0477 53       		.byte	0x53
 5159 0478 00000000 		.4byte	0
ARM GAS  C:\Users\JAMESS~1\AppData\Local\Temp\cce8FrJG.s 			page 115


 5160 047c 00000000 		.4byte	0
 5161              	.LLST22:
 5162 0480 26000000 		.4byte	.LVL77
 5163 0484 2A000000 		.4byte	.LVL79
 5164 0488 0100     		.2byte	0x1
 5165 048a 52       		.byte	0x52
 5166 048b 2A000000 		.4byte	.LVL79
 5167 048f F0000000 		.4byte	.LVL107
 5168 0493 0100     		.2byte	0x1
 5169 0495 5A       		.byte	0x5a
 5170 0496 00000000 		.4byte	0
 5171 049a 00000000 		.4byte	0
 5172              	.LLST23:
 5173 049e 26000000 		.4byte	.LVL77
 5174 04a2 58000000 		.4byte	.LVL84
 5175 04a6 0200     		.2byte	0x2
 5176 04a8 30       		.byte	0x30
 5177 04a9 9F       		.byte	0x9f
 5178 04aa 58000000 		.4byte	.LVL84
 5179 04ae F0000000 		.4byte	.LVL104
 5180 04b2 0100     		.2byte	0x1
 5181 04b4 56       		.byte	0x56
 5182 04b5 00000000 		.4byte	0
 5183 04b9 00000000 		.4byte	0
 5184              	.LLST24:
 5185 04bd 26000000 		.4byte	.LVL77
 5186 04c1 F0000000 		.4byte	.LVL103
 5187 04c5 0100     		.2byte	0x1
 5188 04c7 54       		.byte	0x54
 5189 04c8 00000000 		.4byte	0
 5190 04cc 00000000 		.4byte	0
 5191              	.LLST25:
 5192 04d0 00000000 		.4byte	.LVL109
 5193 04d4 4A000000 		.4byte	.LVL124
 5194 04d8 0100     		.2byte	0x1
 5195 04da 50       		.byte	0x50
 5196 04db 4A000000 		.4byte	.LVL124
 5197 04df 9E000000 		.4byte	.LVL140
 5198 04e3 0100     		.2byte	0x1
 5199 04e5 54       		.byte	0x54
 5200 04e6 00000000 		.4byte	0
 5201 04ea 00000000 		.4byte	0
 5202              	.LLST26:
 5203 04ee 00000000 		.4byte	.LVL109
 5204 04f2 48000000 		.4byte	.LVL123
 5205 04f6 0100     		.2byte	0x1
 5206 04f8 51       		.byte	0x51
 5207 04f9 48000000 		.4byte	.LVL123
 5208 04fd 9E000000 		.4byte	.LVL141
 5209 0501 0100     		.2byte	0x1
 5210 0503 55       		.byte	0x55
 5211 0504 00000000 		.4byte	0
 5212 0508 00000000 		.4byte	0
 5213              	.LLST27:
 5214 050c 00000000 		.4byte	.LVL109
 5215 0510 22000000 		.4byte	.LVL113
 5216 0514 0100     		.2byte	0x1
ARM GAS  C:\Users\JAMESS~1\AppData\Local\Temp\cce8FrJG.s 			page 116


 5217 0516 52       		.byte	0x52
 5218 0517 22000000 		.4byte	.LVL113
 5219 051b 28000000 		.4byte	.LVL114
 5220 051f 0200     		.2byte	0x2
 5221 0521 91       		.byte	0x91
 5222 0522 54       		.sleb128 -44
 5223 0523 28000000 		.4byte	.LVL114
 5224 0527 2A000000 		.4byte	.LVL115
 5225 052b 0100     		.2byte	0x1
 5226 052d 52       		.byte	0x52
 5227 052e 2A000000 		.4byte	.LVL115
 5228 0532 AA000000 		.4byte	.LFE49
 5229 0536 0200     		.2byte	0x2
 5230 0538 91       		.byte	0x91
 5231 0539 54       		.sleb128 -44
 5232 053a 00000000 		.4byte	0
 5233 053e 00000000 		.4byte	0
 5234              	.LLST28:
 5235 0542 00000000 		.4byte	.LVL109
 5236 0546 18000000 		.4byte	.LVL110
 5237 054a 0100     		.2byte	0x1
 5238 054c 53       		.byte	0x53
 5239 054d 18000000 		.4byte	.LVL110
 5240 0551 9E000000 		.4byte	.LVL146
 5241 0555 0100     		.2byte	0x1
 5242 0557 5B       		.byte	0x5b
 5243 0558 9E000000 		.4byte	.LVL146
 5244 055c AA000000 		.4byte	.LFE49
 5245 0560 0400     		.2byte	0x4
 5246 0562 F3       		.byte	0xf3
 5247 0563 01       		.uleb128 0x1
 5248 0564 53       		.byte	0x53
 5249 0565 9F       		.byte	0x9f
 5250 0566 00000000 		.4byte	0
 5251 056a 00000000 		.4byte	0
 5252              	.LLST29:
 5253 056e 18000000 		.4byte	.LVL110
 5254 0572 40000000 		.4byte	.LVL120
 5255 0576 0100     		.2byte	0x1
 5256 0578 53       		.byte	0x53
 5257 0579 42000000 		.4byte	.LVL121
 5258 057d 4D000000 		.4byte	.LVL125-1
 5259 0581 0100     		.2byte	0x1
 5260 0583 53       		.byte	0x53
 5261 0584 4D000000 		.4byte	.LVL125-1
 5262 0588 9E000000 		.4byte	.LVL143
 5263 058c 0100     		.2byte	0x1
 5264 058e 58       		.byte	0x58
 5265 058f 00000000 		.4byte	0
 5266 0593 00000000 		.4byte	0
 5267              	.LLST30:
 5268 0597 1A000000 		.4byte	.LVL111
 5269 059b 9E000000 		.4byte	.LVL142
 5270 059f 0100     		.2byte	0x1
 5271 05a1 57       		.byte	0x57
 5272 05a2 00000000 		.4byte	0
 5273 05a6 00000000 		.4byte	0
ARM GAS  C:\Users\JAMESS~1\AppData\Local\Temp\cce8FrJG.s 			page 117


 5274              	.LLST31:
 5275 05aa 32000000 		.4byte	.LVL117
 5276 05ae 3A000000 		.4byte	.LVL118
 5277 05b2 0300     		.2byte	0x3
 5278 05b4 09       		.byte	0x9
 5279 05b5 FF       		.byte	0xff
 5280 05b6 9F       		.byte	0x9f
 5281 05b7 3E000000 		.4byte	.LVL119
 5282 05bb 9E000000 		.4byte	.LVL144
 5283 05bf 0100     		.2byte	0x1
 5284 05c1 59       		.byte	0x59
 5285 05c2 00000000 		.4byte	0
 5286 05c6 00000000 		.4byte	0
 5287              	.LLST32:
 5288 05ca 20000000 		.4byte	.LVL112
 5289 05ce 28000000 		.4byte	.LVL114
 5290 05d2 0300     		.2byte	0x3
 5291 05d4 09       		.byte	0x9
 5292 05d5 FF       		.byte	0xff
 5293 05d6 9F       		.byte	0x9f
 5294 05d7 2C000000 		.4byte	.LVL116
 5295 05db 9E000000 		.4byte	.LVL145
 5296 05df 0100     		.2byte	0x1
 5297 05e1 5A       		.byte	0x5a
 5298 05e2 00000000 		.4byte	0
 5299 05e6 00000000 		.4byte	0
 5300              	.LLST33:
 5301 05ea 58000000 		.4byte	.LVL126
 5302 05ee 78000000 		.4byte	.LVL132
 5303 05f2 0100     		.2byte	0x1
 5304 05f4 56       		.byte	0x56
 5305 05f5 00000000 		.4byte	0
 5306 05f9 00000000 		.4byte	0
 5307              	.LLST34:
 5308 05fd 7E000000 		.4byte	.LVL133
 5309 0601 9C000000 		.4byte	.LVL139
 5310 0605 0100     		.2byte	0x1
 5311 0607 56       		.byte	0x56
 5312 0608 00000000 		.4byte	0
 5313 060c 00000000 		.4byte	0
 5314              	.LLST35:
 5315 0610 00000000 		.4byte	.LVL147
 5316 0614 20000000 		.4byte	.LVL152
 5317 0618 0100     		.2byte	0x1
 5318 061a 50       		.byte	0x50
 5319 061b 20000000 		.4byte	.LVL152
 5320 061f 40000000 		.4byte	.LVL157
 5321 0623 0100     		.2byte	0x1
 5322 0625 54       		.byte	0x54
 5323 0626 40000000 		.4byte	.LVL157
 5324 062a 4B000000 		.4byte	.LVL159-1
 5325 062e 0100     		.2byte	0x1
 5326 0630 50       		.byte	0x50
 5327 0631 4B000000 		.4byte	.LVL159-1
 5328 0635 78000000 		.4byte	.LVL163
 5329 0639 0100     		.2byte	0x1
 5330 063b 54       		.byte	0x54
ARM GAS  C:\Users\JAMESS~1\AppData\Local\Temp\cce8FrJG.s 			page 118


 5331 063c 00000000 		.4byte	0
 5332 0640 00000000 		.4byte	0
 5333              	.LLST36:
 5334 0644 00000000 		.4byte	.LVL147
 5335 0648 20000000 		.4byte	.LVL152
 5336 064c 0100     		.2byte	0x1
 5337 064e 51       		.byte	0x51
 5338 064f 20000000 		.4byte	.LVL152
 5339 0653 40000000 		.4byte	.LVL157
 5340 0657 0200     		.2byte	0x2
 5341 0659 91       		.byte	0x91
 5342 065a 64       		.sleb128 -28
 5343 065b 40000000 		.4byte	.LVL157
 5344 065f 48000000 		.4byte	.LVL158
 5345 0663 0100     		.2byte	0x1
 5346 0665 51       		.byte	0x51
 5347 0666 48000000 		.4byte	.LVL158
 5348 066a 7A000000 		.4byte	.LFE50
 5349 066e 0200     		.2byte	0x2
 5350 0670 91       		.byte	0x91
 5351 0671 64       		.sleb128 -28
 5352 0672 00000000 		.4byte	0
 5353 0676 00000000 		.4byte	0
 5354              	.LLST37:
 5355 067a 00000000 		.4byte	.LVL147
 5356 067e 20000000 		.4byte	.LVL152
 5357 0682 0100     		.2byte	0x1
 5358 0684 52       		.byte	0x52
 5359 0685 20000000 		.4byte	.LVL152
 5360 0689 40000000 		.4byte	.LVL157
 5361 068d 0100     		.2byte	0x1
 5362 068f 56       		.byte	0x56
 5363 0690 40000000 		.4byte	.LVL157
 5364 0694 4B000000 		.4byte	.LVL159-1
 5365 0698 0100     		.2byte	0x1
 5366 069a 52       		.byte	0x52
 5367 069b 4B000000 		.4byte	.LVL159-1
 5368 069f 78000000 		.4byte	.LVL164
 5369 06a3 0100     		.2byte	0x1
 5370 06a5 56       		.byte	0x56
 5371 06a6 78000000 		.4byte	.LVL164
 5372 06aa 7A000000 		.4byte	.LFE50
 5373 06ae 0400     		.2byte	0x4
 5374 06b0 F3       		.byte	0xf3
 5375 06b1 01       		.uleb128 0x1
 5376 06b2 52       		.byte	0x52
 5377 06b3 9F       		.byte	0x9f
 5378 06b4 00000000 		.4byte	0
 5379 06b8 00000000 		.4byte	0
 5380              	.LLST38:
 5381 06bc 00000000 		.4byte	.LVL147
 5382 06c0 10000000 		.4byte	.LVL148
 5383 06c4 0100     		.2byte	0x1
 5384 06c6 53       		.byte	0x53
 5385 06c7 10000000 		.4byte	.LVL148
 5386 06cb 7A000000 		.4byte	.LFE50
 5387 06cf 0200     		.2byte	0x2
ARM GAS  C:\Users\JAMESS~1\AppData\Local\Temp\cce8FrJG.s 			page 119


 5388 06d1 91       		.byte	0x91
 5389 06d2 60       		.sleb128 -32
 5390 06d3 00000000 		.4byte	0
 5391 06d7 00000000 		.4byte	0
 5392              	.LLST39:
 5393 06db 1A000000 		.4byte	.LVL149
 5394 06df 1C000000 		.4byte	.LVL150
 5395 06e3 0100     		.2byte	0x1
 5396 06e5 55       		.byte	0x55
 5397 06e6 1E000000 		.4byte	.LVL151
 5398 06ea 40000000 		.4byte	.LVL157
 5399 06ee 0100     		.2byte	0x1
 5400 06f0 55       		.byte	0x55
 5401 06f1 00000000 		.4byte	0
 5402 06f5 00000000 		.4byte	0
 5403              	.LLST40:
 5404 06f9 00000000 		.4byte	.LVL174
 5405 06fd 20000000 		.4byte	.LVL179
 5406 0701 0100     		.2byte	0x1
 5407 0703 50       		.byte	0x50
 5408 0704 20000000 		.4byte	.LVL179
 5409 0708 5A000000 		.4byte	.LFE52
 5410 070c 0200     		.2byte	0x2
 5411 070e 91       		.byte	0x91
 5412 070f 5C       		.sleb128 -36
 5413 0710 00000000 		.4byte	0
 5414 0714 00000000 		.4byte	0
 5415              	.LLST41:
 5416 0718 00000000 		.4byte	.LVL174
 5417 071c 20000000 		.4byte	.LVL179
 5418 0720 0100     		.2byte	0x1
 5419 0722 51       		.byte	0x51
 5420 0723 20000000 		.4byte	.LVL179
 5421 0727 5A000000 		.4byte	.LFE52
 5422 072b 0400     		.2byte	0x4
 5423 072d F3       		.byte	0xf3
 5424 072e 01       		.uleb128 0x1
 5425 072f 51       		.byte	0x51
 5426 0730 9F       		.byte	0x9f
 5427 0731 00000000 		.4byte	0
 5428 0735 00000000 		.4byte	0
 5429              	.LLST42:
 5430 0739 00000000 		.4byte	.LVL174
 5431 073d 20000000 		.4byte	.LVL179
 5432 0741 0100     		.2byte	0x1
 5433 0743 52       		.byte	0x52
 5434 0744 20000000 		.4byte	.LVL179
 5435 0748 52000000 		.4byte	.LVL191
 5436 074c 0100     		.2byte	0x1
 5437 074e 57       		.byte	0x57
 5438 074f 52000000 		.4byte	.LVL191
 5439 0753 5A000000 		.4byte	.LFE52
 5440 0757 0400     		.2byte	0x4
 5441 0759 F3       		.byte	0xf3
 5442 075a 01       		.uleb128 0x1
 5443 075b 52       		.byte	0x52
 5444 075c 9F       		.byte	0x9f
ARM GAS  C:\Users\JAMESS~1\AppData\Local\Temp\cce8FrJG.s 			page 120


 5445 075d 00000000 		.4byte	0
 5446 0761 00000000 		.4byte	0
 5447              	.LLST43:
 5448 0765 00000000 		.4byte	.LVL174
 5449 0769 14000000 		.4byte	.LVL176
 5450 076d 0100     		.2byte	0x1
 5451 076f 53       		.byte	0x53
 5452 0770 14000000 		.4byte	.LVL176
 5453 0774 4A000000 		.4byte	.LVL187
 5454 0778 0100     		.2byte	0x1
 5455 077a 5B       		.byte	0x5b
 5456 077b 4A000000 		.4byte	.LVL187
 5457 077f 4F000000 		.4byte	.LVL188-1
 5458 0783 0100     		.2byte	0x1
 5459 0785 53       		.byte	0x53
 5460 0786 4F000000 		.4byte	.LVL188-1
 5461 078a 52000000 		.4byte	.LVL193
 5462 078e 0100     		.2byte	0x1
 5463 0790 5B       		.byte	0x5b
 5464 0791 52000000 		.4byte	.LVL193
 5465 0795 5A000000 		.4byte	.LFE52
 5466 0799 0400     		.2byte	0x4
 5467 079b F3       		.byte	0xf3
 5468 079c 01       		.uleb128 0x1
 5469 079d 53       		.byte	0x53
 5470 079e 9F       		.byte	0x9f
 5471 079f 00000000 		.4byte	0
 5472 07a3 00000000 		.4byte	0
 5473              	.LLST44:
 5474 07a7 20000000 		.4byte	.LVL179
 5475 07ab 32000000 		.4byte	.LVL183
 5476 07af 0100     		.2byte	0x1
 5477 07b1 54       		.byte	0x54
 5478 07b2 34000000 		.4byte	.LVL184
 5479 07b6 3E000000 		.4byte	.LVL185
 5480 07ba 0100     		.2byte	0x1
 5481 07bc 54       		.byte	0x54
 5482 07bd 00000000 		.4byte	0
 5483 07c1 00000000 		.4byte	0
 5484              	.LLST45:
 5485 07c5 1C000000 		.4byte	.LVL178
 5486 07c9 20000000 		.4byte	.LVL179
 5487 07cd 0100     		.2byte	0x1
 5488 07cf 51       		.byte	0x51
 5489 07d0 20000000 		.4byte	.LVL179
 5490 07d4 32000000 		.4byte	.LVL183
 5491 07d8 0200     		.2byte	0x2
 5492 07da 7D       		.byte	0x7d
 5493 07db 00       		.sleb128 0
 5494 07dc 32000000 		.4byte	.LVL183
 5495 07e0 34000000 		.4byte	.LVL184
 5496 07e4 0100     		.2byte	0x1
 5497 07e6 52       		.byte	0x52
 5498 07e7 34000000 		.4byte	.LVL184
 5499 07eb 52000000 		.4byte	.LVL189
 5500 07ef 0200     		.2byte	0x2
 5501 07f1 7D       		.byte	0x7d
ARM GAS  C:\Users\JAMESS~1\AppData\Local\Temp\cce8FrJG.s 			page 121


 5502 07f2 00       		.sleb128 0
 5503 07f3 52000000 		.4byte	.LVL189
 5504 07f7 5A000000 		.4byte	.LFE52
 5505 07fb 0200     		.2byte	0x2
 5506 07fd 91       		.byte	0x91
 5507 07fe 58       		.sleb128 -40
 5508 07ff 00000000 		.4byte	0
 5509 0803 00000000 		.4byte	0
 5510              	.LLST46:
 5511 0807 12000000 		.4byte	.LVL175
 5512 080b 16000000 		.4byte	.LVL177
 5513 080f 0200     		.2byte	0x2
 5514 0811 31       		.byte	0x31
 5515 0812 9F       		.byte	0x9f
 5516 0813 16000000 		.4byte	.LVL177
 5517 0817 20000000 		.4byte	.LVL179
 5518 081b 0200     		.2byte	0x2
 5519 081d 32       		.byte	0x32
 5520 081e 9F       		.byte	0x9f
 5521 081f 20000000 		.4byte	.LVL179
 5522 0823 22000000 		.4byte	.LVL180
 5523 0827 0100     		.2byte	0x1
 5524 0829 53       		.byte	0x53
 5525 082a 22000000 		.4byte	.LVL180
 5526 082e 32000000 		.4byte	.LVL183
 5527 0832 0100     		.2byte	0x1
 5528 0834 55       		.byte	0x55
 5529 0835 32000000 		.4byte	.LVL183
 5530 0839 46000000 		.4byte	.LVL186
 5531 083d 0100     		.2byte	0x1
 5532 083f 53       		.byte	0x53
 5533 0840 00000000 		.4byte	0
 5534 0844 00000000 		.4byte	0
 5535              	.LLST47:
 5536 0848 16000000 		.4byte	.LVL177
 5537 084c 52000000 		.4byte	.LVL190
 5538 0850 0100     		.2byte	0x1
 5539 0852 56       		.byte	0x56
 5540 0853 00000000 		.4byte	0
 5541 0857 00000000 		.4byte	0
 5542              	.LLST48:
 5543 085b 1C000000 		.4byte	.LVL178
 5544 085f 52000000 		.4byte	.LVL192
 5545 0863 0100     		.2byte	0x1
 5546 0865 58       		.byte	0x58
 5547 0866 00000000 		.4byte	0
 5548 086a 00000000 		.4byte	0
 5549              	.LLST49:
 5550 086e 00000000 		.4byte	.LVL194
 5551 0872 26000000 		.4byte	.LVL199
 5552 0876 0100     		.2byte	0x1
 5553 0878 50       		.byte	0x50
 5554 0879 26000000 		.4byte	.LVL199
 5555 087d 62000000 		.4byte	.LFE53
 5556 0881 0200     		.2byte	0x2
 5557 0883 91       		.byte	0x91
 5558 0884 5C       		.sleb128 -36
ARM GAS  C:\Users\JAMESS~1\AppData\Local\Temp\cce8FrJG.s 			page 122


 5559 0885 00000000 		.4byte	0
 5560 0889 00000000 		.4byte	0
 5561              	.LLST50:
 5562 088d 00000000 		.4byte	.LVL194
 5563 0891 26000000 		.4byte	.LVL199
 5564 0895 0100     		.2byte	0x1
 5565 0897 51       		.byte	0x51
 5566 0898 26000000 		.4byte	.LVL199
 5567 089c 62000000 		.4byte	.LFE53
 5568 08a0 0400     		.2byte	0x4
 5569 08a2 F3       		.byte	0xf3
 5570 08a3 01       		.uleb128 0x1
 5571 08a4 51       		.byte	0x51
 5572 08a5 9F       		.byte	0x9f
 5573 08a6 00000000 		.4byte	0
 5574 08aa 00000000 		.4byte	0
 5575              	.LLST51:
 5576 08ae 00000000 		.4byte	.LVL194
 5577 08b2 26000000 		.4byte	.LVL199
 5578 08b6 0100     		.2byte	0x1
 5579 08b8 52       		.byte	0x52
 5580 08b9 26000000 		.4byte	.LVL199
 5581 08bd 5A000000 		.4byte	.LVL211
 5582 08c1 0100     		.2byte	0x1
 5583 08c3 57       		.byte	0x57
 5584 08c4 5A000000 		.4byte	.LVL211
 5585 08c8 62000000 		.4byte	.LFE53
 5586 08cc 0400     		.2byte	0x4
 5587 08ce F3       		.byte	0xf3
 5588 08cf 01       		.uleb128 0x1
 5589 08d0 52       		.byte	0x52
 5590 08d1 9F       		.byte	0x9f
 5591 08d2 00000000 		.4byte	0
 5592 08d6 00000000 		.4byte	0
 5593              	.LLST52:
 5594 08da 00000000 		.4byte	.LVL194
 5595 08de 14000000 		.4byte	.LVL196
 5596 08e2 0100     		.2byte	0x1
 5597 08e4 53       		.byte	0x53
 5598 08e5 14000000 		.4byte	.LVL196
 5599 08e9 52000000 		.4byte	.LVL207
 5600 08ed 0100     		.2byte	0x1
 5601 08ef 5B       		.byte	0x5b
 5602 08f0 52000000 		.4byte	.LVL207
 5603 08f4 57000000 		.4byte	.LVL208-1
 5604 08f8 0100     		.2byte	0x1
 5605 08fa 53       		.byte	0x53
 5606 08fb 57000000 		.4byte	.LVL208-1
 5607 08ff 5A000000 		.4byte	.LVL213
 5608 0903 0100     		.2byte	0x1
 5609 0905 5B       		.byte	0x5b
 5610 0906 5A000000 		.4byte	.LVL213
 5611 090a 62000000 		.4byte	.LFE53
 5612 090e 0400     		.2byte	0x4
 5613 0910 F3       		.byte	0xf3
 5614 0911 01       		.uleb128 0x1
 5615 0912 53       		.byte	0x53
ARM GAS  C:\Users\JAMESS~1\AppData\Local\Temp\cce8FrJG.s 			page 123


 5616 0913 9F       		.byte	0x9f
 5617 0914 00000000 		.4byte	0
 5618 0918 00000000 		.4byte	0
 5619              	.LLST53:
 5620 091c 26000000 		.4byte	.LVL199
 5621 0920 3A000000 		.4byte	.LVL203
 5622 0924 0100     		.2byte	0x1
 5623 0926 54       		.byte	0x54
 5624 0927 3C000000 		.4byte	.LVL204
 5625 092b 46000000 		.4byte	.LVL205
 5626 092f 0100     		.2byte	0x1
 5627 0931 54       		.byte	0x54
 5628 0932 00000000 		.4byte	0
 5629 0936 00000000 		.4byte	0
 5630              	.LLST54:
 5631 093a 22000000 		.4byte	.LVL198
 5632 093e 26000000 		.4byte	.LVL199
 5633 0942 0100     		.2byte	0x1
 5634 0944 51       		.byte	0x51
 5635 0945 26000000 		.4byte	.LVL199
 5636 0949 3A000000 		.4byte	.LVL203
 5637 094d 0200     		.2byte	0x2
 5638 094f 7D       		.byte	0x7d
 5639 0950 00       		.sleb128 0
 5640 0951 3A000000 		.4byte	.LVL203
 5641 0955 3C000000 		.4byte	.LVL204
 5642 0959 0100     		.2byte	0x1
 5643 095b 52       		.byte	0x52
 5644 095c 3C000000 		.4byte	.LVL204
 5645 0960 5A000000 		.4byte	.LVL209
 5646 0964 0200     		.2byte	0x2
 5647 0966 7D       		.byte	0x7d
 5648 0967 00       		.sleb128 0
 5649 0968 5A000000 		.4byte	.LVL209
 5650 096c 62000000 		.4byte	.LFE53
 5651 0970 0200     		.2byte	0x2
 5652 0972 91       		.byte	0x91
 5653 0973 58       		.sleb128 -40
 5654 0974 00000000 		.4byte	0
 5655 0978 00000000 		.4byte	0
 5656              	.LLST55:
 5657 097c 12000000 		.4byte	.LVL195
 5658 0980 1A000000 		.4byte	.LVL197
 5659 0984 0200     		.2byte	0x2
 5660 0986 31       		.byte	0x31
 5661 0987 9F       		.byte	0x9f
 5662 0988 1A000000 		.4byte	.LVL197
 5663 098c 26000000 		.4byte	.LVL199
 5664 0990 0200     		.2byte	0x2
 5665 0992 32       		.byte	0x32
 5666 0993 9F       		.byte	0x9f
 5667 0994 26000000 		.4byte	.LVL199
 5668 0998 28000000 		.4byte	.LVL200
 5669 099c 0100     		.2byte	0x1
 5670 099e 53       		.byte	0x53
 5671 099f 28000000 		.4byte	.LVL200
 5672 09a3 3A000000 		.4byte	.LVL203
ARM GAS  C:\Users\JAMESS~1\AppData\Local\Temp\cce8FrJG.s 			page 124


 5673 09a7 0100     		.2byte	0x1
 5674 09a9 55       		.byte	0x55
 5675 09aa 3A000000 		.4byte	.LVL203
 5676 09ae 4E000000 		.4byte	.LVL206
 5677 09b2 0100     		.2byte	0x1
 5678 09b4 53       		.byte	0x53
 5679 09b5 00000000 		.4byte	0
 5680 09b9 00000000 		.4byte	0
 5681              	.LLST56:
 5682 09bd 1A000000 		.4byte	.LVL197
 5683 09c1 5A000000 		.4byte	.LVL210
 5684 09c5 0100     		.2byte	0x1
 5685 09c7 56       		.byte	0x56
 5686 09c8 00000000 		.4byte	0
 5687 09cc 00000000 		.4byte	0
 5688              	.LLST57:
 5689 09d0 22000000 		.4byte	.LVL198
 5690 09d4 5A000000 		.4byte	.LVL212
 5691 09d8 0100     		.2byte	0x1
 5692 09da 58       		.byte	0x58
 5693 09db 00000000 		.4byte	0
 5694 09df 00000000 		.4byte	0
 5695              	.LLST58:
 5696 09e3 00000000 		.4byte	.LVL214
 5697 09e7 14000000 		.4byte	.LVL216
 5698 09eb 0100     		.2byte	0x1
 5699 09ed 50       		.byte	0x50
 5700 09ee 14000000 		.4byte	.LVL216
 5701 09f2 5C000000 		.4byte	.LVL223
 5702 09f6 0100     		.2byte	0x1
 5703 09f8 54       		.byte	0x54
 5704 09f9 5C000000 		.4byte	.LVL223
 5705 09fd 74000000 		.4byte	.LFE54
 5706 0a01 0400     		.2byte	0x4
 5707 0a03 F3       		.byte	0xf3
 5708 0a04 01       		.uleb128 0x1
 5709 0a05 50       		.byte	0x50
 5710 0a06 9F       		.byte	0x9f
 5711 0a07 00000000 		.4byte	0
 5712 0a0b 00000000 		.4byte	0
 5713              	.LLST59:
 5714 0a0f 00000000 		.4byte	.LVL214
 5715 0a13 2A000000 		.4byte	.LVL218
 5716 0a17 0100     		.2byte	0x1
 5717 0a19 51       		.byte	0x51
 5718 0a1a 2A000000 		.4byte	.LVL218
 5719 0a1e 6C000000 		.4byte	.LVL226
 5720 0a22 0100     		.2byte	0x1
 5721 0a24 56       		.byte	0x56
 5722 0a25 6C000000 		.4byte	.LVL226
 5723 0a29 74000000 		.4byte	.LFE54
 5724 0a2d 0400     		.2byte	0x4
 5725 0a2f F3       		.byte	0xf3
 5726 0a30 01       		.uleb128 0x1
 5727 0a31 51       		.byte	0x51
 5728 0a32 9F       		.byte	0x9f
 5729 0a33 00000000 		.4byte	0
ARM GAS  C:\Users\JAMESS~1\AppData\Local\Temp\cce8FrJG.s 			page 125


 5730 0a37 00000000 		.4byte	0
 5731              	.LLST60:
 5732 0a3b 00000000 		.4byte	.LVL214
 5733 0a3f 24000000 		.4byte	.LVL217
 5734 0a43 0100     		.2byte	0x1
 5735 0a45 52       		.byte	0x52
 5736 0a46 24000000 		.4byte	.LVL217
 5737 0a4a 6C000000 		.4byte	.LVL227
 5738 0a4e 0100     		.2byte	0x1
 5739 0a50 59       		.byte	0x59
 5740 0a51 6C000000 		.4byte	.LVL227
 5741 0a55 74000000 		.4byte	.LFE54
 5742 0a59 0400     		.2byte	0x4
 5743 0a5b F3       		.byte	0xf3
 5744 0a5c 01       		.uleb128 0x1
 5745 0a5d 52       		.byte	0x52
 5746 0a5e 9F       		.byte	0x9f
 5747 0a5f 00000000 		.4byte	0
 5748 0a63 00000000 		.4byte	0
 5749              	.LLST61:
 5750 0a67 0E000000 		.4byte	.LVL215
 5751 0a6b 30000000 		.4byte	.LVL220
 5752 0a6f 0200     		.2byte	0x2
 5753 0a71 30       		.byte	0x30
 5754 0a72 9F       		.byte	0x9f
 5755 0a73 30000000 		.4byte	.LVL220
 5756 0a77 6C000000 		.4byte	.LVL225
 5757 0a7b 0100     		.2byte	0x1
 5758 0a7d 55       		.byte	0x55
 5759 0a7e 6C000000 		.4byte	.LVL225
 5760 0a82 74000000 		.4byte	.LFE54
 5761 0a86 0100     		.2byte	0x1
 5762 0a88 50       		.byte	0x50
 5763 0a89 00000000 		.4byte	0
 5764 0a8d 00000000 		.4byte	0
 5765              		.section	.debug_aranges,"",%progbits
 5766 0000 CC000000 		.4byte	0xcc
 5767 0004 0200     		.2byte	0x2
 5768 0006 00000000 		.4byte	.Ldebug_info0
 5769 000a 04       		.byte	0x4
 5770 000b 00       		.byte	0
 5771 000c 0000     		.2byte	0
 5772 000e 0000     		.2byte	0
 5773 0010 00000000 		.4byte	.LFB41
 5774 0014 74000000 		.4byte	.LFE41-.LFB41
 5775 0018 00000000 		.4byte	.LFB42
 5776 001c 8C000000 		.4byte	.LFE42-.LFB42
 5777 0020 00000000 		.4byte	.LFB33
 5778 0024 0C000000 		.4byte	.LFE33-.LFB33
 5779 0028 00000000 		.4byte	.LFB36
 5780 002c 80000000 		.4byte	.LFE36-.LFB36
 5781 0030 00000000 		.4byte	.LFB37
 5782 0034 1C000000 		.4byte	.LFE37-.LFB37
 5783 0038 00000000 		.4byte	.LFB34
 5784 003c 54000000 		.4byte	.LFE34-.LFB34
 5785 0040 00000000 		.4byte	.LFB35
 5786 0044 2C000000 		.4byte	.LFE35-.LFB35
ARM GAS  C:\Users\JAMESS~1\AppData\Local\Temp\cce8FrJG.s 			page 126


 5787 0048 00000000 		.4byte	.LFB38
 5788 004c 0C000000 		.4byte	.LFE38-.LFB38
 5789 0050 00000000 		.4byte	.LFB39
 5790 0054 0C000000 		.4byte	.LFE39-.LFB39
 5791 0058 00000000 		.4byte	.LFB40
 5792 005c 24000000 		.4byte	.LFE40-.LFB40
 5793 0060 00000000 		.4byte	.LFB44
 5794 0064 30000000 		.4byte	.LFE44-.LFB44
 5795 0068 00000000 		.4byte	.LFB43
 5796 006c 0E000000 		.4byte	.LFE43-.LFB43
 5797 0070 00000000 		.4byte	.LFB45
 5798 0074 24000000 		.4byte	.LFE45-.LFB45
 5799 0078 00000000 		.4byte	.LFB46
 5800 007c 24000000 		.4byte	.LFE46-.LFB46
 5801 0080 00000000 		.4byte	.LFB47
 5802 0084 38000000 		.4byte	.LFE47-.LFB47
 5803 0088 00000000 		.4byte	.LFB48
 5804 008c FC000000 		.4byte	.LFE48-.LFB48
 5805 0090 00000000 		.4byte	.LFB49
 5806 0094 AA000000 		.4byte	.LFE49-.LFB49
 5807 0098 00000000 		.4byte	.LFB50
 5808 009c 7A000000 		.4byte	.LFE50-.LFB50
 5809 00a0 00000000 		.4byte	.LFB51
 5810 00a4 78000000 		.4byte	.LFE51-.LFB51
 5811 00a8 00000000 		.4byte	.LFB32
 5812 00ac 8C000000 		.4byte	.LFE32-.LFB32
 5813 00b0 00000000 		.4byte	.LFB52
 5814 00b4 5A000000 		.4byte	.LFE52-.LFB52
 5815 00b8 00000000 		.4byte	.LFB53
 5816 00bc 62000000 		.4byte	.LFE53-.LFB53
 5817 00c0 00000000 		.4byte	.LFB54
 5818 00c4 74000000 		.4byte	.LFE54-.LFB54
 5819 00c8 00000000 		.4byte	0
 5820 00cc 00000000 		.4byte	0
 5821              		.section	.debug_ranges,"",%progbits
 5822              	.Ldebug_ranges0:
 5823 0000 00000000 		.4byte	.LFB41
 5824 0004 74000000 		.4byte	.LFE41
 5825 0008 00000000 		.4byte	.LFB42
 5826 000c 8C000000 		.4byte	.LFE42
 5827 0010 00000000 		.4byte	.LFB33
 5828 0014 0C000000 		.4byte	.LFE33
 5829 0018 00000000 		.4byte	.LFB36
 5830 001c 80000000 		.4byte	.LFE36
 5831 0020 00000000 		.4byte	.LFB37
 5832 0024 1C000000 		.4byte	.LFE37
 5833 0028 00000000 		.4byte	.LFB34
 5834 002c 54000000 		.4byte	.LFE34
 5835 0030 00000000 		.4byte	.LFB35
 5836 0034 2C000000 		.4byte	.LFE35
 5837 0038 00000000 		.4byte	.LFB38
 5838 003c 0C000000 		.4byte	.LFE38
 5839 0040 00000000 		.4byte	.LFB39
 5840 0044 0C000000 		.4byte	.LFE39
 5841 0048 00000000 		.4byte	.LFB40
 5842 004c 24000000 		.4byte	.LFE40
 5843 0050 00000000 		.4byte	.LFB44
ARM GAS  C:\Users\JAMESS~1\AppData\Local\Temp\cce8FrJG.s 			page 127


 5844 0054 30000000 		.4byte	.LFE44
 5845 0058 00000000 		.4byte	.LFB43
 5846 005c 0E000000 		.4byte	.LFE43
 5847 0060 00000000 		.4byte	.LFB45
 5848 0064 24000000 		.4byte	.LFE45
 5849 0068 00000000 		.4byte	.LFB46
 5850 006c 24000000 		.4byte	.LFE46
 5851 0070 00000000 		.4byte	.LFB47
 5852 0074 38000000 		.4byte	.LFE47
 5853 0078 00000000 		.4byte	.LFB48
 5854 007c FC000000 		.4byte	.LFE48
 5855 0080 00000000 		.4byte	.LFB49
 5856 0084 AA000000 		.4byte	.LFE49
 5857 0088 00000000 		.4byte	.LFB50
 5858 008c 7A000000 		.4byte	.LFE50
 5859 0090 00000000 		.4byte	.LFB51
 5860 0094 78000000 		.4byte	.LFE51
 5861 0098 00000000 		.4byte	.LFB32
 5862 009c 8C000000 		.4byte	.LFE32
 5863 00a0 00000000 		.4byte	.LFB52
 5864 00a4 5A000000 		.4byte	.LFE52
 5865 00a8 00000000 		.4byte	.LFB53
 5866 00ac 62000000 		.4byte	.LFE53
 5867 00b0 00000000 		.4byte	.LFB54
 5868 00b4 74000000 		.4byte	.LFE54
 5869 00b8 00000000 		.4byte	0
 5870 00bc 00000000 		.4byte	0
 5871              		.section	.debug_line,"",%progbits
 5872              	.Ldebug_line0:
 5873 0000 C5030000 		.section	.debug_str,"MS",%progbits,1
 5873      0200A700 
 5873      00000201 
 5873      FB0E0D00 
 5873      01010101 
 5874              	.LASF36:
 5875 0000 53747269 		.ascii	"StripLights_CLUT\000"
 5875      704C6967 
 5875      6874735F 
 5875      434C5554 
 5875      00
 5876              	.LASF27:
 5877 0011 45784372 		.ascii	"ExCriticalFunc\000"
 5877      69746963 
 5877      616C4675 
 5877      6E6300
 5878              	.LASF14:
 5879 0020 63686172 		.ascii	"char\000"
 5879      00
 5880              	.LASF42:
 5881 0025 53747269 		.ascii	"StripLights_GetPixel\000"
 5881      704C6967 
 5881      6874735F 
 5881      47657450 
 5881      6978656C 
 5882              	.LASF20:
 5883 003a 53747269 		.ascii	"StripLights_DimShift\000"
 5883      704C6967 
ARM GAS  C:\Users\JAMESS~1\AppData\Local\Temp\cce8FrJG.s 			page 128


 5883      6874735F 
 5883      44696D53 
 5883      68696674 
 5884              	.LASF2:
 5885 004f 73686F72 		.ascii	"short int\000"
 5885      7420696E 
 5885      7400
 5886              	.LASF23:
 5887 0059 636F6C6F 		.ascii	"color\000"
 5887      7200
 5888              	.LASF76:
 5889 005f 53747269 		.ascii	"StripLights_SetFont\000"
 5889      704C6967 
 5889      6874735F 
 5889      53657446 
 5889      6F6E7400 
 5890              	.LASF51:
 5891 0073 53747269 		.ascii	"StripLights_DrawRect\000"
 5891      704C6967 
 5891      6874735F 
 5891      44726177 
 5891      52656374 
 5892              	.LASF82:
 5893 0088 47656E65 		.ascii	"Generated_Source\\PSoC4\\StripLights.c\000"
 5893      72617465 
 5893      645F536F 
 5893      75726365 
 5893      5C50536F 
 5894              	.LASF71:
 5895 00ad 53747269 		.ascii	"StripLights_ledArray\000"
 5895      704C6967 
 5895      6874735F 
 5895      6C656441 
 5895      72726179 
 5896              	.LASF77:
 5897 00c2 53747269 		.ascii	"StripLights_cisr_StartEx\000"
 5897      704C6967 
 5897      6874735F 
 5897      63697372 
 5897      5F537461 
 5898              	.LASF30:
 5899 00db 64656C61 		.ascii	"delay\000"
 5899      7900
 5900              	.LASF69:
 5901 00e1 53747269 		.ascii	"StripLights_EnterCritical\000"
 5901      704C6967 
 5901      6874735F 
 5901      456E7465 
 5901      72437269 
 5902              	.LASF74:
 5903 00fb 53747269 		.ascii	"StripLights_gamma\000"
 5903      704C6967 
 5903      6874735F 
 5903      67616D6D 
 5903      6100
 5904              	.LASF52:
 5905 010d 66696C6C 		.ascii	"fill\000"
ARM GAS  C:\Users\JAMESS~1\AppData\Local\Temp\cce8FrJG.s 			page 129


 5905      00
 5906              	.LASF81:
 5907 0112 474E5520 		.ascii	"GNU C11 5.4.1 20160609 (release) [ARM/embedded-5-br"
 5907      43313120 
 5907      352E342E 
 5907      31203230 
 5907      31363036 
 5908 0145 616E6368 		.ascii	"anch revision 237715] -mcpu=cortex-m0 -mthumb -g -O"
 5908      20726576 
 5908      6973696F 
 5908      6E203233 
 5908      37373135 
 5909 0178 67202D66 		.ascii	"g -ffunction-sections -ffat-lto-objects\000"
 5909      66756E63 
 5909      74696F6E 
 5909      2D736563 
 5909      74696F6E 
 5910              	.LASF19:
 5911 01a0 53747269 		.ascii	"StripLights_DimMask\000"
 5911      704C6967 
 5911      6874735F 
 5911      44696D4D 
 5911      61736B00 
 5912              	.LASF40:
 5913 01b4 53747269 		.ascii	"StripLights_WriteColor\000"
 5913      704C6967 
 5913      6874735F 
 5913      57726974 
 5913      65436F6C 
 5914              	.LASF31:
 5915 01cb 746F436F 		.ascii	"toCount\000"
 5915      756E7400 
 5916              	.LASF9:
 5917 01d3 75696E74 		.ascii	"uint8\000"
 5917      3800
 5918              	.LASF29:
 5919 01d9 53747269 		.ascii	"StripLights_TriggerWaitDelay\000"
 5919      704C6967 
 5919      6874735F 
 5919      54726967 
 5919      67657257 
 5920              	.LASF57:
 5921 01f6 53747269 		.ascii	"StripLights_initvar\000"
 5921      704C6967 
 5921      6874735F 
 5921      696E6974 
 5921      76617200 
 5922              	.LASF28:
 5923 020a 53747269 		.ascii	"StripLights_Trigger\000"
 5923      704C6967 
 5923      6874735F 
 5923      54726967 
 5923      67657200 
 5924              	.LASF66:
 5925 021e 66726F6D 		.ascii	"fromColor\000"
 5925      436F6C6F 
 5925      7200
ARM GAS  C:\Users\JAMESS~1\AppData\Local\Temp\cce8FrJG.s 			page 130


 5926              	.LASF0:
 5927 0228 7369676E 		.ascii	"signed char\000"
 5927      65642063 
 5927      68617200 
 5928              	.LASF12:
 5929 0234 666C6F61 		.ascii	"float\000"
 5929      7400
 5930              	.LASF32:
 5931 023a 53747269 		.ascii	"StripLights_TriggerWait\000"
 5931      704C6967 
 5931      6874735F 
 5931      54726967 
 5931      67657257 
 5932              	.LASF6:
 5933 0252 6C6F6E67 		.ascii	"long long int\000"
 5933      206C6F6E 
 5933      6720696E 
 5933      7400
 5934              	.LASF46:
 5935 0260 6464465F 		.ascii	"ddF_y\000"
 5935      7900
 5936              	.LASF60:
 5937 0266 75706461 		.ascii	"update\000"
 5937      746500
 5938              	.LASF4:
 5939 026d 6C6F6E67 		.ascii	"long int\000"
 5939      20696E74 
 5939      00
 5940              	.LASF64:
 5941 0276 53747269 		.ascii	"StripLights_Bplot32\000"
 5941      704C6967 
 5941      6874735F 
 5941      42706C6F 
 5941      74333200 
 5942              	.LASF62:
 5943 028a 6D617858 		.ascii	"maxX\000"
 5943      00
 5944              	.LASF83:
 5945 028f 433A5C55 		.ascii	"C:\\Users\\James Sun\\Documents\\Git\\Whackamole\\W"
 5945      73657273 
 5945      5C4A616D 
 5945      65732053 
 5945      756E5C44 
 5946 02bc 6861636B 		.ascii	"hackamole\\Whackamole.cydsn\000"
 5946      616D6F6C 
 5946      655C5768 
 5946      61636B61 
 5946      6D6F6C65 
 5947              	.LASF18:
 5948 02d7 6C6F6E67 		.ascii	"long double\000"
 5948      20646F75 
 5948      626C6500 
 5949              	.LASF75:
 5950 02e3 43794465 		.ascii	"CyDelayUs\000"
 5950      6C617955 
 5950      7300
 5951              	.LASF1:
ARM GAS  C:\Users\JAMESS~1\AppData\Local\Temp\cce8FrJG.s 			page 131


 5952 02ed 756E7369 		.ascii	"unsigned char\000"
 5952      676E6564 
 5952      20636861 
 5952      7200
 5953              	.LASF34:
 5954 02fb 53747269 		.ascii	"StripLights_ColorInc\000"
 5954      704C6967 
 5954      6874735F 
 5954      436F6C6F 
 5954      72496E63 
 5955              	.LASF43:
 5956 0310 53747269 		.ascii	"StripLights_DrawCircle\000"
 5956      704C6967 
 5956      6874735F 
 5956      44726177 
 5956      43697263 
 5957              	.LASF37:
 5958 0327 636F6C6F 		.ascii	"colorIndex\000"
 5958      72496E64 
 5958      657800
 5959              	.LASF63:
 5960 0332 6D617859 		.ascii	"maxY\000"
 5960      00
 5961              	.LASF7:
 5962 0337 6C6F6E67 		.ascii	"long long unsigned int\000"
 5962      206C6F6E 
 5962      6720756E 
 5962      7369676E 
 5962      65642069 
 5963              	.LASF67:
 5964 034e 746F436F 		.ascii	"toColor\000"
 5964      6C6F7200 
 5965              	.LASF79:
 5966 0356 53747269 		.ascii	"StripLights_cisr_SetPriority\000"
 5966      704C6967 
 5966      6874735F 
 5966      63697372 
 5966      5F536574 
 5967              	.LASF8:
 5968 0373 756E7369 		.ascii	"unsigned int\000"
 5968      676E6564 
 5968      20696E74 
 5968      00
 5969              	.LASF5:
 5970 0380 6C6F6E67 		.ascii	"long unsigned int\000"
 5970      20756E73 
 5970      69676E65 
 5970      6420696E 
 5970      7400
 5971              	.LASF55:
 5972 0392 64696D4C 		.ascii	"dimLevel\000"
 5972      6576656C 
 5972      00
 5973              	.LASF24:
 5974 039b 53747269 		.ascii	"StripLights_refreshComplete\000"
 5974      704C6967 
 5974      6874735F 
ARM GAS  C:\Users\JAMESS~1\AppData\Local\Temp\cce8FrJG.s 			page 132


 5974      72656672 
 5974      65736843 
 5975              	.LASF72:
 5976 03b7 53747269 		.ascii	"StripLights_ledIndex\000"
 5976      704C6967 
 5976      6874735F 
 5976      6C656449 
 5976      6E646578 
 5977              	.LASF54:
 5978 03cc 53747269 		.ascii	"StripLights_Dim\000"
 5978      704C6967 
 5978      6874735F 
 5978      44696D00 
 5979              	.LASF50:
 5980 03dc 66726163 		.ascii	"fraction\000"
 5980      74696F6E 
 5980      00
 5981              	.LASF48:
 5982 03e5 73746570 		.ascii	"stepx\000"
 5982      7800
 5983              	.LASF49:
 5984 03eb 73746570 		.ascii	"stepy\000"
 5984      7900
 5985              	.LASF84:
 5986 03f1 53747269 		.ascii	"StripLights_Ready\000"
 5986      704C6967 
 5986      6874735F 
 5986      52656164 
 5986      7900
 5987              	.LASF33:
 5988 0403 53747269 		.ascii	"StripLights_getColor\000"
 5988      704C6967 
 5988      6874735F 
 5988      67657443 
 5988      6F6C6F72 
 5989              	.LASF3:
 5990 0418 73686F72 		.ascii	"short unsigned int\000"
 5990      7420756E 
 5990      7369676E 
 5990      65642069 
 5990      6E7400
 5991              	.LASF39:
 5992 042b 53747269 		.ascii	"StripLights_DisplayClear\000"
 5992      704C6967 
 5992      6874735F 
 5992      44697370 
 5992      6C617943 
 5993              	.LASF35:
 5994 0444 696E6356 		.ascii	"incValue\000"
 5994      616C7565 
 5994      00
 5995              	.LASF25:
 5996 044d 53747269 		.ascii	"StripLights_SetCriticalFuncs\000"
 5996      704C6967 
 5996      6874735F 
 5996      53657443 
 5996      72697469 
ARM GAS  C:\Users\JAMESS~1\AppData\Local\Temp\cce8FrJG.s 			page 133


 5997              	.LASF70:
 5998 046a 53747269 		.ascii	"StripLights_ExitCritical\000"
 5998      704C6967 
 5998      6874735F 
 5998      45786974 
 5998      43726974 
 5999              	.LASF10:
 6000 0483 75696E74 		.ascii	"uint32\000"
 6000      333200
 6001              	.LASF53:
 6002 048a 78446966 		.ascii	"xDiff\000"
 6002      6600
 6003              	.LASF15:
 6004 0490 72656738 		.ascii	"reg8\000"
 6004      00
 6005              	.LASF78:
 6006 0495 53747269 		.ascii	"StripLights_fisr_StartEx\000"
 6006      704C6967 
 6006      6874735F 
 6006      66697372 
 6006      5F537461 
 6007              	.LASF45:
 6008 04ae 6464465F 		.ascii	"ddF_x\000"
 6008      7800
 6009              	.LASF11:
 6010 04b4 696E7433 		.ascii	"int32\000"
 6010      3200
 6011              	.LASF58:
 6012 04ba 53747269 		.ascii	"StripLights_Bplot8\000"
 6012      704C6967 
 6012      6874735F 
 6012      42706C6F 
 6012      743800
 6013              	.LASF22:
 6014 04cd 53747269 		.ascii	"StripLights_CISR\000"
 6014      704C6967 
 6014      6874735F 
 6014      43495352 
 6014      00
 6015              	.LASF85:
 6016 04de 53747269 		.ascii	"StripLights_Stop\000"
 6016      704C6967 
 6016      6874735F 
 6016      53746F70 
 6016      00
 6017              	.LASF21:
 6018 04ef 53747269 		.ascii	"StripLights_FISR\000"
 6018      704C6967 
 6018      6874735F 
 6018      46495352 
 6018      00
 6019              	.LASF80:
 6020 0500 53747269 		.ascii	"StripLights_fisr_SetPriority\000"
 6020      704C6967 
 6020      6874735F 
 6020      66697372 
 6020      5F536574 
ARM GAS  C:\Users\JAMESS~1\AppData\Local\Temp\cce8FrJG.s 			page 134


 6021              	.LASF38:
 6022 051d 53747269 		.ascii	"StripLights_MemClear\000"
 6022      704C6967 
 6022      6874735F 
 6022      4D656D43 
 6022      6C656172 
 6023              	.LASF61:
 6024 0532 61696E64 		.ascii	"aindex\000"
 6024      657800
 6025              	.LASF41:
 6026 0539 53747269 		.ascii	"StripLights_Pixel\000"
 6026      704C6967 
 6026      6874735F 
 6026      50697865 
 6026      6C00
 6027              	.LASF17:
 6028 054b 73697A65 		.ascii	"sizetype\000"
 6028      74797065 
 6028      00
 6029              	.LASF26:
 6030 0554 456E4372 		.ascii	"EnCriticalFunc\000"
 6030      69746963 
 6030      616C4675 
 6030      6E6300
 6031              	.LASF13:
 6032 0563 646F7562 		.ascii	"double\000"
 6032      6C6500
 6033              	.LASF56:
 6034 056a 53747269 		.ascii	"StripLights_Start\000"
 6034      704C6967 
 6034      6874735F 
 6034      53746172 
 6034      7400
 6035              	.LASF44:
 6036 057c 72616469 		.ascii	"radius\000"
 6036      757300
 6037              	.LASF73:
 6038 0583 53747269 		.ascii	"StripLights_row\000"
 6038      704C6967 
 6038      6874735F 
 6038      726F7700 
 6039              	.LASF16:
 6040 0593 66756E63 		.ascii	"funcPtr\000"
 6040      50747200 
 6041              	.LASF68:
 6042 059b 6E657743 		.ascii	"newColor\000"
 6042      6F6C6F72 
 6042      00
 6043              	.LASF59:
 6044 05a4 6269744D 		.ascii	"bitMap\000"
 6044      617000
 6045              	.LASF47:
 6046 05ab 53747269 		.ascii	"StripLights_DrawLine\000"
 6046      704C6967 
 6046      6874735F 
 6046      44726177 
 6046      4C696E65 
ARM GAS  C:\Users\JAMESS~1\AppData\Local\Temp\cce8FrJG.s 			page 135


 6047              	.LASF65:
 6048 05c0 53747269 		.ascii	"StripLights_RgbBlend\000"
 6048      704C6967 
 6048      6874735F 
 6048      52676242 
 6048      6C656E64 
 6049              		.ident	"GCC: (GNU Tools for ARM Embedded Processors) 5.4.1 20160609 (release) [ARM/embedded-5-bran
