ARM GAS  C:\Users\JAMESS~1\AppData\Local\Temp\ccd7YNc7.s 			page 1


   1              		.syntax unified
   2              		.cpu cortex-m0
   3              		.fpu softvfp
   4              		.eabi_attribute 20, 1
   5              		.eabi_attribute 21, 1
   6              		.eabi_attribute 23, 3
   7              		.eabi_attribute 24, 1
   8              		.eabi_attribute 25, 1
   9              		.eabi_attribute 26, 1
  10              		.eabi_attribute 30, 1
  11              		.eabi_attribute 34, 0
  12              		.eabi_attribute 18, 4
  13              		.thumb
  14              		.syntax unified
  15              		.file	"StripLights.c"
  16              		.text
  17              	.Ltext0:
  18              		.cfi_sections	.debug_frame
  19              		.section	.text.StripLights_FISR,"ax",%progbits
  20              		.align	2
  21              		.global	StripLights_FISR
  22              		.code	16
  23              		.thumb_func
  24              		.type	StripLights_FISR, %function
  25              	StripLights_FISR:
  26              	.LFB41:
  27              		.file 1 "Generated_Source\\PSoC4\\StripLights.c"
   1:Generated_Source\PSoC4/StripLights.c **** /* =========================================================
   2:Generated_Source\PSoC4/StripLights.c ****  *
   3:Generated_Source\PSoC4/StripLights.c ****  * Strip Light Controller
   4:Generated_Source\PSoC4/StripLights.c ****  * By Mark Hastings
   5:Generated_Source\PSoC4/StripLights.c ****  *
   6:Generated_Source\PSoC4/StripLights.c ****  * 10/28/2015 MEH Added support for SF2812RGBW
   7:Generated_Source\PSoC4/StripLights.c ****  *                Allow for a more flexible bus clock selection
   8:Generated_Source\PSoC4/StripLights.c ****  * 12/12/2015 MEH Fixed a bug that may cause the interface
   9:Generated_Source\PSoC4/StripLights.c ****  *                to hang when many other ISRs are running.
  10:Generated_Source\PSoC4/StripLights.c ****  *
  11:Generated_Source\PSoC4/StripLights.c ****  * This file contains the functions required to control each
  12:Generated_Source\PSoC4/StripLights.c ****  * lighting control channel.
  13:Generated_Source\PSoC4/StripLights.c ****  *
  14:Generated_Source\PSoC4/StripLights.c ****  * =========================================================
  15:Generated_Source\PSoC4/StripLights.c **** */
  16:Generated_Source\PSoC4/StripLights.c **** 
  17:Generated_Source\PSoC4/StripLights.c **** #include <project.h>
  18:Generated_Source\PSoC4/StripLights.c **** #include "cytypes.h"
  19:Generated_Source\PSoC4/StripLights.c **** #include "stdlib.h"
  20:Generated_Source\PSoC4/StripLights.c **** #include "cyfitter.h"
  21:Generated_Source\PSoC4/StripLights.c **** #include "StripLights.h"
  22:Generated_Source\PSoC4/StripLights.c **** #include "StripLights_fonts.h"
  23:Generated_Source\PSoC4/StripLights.c **** 
  24:Generated_Source\PSoC4/StripLights.c **** 
  25:Generated_Source\PSoC4/StripLights.c **** void   (*StripLights_EnterCritical)() = (funcPtr)0;
  26:Generated_Source\PSoC4/StripLights.c **** void   (*StripLights_ExitCritical)() = (funcPtr)0;
  27:Generated_Source\PSoC4/StripLights.c **** 
  28:Generated_Source\PSoC4/StripLights.c **** 
  29:Generated_Source\PSoC4/StripLights.c **** uint8  StripLights_initvar = 0;
  30:Generated_Source\PSoC4/StripLights.c **** 
ARM GAS  C:\Users\JAMESS~1\AppData\Local\Temp\ccd7YNc7.s 			page 2


  31:Generated_Source\PSoC4/StripLights.c **** #if(StripLights_MEMORY_TYPE == StripLights_MEMORY_RGB)
  32:Generated_Source\PSoC4/StripLights.c **** uint32  StripLights_ledArray[StripLights_ARRAY_ROWS][StripLights_ARRAY_COLS];
  33:Generated_Source\PSoC4/StripLights.c **** #else
  34:Generated_Source\PSoC4/StripLights.c **** uint8   StripLights_ledArray[StripLights_ARRAY_ROWS][StripLights_ARRAY_COLS];
  35:Generated_Source\PSoC4/StripLights.c **** #endif
  36:Generated_Source\PSoC4/StripLights.c **** 
  37:Generated_Source\PSoC4/StripLights.c **** uint32  StripLights_ledIndex = 0;  
  38:Generated_Source\PSoC4/StripLights.c **** uint32  StripLights_row = 0;
  39:Generated_Source\PSoC4/StripLights.c **** uint32  StripLights_refreshComplete;
  40:Generated_Source\PSoC4/StripLights.c **** 
  41:Generated_Source\PSoC4/StripLights.c **** uint32  StripLights_DimMask;
  42:Generated_Source\PSoC4/StripLights.c **** uint32  StripLights_DimShift;
  43:Generated_Source\PSoC4/StripLights.c **** 
  44:Generated_Source\PSoC4/StripLights.c **** #if( StripLights_GAMMA_CORRECTION == StripLights_GAMMA_ON )
  45:Generated_Source\PSoC4/StripLights.c **** const uint8 StripLights_gamma[] = {
  46:Generated_Source\PSoC4/StripLights.c ****     0,  0,  0,  0,  0,  0,  0,  0,  0,  0,  0,  0,  0,  0,  0,  0,
  47:Generated_Source\PSoC4/StripLights.c ****     0,  0,  0,  0,  0,  0,  0,  0,  0,  0,  0,  0,  1,  1,  1,  1,
  48:Generated_Source\PSoC4/StripLights.c ****     1,  1,  1,  1,  1,  1,  1,  1,  1,  2,  2,  2,  2,  2,  2,  2,
  49:Generated_Source\PSoC4/StripLights.c ****     2,  3,  3,  3,  3,  3,  3,  3,  4,  4,  4,  4,  4,  5,  5,  5,
  50:Generated_Source\PSoC4/StripLights.c ****     5,  6,  6,  6,  6,  7,  7,  7,  7,  8,  8,  8,  9,  9,  9, 10,
  51:Generated_Source\PSoC4/StripLights.c ****    10, 10, 11, 11, 11, 12, 12, 13, 13, 13, 14, 14, 15, 15, 16, 16,
  52:Generated_Source\PSoC4/StripLights.c ****    17, 17, 18, 18, 19, 19, 20, 20, 21, 21, 22, 22, 23, 24, 24, 25,
  53:Generated_Source\PSoC4/StripLights.c ****    25, 26, 27, 27, 28, 29, 29, 30, 31, 32, 32, 33, 34, 35, 35, 36,
  54:Generated_Source\PSoC4/StripLights.c ****    37, 38, 39, 39, 40, 41, 42, 43, 44, 45, 46, 47, 48, 49, 50, 50,
  55:Generated_Source\PSoC4/StripLights.c ****    51, 52, 54, 55, 56, 57, 58, 59, 60, 61, 62, 63, 64, 66, 67, 68,
  56:Generated_Source\PSoC4/StripLights.c ****    69, 70, 72, 73, 74, 75, 77, 78, 79, 81, 82, 83, 85, 86, 87, 89,
  57:Generated_Source\PSoC4/StripLights.c ****    90, 92, 93, 95, 96, 98, 99,101,102,104,105,107,109,110,112,114,
  58:Generated_Source\PSoC4/StripLights.c ****   115,117,119,120,122,124,126,127,129,131,133,135,137,138,140,142,
  59:Generated_Source\PSoC4/StripLights.c ****   144,146,148,150,152,154,156,158,160,162,164,167,169,171,173,175,
  60:Generated_Source\PSoC4/StripLights.c ****   177,180,182,184,186,189,191,193,196,198,200,203,205,208,210,213,
  61:Generated_Source\PSoC4/StripLights.c ****   215,218,220,223,225,228,231,233,236,239,241,244,247,249,252,255 };
  62:Generated_Source\PSoC4/StripLights.c **** 
  63:Generated_Source\PSoC4/StripLights.c **** #endif
  64:Generated_Source\PSoC4/StripLights.c **** 
  65:Generated_Source\PSoC4/StripLights.c **** #if (StripLights_LED_LAYOUT == StripLights_LED_LAYOUT_GRID16X16)
  66:Generated_Source\PSoC4/StripLights.c ****  uint8 const StripLights_cTrans[16][16] =  {
  67:Generated_Source\PSoC4/StripLights.c **** 	/*  0  */  {  0,  1,  2,  3,  4,  5,  6,  7,  8,  9, 10, 11, 12, 13, 14, 15},
  68:Generated_Source\PSoC4/StripLights.c ****     /*  1  */  { 31, 30, 29, 28, 27, 26, 25, 24, 23, 22, 21, 20, 19, 18, 17, 16},
  69:Generated_Source\PSoC4/StripLights.c **** 	/*  2  */  { 32, 33, 34, 35, 36, 37, 38, 39, 40, 41, 42, 43, 44, 45, 46, 47},
  70:Generated_Source\PSoC4/StripLights.c **** 	/*  3  */  { 63, 62, 61, 60, 59, 58, 57, 56, 55, 54, 53, 52, 51, 50, 49, 48}, 
  71:Generated_Source\PSoC4/StripLights.c **** 	/*  4  */  { 64, 65, 66, 67, 68, 69, 70, 71, 72, 73, 74, 75, 76, 77, 78, 79},
  72:Generated_Source\PSoC4/StripLights.c **** 	/*  5  */  { 95, 94, 93, 92, 91, 90, 89, 88, 87, 86, 85, 84, 83, 82, 81, 80},
  73:Generated_Source\PSoC4/StripLights.c **** 	/*  6  */  { 96, 97, 98, 99,100,101,102,103,104,105,106,107,108,109,110,111},
  74:Generated_Source\PSoC4/StripLights.c **** 	/*  7  */  {127,126,125,124,123,122,121,120,119,118,117,116,115,114,113,112},
  75:Generated_Source\PSoC4/StripLights.c **** 	/*  8  */  {128,129,130,131,132,133,134,135,136,137,138,139,140,141,142,143},
  76:Generated_Source\PSoC4/StripLights.c **** 	/*  9  */  {159,158,157,156,155,154,153,152,151,150,149,148,147,146,145,144},
  77:Generated_Source\PSoC4/StripLights.c **** 	/* 10  */  {160,161,162,163,164,165,166,167,168,169,170,171,172,173,174,175},
  78:Generated_Source\PSoC4/StripLights.c **** 	/* 11  */  {191,190,189,188,187,186,185,184,183,182,181,180,179,178,177,176},
  79:Generated_Source\PSoC4/StripLights.c **** 	/* 12  */  {192,193,194,195,196,197,198,199,200,201,202,203,204,205,206,207},
  80:Generated_Source\PSoC4/StripLights.c **** 	/* 13  */  {223,222,221,220,219,218,217,216,215,214,213,212,211,210,209,208},
  81:Generated_Source\PSoC4/StripLights.c **** 	/* 14  */  {224,225,226,227,228,229,230,231,232,233,234,235,236,237,238,239},
  82:Generated_Source\PSoC4/StripLights.c **** 	/* 15  */  {255,254,253,252,251,250,249,248,247,246,245,244,243,242,241,240}};   
  83:Generated_Source\PSoC4/StripLights.c **** #endif
  84:Generated_Source\PSoC4/StripLights.c **** 
  85:Generated_Source\PSoC4/StripLights.c **** 
  86:Generated_Source\PSoC4/StripLights.c **** #if((StripLights_CHIP == StripLights_CHIP_WS2812) || (StripLights_CHIP == StripLights_CHIP_SF2812RG
  87:Generated_Source\PSoC4/StripLights.c **** const uint32 StripLights_CLUT[ ] = {
ARM GAS  C:\Users\JAMESS~1\AppData\Local\Temp\ccd7YNc7.s 			page 3


  88:Generated_Source\PSoC4/StripLights.c **** //xxBBRRGG (WS2812)
  89:Generated_Source\PSoC4/StripLights.c **** //     (24)   [ Index = 0 ]
  90:Generated_Source\PSoC4/StripLights.c **** 0x0000FFFF,  // 0 Yellow
  91:Generated_Source\PSoC4/StripLights.c **** 0x0000CCFF,
  92:Generated_Source\PSoC4/StripLights.c **** 0x000099FF,
  93:Generated_Source\PSoC4/StripLights.c **** 0x000033FF,
  94:Generated_Source\PSoC4/StripLights.c **** 0x000000FF,  // 5  Green
  95:Generated_Source\PSoC4/StripLights.c **** 0x006600B3,
  96:Generated_Source\PSoC4/StripLights.c **** 0x00990099, 
  97:Generated_Source\PSoC4/StripLights.c **** 0x00B30066, 
  98:Generated_Source\PSoC4/StripLights.c **** 0x00CC0033,  // 9 Blue
  99:Generated_Source\PSoC4/StripLights.c **** 0x00B31919, 
 100:Generated_Source\PSoC4/StripLights.c **** 0x00993300, 
 101:Generated_Source\PSoC4/StripLights.c **** 0x00994000, 
 102:Generated_Source\PSoC4/StripLights.c **** 0x00996600, 
 103:Generated_Source\PSoC4/StripLights.c **** 0x00999900, 
 104:Generated_Source\PSoC4/StripLights.c **** 0x0099CC00, 
 105:Generated_Source\PSoC4/StripLights.c **** 0x0066E600, 
 106:Generated_Source\PSoC4/StripLights.c **** 0x0000FF00, // Red
 107:Generated_Source\PSoC4/StripLights.c **** 0x0000FF33, 
 108:Generated_Source\PSoC4/StripLights.c **** 0x0000FF66, 
 109:Generated_Source\PSoC4/StripLights.c **** 0x0000FF80, 
 110:Generated_Source\PSoC4/StripLights.c **** 0x0000FF99,  // 20 Orange
 111:Generated_Source\PSoC4/StripLights.c **** 0x0000FFB2, 
 112:Generated_Source\PSoC4/StripLights.c **** 0x0000FFCC, 
 113:Generated_Source\PSoC4/StripLights.c **** 0x0000FFE5,
 114:Generated_Source\PSoC4/StripLights.c **** // #24
 115:Generated_Source\PSoC4/StripLights.c **** 
 116:Generated_Source\PSoC4/StripLights.c **** //xxBBRRGG  (64)  [ Index = 24 ]
 117:Generated_Source\PSoC4/StripLights.c **** 0x00000000, 0x00550000, 0x00AA0000, 0x00FF0000,  // 0, Black,  LtBlue, MBlue, Blue
 118:Generated_Source\PSoC4/StripLights.c **** 0x00000055, 0x00550055, 0x00AA0055, 0x00FF0055,  // 4, LtGreen
 119:Generated_Source\PSoC4/StripLights.c **** 0x000000AA, 0x005500AA, 0x00AA00AA, 0x00FF00AA,  // 8, MGreen
 120:Generated_Source\PSoC4/StripLights.c **** 0x000000FF, 0x005500FF, 0x00AA00FF, 0x00FF00FF,  // 12 Green
 121:Generated_Source\PSoC4/StripLights.c **** 
 122:Generated_Source\PSoC4/StripLights.c **** 0x00005500, 0x00555500, 0x00AA5500, 0x00FF5500,  // 16, LtRed
 123:Generated_Source\PSoC4/StripLights.c **** 0x00005555, 0x00555555, 0x00AA5555, 0x00FF5555,  // 20, LtYellow
 124:Generated_Source\PSoC4/StripLights.c **** 0x000055AA, 0x005555AA, 0x00AA55AA, 0x00FF55AA,  // 24, 
 125:Generated_Source\PSoC4/StripLights.c **** 0x000055FF, 0x005555FF, 0x00AA55FF, 0x00FF55FF,  // 28,
 126:Generated_Source\PSoC4/StripLights.c **** 
 127:Generated_Source\PSoC4/StripLights.c **** 0x0000AA00, 0x0055AA00, 0x00AAAA00, 0x00FFAA00,  // 32, MRed
 128:Generated_Source\PSoC4/StripLights.c **** 0x0000AA55, 0x0055AA55, 0x00AAAA55, 0x00FFAA55,  // 36, 
 129:Generated_Source\PSoC4/StripLights.c **** 0x0000AAAA, 0x0055AAAA, 0x00AAAAAA, 0x00FFAAAA,  // 55, 
 130:Generated_Source\PSoC4/StripLights.c **** 0x0000AAFF, 0x0055AAFF, 0x00AAAAFF, 0x00FFAAFF,  // 44, 
 131:Generated_Source\PSoC4/StripLights.c **** 
 132:Generated_Source\PSoC4/StripLights.c **** 0x0000FF00, 0x0055FF00, 0x00AAFF00, 0x00FFFF00,  // 48, Red, ??, ??, Magenta
 133:Generated_Source\PSoC4/StripLights.c **** 0x0000FF55, 0x0055FF55, 0x00AAFF55, 0x00FFFF55,  // 52,
 134:Generated_Source\PSoC4/StripLights.c **** 0x0000FFAA, 0x0055FFAA, 0x00AAFFAA, 0x00FFFFAA,  // 56,
 135:Generated_Source\PSoC4/StripLights.c **** 0x0000FFFF, 0x0055FFFF, 0x00AAFFFF, 0x00FFFFFF,  // 60, Yellow,??, ??, White
 136:Generated_Source\PSoC4/StripLights.c **** 
 137:Generated_Source\PSoC4/StripLights.c **** // Misc ( 16 )  [ Index = 88 ]
 138:Generated_Source\PSoC4/StripLights.c **** 0x000080FF,  // SPRING_GREEN
 139:Generated_Source\PSoC4/StripLights.c **** 0x008000FF,  // TURQUOSE
 140:Generated_Source\PSoC4/StripLights.c **** 0x00FF00FF,  // CYAN
 141:Generated_Source\PSoC4/StripLights.c **** 0x00FF0080,  // OCEAN
 142:Generated_Source\PSoC4/StripLights.c **** 0x00FF8000,  // VIOLET
 143:Generated_Source\PSoC4/StripLights.c **** 0x0080FF00,  // RASPBERRY
 144:Generated_Source\PSoC4/StripLights.c **** 0x000000FF,  // GREEN
ARM GAS  C:\Users\JAMESS~1\AppData\Local\Temp\ccd7YNc7.s 			page 4


 145:Generated_Source\PSoC4/StripLights.c **** 0x00202020,  // DIM WHITE
 146:Generated_Source\PSoC4/StripLights.c **** 0x00200000,  // DIM BLUE
 147:Generated_Source\PSoC4/StripLights.c **** 0x10000000,  // INVISIBLE
 148:Generated_Source\PSoC4/StripLights.c **** 0x0000FF00,  // Fire_Dark
 149:Generated_Source\PSoC4/StripLights.c **** 0x0000FF30,  // Fire_Light  // 00FF80
 150:Generated_Source\PSoC4/StripLights.c **** 0xFFFFFFFF,  // Full White
 151:Generated_Source\PSoC4/StripLights.c **** 0xFF000000,  // LED_WHITE
 152:Generated_Source\PSoC4/StripLights.c **** 0xFF808080,  // WHITE_RGB50
 153:Generated_Source\PSoC4/StripLights.c **** 0xFF404040,  // WHITE_RGB25
 154:Generated_Source\PSoC4/StripLights.c **** 
 155:Generated_Source\PSoC4/StripLights.c **** // Temperture Color Blue to Red (16) [ Index = 104 ]
 156:Generated_Source\PSoC4/StripLights.c **** 0x00FF0000, 0x00F01000, 0x00E02000, 0x00D03000,
 157:Generated_Source\PSoC4/StripLights.c **** 0x00C04000, 0x00B05000, 0x00A06000, 0x00907000,
 158:Generated_Source\PSoC4/StripLights.c **** 0x00808000, 0x00709000, 0x0060A000, 0x0050B000,
 159:Generated_Source\PSoC4/StripLights.c **** 0x0040C000, 0x0030D000, 0x0020E000, 0x0000FF00
 160:Generated_Source\PSoC4/StripLights.c **** };
 161:Generated_Source\PSoC4/StripLights.c **** #else  //xxBBGGRR (WS2811)
 162:Generated_Source\PSoC4/StripLights.c **** const uint32 StripLights_CLUT[ ] = {
 163:Generated_Source\PSoC4/StripLights.c **** //     (24)   [ Index = 0 ]
 164:Generated_Source\PSoC4/StripLights.c **** 0x0000FFFF,  // 0 Yellow
 165:Generated_Source\PSoC4/StripLights.c **** 0x0000FFCC,
 166:Generated_Source\PSoC4/StripLights.c **** 0x0000FF99,
 167:Generated_Source\PSoC4/StripLights.c **** 0x0000FF33,
 168:Generated_Source\PSoC4/StripLights.c **** 0x0000FF00,  // 5  Green
 169:Generated_Source\PSoC4/StripLights.c **** 0x0066B300,
 170:Generated_Source\PSoC4/StripLights.c **** 0x00999900, 
 171:Generated_Source\PSoC4/StripLights.c **** 0x00B36600, 
 172:Generated_Source\PSoC4/StripLights.c **** 0x00CC3300,  // 9 Blue
 173:Generated_Source\PSoC4/StripLights.c **** 0x00B31919, 
 174:Generated_Source\PSoC4/StripLights.c **** 0x00990033, 
 175:Generated_Source\PSoC4/StripLights.c **** 0x00990040, 
 176:Generated_Source\PSoC4/StripLights.c **** 0x00990066, 
 177:Generated_Source\PSoC4/StripLights.c **** 0x00990099, 
 178:Generated_Source\PSoC4/StripLights.c **** 0x009900CC, 
 179:Generated_Source\PSoC4/StripLights.c **** 0x006600E6, 
 180:Generated_Source\PSoC4/StripLights.c **** 0x000000FF, 
 181:Generated_Source\PSoC4/StripLights.c **** 0x000033FF, 
 182:Generated_Source\PSoC4/StripLights.c **** 0x000066FF, 
 183:Generated_Source\PSoC4/StripLights.c **** 0x000080FF, 
 184:Generated_Source\PSoC4/StripLights.c **** 0x000080FF,  // 20 Orange
 185:Generated_Source\PSoC4/StripLights.c **** 0x0000B2FF, 
 186:Generated_Source\PSoC4/StripLights.c **** 0x0000CCFF, 
 187:Generated_Source\PSoC4/StripLights.c **** 0x0000E5FF,
 188:Generated_Source\PSoC4/StripLights.c **** // #24
 189:Generated_Source\PSoC4/StripLights.c **** 
 190:Generated_Source\PSoC4/StripLights.c **** //xxBBGGRR  (64)  [ Index = 24 ]
 191:Generated_Source\PSoC4/StripLights.c **** 0x00000000, 0x00550000, 0x00AA0000, 0x00FF0000,  // 0, Black,  LtBlue, MBlue, Blue
 192:Generated_Source\PSoC4/StripLights.c **** 0x00005500, 0x00555500, 0x00AA5500, 0x00FF5500,  // 4, LtGreen
 193:Generated_Source\PSoC4/StripLights.c **** 0x0000AA00, 0x0055AA00, 0x00AAAA00, 0x00FFAA00,  // 8, MGreen
 194:Generated_Source\PSoC4/StripLights.c **** 0x0000FF00, 0x0055FF00, 0x00AAFF00, 0x00FFFF00,  // 12 Green
 195:Generated_Source\PSoC4/StripLights.c **** 
 196:Generated_Source\PSoC4/StripLights.c **** 0x00000055, 0x00550055, 0x00AA0055, 0x00FF0055,  // 16, LtRed
 197:Generated_Source\PSoC4/StripLights.c **** 0x00005555, 0x00555555, 0x00AA5555, 0x00FF5555,  // 20, LtYellow
 198:Generated_Source\PSoC4/StripLights.c **** 0x0000AA55, 0x0055AA55, 0x00AAAA55, 0x00FFAA55,  // 24, 
 199:Generated_Source\PSoC4/StripLights.c **** 0x0000FF55, 0x0055FF55, 0x00AAFF55, 0x00FFFF55,  // 28,
 200:Generated_Source\PSoC4/StripLights.c **** 
 201:Generated_Source\PSoC4/StripLights.c **** 0x000000AA, 0x005500AA, 0x00AA00AA, 0x00FF00AA,  // 32, MRed
ARM GAS  C:\Users\JAMESS~1\AppData\Local\Temp\ccd7YNc7.s 			page 5


 202:Generated_Source\PSoC4/StripLights.c **** 0x000055AA, 0x005555AA, 0x00AA55AA, 0x00FF55AA,  // 36, 
 203:Generated_Source\PSoC4/StripLights.c **** 0x0000AAAA, 0x0055AAAA, 0x00AAAAAA, 0x00FFAAAA,  // 55, 
 204:Generated_Source\PSoC4/StripLights.c **** 0x0000FFAA, 0x0055FFAA, 0x00AAFFAA, 0x00FFFFAA,  // 44, 
 205:Generated_Source\PSoC4/StripLights.c **** 
 206:Generated_Source\PSoC4/StripLights.c **** 0x000000FF, 0x005500FF, 0x00AA00FF, 0x00F00FFF,  // 48, Red, ??, ??, Magenta
 207:Generated_Source\PSoC4/StripLights.c **** 0x000055FF, 0x005555FF, 0x00AA55FF, 0x00FF55FF,  // 52,
 208:Generated_Source\PSoC4/StripLights.c **** 0x0000AAFF, 0x0055AAFF, 0x00AAAAFF, 0x00FFAAFF,  // 56,
 209:Generated_Source\PSoC4/StripLights.c **** 0x0000FFFF, 0x0055FFFF, 0x00AAFFFF, 0x00FFFFFF,  // 60, Yellow,??, ??, White
 210:Generated_Source\PSoC4/StripLights.c **** 
 211:Generated_Source\PSoC4/StripLights.c **** // Misc ( 16 )  [ Index = 88 ]   //xxBBGGRR
 212:Generated_Source\PSoC4/StripLights.c **** 0x0000FF80,  // SPRING_GREEN
 213:Generated_Source\PSoC4/StripLights.c **** 0x0080FF00,  // TURQUOSE
 214:Generated_Source\PSoC4/StripLights.c **** 0x00FFFF00,  // CYAN
 215:Generated_Source\PSoC4/StripLights.c **** 0x00FF8000,  // OCEAN
 216:Generated_Source\PSoC4/StripLights.c **** 0x00FF0080,  // VIOLET
 217:Generated_Source\PSoC4/StripLights.c **** 0x008000FF,  // RASPBERRY
 218:Generated_Source\PSoC4/StripLights.c **** 0x0000FF00,  // GREEN
 219:Generated_Source\PSoC4/StripLights.c **** 0x00202020,  // DIM WHITE
 220:Generated_Source\PSoC4/StripLights.c **** 0x00200000,  // DIM BLUE
 221:Generated_Source\PSoC4/StripLights.c **** 0x10000000,  // INVISIBLE
 222:Generated_Source\PSoC4/StripLights.c **** 0x000000FF,  // Fire_Dark
 223:Generated_Source\PSoC4/StripLights.c **** 0x000030FF,  // Fire_Light  // 0080FF
 224:Generated_Source\PSoC4/StripLights.c **** 0xFFFFFFFF,  // Full White
 225:Generated_Source\PSoC4/StripLights.c **** 0xFF000000,  // White_LED
 226:Generated_Source\PSoC4/StripLights.c **** 0xFF808080,  // WHITE_RGB50
 227:Generated_Source\PSoC4/StripLights.c **** 0xFF404040,  // WHITE_RGB25
 228:Generated_Source\PSoC4/StripLights.c **** 
 229:Generated_Source\PSoC4/StripLights.c **** // Temperture Color Blue to Red (16) [ Index = 104 ]
 230:Generated_Source\PSoC4/StripLights.c **** 0x00FF0000, 0x00F00010, 0x00E00020, 0x00D00030,
 231:Generated_Source\PSoC4/StripLights.c **** 0x00C00040, 0x00B00050, 0x00A00060, 0x00900070,
 232:Generated_Source\PSoC4/StripLights.c **** 0x00800080, 0x00700090, 0x006000A0, 0x005000B0,
 233:Generated_Source\PSoC4/StripLights.c **** 0x004000C0, 0x003000D0, 0x002000E0, 0x000000FF
 234:Generated_Source\PSoC4/StripLights.c **** };
 235:Generated_Source\PSoC4/StripLights.c **** #endif
 236:Generated_Source\PSoC4/StripLights.c **** 
 237:Generated_Source\PSoC4/StripLights.c **** 
 238:Generated_Source\PSoC4/StripLights.c **** 
 239:Generated_Source\PSoC4/StripLights.c **** /*******************************************************************************
 240:Generated_Source\PSoC4/StripLights.c **** * Function Name: StripLights_Start
 241:Generated_Source\PSoC4/StripLights.c **** ********************************************************************************
 242:Generated_Source\PSoC4/StripLights.c **** * Summary:
 243:Generated_Source\PSoC4/StripLights.c **** *  Initialize the hardware. 
 244:Generated_Source\PSoC4/StripLights.c **** *
 245:Generated_Source\PSoC4/StripLights.c **** * Parameters:  
 246:Generated_Source\PSoC4/StripLights.c **** *  void  
 247:Generated_Source\PSoC4/StripLights.c **** *
 248:Generated_Source\PSoC4/StripLights.c **** * Return: 
 249:Generated_Source\PSoC4/StripLights.c **** *  void
 250:Generated_Source\PSoC4/StripLights.c **** *
 251:Generated_Source\PSoC4/StripLights.c **** *******************************************************************************/
 252:Generated_Source\PSoC4/StripLights.c **** void StripLights_Start()
 253:Generated_Source\PSoC4/StripLights.c **** {
 254:Generated_Source\PSoC4/StripLights.c ****     extern uint8 StripLights_initvar;
 255:Generated_Source\PSoC4/StripLights.c ****     extern uint32 StripLights_refreshComplete;
 256:Generated_Source\PSoC4/StripLights.c **** 
 257:Generated_Source\PSoC4/StripLights.c ****     #if (CY_PSOC3 || CY_PSOC5LP)
 258:Generated_Source\PSoC4/StripLights.c ****         int32   StripLights_realClock; 
ARM GAS  C:\Users\JAMESS~1\AppData\Local\Temp\ccd7YNc7.s 			page 6


 259:Generated_Source\PSoC4/StripLights.c ****         int16   StripLights_period;
 260:Generated_Source\PSoC4/StripLights.c ****         int16   StripLights_dataZero;
 261:Generated_Source\PSoC4/StripLights.c ****         int16   StripLights_dataOne;
 262:Generated_Source\PSoC4/StripLights.c ****     #endif /* CY_PSOC5A */
 263:Generated_Source\PSoC4/StripLights.c **** 
 264:Generated_Source\PSoC4/StripLights.c ****     StripLights_ACTL0_REG = StripLights_DISABLE_FIFO;
 265:Generated_Source\PSoC4/StripLights.c **** 
 266:Generated_Source\PSoC4/StripLights.c ****     #if (CY_PSOC3 || CY_PSOC5LP)
 267:Generated_Source\PSoC4/StripLights.c ****         StripLights_realClock = (int32)StripLights_INPUT_CLOCK / (int32)(StripLights_Clock_DIV_LSB 
 268:Generated_Source\PSoC4/StripLights.c ****         StripLights_period    = (int16)(StripLights_realClock/StripLights_WS281X_CLOCK );
 269:Generated_Source\PSoC4/StripLights.c ****         
 270:Generated_Source\PSoC4/StripLights.c ****         StripLights_dataZero  = ((StripLights_period * StripLights_TIME_T0H)/StripLights_TIME_TL_TH
 271:Generated_Source\PSoC4/StripLights.c ****         StripLights_dataOne   = ((StripLights_period * StripLights_TIME_T1H)/StripLights_TIME_TL_TH
 272:Generated_Source\PSoC4/StripLights.c ****         
 273:Generated_Source\PSoC4/StripLights.c ****         StripLights_Period    = (uint8)(StripLights_period - 1);
 274:Generated_Source\PSoC4/StripLights.c ****         StripLights_Compare0  = (uint8)(StripLights_period - StripLights_dataZero);
 275:Generated_Source\PSoC4/StripLights.c ****         StripLights_Compare1  = (uint8)(StripLights_period - StripLights_dataOne);
 276:Generated_Source\PSoC4/StripLights.c **** 
 277:Generated_Source\PSoC4/StripLights.c ****     #elif (CY_PSOC4)
 278:Generated_Source\PSoC4/StripLights.c ****  
 279:Generated_Source\PSoC4/StripLights.c ****         StripLights_Period   = (uint8)StripLights_PERIOD-1;
 280:Generated_Source\PSoC4/StripLights.c ****         StripLights_Compare0 = (uint8)StripLights_COMPARE_ZERO;
 281:Generated_Source\PSoC4/StripLights.c ****         StripLights_Compare1 = (uint8)StripLights_COMPARE_ONE;        
 282:Generated_Source\PSoC4/StripLights.c ****     #endif /* CY_PSOC5A */
 283:Generated_Source\PSoC4/StripLights.c **** 
 284:Generated_Source\PSoC4/StripLights.c ****     
 285:Generated_Source\PSoC4/StripLights.c ****     StripLights_CONTROL = StripLights_ENABLE;
 286:Generated_Source\PSoC4/StripLights.c ****     StripLights_MemClear(StripLights_OFF);
 287:Generated_Source\PSoC4/StripLights.c ****     StripLights_CONTROL = StripLights_DISABLE;
 288:Generated_Source\PSoC4/StripLights.c ****     
 289:Generated_Source\PSoC4/StripLights.c ****     StripLights_SetFont( StripLights_FONT_5X7);
 290:Generated_Source\PSoC4/StripLights.c ****     
 291:Generated_Source\PSoC4/StripLights.c ****     /* Set no dimming, full brightness */
 292:Generated_Source\PSoC4/StripLights.c ****     StripLights_Dim(0); 
 293:Generated_Source\PSoC4/StripLights.c **** 
 294:Generated_Source\PSoC4/StripLights.c ****     if(StripLights_initvar == 0)
 295:Generated_Source\PSoC4/StripLights.c ****     {
 296:Generated_Source\PSoC4/StripLights.c **** 
 297:Generated_Source\PSoC4/StripLights.c ****         StripLights_initvar = 1;
 298:Generated_Source\PSoC4/StripLights.c ****  
 299:Generated_Source\PSoC4/StripLights.c ****          /* Start and set interrupt vector */
 300:Generated_Source\PSoC4/StripLights.c **** 
 301:Generated_Source\PSoC4/StripLights.c **** #if(StripLights_TRANSFER == StripLights_TRANSFER_ISR)
 302:Generated_Source\PSoC4/StripLights.c ****        {
 303:Generated_Source\PSoC4/StripLights.c ****            StripLights_cisr_StartEx(StripLights_CISR);
 304:Generated_Source\PSoC4/StripLights.c **** 		   StripLights_fisr_StartEx(StripLights_FISR);
 305:Generated_Source\PSoC4/StripLights.c ****         
 306:Generated_Source\PSoC4/StripLights.c ****            /* Set the ISRs to the highest priority */
 307:Generated_Source\PSoC4/StripLights.c ****            StripLights_cisr_SetPriority(1u);
 308:Generated_Source\PSoC4/StripLights.c ****            StripLights_fisr_SetPriority(0u);
 309:Generated_Source\PSoC4/StripLights.c ****        }
 310:Generated_Source\PSoC4/StripLights.c **** #endif       
 311:Generated_Source\PSoC4/StripLights.c ****        if(StripLights_TRANSFER == StripLights_TRANSFER_FIRMWARE)
 312:Generated_Source\PSoC4/StripLights.c ****        {
 313:Generated_Source\PSoC4/StripLights.c ****            StripLights_CONTROL = StripLights_ENABLE;    
 314:Generated_Source\PSoC4/StripLights.c ****        }
 315:Generated_Source\PSoC4/StripLights.c ****     }
ARM GAS  C:\Users\JAMESS~1\AppData\Local\Temp\ccd7YNc7.s 			page 7


 316:Generated_Source\PSoC4/StripLights.c ****     StripLights_refreshComplete = 1;
 317:Generated_Source\PSoC4/StripLights.c **** }
 318:Generated_Source\PSoC4/StripLights.c **** 
 319:Generated_Source\PSoC4/StripLights.c **** /*******************************************************************************
 320:Generated_Source\PSoC4/StripLights.c **** * Function Name: StripLights_SetCriticalFuncs
 321:Generated_Source\PSoC4/StripLights.c **** ********************************************************************************
 322:Generated_Source\PSoC4/StripLights.c **** * Summary:
 323:Generated_Source\PSoC4/StripLights.c **** *   Set the enter and exit critical functions
 324:Generated_Source\PSoC4/StripLights.c **** *
 325:Generated_Source\PSoC4/StripLights.c **** * Parameters:  
 326:Generated_Source\PSoC4/StripLights.c **** *  void  
 327:Generated_Source\PSoC4/StripLights.c **** *
 328:Generated_Source\PSoC4/StripLights.c **** * Return: 
 329:Generated_Source\PSoC4/StripLights.c **** *  void
 330:Generated_Source\PSoC4/StripLights.c **** *
 331:Generated_Source\PSoC4/StripLights.c **** *******************************************************************************/
 332:Generated_Source\PSoC4/StripLights.c **** void StripLights_SetCriticalFuncs(funcPtr EnCriticalFunc, funcPtr ExCriticalFunc)
 333:Generated_Source\PSoC4/StripLights.c **** {
 334:Generated_Source\PSoC4/StripLights.c ****     StripLights_EnterCritical = EnCriticalFunc;
 335:Generated_Source\PSoC4/StripLights.c ****     StripLights_ExitCritical  = ExCriticalFunc;   
 336:Generated_Source\PSoC4/StripLights.c **** }
 337:Generated_Source\PSoC4/StripLights.c **** 
 338:Generated_Source\PSoC4/StripLights.c **** /*******************************************************************************
 339:Generated_Source\PSoC4/StripLights.c **** * Function Name: StripLights_TriggerWaitDelay
 340:Generated_Source\PSoC4/StripLights.c **** ********************************************************************************
 341:Generated_Source\PSoC4/StripLights.c **** * Summary:
 342:Generated_Source\PSoC4/StripLights.c **** *   Update the LEDs then wait for completion.
 343:Generated_Source\PSoC4/StripLights.c **** *
 344:Generated_Source\PSoC4/StripLights.c **** * Parameters:  
 345:Generated_Source\PSoC4/StripLights.c **** *  void  
 346:Generated_Source\PSoC4/StripLights.c **** *
 347:Generated_Source\PSoC4/StripLights.c **** * Return: 
 348:Generated_Source\PSoC4/StripLights.c **** *  void
 349:Generated_Source\PSoC4/StripLights.c **** *
 350:Generated_Source\PSoC4/StripLights.c **** *******************************************************************************/
 351:Generated_Source\PSoC4/StripLights.c **** void StripLights_TriggerWaitDelay(uint32 delay)
 352:Generated_Source\PSoC4/StripLights.c **** {
 353:Generated_Source\PSoC4/StripLights.c **** 
 354:Generated_Source\PSoC4/StripLights.c ****     uint32 toCount = 0;
 355:Generated_Source\PSoC4/StripLights.c ****     
 356:Generated_Source\PSoC4/StripLights.c ****     // Call Critical section function here
 357:Generated_Source\PSoC4/StripLights.c ****     if(StripLights_EnterCritical != (funcPtr)0)
 358:Generated_Source\PSoC4/StripLights.c ****     {
 359:Generated_Source\PSoC4/StripLights.c ****         StripLights_EnterCritical();    
 360:Generated_Source\PSoC4/StripLights.c ****     }
 361:Generated_Source\PSoC4/StripLights.c ****     
 362:Generated_Source\PSoC4/StripLights.c ****     StripLights_Trigger(1);           // Trigger the LED update
 363:Generated_Source\PSoC4/StripLights.c ****     
 364:Generated_Source\PSoC4/StripLights.c ****     while( StripLights_Ready() == 0)
 365:Generated_Source\PSoC4/StripLights.c ****     {
 366:Generated_Source\PSoC4/StripLights.c ****         if(toCount > (StripLights_READY_TIMEOUT  * 10)) break; 
 367:Generated_Source\PSoC4/StripLights.c ****         CyDelayUs(100);  
 368:Generated_Source\PSoC4/StripLights.c ****         toCount++;
 369:Generated_Source\PSoC4/StripLights.c ****     }
 370:Generated_Source\PSoC4/StripLights.c ****     
 371:Generated_Source\PSoC4/StripLights.c ****     while(toCount < (delay*10)) 
 372:Generated_Source\PSoC4/StripLights.c ****     {
ARM GAS  C:\Users\JAMESS~1\AppData\Local\Temp\ccd7YNc7.s 			page 8


 373:Generated_Source\PSoC4/StripLights.c ****         toCount++;
 374:Generated_Source\PSoC4/StripLights.c ****         CyDelayUs(100); 
 375:Generated_Source\PSoC4/StripLights.c ****     }
 376:Generated_Source\PSoC4/StripLights.c ****     
 377:Generated_Source\PSoC4/StripLights.c ****     
 378:Generated_Source\PSoC4/StripLights.c ****     // Call undo critical function here
 379:Generated_Source\PSoC4/StripLights.c ****       if(StripLights_ExitCritical != (funcPtr)0)
 380:Generated_Source\PSoC4/StripLights.c ****     {
 381:Generated_Source\PSoC4/StripLights.c ****         StripLights_ExitCritical();    
 382:Generated_Source\PSoC4/StripLights.c ****     }
 383:Generated_Source\PSoC4/StripLights.c ****     
 384:Generated_Source\PSoC4/StripLights.c ****     
 385:Generated_Source\PSoC4/StripLights.c **** }
 386:Generated_Source\PSoC4/StripLights.c **** 
 387:Generated_Source\PSoC4/StripLights.c **** /*******************************************************************************
 388:Generated_Source\PSoC4/StripLights.c **** * Function Name: StripLights_TriggerWait
 389:Generated_Source\PSoC4/StripLights.c **** ********************************************************************************
 390:Generated_Source\PSoC4/StripLights.c **** * Summary:
 391:Generated_Source\PSoC4/StripLights.c **** *   Update the LEDs then waits for completion.
 392:Generated_Source\PSoC4/StripLights.c **** *
 393:Generated_Source\PSoC4/StripLights.c **** * Parameters:  
 394:Generated_Source\PSoC4/StripLights.c ****   rst: Resets the row and column parameters.    
 395:Generated_Source\PSoC4/StripLights.c **** *
 396:Generated_Source\PSoC4/StripLights.c **** * Return: 
 397:Generated_Source\PSoC4/StripLights.c **** *  void
 398:Generated_Source\PSoC4/StripLights.c **** *
 399:Generated_Source\PSoC4/StripLights.c **** *******************************************************************************/
 400:Generated_Source\PSoC4/StripLights.c **** void StripLights_TriggerWait(uint32 rst)
 401:Generated_Source\PSoC4/StripLights.c **** {
 402:Generated_Source\PSoC4/StripLights.c **** 
 403:Generated_Source\PSoC4/StripLights.c ****     
 404:Generated_Source\PSoC4/StripLights.c ****     // Call Critical section function here
 405:Generated_Source\PSoC4/StripLights.c ****     if(StripLights_EnterCritical != (funcPtr)0)
 406:Generated_Source\PSoC4/StripLights.c ****     {
 407:Generated_Source\PSoC4/StripLights.c ****         StripLights_EnterCritical();    
 408:Generated_Source\PSoC4/StripLights.c ****     }
 409:Generated_Source\PSoC4/StripLights.c ****     
 410:Generated_Source\PSoC4/StripLights.c ****     StripLights_Trigger(rst);
 411:Generated_Source\PSoC4/StripLights.c ****     
 412:Generated_Source\PSoC4/StripLights.c ****     while( StripLights_Ready() == 0);
 413:Generated_Source\PSoC4/StripLights.c ****     
 414:Generated_Source\PSoC4/StripLights.c ****     
 415:Generated_Source\PSoC4/StripLights.c ****     // Call undo critical function here
 416:Generated_Source\PSoC4/StripLights.c ****       if(StripLights_ExitCritical != (funcPtr)0)
 417:Generated_Source\PSoC4/StripLights.c ****     {
 418:Generated_Source\PSoC4/StripLights.c ****         StripLights_ExitCritical();    
 419:Generated_Source\PSoC4/StripLights.c ****     }
 420:Generated_Source\PSoC4/StripLights.c ****     
 421:Generated_Source\PSoC4/StripLights.c ****     
 422:Generated_Source\PSoC4/StripLights.c **** }
 423:Generated_Source\PSoC4/StripLights.c **** 
 424:Generated_Source\PSoC4/StripLights.c **** 
 425:Generated_Source\PSoC4/StripLights.c **** /*******************************************************************************
 426:Generated_Source\PSoC4/StripLights.c **** * Function Name: StripLights_Trigger
 427:Generated_Source\PSoC4/StripLights.c **** ********************************************************************************
 428:Generated_Source\PSoC4/StripLights.c **** * Summary:
 429:Generated_Source\PSoC4/StripLights.c **** *   Update the LEDs with graphics memory.
ARM GAS  C:\Users\JAMESS~1\AppData\Local\Temp\ccd7YNc7.s 			page 9


 430:Generated_Source\PSoC4/StripLights.c **** *
 431:Generated_Source\PSoC4/StripLights.c **** * Parameters:  
 432:Generated_Source\PSoC4/StripLights.c **** *  rst: Resets the row and column parameters.  
 433:Generated_Source\PSoC4/StripLights.c **** *
 434:Generated_Source\PSoC4/StripLights.c **** * Return: 
 435:Generated_Source\PSoC4/StripLights.c **** *  void
 436:Generated_Source\PSoC4/StripLights.c **** *
 437:Generated_Source\PSoC4/StripLights.c **** *******************************************************************************/
 438:Generated_Source\PSoC4/StripLights.c **** void StripLights_Trigger(uint32 rst)
 439:Generated_Source\PSoC4/StripLights.c **** {
 440:Generated_Source\PSoC4/StripLights.c ****     uint32 color;
 441:Generated_Source\PSoC4/StripLights.c ****     
 442:Generated_Source\PSoC4/StripLights.c ****     if(rst) 
 443:Generated_Source\PSoC4/StripLights.c ****     {
 444:Generated_Source\PSoC4/StripLights.c ****         StripLights_row = 0;  /* Reset the row */
 445:Generated_Source\PSoC4/StripLights.c ****         StripLights_Channel = 0;
 446:Generated_Source\PSoC4/StripLights.c ****     }
 447:Generated_Source\PSoC4/StripLights.c ****     
 448:Generated_Source\PSoC4/StripLights.c ****     #if(StripLights_MEMORY_TYPE == StripLights_MEMORY_RGB)
 449:Generated_Source\PSoC4/StripLights.c ****        color = StripLights_ledArray[StripLights_row][0];
 450:Generated_Source\PSoC4/StripLights.c ****     #else  /* Else use lookup table */
 451:Generated_Source\PSoC4/StripLights.c ****        color = StripLights_CLUT[ (StripLights_ledArray[StripLights_row][0]) ];
 452:Generated_Source\PSoC4/StripLights.c ****     #endif
 453:Generated_Source\PSoC4/StripLights.c ****     
 454:Generated_Source\PSoC4/StripLights.c ****      color = (color >> StripLights_DimShift) & StripLights_DimMask;
 455:Generated_Source\PSoC4/StripLights.c ****      
 456:Generated_Source\PSoC4/StripLights.c ****     #if(StripLights_GAMMA_CORRECTION == StripLights_GAMMA_ON)
 457:Generated_Source\PSoC4/StripLights.c ****         StripLights_DATA = StripLights_gamma[color & 0x000000FF];  // Write Green
 458:Generated_Source\PSoC4/StripLights.c ****         color = color >> 8;
 459:Generated_Source\PSoC4/StripLights.c ****         StripLights_DATA = StripLights_gamma[color & 0x000000FF];  // Write Red
 460:Generated_Source\PSoC4/StripLights.c ****         color = color >> 8;
 461:Generated_Source\PSoC4/StripLights.c ****         StripLights_DATA = StripLights_gamma[color & 0x000000FF];  // Write Blue
 462:Generated_Source\PSoC4/StripLights.c ****         #if(StripLights_CHIP == StripLights_CHIP_SF2812RGBW)
 463:Generated_Source\PSoC4/StripLights.c ****             color = color >> 8;
 464:Generated_Source\PSoC4/StripLights.c ****             StripLights_DATA = StripLights_gamma[color & 0x000000FF];  // Write White
 465:Generated_Source\PSoC4/StripLights.c ****         #endif
 466:Generated_Source\PSoC4/StripLights.c ****     #else
 467:Generated_Source\PSoC4/StripLights.c ****         StripLights_DATA = (uint8)(color & 0x000000FF);  // Write Green
 468:Generated_Source\PSoC4/StripLights.c ****         color = color >> 8;
 469:Generated_Source\PSoC4/StripLights.c ****         StripLights_DATA = (uint8)(color & 0x000000FF);  // Write Red
 470:Generated_Source\PSoC4/StripLights.c ****         color = color >> 8;
 471:Generated_Source\PSoC4/StripLights.c ****         StripLights_DATA = (uint8)(color & 0x000000FF);  // Write Blue  
 472:Generated_Source\PSoC4/StripLights.c ****         #if(StripLights_CHIP == StripLights_CHIP_SF2812RGBW)
 473:Generated_Source\PSoC4/StripLights.c ****             color = color >> 8;
 474:Generated_Source\PSoC4/StripLights.c ****         StripLights_DATA = (uint8)(color & 0x000000FF);  // Write White 
 475:Generated_Source\PSoC4/StripLights.c ****         #endif
 476:Generated_Source\PSoC4/StripLights.c ****     #endif
 477:Generated_Source\PSoC4/StripLights.c ****   
 478:Generated_Source\PSoC4/StripLights.c ****     StripLights_ledIndex = 1;
 479:Generated_Source\PSoC4/StripLights.c **** 	
 480:Generated_Source\PSoC4/StripLights.c **** 	StripLights_CONTROL = StripLights_ENABLE | StripLights_XFRCMPT_IRQ_EN | StripLights_FIFO_IRQ_EN; 
 481:Generated_Source\PSoC4/StripLights.c ****     StripLights_refreshComplete = 0;
 482:Generated_Source\PSoC4/StripLights.c **** }
 483:Generated_Source\PSoC4/StripLights.c **** 
 484:Generated_Source\PSoC4/StripLights.c **** /*******************************************************************************
 485:Generated_Source\PSoC4/StripLights.c **** * Function Name: StripLights_Ready
 486:Generated_Source\PSoC4/StripLights.c **** ********************************************************************************
ARM GAS  C:\Users\JAMESS~1\AppData\Local\Temp\ccd7YNc7.s 			page 10


 487:Generated_Source\PSoC4/StripLights.c **** * Summary:
 488:Generated_Source\PSoC4/StripLights.c **** *  Checks to see if transfer is complete.
 489:Generated_Source\PSoC4/StripLights.c **** *
 490:Generated_Source\PSoC4/StripLights.c **** * Parameters:  
 491:Generated_Source\PSoC4/StripLights.c **** *  none  
 492:Generated_Source\PSoC4/StripLights.c **** *
 493:Generated_Source\PSoC4/StripLights.c **** * Return: 
 494:Generated_Source\PSoC4/StripLights.c **** *  Zero if not complete, non-zero if transfer complete.
 495:Generated_Source\PSoC4/StripLights.c **** *
 496:Generated_Source\PSoC4/StripLights.c **** *******************************************************************************/
 497:Generated_Source\PSoC4/StripLights.c **** uint32 StripLights_Ready(void)
 498:Generated_Source\PSoC4/StripLights.c **** {
 499:Generated_Source\PSoC4/StripLights.c ****     if(StripLights_refreshComplete )
 500:Generated_Source\PSoC4/StripLights.c ****     {
 501:Generated_Source\PSoC4/StripLights.c ****         StripLights_CONTROL = StripLights_DISABLE;
 502:Generated_Source\PSoC4/StripLights.c ****         return((uint32)1);
 503:Generated_Source\PSoC4/StripLights.c ****     }
 504:Generated_Source\PSoC4/StripLights.c ****     else
 505:Generated_Source\PSoC4/StripLights.c ****     {
 506:Generated_Source\PSoC4/StripLights.c ****          return((uint32)0);
 507:Generated_Source\PSoC4/StripLights.c ****     }
 508:Generated_Source\PSoC4/StripLights.c **** }
 509:Generated_Source\PSoC4/StripLights.c **** 
 510:Generated_Source\PSoC4/StripLights.c **** 
 511:Generated_Source\PSoC4/StripLights.c **** /*******************************************************************************
 512:Generated_Source\PSoC4/StripLights.c **** * Function Name: StripLights_Stop
 513:Generated_Source\PSoC4/StripLights.c **** ********************************************************************************
 514:Generated_Source\PSoC4/StripLights.c **** * Summary:
 515:Generated_Source\PSoC4/StripLights.c **** *  Stop all transfers.
 516:Generated_Source\PSoC4/StripLights.c **** *
 517:Generated_Source\PSoC4/StripLights.c **** * Parameters:  
 518:Generated_Source\PSoC4/StripLights.c **** *  None 
 519:Generated_Source\PSoC4/StripLights.c **** *
 520:Generated_Source\PSoC4/StripLights.c **** * Return: 
 521:Generated_Source\PSoC4/StripLights.c **** *  void
 522:Generated_Source\PSoC4/StripLights.c **** *
 523:Generated_Source\PSoC4/StripLights.c **** *******************************************************************************/
 524:Generated_Source\PSoC4/StripLights.c **** void StripLights_Stop()
 525:Generated_Source\PSoC4/StripLights.c **** {
 526:Generated_Source\PSoC4/StripLights.c ****     StripLights_CONTROL = StripLights_DISABLE;
 527:Generated_Source\PSoC4/StripLights.c **** }
 528:Generated_Source\PSoC4/StripLights.c **** 
 529:Generated_Source\PSoC4/StripLights.c **** uint32 StripLights_getColor( uint32 color)
 530:Generated_Source\PSoC4/StripLights.c **** {
 531:Generated_Source\PSoC4/StripLights.c ****     #if(StripLights_MEMORY_TYPE == StripLights_MEMORY_RGB)
 532:Generated_Source\PSoC4/StripLights.c ****     color = StripLights_CLUT[color];
 533:Generated_Source\PSoC4/StripLights.c ****     #endif
 534:Generated_Source\PSoC4/StripLights.c **** 
 535:Generated_Source\PSoC4/StripLights.c ****     return(color);
 536:Generated_Source\PSoC4/StripLights.c **** }
 537:Generated_Source\PSoC4/StripLights.c **** 
 538:Generated_Source\PSoC4/StripLights.c **** /*******************************************************************************
 539:Generated_Source\PSoC4/StripLights.c **** * Function Name: StripLights_ColorInc
 540:Generated_Source\PSoC4/StripLights.c **** ********************************************************************************
 541:Generated_Source\PSoC4/StripLights.c **** * Summary:
 542:Generated_Source\PSoC4/StripLights.c **** *  Increment color throught the color lookup table.
 543:Generated_Source\PSoC4/StripLights.c **** *
ARM GAS  C:\Users\JAMESS~1\AppData\Local\Temp\ccd7YNc7.s 			page 11


 544:Generated_Source\PSoC4/StripLights.c **** * Parameters:  
 545:Generated_Source\PSoC4/StripLights.c **** *  uint32 incValue: Increment through color table by incValue. 
 546:Generated_Source\PSoC4/StripLights.c **** *
 547:Generated_Source\PSoC4/StripLights.c **** * Return: Color at next location.
 548:Generated_Source\PSoC4/StripLights.c **** *  
 549:Generated_Source\PSoC4/StripLights.c **** *
 550:Generated_Source\PSoC4/StripLights.c **** *******************************************************************************/
 551:Generated_Source\PSoC4/StripLights.c **** uint32 StripLights_ColorInc(uint32 incValue)
 552:Generated_Source\PSoC4/StripLights.c **** {
 553:Generated_Source\PSoC4/StripLights.c ****     uint32 color;
 554:Generated_Source\PSoC4/StripLights.c ****     extern const uint32 StripLights_CLUT[];
 555:Generated_Source\PSoC4/StripLights.c ****     static uint32 colorIndex = 0;
 556:Generated_Source\PSoC4/StripLights.c ****     
 557:Generated_Source\PSoC4/StripLights.c ****     colorIndex += incValue;
 558:Generated_Source\PSoC4/StripLights.c ****     colorIndex = colorIndex % StripLights_COLOR_WHEEL_SIZE;
 559:Generated_Source\PSoC4/StripLights.c **** 
 560:Generated_Source\PSoC4/StripLights.c ****     #if(StripLights_MEMORY_TYPE == StripLights_MEMORY_RGB)
 561:Generated_Source\PSoC4/StripLights.c ****        color = StripLights_CLUT[ colorIndex ];
 562:Generated_Source\PSoC4/StripLights.c ****     #else
 563:Generated_Source\PSoC4/StripLights.c ****         color = colorIndex;
 564:Generated_Source\PSoC4/StripLights.c ****     #endif
 565:Generated_Source\PSoC4/StripLights.c ****     return(color);
 566:Generated_Source\PSoC4/StripLights.c **** }
 567:Generated_Source\PSoC4/StripLights.c **** /*****************************************************************************
 568:Generated_Source\PSoC4/StripLights.c **** * Function Name: StripLights_FISR
 569:Generated_Source\PSoC4/StripLights.c **** ******************************************************************************
 570:Generated_Source\PSoC4/StripLights.c **** *
 571:Generated_Source\PSoC4/StripLights.c **** * Summary:
 572:Generated_Source\PSoC4/StripLights.c **** *  Interrupt service handler for data transfer for each LED 
 573:Generated_Source\PSoC4/StripLights.c **** *
 574:Generated_Source\PSoC4/StripLights.c **** * Parameters:  
 575:Generated_Source\PSoC4/StripLights.c **** *  void
 576:Generated_Source\PSoC4/StripLights.c **** *
 577:Generated_Source\PSoC4/StripLights.c **** * Return: 
 578:Generated_Source\PSoC4/StripLights.c **** *  void 
 579:Generated_Source\PSoC4/StripLights.c **** *
 580:Generated_Source\PSoC4/StripLights.c **** * Reentrant: 
 581:Generated_Source\PSoC4/StripLights.c **** *  No
 582:Generated_Source\PSoC4/StripLights.c **** *
 583:Generated_Source\PSoC4/StripLights.c **** *****************************************************************************/
 584:Generated_Source\PSoC4/StripLights.c **** CY_ISR( StripLights_FISR)
 585:Generated_Source\PSoC4/StripLights.c **** {
  28              		.loc 1 585 0
  29              		.cfi_startproc
  30              		@ args = 0, pretend = 0, frame = 0
  31              		@ frame_needed = 0, uses_anonymous_args = 0
  32 0000 70B5     		push	{r4, r5, r6, lr}
  33              		.cfi_def_cfa_offset 16
  34              		.cfi_offset 4, -16
  35              		.cfi_offset 5, -12
  36              		.cfi_offset 6, -8
  37              		.cfi_offset 14, -4
 586:Generated_Source\PSoC4/StripLights.c ****     extern uint32  StripLights_DimMask;
 587:Generated_Source\PSoC4/StripLights.c ****     extern uint32  StripLights_DimShift;
 588:Generated_Source\PSoC4/StripLights.c ****     uint32 static color;
 589:Generated_Source\PSoC4/StripLights.c ****    
 590:Generated_Source\PSoC4/StripLights.c ****     #if(StripLights_MEMORY_TYPE == StripLights_MEMORY_RGB)
ARM GAS  C:\Users\JAMESS~1\AppData\Local\Temp\ccd7YNc7.s 			page 12


 591:Generated_Source\PSoC4/StripLights.c ****         color = StripLights_ledArray[StripLights_row][StripLights_ledIndex];
  38              		.loc 1 591 0
  39 0002 1449     		ldr	r1, .L3
  40 0004 0A68     		ldr	r2, [r1]
  41 0006 9300     		lsls	r3, r2, #2
  42 0008 9B18     		adds	r3, r3, r2
  43 000a 1A01     		lsls	r2, r3, #4
  44 000c D31A     		subs	r3, r2, r3
  45 000e 4A68     		ldr	r2, [r1, #4]
  46 0010 9B18     		adds	r3, r3, r2
  47 0012 9B00     		lsls	r3, r3, #2
  48 0014 1048     		ldr	r0, .L3+4
  49 0016 1B58     		ldr	r3, [r3, r0]
 592:Generated_Source\PSoC4/StripLights.c ****     #else  /* Else use lookup table */
 593:Generated_Source\PSoC4/StripLights.c ****         color = StripLights_CLUT[ (StripLights_ledArray[StripLights_row][StripLights_ledIndex]) ];
 594:Generated_Source\PSoC4/StripLights.c ****     #endif
 595:Generated_Source\PSoC4/StripLights.c **** 
 596:Generated_Source\PSoC4/StripLights.c ****     color = (color >> StripLights_DimShift) & StripLights_DimMask;  
  50              		.loc 1 596 0
  51 0018 1048     		ldr	r0, .L3+8
  52 001a 0068     		ldr	r0, [r0]
  53 001c C340     		lsrs	r3, r3, r0
  54 001e 1048     		ldr	r0, .L3+12
  55 0020 0068     		ldr	r0, [r0]
  56 0022 0340     		ands	r3, r0
 597:Generated_Source\PSoC4/StripLights.c **** 
 598:Generated_Source\PSoC4/StripLights.c ****     #if(StripLights_GAMMA_CORRECTION == StripLights_GAMMA_ON)
 599:Generated_Source\PSoC4/StripLights.c **** 
 600:Generated_Source\PSoC4/StripLights.c ****         StripLights_DATA = StripLights_gamma[color & 0x000000FF];  // Write Green
  57              		.loc 1 600 0
  58 0024 FF25     		movs	r5, #255
  59 0026 2800     		movs	r0, r5
  60 0028 1840     		ands	r0, r3
  61 002a 0E4C     		ldr	r4, .L3+16
  62 002c 265C     		ldrb	r6, [r4, r0]
  63 002e 0E48     		ldr	r0, .L3+20
  64 0030 0670     		strb	r6, [r0]
 601:Generated_Source\PSoC4/StripLights.c ****         color = color >> 8;
  65              		.loc 1 601 0
  66 0032 1E0A     		lsrs	r6, r3, #8
 602:Generated_Source\PSoC4/StripLights.c ****         StripLights_DATA = StripLights_gamma[color & 0x000000FF];  // Write Red
  67              		.loc 1 602 0
  68 0034 2E40     		ands	r6, r5
  69 0036 A65D     		ldrb	r6, [r4, r6]
  70 0038 0670     		strb	r6, [r0]
 603:Generated_Source\PSoC4/StripLights.c ****         color = color >> 8;
  71              		.loc 1 603 0
  72 003a 1B0C     		lsrs	r3, r3, #16
  73 003c 8B60     		str	r3, [r1, #8]
 604:Generated_Source\PSoC4/StripLights.c ****         StripLights_DATA = StripLights_gamma[color & 0x000000FF];  // Write Blue
  74              		.loc 1 604 0
  75 003e 2B40     		ands	r3, r5
  76 0040 E35C     		ldrb	r3, [r4, r3]
  77 0042 0370     		strb	r3, [r0]
 605:Generated_Source\PSoC4/StripLights.c ****         #if(StripLights_CHIP == StripLights_CHIP_SF2812RGBW)
 606:Generated_Source\PSoC4/StripLights.c ****             color = color >> 8;
 607:Generated_Source\PSoC4/StripLights.c ****             StripLights_DATA = StripLights_gamma[color & 0x000000FF];  // Write White 
ARM GAS  C:\Users\JAMESS~1\AppData\Local\Temp\ccd7YNc7.s 			page 13


 608:Generated_Source\PSoC4/StripLights.c ****         #endif
 609:Generated_Source\PSoC4/StripLights.c ****     #else
 610:Generated_Source\PSoC4/StripLights.c **** 
 611:Generated_Source\PSoC4/StripLights.c ****         StripLights_DATA = (uint8)(color & 0x000000FF);  // Write Green
 612:Generated_Source\PSoC4/StripLights.c ****         color = color >> 8;
 613:Generated_Source\PSoC4/StripLights.c ****         StripLights_DATA = (uint8)(color & 0x000000FF);  // Write Red
 614:Generated_Source\PSoC4/StripLights.c ****         color = color >> 8;
 615:Generated_Source\PSoC4/StripLights.c ****         StripLights_DATA = (uint8)(color & 0x000000FF);  // Write Blue    
 616:Generated_Source\PSoC4/StripLights.c ****          #if(StripLights_CHIP == StripLights_CHIP_SF2812RGBW)
 617:Generated_Source\PSoC4/StripLights.c ****             color = color >> 8;
 618:Generated_Source\PSoC4/StripLights.c ****             StripLights_DATA = (uint8)(color & 0x000000FF);  // Write White 
 619:Generated_Source\PSoC4/StripLights.c ****         #endif 
 620:Generated_Source\PSoC4/StripLights.c ****     #endif
 621:Generated_Source\PSoC4/StripLights.c ****     
 622:Generated_Source\PSoC4/StripLights.c ****     StripLights_ledIndex++;
  78              		.loc 1 622 0
  79 0044 0132     		adds	r2, r2, #1
  80 0046 4A60     		str	r2, [r1, #4]
 623:Generated_Source\PSoC4/StripLights.c ****     if(StripLights_ledIndex >= StripLights_ARRAY_COLS)
  81              		.loc 1 623 0
  82 0048 4A2A     		cmp	r2, #74
  83 004a 02D9     		bls	.L1
 624:Generated_Source\PSoC4/StripLights.c ****     {
 625:Generated_Source\PSoC4/StripLights.c ****         StripLights_CONTROL = StripLights_ENABLE | StripLights_XFRCMPT_IRQ_EN; 
  84              		.loc 1 625 0
  85 004c 1122     		movs	r2, #17
  86 004e 074B     		ldr	r3, .L3+24
  87 0050 1A70     		strb	r2, [r3]
  88              	.L1:
 626:Generated_Source\PSoC4/StripLights.c ****     }
 627:Generated_Source\PSoC4/StripLights.c **** }
  89              		.loc 1 627 0
  90              		@ sp needed
  91 0052 70BD     		pop	{r4, r5, r6, pc}
  92              	.L4:
  93              		.align	2
  94              	.L3:
  95 0054 00000000 		.word	.LANCHOR0
  96 0058 00000000 		.word	StripLights_ledArray
  97 005c 00000000 		.word	StripLights_DimShift
  98 0060 00000000 		.word	StripLights_DimMask
  99 0064 00000000 		.word	.LANCHOR1
 100 0068 42000F40 		.word	1074724930
 101 006c 72000F40 		.word	1074724978
 102              		.cfi_endproc
 103              	.LFE41:
 104              		.size	StripLights_FISR, .-StripLights_FISR
 105              		.section	.text.StripLights_CISR,"ax",%progbits
 106              		.align	2
 107              		.global	StripLights_CISR
 108              		.code	16
 109              		.thumb_func
 110              		.type	StripLights_CISR, %function
 111              	StripLights_CISR:
 112              	.LFB42:
 628:Generated_Source\PSoC4/StripLights.c **** 
 629:Generated_Source\PSoC4/StripLights.c **** /*****************************************************************************
ARM GAS  C:\Users\JAMESS~1\AppData\Local\Temp\ccd7YNc7.s 			page 14


 630:Generated_Source\PSoC4/StripLights.c **** * Function Name: StripLights_CISR
 631:Generated_Source\PSoC4/StripLights.c **** ******************************************************************************
 632:Generated_Source\PSoC4/StripLights.c **** *
 633:Generated_Source\PSoC4/StripLights.c **** * Summary:
 634:Generated_Source\PSoC4/StripLights.c **** *  Interrupt service handler after each row is complete.
 635:Generated_Source\PSoC4/StripLights.c **** *
 636:Generated_Source\PSoC4/StripLights.c **** * Parameters:  
 637:Generated_Source\PSoC4/StripLights.c **** *  void
 638:Generated_Source\PSoC4/StripLights.c **** *
 639:Generated_Source\PSoC4/StripLights.c **** * Return: 
 640:Generated_Source\PSoC4/StripLights.c **** *  void 
 641:Generated_Source\PSoC4/StripLights.c **** *
 642:Generated_Source\PSoC4/StripLights.c **** * Reentrant: 
 643:Generated_Source\PSoC4/StripLights.c **** *  No
 644:Generated_Source\PSoC4/StripLights.c **** *
 645:Generated_Source\PSoC4/StripLights.c **** *****************************************************************************/
 646:Generated_Source\PSoC4/StripLights.c **** CY_ISR( StripLights_CISR)
 647:Generated_Source\PSoC4/StripLights.c **** {
 113              		.loc 1 647 0
 114              		.cfi_startproc
 115              		@ args = 0, pretend = 0, frame = 0
 116              		@ frame_needed = 0, uses_anonymous_args = 0
 117 0000 30B5     		push	{r4, r5, lr}
 118              		.cfi_def_cfa_offset 12
 119              		.cfi_offset 4, -12
 120              		.cfi_offset 5, -8
 121              		.cfi_offset 14, -4
 648:Generated_Source\PSoC4/StripLights.c ****     extern uint32  StripLights_DimMask;
 649:Generated_Source\PSoC4/StripLights.c ****     extern uint32  StripLights_DimShift;
 650:Generated_Source\PSoC4/StripLights.c ****     uint32 static color;
 651:Generated_Source\PSoC4/StripLights.c ****     extern uint32 StripLights_refreshComplete;
 652:Generated_Source\PSoC4/StripLights.c **** 
 653:Generated_Source\PSoC4/StripLights.c **** 	StripLights_CONTROL = StripLights_ENABLE |StripLights_NEXT_ROW;
 122              		.loc 1 653 0
 123 0002 2122     		movs	r2, #33
 124 0004 184B     		ldr	r3, .L8
 125 0006 1A70     		strb	r2, [r3]
 654:Generated_Source\PSoC4/StripLights.c ****     StripLights_row++;
 126              		.loc 1 654 0
 127 0008 184A     		ldr	r2, .L8+4
 128 000a 1368     		ldr	r3, [r2]
 129 000c 0133     		adds	r3, r3, #1
 130 000e 1360     		str	r3, [r2]
 655:Generated_Source\PSoC4/StripLights.c ****     if( StripLights_row < StripLights_ARRAY_ROWS)  /* More Rows to do  */
 131              		.loc 1 655 0
 132 0010 002B     		cmp	r3, #0
 133 0012 25D1     		bne	.L6
 656:Generated_Source\PSoC4/StripLights.c ****     {
 657:Generated_Source\PSoC4/StripLights.c ****         StripLights_Channel = StripLights_row;  
 134              		.loc 1 657 0
 135 0014 DBB2     		uxtb	r3, r3
 136 0016 164A     		ldr	r2, .L8+8
 137 0018 1370     		strb	r3, [r2]
 658:Generated_Source\PSoC4/StripLights.c **** 
 659:Generated_Source\PSoC4/StripLights.c **** 		#if(StripLights_MEMORY_TYPE == StripLights_MEMORY_RGB)
 660:Generated_Source\PSoC4/StripLights.c ****              color = StripLights_ledArray[StripLights_row][0];
 138              		.loc 1 660 0
ARM GAS  C:\Users\JAMESS~1\AppData\Local\Temp\ccd7YNc7.s 			page 15


 139 001a 144A     		ldr	r2, .L8+4
 140 001c 9623     		movs	r3, #150
 141 001e 5B00     		lsls	r3, r3, #1
 142 0020 1168     		ldr	r1, [r2]
 143 0022 4B43     		muls	r3, r1
 144 0024 1349     		ldr	r1, .L8+12
 145 0026 5B58     		ldr	r3, [r3, r1]
 661:Generated_Source\PSoC4/StripLights.c ****         #else  /* Else use lookup table */
 662:Generated_Source\PSoC4/StripLights.c ****              color = StripLights_CLUT[ (StripLights_ledArray[StripLights_row][0]) ];
 663:Generated_Source\PSoC4/StripLights.c ****         #endif
 664:Generated_Source\PSoC4/StripLights.c **** 
 665:Generated_Source\PSoC4/StripLights.c ****         color = (color >> StripLights_DimShift) & StripLights_DimMask;
 146              		.loc 1 665 0
 147 0028 1349     		ldr	r1, .L8+16
 148 002a 0968     		ldr	r1, [r1]
 149 002c CB40     		lsrs	r3, r3, r1
 150 002e 1349     		ldr	r1, .L8+20
 151 0030 0968     		ldr	r1, [r1]
 152 0032 0B40     		ands	r3, r1
 666:Generated_Source\PSoC4/StripLights.c ****  
 667:Generated_Source\PSoC4/StripLights.c ****         #if(StripLights_GAMMA_CORRECTION == StripLights_GAMMA_ON)
 668:Generated_Source\PSoC4/StripLights.c ****             StripLights_DATA = StripLights_gamma[color & 0x000000FF];  // Write Green
 153              		.loc 1 668 0
 154 0034 FF24     		movs	r4, #255
 155 0036 2100     		movs	r1, r4
 156 0038 1940     		ands	r1, r3
 157 003a 1148     		ldr	r0, .L8+24
 158 003c 455C     		ldrb	r5, [r0, r1]
 159 003e 1149     		ldr	r1, .L8+28
 160 0040 0D70     		strb	r5, [r1]
 669:Generated_Source\PSoC4/StripLights.c ****             color = color >> 8;
 161              		.loc 1 669 0
 162 0042 1D0A     		lsrs	r5, r3, #8
 670:Generated_Source\PSoC4/StripLights.c ****             StripLights_DATA = StripLights_gamma[color & 0x000000FF];  // Write Red
 163              		.loc 1 670 0
 164 0044 2540     		ands	r5, r4
 165 0046 455D     		ldrb	r5, [r0, r5]
 166 0048 0D70     		strb	r5, [r1]
 671:Generated_Source\PSoC4/StripLights.c ****             color = color >> 8;
 167              		.loc 1 671 0
 168 004a 1B0C     		lsrs	r3, r3, #16
 169 004c D360     		str	r3, [r2, #12]
 672:Generated_Source\PSoC4/StripLights.c ****             StripLights_DATA = StripLights_gamma[color & 0x000000FF];  // Write Blue
 170              		.loc 1 672 0
 171 004e 2340     		ands	r3, r4
 172 0050 C35C     		ldrb	r3, [r0, r3]
 173 0052 0B70     		strb	r3, [r1]
 673:Generated_Source\PSoC4/StripLights.c ****              #if(StripLights_CHIP == StripLights_CHIP_SF2812RGBW)
 674:Generated_Source\PSoC4/StripLights.c ****                 color = color >> 8;
 675:Generated_Source\PSoC4/StripLights.c ****                 StripLights_DATA = StripLights_gamma[color & 0x000000FF];  // Write White 
 676:Generated_Source\PSoC4/StripLights.c ****             #endif 
 677:Generated_Source\PSoC4/StripLights.c ****         #else
 678:Generated_Source\PSoC4/StripLights.c ****             StripLights_DATA = (uint8)(color & 0x000000FF);  // Write Green
 679:Generated_Source\PSoC4/StripLights.c ****             color = color >> 8;
 680:Generated_Source\PSoC4/StripLights.c ****             StripLights_DATA = (uint8)(color & 0x000000FF);  // Write Red
 681:Generated_Source\PSoC4/StripLights.c ****             color = color >> 8;
 682:Generated_Source\PSoC4/StripLights.c ****             StripLights_DATA = (uint8)(color & 0x000000FF);  // Write Blue  
ARM GAS  C:\Users\JAMESS~1\AppData\Local\Temp\ccd7YNc7.s 			page 16


 683:Generated_Source\PSoC4/StripLights.c ****             #if(StripLights_CHIP == StripLights_CHIP_SF2812RGBW)
 684:Generated_Source\PSoC4/StripLights.c ****                 color = color >> 8;
 685:Generated_Source\PSoC4/StripLights.c ****                 StripLights_DATA = (uint8)(color & 0x000000FF);  // Write White 
 686:Generated_Source\PSoC4/StripLights.c ****             #endif  
 687:Generated_Source\PSoC4/StripLights.c ****         #endif
 688:Generated_Source\PSoC4/StripLights.c ****        
 689:Generated_Source\PSoC4/StripLights.c ****         StripLights_ledIndex = 1;
 174              		.loc 1 689 0
 175 0054 0123     		movs	r3, #1
 176 0056 5360     		str	r3, [r2, #4]
 690:Generated_Source\PSoC4/StripLights.c **** 		StripLights_CONTROL = StripLights_ENABLE | StripLights_XFRCMPT_IRQ_EN | StripLights_FIFO_IRQ_EN; 
 177              		.loc 1 690 0
 178 0058 1922     		movs	r2, #25
 179 005a 034B     		ldr	r3, .L8
 180 005c 1A70     		strb	r2, [r3]
 181 005e 02E0     		b	.L5
 182              	.L6:
 691:Generated_Source\PSoC4/StripLights.c ****     }
 692:Generated_Source\PSoC4/StripLights.c ****     else
 693:Generated_Source\PSoC4/StripLights.c ****     {
 694:Generated_Source\PSoC4/StripLights.c ****         StripLights_refreshComplete = 1u;
 183              		.loc 1 694 0
 184 0060 0122     		movs	r2, #1
 185 0062 094B     		ldr	r3, .L8+32
 186 0064 1A60     		str	r2, [r3]
 187              	.L5:
 695:Generated_Source\PSoC4/StripLights.c ****     }
 696:Generated_Source\PSoC4/StripLights.c **** }
 188              		.loc 1 696 0
 189              		@ sp needed
 190 0066 30BD     		pop	{r4, r5, pc}
 191              	.L9:
 192              		.align	2
 193              	.L8:
 194 0068 72000F40 		.word	1074724978
 195 006c 00000000 		.word	.LANCHOR0
 196 0070 70000F40 		.word	1074724976
 197 0074 00000000 		.word	StripLights_ledArray
 198 0078 00000000 		.word	StripLights_DimShift
 199 007c 00000000 		.word	StripLights_DimMask
 200 0080 00000000 		.word	.LANCHOR1
 201 0084 42000F40 		.word	1074724930
 202 0088 00000000 		.word	StripLights_refreshComplete
 203              		.cfi_endproc
 204              	.LFE42:
 205              		.size	StripLights_CISR, .-StripLights_CISR
 206              		.section	.text.StripLights_SetCriticalFuncs,"ax",%progbits
 207              		.align	2
 208              		.global	StripLights_SetCriticalFuncs
 209              		.code	16
 210              		.thumb_func
 211              		.type	StripLights_SetCriticalFuncs, %function
 212              	StripLights_SetCriticalFuncs:
 213              	.LFB33:
 333:Generated_Source\PSoC4/StripLights.c ****     StripLights_EnterCritical = EnCriticalFunc;
 214              		.loc 1 333 0
 215              		.cfi_startproc
ARM GAS  C:\Users\JAMESS~1\AppData\Local\Temp\ccd7YNc7.s 			page 17


 216              		@ args = 0, pretend = 0, frame = 0
 217              		@ frame_needed = 0, uses_anonymous_args = 0
 218              		@ link register save eliminated.
 219              	.LVL0:
 334:Generated_Source\PSoC4/StripLights.c ****     StripLights_ExitCritical  = ExCriticalFunc;   
 220              		.loc 1 334 0
 221 0000 014B     		ldr	r3, .L11
 222 0002 1861     		str	r0, [r3, #16]
 335:Generated_Source\PSoC4/StripLights.c **** }
 223              		.loc 1 335 0
 224 0004 5961     		str	r1, [r3, #20]
 336:Generated_Source\PSoC4/StripLights.c **** 
 225              		.loc 1 336 0
 226              		@ sp needed
 227 0006 7047     		bx	lr
 228              	.L12:
 229              		.align	2
 230              	.L11:
 231 0008 00000000 		.word	.LANCHOR0
 232              		.cfi_endproc
 233              	.LFE33:
 234              		.size	StripLights_SetCriticalFuncs, .-StripLights_SetCriticalFuncs
 235              		.section	.text.StripLights_Trigger,"ax",%progbits
 236              		.align	2
 237              		.global	StripLights_Trigger
 238              		.code	16
 239              		.thumb_func
 240              		.type	StripLights_Trigger, %function
 241              	StripLights_Trigger:
 242              	.LFB36:
 439:Generated_Source\PSoC4/StripLights.c ****     uint32 color;
 243              		.loc 1 439 0
 244              		.cfi_startproc
 245              		@ args = 0, pretend = 0, frame = 0
 246              		@ frame_needed = 0, uses_anonymous_args = 0
 247              	.LVL1:
 248 0000 30B5     		push	{r4, r5, lr}
 249              		.cfi_def_cfa_offset 12
 250              		.cfi_offset 4, -12
 251              		.cfi_offset 5, -8
 252              		.cfi_offset 14, -4
 442:Generated_Source\PSoC4/StripLights.c ****     {
 253              		.loc 1 442 0
 254 0002 0028     		cmp	r0, #0
 255 0004 04D0     		beq	.L14
 444:Generated_Source\PSoC4/StripLights.c ****         StripLights_Channel = 0;
 256              		.loc 1 444 0
 257 0006 0023     		movs	r3, #0
 258 0008 144A     		ldr	r2, .L15
 259 000a 1360     		str	r3, [r2]
 445:Generated_Source\PSoC4/StripLights.c ****     }
 260              		.loc 1 445 0
 261 000c 144A     		ldr	r2, .L15+4
 262 000e 1370     		strb	r3, [r2]
 263              	.L14:
 449:Generated_Source\PSoC4/StripLights.c ****     #else  /* Else use lookup table */
 264              		.loc 1 449 0
ARM GAS  C:\Users\JAMESS~1\AppData\Local\Temp\ccd7YNc7.s 			page 18


 265 0010 124D     		ldr	r5, .L15
 266 0012 9623     		movs	r3, #150
 267 0014 5B00     		lsls	r3, r3, #1
 268 0016 2A68     		ldr	r2, [r5]
 269 0018 5343     		muls	r3, r2
 270 001a 124A     		ldr	r2, .L15+8
 271 001c 9B58     		ldr	r3, [r3, r2]
 272              	.LVL2:
 454:Generated_Source\PSoC4/StripLights.c ****      
 273              		.loc 1 454 0
 274 001e 124A     		ldr	r2, .L15+12
 275 0020 1268     		ldr	r2, [r2]
 276 0022 D340     		lsrs	r3, r3, r2
 277              	.LVL3:
 278 0024 114A     		ldr	r2, .L15+16
 279 0026 1268     		ldr	r2, [r2]
 280 0028 1340     		ands	r3, r2
 281              	.LVL4:
 457:Generated_Source\PSoC4/StripLights.c ****         color = color >> 8;
 282              		.loc 1 457 0
 283 002a FF20     		movs	r0, #255
 284              	.LVL5:
 285 002c 0200     		movs	r2, r0
 286 002e 1A40     		ands	r2, r3
 287 0030 0F49     		ldr	r1, .L15+20
 288 0032 8C5C     		ldrb	r4, [r1, r2]
 289 0034 0F4A     		ldr	r2, .L15+24
 290 0036 1470     		strb	r4, [r2]
 458:Generated_Source\PSoC4/StripLights.c ****         StripLights_DATA = StripLights_gamma[color & 0x000000FF];  // Write Red
 291              		.loc 1 458 0
 292 0038 1C0A     		lsrs	r4, r3, #8
 293              	.LVL6:
 459:Generated_Source\PSoC4/StripLights.c ****         color = color >> 8;
 294              		.loc 1 459 0
 295 003a 0440     		ands	r4, r0
 296              	.LVL7:
 297 003c 0C5D     		ldrb	r4, [r1, r4]
 298 003e 1470     		strb	r4, [r2]
 460:Generated_Source\PSoC4/StripLights.c ****         StripLights_DATA = StripLights_gamma[color & 0x000000FF];  // Write Blue
 299              		.loc 1 460 0
 300 0040 1B0C     		lsrs	r3, r3, #16
 301              	.LVL8:
 461:Generated_Source\PSoC4/StripLights.c ****         #if(StripLights_CHIP == StripLights_CHIP_SF2812RGBW)
 302              		.loc 1 461 0
 303 0042 0340     		ands	r3, r0
 304              	.LVL9:
 305 0044 CB5C     		ldrb	r3, [r1, r3]
 306 0046 1370     		strb	r3, [r2]
 478:Generated_Source\PSoC4/StripLights.c **** 	
 307              		.loc 1 478 0
 308 0048 0123     		movs	r3, #1
 309 004a 6B60     		str	r3, [r5, #4]
 480:Generated_Source\PSoC4/StripLights.c ****     StripLights_refreshComplete = 0;
 310              		.loc 1 480 0
 311 004c 1922     		movs	r2, #25
 312 004e 0A4B     		ldr	r3, .L15+28
 313 0050 1A70     		strb	r2, [r3]
ARM GAS  C:\Users\JAMESS~1\AppData\Local\Temp\ccd7YNc7.s 			page 19


 481:Generated_Source\PSoC4/StripLights.c **** }
 314              		.loc 1 481 0
 315 0052 0022     		movs	r2, #0
 316 0054 094B     		ldr	r3, .L15+32
 317 0056 1A60     		str	r2, [r3]
 482:Generated_Source\PSoC4/StripLights.c **** 
 318              		.loc 1 482 0
 319              		@ sp needed
 320 0058 30BD     		pop	{r4, r5, pc}
 321              	.L16:
 322 005a C046     		.align	2
 323              	.L15:
 324 005c 00000000 		.word	.LANCHOR0
 325 0060 70000F40 		.word	1074724976
 326 0064 00000000 		.word	StripLights_ledArray
 327 0068 00000000 		.word	StripLights_DimShift
 328 006c 00000000 		.word	StripLights_DimMask
 329 0070 00000000 		.word	.LANCHOR1
 330 0074 42000F40 		.word	1074724930
 331 0078 72000F40 		.word	1074724978
 332 007c 00000000 		.word	StripLights_refreshComplete
 333              		.cfi_endproc
 334              	.LFE36:
 335              		.size	StripLights_Trigger, .-StripLights_Trigger
 336              		.section	.text.StripLights_Ready,"ax",%progbits
 337              		.align	2
 338              		.global	StripLights_Ready
 339              		.code	16
 340              		.thumb_func
 341              		.type	StripLights_Ready, %function
 342              	StripLights_Ready:
 343              	.LFB37:
 498:Generated_Source\PSoC4/StripLights.c ****     if(StripLights_refreshComplete )
 344              		.loc 1 498 0
 345              		.cfi_startproc
 346              		@ args = 0, pretend = 0, frame = 0
 347              		@ frame_needed = 0, uses_anonymous_args = 0
 348              		@ link register save eliminated.
 499:Generated_Source\PSoC4/StripLights.c ****     {
 349              		.loc 1 499 0
 350 0000 044B     		ldr	r3, .L19
 351 0002 1868     		ldr	r0, [r3]
 352 0004 0028     		cmp	r0, #0
 353 0006 03D0     		beq	.L18
 501:Generated_Source\PSoC4/StripLights.c ****         return((uint32)1);
 354              		.loc 1 501 0
 355 0008 0022     		movs	r2, #0
 356 000a 034B     		ldr	r3, .L19+4
 357 000c 1A70     		strb	r2, [r3]
 502:Generated_Source\PSoC4/StripLights.c ****     }
 358              		.loc 1 502 0
 359 000e 0120     		movs	r0, #1
 360              	.L18:
 508:Generated_Source\PSoC4/StripLights.c **** 
 361              		.loc 1 508 0
 362              		@ sp needed
 363 0010 7047     		bx	lr
ARM GAS  C:\Users\JAMESS~1\AppData\Local\Temp\ccd7YNc7.s 			page 20


 364              	.L20:
 365 0012 C046     		.align	2
 366              	.L19:
 367 0014 00000000 		.word	StripLights_refreshComplete
 368 0018 72000F40 		.word	1074724978
 369              		.cfi_endproc
 370              	.LFE37:
 371              		.size	StripLights_Ready, .-StripLights_Ready
 372              		.section	.text.StripLights_TriggerWaitDelay,"ax",%progbits
 373              		.align	2
 374              		.global	StripLights_TriggerWaitDelay
 375              		.code	16
 376              		.thumb_func
 377              		.type	StripLights_TriggerWaitDelay, %function
 378              	StripLights_TriggerWaitDelay:
 379              	.LFB34:
 352:Generated_Source\PSoC4/StripLights.c **** 
 380              		.loc 1 352 0
 381              		.cfi_startproc
 382              		@ args = 0, pretend = 0, frame = 0
 383              		@ frame_needed = 0, uses_anonymous_args = 0
 384              	.LVL10:
 385 0000 70B5     		push	{r4, r5, r6, lr}
 386              		.cfi_def_cfa_offset 16
 387              		.cfi_offset 4, -16
 388              		.cfi_offset 5, -12
 389              		.cfi_offset 6, -8
 390              		.cfi_offset 14, -4
 391 0002 0500     		movs	r5, r0
 392              	.LVL11:
 357:Generated_Source\PSoC4/StripLights.c ****     {
 393              		.loc 1 357 0
 394 0004 124B     		ldr	r3, .L28
 395 0006 1B69     		ldr	r3, [r3, #16]
 396 0008 002B     		cmp	r3, #0
 397 000a 00D0     		beq	.L22
 359:Generated_Source\PSoC4/StripLights.c ****     }
 398              		.loc 1 359 0
 399 000c 9847     		blx	r3
 400              	.LVL12:
 401              	.L22:
 362:Generated_Source\PSoC4/StripLights.c ****     
 402              		.loc 1 362 0
 403 000e 0120     		movs	r0, #1
 404 0010 FFF7FEFF 		bl	StripLights_Trigger
 405              	.LVL13:
 354:Generated_Source\PSoC4/StripLights.c ****     
 406              		.loc 1 354 0
 407 0014 0024     		movs	r4, #0
 364:Generated_Source\PSoC4/StripLights.c ****     {
 408              		.loc 1 364 0
 409 0016 07E0     		b	.L23
 410              	.LVL14:
 411              	.L25:
 366:Generated_Source\PSoC4/StripLights.c ****         CyDelayUs(100);  
 412              		.loc 1 366 0
 413 0018 FA23     		movs	r3, #250
ARM GAS  C:\Users\JAMESS~1\AppData\Local\Temp\ccd7YNc7.s 			page 21


 414 001a DB00     		lsls	r3, r3, #3
 415 001c 9C42     		cmp	r4, r3
 416 001e 0CD8     		bhi	.L24
 367:Generated_Source\PSoC4/StripLights.c ****         toCount++;
 417              		.loc 1 367 0
 418 0020 6420     		movs	r0, #100
 419 0022 FFF7FEFF 		bl	CyDelayUs
 420              	.LVL15:
 368:Generated_Source\PSoC4/StripLights.c ****     }
 421              		.loc 1 368 0
 422 0026 0134     		adds	r4, r4, #1
 423              	.LVL16:
 424              	.L23:
 364:Generated_Source\PSoC4/StripLights.c ****     {
 425              		.loc 1 364 0
 426 0028 FFF7FEFF 		bl	StripLights_Ready
 427              	.LVL17:
 428 002c 0028     		cmp	r0, #0
 429 002e F3D0     		beq	.L25
 430 0030 03E0     		b	.L24
 431              	.L26:
 373:Generated_Source\PSoC4/StripLights.c ****         CyDelayUs(100); 
 432              		.loc 1 373 0
 433 0032 0134     		adds	r4, r4, #1
 434              	.LVL18:
 374:Generated_Source\PSoC4/StripLights.c ****     }
 435              		.loc 1 374 0
 436 0034 6420     		movs	r0, #100
 437 0036 FFF7FEFF 		bl	CyDelayUs
 438              	.LVL19:
 439              	.L24:
 371:Generated_Source\PSoC4/StripLights.c ****     {
 440              		.loc 1 371 0
 441 003a AB00     		lsls	r3, r5, #2
 442 003c 5B19     		adds	r3, r3, r5
 443 003e 5A00     		lsls	r2, r3, #1
 444 0040 9442     		cmp	r4, r2
 445 0042 F6D3     		bcc	.L26
 379:Generated_Source\PSoC4/StripLights.c ****     {
 446              		.loc 1 379 0
 447 0044 024B     		ldr	r3, .L28
 448 0046 5B69     		ldr	r3, [r3, #20]
 449 0048 002B     		cmp	r3, #0
 450 004a 00D0     		beq	.L21
 381:Generated_Source\PSoC4/StripLights.c ****     }
 451              		.loc 1 381 0
 452 004c 9847     		blx	r3
 453              	.LVL20:
 454              	.L21:
 385:Generated_Source\PSoC4/StripLights.c **** 
 455              		.loc 1 385 0
 456              		@ sp needed
 457              	.LVL21:
 458              	.LVL22:
 459 004e 70BD     		pop	{r4, r5, r6, pc}
 460              	.L29:
 461              		.align	2
ARM GAS  C:\Users\JAMESS~1\AppData\Local\Temp\ccd7YNc7.s 			page 22


 462              	.L28:
 463 0050 00000000 		.word	.LANCHOR0
 464              		.cfi_endproc
 465              	.LFE34:
 466              		.size	StripLights_TriggerWaitDelay, .-StripLights_TriggerWaitDelay
 467              		.section	.text.StripLights_TriggerWait,"ax",%progbits
 468              		.align	2
 469              		.global	StripLights_TriggerWait
 470              		.code	16
 471              		.thumb_func
 472              		.type	StripLights_TriggerWait, %function
 473              	StripLights_TriggerWait:
 474              	.LFB35:
 401:Generated_Source\PSoC4/StripLights.c **** 
 475              		.loc 1 401 0
 476              		.cfi_startproc
 477              		@ args = 0, pretend = 0, frame = 0
 478              		@ frame_needed = 0, uses_anonymous_args = 0
 479              	.LVL23:
 480 0000 10B5     		push	{r4, lr}
 481              		.cfi_def_cfa_offset 8
 482              		.cfi_offset 4, -8
 483              		.cfi_offset 14, -4
 484 0002 0400     		movs	r4, r0
 405:Generated_Source\PSoC4/StripLights.c ****     {
 485              		.loc 1 405 0
 486 0004 084B     		ldr	r3, .L34
 487 0006 1B69     		ldr	r3, [r3, #16]
 488 0008 002B     		cmp	r3, #0
 489 000a 00D0     		beq	.L31
 407:Generated_Source\PSoC4/StripLights.c ****     }
 490              		.loc 1 407 0
 491 000c 9847     		blx	r3
 492              	.LVL24:
 493              	.L31:
 410:Generated_Source\PSoC4/StripLights.c ****     
 494              		.loc 1 410 0
 495 000e 2000     		movs	r0, r4
 496 0010 FFF7FEFF 		bl	StripLights_Trigger
 497              	.LVL25:
 498              	.L32:
 412:Generated_Source\PSoC4/StripLights.c ****     
 499              		.loc 1 412 0 discriminator 1
 500 0014 FFF7FEFF 		bl	StripLights_Ready
 501              	.LVL26:
 502 0018 0028     		cmp	r0, #0
 503 001a FBD0     		beq	.L32
 416:Generated_Source\PSoC4/StripLights.c ****     {
 504              		.loc 1 416 0
 505 001c 024B     		ldr	r3, .L34
 506 001e 5B69     		ldr	r3, [r3, #20]
 507 0020 002B     		cmp	r3, #0
 508 0022 00D0     		beq	.L30
 418:Generated_Source\PSoC4/StripLights.c ****     }
 509              		.loc 1 418 0
 510 0024 9847     		blx	r3
 511              	.LVL27:
ARM GAS  C:\Users\JAMESS~1\AppData\Local\Temp\ccd7YNc7.s 			page 23


 512              	.L30:
 422:Generated_Source\PSoC4/StripLights.c **** 
 513              		.loc 1 422 0
 514              		@ sp needed
 515              	.LVL28:
 516 0026 10BD     		pop	{r4, pc}
 517              	.L35:
 518              		.align	2
 519              	.L34:
 520 0028 00000000 		.word	.LANCHOR0
 521              		.cfi_endproc
 522              	.LFE35:
 523              		.size	StripLights_TriggerWait, .-StripLights_TriggerWait
 524              		.section	.text.StripLights_Stop,"ax",%progbits
 525              		.align	2
 526              		.global	StripLights_Stop
 527              		.code	16
 528              		.thumb_func
 529              		.type	StripLights_Stop, %function
 530              	StripLights_Stop:
 531              	.LFB38:
 525:Generated_Source\PSoC4/StripLights.c ****     StripLights_CONTROL = StripLights_DISABLE;
 532              		.loc 1 525 0
 533              		.cfi_startproc
 534              		@ args = 0, pretend = 0, frame = 0
 535              		@ frame_needed = 0, uses_anonymous_args = 0
 536              		@ link register save eliminated.
 526:Generated_Source\PSoC4/StripLights.c **** }
 537              		.loc 1 526 0
 538 0000 0022     		movs	r2, #0
 539 0002 014B     		ldr	r3, .L37
 540 0004 1A70     		strb	r2, [r3]
 527:Generated_Source\PSoC4/StripLights.c **** 
 541              		.loc 1 527 0
 542              		@ sp needed
 543 0006 7047     		bx	lr
 544              	.L38:
 545              		.align	2
 546              	.L37:
 547 0008 72000F40 		.word	1074724978
 548              		.cfi_endproc
 549              	.LFE38:
 550              		.size	StripLights_Stop, .-StripLights_Stop
 551              		.section	.text.StripLights_getColor,"ax",%progbits
 552              		.align	2
 553              		.global	StripLights_getColor
 554              		.code	16
 555              		.thumb_func
 556              		.type	StripLights_getColor, %function
 557              	StripLights_getColor:
 558              	.LFB39:
 530:Generated_Source\PSoC4/StripLights.c ****     #if(StripLights_MEMORY_TYPE == StripLights_MEMORY_RGB)
 559              		.loc 1 530 0
 560              		.cfi_startproc
 561              		@ args = 0, pretend = 0, frame = 0
 562              		@ frame_needed = 0, uses_anonymous_args = 0
 563              		@ link register save eliminated.
ARM GAS  C:\Users\JAMESS~1\AppData\Local\Temp\ccd7YNc7.s 			page 24


 564              	.LVL29:
 532:Generated_Source\PSoC4/StripLights.c ****     #endif
 565              		.loc 1 532 0
 566 0000 8000     		lsls	r0, r0, #2
 567              	.LVL30:
 568 0002 014B     		ldr	r3, .L40
 569 0004 C058     		ldr	r0, [r0, r3]
 570              	.LVL31:
 536:Generated_Source\PSoC4/StripLights.c **** 
 571              		.loc 1 536 0
 572              		@ sp needed
 573 0006 7047     		bx	lr
 574              	.L41:
 575              		.align	2
 576              	.L40:
 577 0008 00010000 		.word	.LANCHOR2
 578              		.cfi_endproc
 579              	.LFE39:
 580              		.size	StripLights_getColor, .-StripLights_getColor
 581              		.global	__aeabi_uidivmod
 582              		.section	.text.StripLights_ColorInc,"ax",%progbits
 583              		.align	2
 584              		.global	StripLights_ColorInc
 585              		.code	16
 586              		.thumb_func
 587              		.type	StripLights_ColorInc, %function
 588              	StripLights_ColorInc:
 589              	.LFB40:
 552:Generated_Source\PSoC4/StripLights.c ****     uint32 color;
 590              		.loc 1 552 0
 591              		.cfi_startproc
 592              		@ args = 0, pretend = 0, frame = 0
 593              		@ frame_needed = 0, uses_anonymous_args = 0
 594              	.LVL32:
 595 0000 10B5     		push	{r4, lr}
 596              		.cfi_def_cfa_offset 8
 597              		.cfi_offset 4, -8
 598              		.cfi_offset 14, -4
 557:Generated_Source\PSoC4/StripLights.c ****     colorIndex = colorIndex % StripLights_COLOR_WHEEL_SIZE;
 599              		.loc 1 557 0
 600 0002 064C     		ldr	r4, .L43
 601 0004 A369     		ldr	r3, [r4, #24]
 602 0006 9C46     		mov	ip, r3
 603 0008 6044     		add	r0, r0, ip
 604              	.LVL33:
 558:Generated_Source\PSoC4/StripLights.c **** 
 605              		.loc 1 558 0
 606 000a 1821     		movs	r1, #24
 607 000c FFF7FEFF 		bl	__aeabi_uidivmod
 608              	.LVL34:
 609 0010 A161     		str	r1, [r4, #24]
 561:Generated_Source\PSoC4/StripLights.c ****     #else
 610              		.loc 1 561 0
 611 0012 8900     		lsls	r1, r1, #2
 612 0014 024B     		ldr	r3, .L43+4
 613 0016 C858     		ldr	r0, [r1, r3]
 614              	.LVL35:
ARM GAS  C:\Users\JAMESS~1\AppData\Local\Temp\ccd7YNc7.s 			page 25


 566:Generated_Source\PSoC4/StripLights.c **** /*****************************************************************************
 615              		.loc 1 566 0
 616              		@ sp needed
 617 0018 10BD     		pop	{r4, pc}
 618              	.L44:
 619 001a C046     		.align	2
 620              	.L43:
 621 001c 00000000 		.word	.LANCHOR0
 622 0020 00010000 		.word	.LANCHOR2
 623              		.cfi_endproc
 624              	.LFE40:
 625              		.size	StripLights_ColorInc, .-StripLights_ColorInc
 626              		.section	.text.StripLights_MemClear,"ax",%progbits
 627              		.align	2
 628              		.global	StripLights_MemClear
 629              		.code	16
 630              		.thumb_func
 631              		.type	StripLights_MemClear, %function
 632              	StripLights_MemClear:
 633              	.LFB44:
 697:Generated_Source\PSoC4/StripLights.c **** 
 698:Generated_Source\PSoC4/StripLights.c **** 
 699:Generated_Source\PSoC4/StripLights.c **** /*******************************************************************************
 700:Generated_Source\PSoC4/StripLights.c **** * Function Name: StripLights_DisplayClear
 701:Generated_Source\PSoC4/StripLights.c **** ********************************************************************************
 702:Generated_Source\PSoC4/StripLights.c **** * Summary:
 703:Generated_Source\PSoC4/StripLights.c **** *   Clear memory with a given value and update the display.
 704:Generated_Source\PSoC4/StripLights.c **** *
 705:Generated_Source\PSoC4/StripLights.c **** * Parameters:  
 706:Generated_Source\PSoC4/StripLights.c **** *  uint32 color: Color to clear display. 
 707:Generated_Source\PSoC4/StripLights.c **** *
 708:Generated_Source\PSoC4/StripLights.c **** * Return: 
 709:Generated_Source\PSoC4/StripLights.c **** *  void
 710:Generated_Source\PSoC4/StripLights.c **** *
 711:Generated_Source\PSoC4/StripLights.c **** *******************************************************************************/
 712:Generated_Source\PSoC4/StripLights.c **** void StripLights_DisplayClear(uint32 color)
 713:Generated_Source\PSoC4/StripLights.c **** {   
 714:Generated_Source\PSoC4/StripLights.c ****     StripLights_MemClear(color);
 715:Generated_Source\PSoC4/StripLights.c ****     StripLights_Trigger(1);
 716:Generated_Source\PSoC4/StripLights.c **** }
 717:Generated_Source\PSoC4/StripLights.c **** 
 718:Generated_Source\PSoC4/StripLights.c **** /*******************************************************************************
 719:Generated_Source\PSoC4/StripLights.c **** * Function Name: StripLights_MemClear
 720:Generated_Source\PSoC4/StripLights.c **** ********************************************************************************
 721:Generated_Source\PSoC4/StripLights.c **** * Summary:
 722:Generated_Source\PSoC4/StripLights.c **** *   Clear LED memory with given color, but do not update display.
 723:Generated_Source\PSoC4/StripLights.c **** *
 724:Generated_Source\PSoC4/StripLights.c **** * Parameters:  
 725:Generated_Source\PSoC4/StripLights.c **** *  uint32 color: Color to clear display.  
 726:Generated_Source\PSoC4/StripLights.c **** *
 727:Generated_Source\PSoC4/StripLights.c **** * Return: 
 728:Generated_Source\PSoC4/StripLights.c **** *  void
 729:Generated_Source\PSoC4/StripLights.c **** *
 730:Generated_Source\PSoC4/StripLights.c **** *******************************************************************************/
 731:Generated_Source\PSoC4/StripLights.c **** void StripLights_MemClear(uint32 color)
 732:Generated_Source\PSoC4/StripLights.c **** {
 634              		.loc 1 732 0
ARM GAS  C:\Users\JAMESS~1\AppData\Local\Temp\ccd7YNc7.s 			page 26


 635              		.cfi_startproc
 636              		@ args = 0, pretend = 0, frame = 0
 637              		@ frame_needed = 0, uses_anonymous_args = 0
 638              	.LVL36:
 639 0000 10B5     		push	{r4, lr}
 640              		.cfi_def_cfa_offset 8
 641              		.cfi_offset 4, -8
 642              		.cfi_offset 14, -4
 643              	.LVL37:
 733:Generated_Source\PSoC4/StripLights.c ****     uint32  row, col;
 734:Generated_Source\PSoC4/StripLights.c ****     
 735:Generated_Source\PSoC4/StripLights.c ****     for(row=0; row < StripLights_ARRAY_ROWS; row++)
 644              		.loc 1 735 0
 645 0002 0024     		movs	r4, #0
 646 0004 0DE0     		b	.L46
 647              	.LVL38:
 648              	.L47:
 736:Generated_Source\PSoC4/StripLights.c ****     {
 737:Generated_Source\PSoC4/StripLights.c ****         for(col=0; col < StripLights_ARRAY_COLS; col++)
 738:Generated_Source\PSoC4/StripLights.c ****         {
 739:Generated_Source\PSoC4/StripLights.c ****             #if(StripLights_MEMORY_TYPE == StripLights_MEMORY_RGB)
 740:Generated_Source\PSoC4/StripLights.c ****                 StripLights_ledArray[row][col] = color;
 649              		.loc 1 740 0 discriminator 3
 650 0006 A300     		lsls	r3, r4, #2
 651 0008 1B19     		adds	r3, r3, r4
 652 000a 1A01     		lsls	r2, r3, #4
 653 000c D31A     		subs	r3, r2, r3
 654 000e 5B18     		adds	r3, r3, r1
 655 0010 9B00     		lsls	r3, r3, #2
 656 0012 054A     		ldr	r2, .L50
 657 0014 9850     		str	r0, [r3, r2]
 737:Generated_Source\PSoC4/StripLights.c ****         {
 658              		.loc 1 737 0 discriminator 3
 659 0016 0131     		adds	r1, r1, #1
 660              	.LVL39:
 661 0018 00E0     		b	.L48
 662              	.LVL40:
 663              	.L49:
 664 001a 0021     		movs	r1, #0
 665              	.L48:
 666              	.LVL41:
 737:Generated_Source\PSoC4/StripLights.c ****         {
 667              		.loc 1 737 0 is_stmt 0 discriminator 1
 668 001c 4A29     		cmp	r1, #74
 669 001e F2D9     		bls	.L47
 735:Generated_Source\PSoC4/StripLights.c ****     {
 670              		.loc 1 735 0 is_stmt 1 discriminator 2
 671 0020 0134     		adds	r4, r4, #1
 672              	.LVL42:
 673              	.L46:
 735:Generated_Source\PSoC4/StripLights.c ****     {
 674              		.loc 1 735 0 is_stmt 0 discriminator 1
 675 0022 002C     		cmp	r4, #0
 676 0024 F9D0     		beq	.L49
 741:Generated_Source\PSoC4/StripLights.c ****             #else  /* Else use lookup table */
 742:Generated_Source\PSoC4/StripLights.c ****                  StripLights_ledArray[row][col] = (uint8)color;
 743:Generated_Source\PSoC4/StripLights.c ****             #endif
ARM GAS  C:\Users\JAMESS~1\AppData\Local\Temp\ccd7YNc7.s 			page 27


 744:Generated_Source\PSoC4/StripLights.c ****         }
 745:Generated_Source\PSoC4/StripLights.c ****     }
 746:Generated_Source\PSoC4/StripLights.c **** }
 677              		.loc 1 746 0 is_stmt 1
 678              		@ sp needed
 679              	.LVL43:
 680 0026 10BD     		pop	{r4, pc}
 681              	.L51:
 682              		.align	2
 683              	.L50:
 684 0028 00000000 		.word	StripLights_ledArray
 685              		.cfi_endproc
 686              	.LFE44:
 687              		.size	StripLights_MemClear, .-StripLights_MemClear
 688              		.section	.text.StripLights_DisplayClear,"ax",%progbits
 689              		.align	2
 690              		.global	StripLights_DisplayClear
 691              		.code	16
 692              		.thumb_func
 693              		.type	StripLights_DisplayClear, %function
 694              	StripLights_DisplayClear:
 695              	.LFB43:
 713:Generated_Source\PSoC4/StripLights.c ****     StripLights_MemClear(color);
 696              		.loc 1 713 0
 697              		.cfi_startproc
 698              		@ args = 0, pretend = 0, frame = 0
 699              		@ frame_needed = 0, uses_anonymous_args = 0
 700              	.LVL44:
 701 0000 10B5     		push	{r4, lr}
 702              		.cfi_def_cfa_offset 8
 703              		.cfi_offset 4, -8
 704              		.cfi_offset 14, -4
 714:Generated_Source\PSoC4/StripLights.c ****     StripLights_Trigger(1);
 705              		.loc 1 714 0
 706 0002 FFF7FEFF 		bl	StripLights_MemClear
 707              	.LVL45:
 715:Generated_Source\PSoC4/StripLights.c **** }
 708              		.loc 1 715 0
 709 0006 0120     		movs	r0, #1
 710 0008 FFF7FEFF 		bl	StripLights_Trigger
 711              	.LVL46:
 716:Generated_Source\PSoC4/StripLights.c **** 
 712              		.loc 1 716 0
 713              		@ sp needed
 714 000c 10BD     		pop	{r4, pc}
 715              		.cfi_endproc
 716              	.LFE43:
 717              		.size	StripLights_DisplayClear, .-StripLights_DisplayClear
 718 000e C046     		.section	.text.StripLights_WriteColor,"ax",%progbits
 719              		.align	2
 720              		.global	StripLights_WriteColor
 721              		.code	16
 722              		.thumb_func
 723              		.type	StripLights_WriteColor, %function
 724              	StripLights_WriteColor:
 725              	.LFB45:
 747:Generated_Source\PSoC4/StripLights.c **** 
ARM GAS  C:\Users\JAMESS~1\AppData\Local\Temp\ccd7YNc7.s 			page 28


 748:Generated_Source\PSoC4/StripLights.c **** 
 749:Generated_Source\PSoC4/StripLights.c **** 
 750:Generated_Source\PSoC4/StripLights.c **** /*******************************************************************************
 751:Generated_Source\PSoC4/StripLights.c **** * Function Name: StripLights_WriteColor
 752:Generated_Source\PSoC4/StripLights.c **** ********************************************************************************
 753:Generated_Source\PSoC4/StripLights.c **** * Summary:
 754:Generated_Source\PSoC4/StripLights.c **** *   Write given color directly to output register.
 755:Generated_Source\PSoC4/StripLights.c **** *
 756:Generated_Source\PSoC4/StripLights.c **** * Parameters:  
 757:Generated_Source\PSoC4/StripLights.c **** *  uint32 color: Color to write to display. 
 758:Generated_Source\PSoC4/StripLights.c **** *
 759:Generated_Source\PSoC4/StripLights.c **** * Return: 
 760:Generated_Source\PSoC4/StripLights.c **** *  void
 761:Generated_Source\PSoC4/StripLights.c **** *
 762:Generated_Source\PSoC4/StripLights.c **** *******************************************************************************/
 763:Generated_Source\PSoC4/StripLights.c **** void StripLights_WriteColor(uint32 color)
 764:Generated_Source\PSoC4/StripLights.c **** {
 726              		.loc 1 764 0
 727              		.cfi_startproc
 728              		@ args = 0, pretend = 0, frame = 0
 729              		@ frame_needed = 0, uses_anonymous_args = 0
 730              		@ link register save eliminated.
 731              	.LVL47:
 732              	.L54:
 765:Generated_Source\PSoC4/StripLights.c ****     while( (StripLights_STATUS & StripLights_FIFO_EMPTY) == 0); 
 733              		.loc 1 765 0 discriminator 1
 734 0000 064B     		ldr	r3, .L55
 735 0002 1B78     		ldrb	r3, [r3]
 736 0004 DB07     		lsls	r3, r3, #31
 737 0006 FBD5     		bpl	.L54
 766:Generated_Source\PSoC4/StripLights.c **** 
 767:Generated_Source\PSoC4/StripLights.c ****     StripLights_DATA = (uint8)(color & 0x000000FF);  // Write Green
 738              		.loc 1 767 0
 739 0008 C2B2     		uxtb	r2, r0
 740 000a 054B     		ldr	r3, .L55+4
 741 000c 1A70     		strb	r2, [r3]
 768:Generated_Source\PSoC4/StripLights.c ****     color = color >> 8;
 742              		.loc 1 768 0
 743 000e 020A     		lsrs	r2, r0, #8
 744              	.LVL48:
 769:Generated_Source\PSoC4/StripLights.c ****     StripLights_DATA = (uint8)(color & 0x000000FF);  // Write Red
 745              		.loc 1 769 0
 746 0010 D2B2     		uxtb	r2, r2
 747              	.LVL49:
 748 0012 1A70     		strb	r2, [r3]
 770:Generated_Source\PSoC4/StripLights.c ****     color = color >> 8;
 749              		.loc 1 770 0
 750 0014 000C     		lsrs	r0, r0, #16
 751              	.LVL50:
 771:Generated_Source\PSoC4/StripLights.c ****     StripLights_DATA = (uint8)(color & 0x000000FF);  // Write Blue
 752              		.loc 1 771 0
 753 0016 C0B2     		uxtb	r0, r0
 754              	.LVL51:
 755 0018 1870     		strb	r0, [r3]
 772:Generated_Source\PSoC4/StripLights.c ****     
 773:Generated_Source\PSoC4/StripLights.c ****     #if(StripLights_CHIP == StripLights_CHIP_SF2812RGBW)
 774:Generated_Source\PSoC4/StripLights.c ****         color = color >> 8;
ARM GAS  C:\Users\JAMESS~1\AppData\Local\Temp\ccd7YNc7.s 			page 29


 775:Generated_Source\PSoC4/StripLights.c ****         StripLights_DATA = (uint8)(color & 0x000000FF);  // Write White 
 776:Generated_Source\PSoC4/StripLights.c ****     #endif 
 777:Generated_Source\PSoC4/StripLights.c **** }
 756              		.loc 1 777 0
 757              		@ sp needed
 758 001a 7047     		bx	lr
 759              	.L56:
 760              		.align	2
 761              	.L55:
 762 001c 62000F40 		.word	1074724962
 763 0020 42000F40 		.word	1074724930
 764              		.cfi_endproc
 765              	.LFE45:
 766              		.size	StripLights_WriteColor, .-StripLights_WriteColor
 767              		.section	.text.StripLights_Pixel,"ax",%progbits
 768              		.align	2
 769              		.global	StripLights_Pixel
 770              		.code	16
 771              		.thumb_func
 772              		.type	StripLights_Pixel, %function
 773              	StripLights_Pixel:
 774              	.LFB46:
 778:Generated_Source\PSoC4/StripLights.c **** 
 779:Generated_Source\PSoC4/StripLights.c **** 
 780:Generated_Source\PSoC4/StripLights.c **** /*******************************************************************************
 781:Generated_Source\PSoC4/StripLights.c **** * Function Name: StripLights_Pixel
 782:Generated_Source\PSoC4/StripLights.c **** ********************************************************************************
 783:Generated_Source\PSoC4/StripLights.c **** *
 784:Generated_Source\PSoC4/StripLights.c **** * Summary:
 785:Generated_Source\PSoC4/StripLights.c **** *  Draw Pixel  
 786:Generated_Source\PSoC4/StripLights.c **** *
 787:Generated_Source\PSoC4/StripLights.c **** * Parameters:  
 788:Generated_Source\PSoC4/StripLights.c **** *  x,y:    Location to draw the pixel
 789:Generated_Source\PSoC4/StripLights.c **** *  color:  Color of the pixel
 790:Generated_Source\PSoC4/StripLights.c **** *
 791:Generated_Source\PSoC4/StripLights.c **** * Return: 
 792:Generated_Source\PSoC4/StripLights.c **** *  None 
 793:Generated_Source\PSoC4/StripLights.c **** *******************************************************************************/
 794:Generated_Source\PSoC4/StripLights.c **** void StripLights_Pixel(int32 x, int32 y, uint32 color)
 795:Generated_Source\PSoC4/StripLights.c **** {
 775              		.loc 1 795 0
 776              		.cfi_startproc
 777              		@ args = 0, pretend = 0, frame = 0
 778              		@ frame_needed = 0, uses_anonymous_args = 0
 779              		@ link register save eliminated.
 780              	.LVL52:
 796:Generated_Source\PSoC4/StripLights.c **** 
 797:Generated_Source\PSoC4/StripLights.c ****     // Swap X-Y Coordinates
 798:Generated_Source\PSoC4/StripLights.c ****     #if(StripLights_SWAP_XY_COORD == StripLights_XY_SWAPED)
 799:Generated_Source\PSoC4/StripLights.c ****         uint32 xyTmp;
 800:Generated_Source\PSoC4/StripLights.c ****         xyTmp = x;
 801:Generated_Source\PSoC4/StripLights.c ****         x = y;
 802:Generated_Source\PSoC4/StripLights.c ****         y = xyTmp;
 803:Generated_Source\PSoC4/StripLights.c ****     #endif
 804:Generated_Source\PSoC4/StripLights.c ****     
 805:Generated_Source\PSoC4/StripLights.c ****     // X-Wrap
 806:Generated_Source\PSoC4/StripLights.c ****     #if (StripLights_COORD_WRAP & StripLights_COORD_XAXIS )
ARM GAS  C:\Users\JAMESS~1\AppData\Local\Temp\ccd7YNc7.s 			page 30


 807:Generated_Source\PSoC4/StripLights.c ****         x = x % (StripLights_MAX_X+1);
 808:Generated_Source\PSoC4/StripLights.c ****     #endif
 809:Generated_Source\PSoC4/StripLights.c ****     
 810:Generated_Source\PSoC4/StripLights.c ****     // Y-Wrap
 811:Generated_Source\PSoC4/StripLights.c ****     #if (StripLights_COORD_WRAP & StripLights_COORD_YAXIS )
 812:Generated_Source\PSoC4/StripLights.c ****         y = y % (StripLights_MAX_Y+1);
 813:Generated_Source\PSoC4/StripLights.c ****     #endif
 814:Generated_Source\PSoC4/StripLights.c ****     
 815:Generated_Source\PSoC4/StripLights.c ****     // Flip X-Axis
 816:Generated_Source\PSoC4/StripLights.c ****     #if (StripLights_FLIP_X_COORD == StripLights_FLIP_COORD )
 817:Generated_Source\PSoC4/StripLights.c ****         x = StripLights_MAX_X - x;
 818:Generated_Source\PSoC4/StripLights.c ****     #endif
 819:Generated_Source\PSoC4/StripLights.c ****     
 820:Generated_Source\PSoC4/StripLights.c ****     // Flip Y-Axis
 821:Generated_Source\PSoC4/StripLights.c ****     #if (StripLights_FLIP_Y_COORD == StripLights_FLIP_COORD )
 822:Generated_Source\PSoC4/StripLights.c ****         y = StripLights_MAX_Y - y;
 823:Generated_Source\PSoC4/StripLights.c ****     #endif
 824:Generated_Source\PSoC4/StripLights.c ****     
 825:Generated_Source\PSoC4/StripLights.c ****     // Make sure X-Y values are in range
 826:Generated_Source\PSoC4/StripLights.c ****    	if((x >= StripLights_MIN_X) && (y >= StripLights_MIN_Y) && (x <= StripLights_MAX_X) && (y <= St
 781              		.loc 1 826 0
 782 0000 0028     		cmp	r0, #0
 783 0002 0BDB     		blt	.L57
 784              		.loc 1 826 0 is_stmt 0 discriminator 1
 785 0004 0029     		cmp	r1, #0
 786 0006 09DB     		blt	.L57
 787              		.loc 1 826 0 discriminator 2
 788 0008 0E28     		cmp	r0, #14
 789 000a 07DC     		bgt	.L57
 790              		.loc 1 826 0 discriminator 3
 791 000c 0329     		cmp	r1, #3
 792 000e 05DC     		bgt	.L57
 827:Generated_Source\PSoC4/StripLights.c ****     {
 828:Generated_Source\PSoC4/StripLights.c ****         
 829:Generated_Source\PSoC4/StripLights.c ****         #if (StripLights_LED_LAYOUT == StripLights_LED_LAYOUT_STANDARD)
 830:Generated_Source\PSoC4/StripLights.c ****              // Do nothing special   
 831:Generated_Source\PSoC4/StripLights.c ****         #elif (StripLights_LED_LAYOUT == StripLights_LED_LAYOUT_SPIRAL)
 832:Generated_Source\PSoC4/StripLights.c ****             x = x + (y * StripLights_COLUMNS);
 793              		.loc 1 832 0 is_stmt 1
 794 0010 0B01     		lsls	r3, r1, #4
 795 0012 591A     		subs	r1, r3, r1
 796              	.LVL53:
 797 0014 4018     		adds	r0, r0, r1
 798              	.LVL54:
 833:Generated_Source\PSoC4/StripLights.c ****             y = 0;
 834:Generated_Source\PSoC4/StripLights.c ****             
 835:Generated_Source\PSoC4/StripLights.c ****         #elif (StripLights_LED_LAYOUT == StripLights_LED_LAYOUT_GRID16X16)
 836:Generated_Source\PSoC4/StripLights.c ****             	x = (((x/(int32)16)*(int32)256) + (uint32)StripLights_cTrans[y % 16][x % 16]);
 837:Generated_Source\PSoC4/StripLights.c **** 		        y = (y/(int32)16);    
 838:Generated_Source\PSoC4/StripLights.c ****         #endif
 839:Generated_Source\PSoC4/StripLights.c ****          
 840:Generated_Source\PSoC4/StripLights.c ****         #if(StripLights_MEMORY_TYPE == StripLights_MEMORY_RGB)
 841:Generated_Source\PSoC4/StripLights.c ****             StripLights_ledArray[y][x] = color;
 799              		.loc 1 841 0
 800 0016 8000     		lsls	r0, r0, #2
 801              	.LVL55:
 802 0018 014B     		ldr	r3, .L59
ARM GAS  C:\Users\JAMESS~1\AppData\Local\Temp\ccd7YNc7.s 			page 31


 803 001a C250     		str	r2, [r0, r3]
 804              	.LVL56:
 805              	.L57:
 842:Generated_Source\PSoC4/StripLights.c ****         #else  /* Else use lookup table */
 843:Generated_Source\PSoC4/StripLights.c ****             StripLights_ledArray[y][x] = (uint8)color;
 844:Generated_Source\PSoC4/StripLights.c ****         #endif    
 845:Generated_Source\PSoC4/StripLights.c ****             
 846:Generated_Source\PSoC4/StripLights.c **** 
 847:Generated_Source\PSoC4/StripLights.c ****     }
 848:Generated_Source\PSoC4/StripLights.c **** }
 806              		.loc 1 848 0
 807              		@ sp needed
 808 001c 7047     		bx	lr
 809              	.L60:
 810 001e C046     		.align	2
 811              	.L59:
 812 0020 00000000 		.word	StripLights_ledArray
 813              		.cfi_endproc
 814              	.LFE46:
 815              		.size	StripLights_Pixel, .-StripLights_Pixel
 816              		.section	.text.StripLights_GetPixel,"ax",%progbits
 817              		.align	2
 818              		.global	StripLights_GetPixel
 819              		.code	16
 820              		.thumb_func
 821              		.type	StripLights_GetPixel, %function
 822              	StripLights_GetPixel:
 823              	.LFB47:
 849:Generated_Source\PSoC4/StripLights.c **** 
 850:Generated_Source\PSoC4/StripLights.c **** 
 851:Generated_Source\PSoC4/StripLights.c **** 
 852:Generated_Source\PSoC4/StripLights.c **** /*******************************************************************************
 853:Generated_Source\PSoC4/StripLights.c **** * Function Name: StripLights_GetPixel
 854:Generated_Source\PSoC4/StripLights.c **** ********************************************************************************
 855:Generated_Source\PSoC4/StripLights.c **** *
 856:Generated_Source\PSoC4/StripLights.c **** * Summary:
 857:Generated_Source\PSoC4/StripLights.c **** *  Get Pixel Color  
 858:Generated_Source\PSoC4/StripLights.c **** *
 859:Generated_Source\PSoC4/StripLights.c **** * Parameters:  
 860:Generated_Source\PSoC4/StripLights.c **** *  x,y:    Location to get pixel color
 861:Generated_Source\PSoC4/StripLights.c **** *
 862:Generated_Source\PSoC4/StripLights.c **** * Return: 
 863:Generated_Source\PSoC4/StripLights.c **** *  None 
 864:Generated_Source\PSoC4/StripLights.c **** *******************************************************************************/
 865:Generated_Source\PSoC4/StripLights.c **** uint32 StripLights_GetPixel(int32 x, int32 y)
 866:Generated_Source\PSoC4/StripLights.c **** {
 824              		.loc 1 866 0
 825              		.cfi_startproc
 826              		@ args = 0, pretend = 0, frame = 0
 827              		@ frame_needed = 0, uses_anonymous_args = 0
 828              		@ link register save eliminated.
 829              	.LVL57:
 867:Generated_Source\PSoC4/StripLights.c ****     uint32 color = 0;
 868:Generated_Source\PSoC4/StripLights.c ****     #if (StripLights_COORD_WRAP & StripLights_COORD_XAXIS )
 869:Generated_Source\PSoC4/StripLights.c ****         x = x % (StripLights_MAX_X+1);
 870:Generated_Source\PSoC4/StripLights.c ****     #endif
 871:Generated_Source\PSoC4/StripLights.c ****     #if (StripLights_COORD_WRAP & StripLights_COORD_YAXIS )
ARM GAS  C:\Users\JAMESS~1\AppData\Local\Temp\ccd7YNc7.s 			page 32


 872:Generated_Source\PSoC4/StripLights.c ****         y = y % (StripLights_MAX_Y+1);
 873:Generated_Source\PSoC4/StripLights.c ****     #endif
 874:Generated_Source\PSoC4/StripLights.c ****     
 875:Generated_Source\PSoC4/StripLights.c ****     if((x>=0) && (y>=0) && (x < StripLights_ARRAY_COLS) && (y < StripLights_ARRAY_ROWS))
 830              		.loc 1 875 0
 831 0000 0028     		cmp	r0, #0
 832 0002 0CDB     		blt	.L63
 833              		.loc 1 875 0 is_stmt 0 discriminator 1
 834 0004 0029     		cmp	r1, #0
 835 0006 0CDB     		blt	.L64
 836              		.loc 1 875 0 discriminator 2
 837 0008 4A28     		cmp	r0, #74
 838 000a 0CDC     		bgt	.L65
 839              		.loc 1 875 0 discriminator 3
 840 000c 0029     		cmp	r1, #0
 841 000e 0CDC     		bgt	.L66
 876:Generated_Source\PSoC4/StripLights.c ****     {
 877:Generated_Source\PSoC4/StripLights.c ****                 
 878:Generated_Source\PSoC4/StripLights.c ****         #if (StripLights_LED_LAYOUT == StripLights_LED_LAYOUT_STANDARD)
 879:Generated_Source\PSoC4/StripLights.c ****             
 880:Generated_Source\PSoC4/StripLights.c ****         #elif (StripLights_LED_LAYOUT == StripLights_LED_LAYOUT_SPIRAL)
 881:Generated_Source\PSoC4/StripLights.c ****             x = x + (y * StripLights_COLUMNS);
 842              		.loc 1 881 0 is_stmt 1
 843 0010 0B01     		lsls	r3, r1, #4
 844 0012 591A     		subs	r1, r3, r1
 845              	.LVL58:
 846 0014 4018     		adds	r0, r0, r1
 847              	.LVL59:
 882:Generated_Source\PSoC4/StripLights.c ****             y = 0;
 883:Generated_Source\PSoC4/StripLights.c ****             
 884:Generated_Source\PSoC4/StripLights.c ****         #elif (StripLights_LED_LAYOUT == StripLights_LED_LAYOUT_GRID16X16)
 885:Generated_Source\PSoC4/StripLights.c ****             	x = (((x/(int32)16)*(int32)256) + (uint32)StripLights_cTrans[y % 16][x % 16]);
 886:Generated_Source\PSoC4/StripLights.c **** 		        y = (y/(int32)16);    
 887:Generated_Source\PSoC4/StripLights.c ****         #endif
 888:Generated_Source\PSoC4/StripLights.c ****     
 889:Generated_Source\PSoC4/StripLights.c ****         #if(StripLights_MEMORY_TYPE == StripLights_MEMORY_RGB)
 890:Generated_Source\PSoC4/StripLights.c ****             color = StripLights_ledArray[y][x];
 848              		.loc 1 890 0
 849 0016 8000     		lsls	r0, r0, #2
 850              	.LVL60:
 851 0018 054B     		ldr	r3, .L67
 852 001a C058     		ldr	r0, [r0, r3]
 853              	.LVL61:
 854 001c 06E0     		b	.L62
 855              	.LVL62:
 856              	.L63:
 867:Generated_Source\PSoC4/StripLights.c ****     #if (StripLights_COORD_WRAP & StripLights_COORD_XAXIS )
 857              		.loc 1 867 0
 858 001e 0020     		movs	r0, #0
 859              	.LVL63:
 860 0020 04E0     		b	.L62
 861              	.LVL64:
 862              	.L64:
 863 0022 0020     		movs	r0, #0
 864              	.LVL65:
 865 0024 02E0     		b	.L62
 866              	.LVL66:
ARM GAS  C:\Users\JAMESS~1\AppData\Local\Temp\ccd7YNc7.s 			page 33


 867              	.L65:
 868 0026 0020     		movs	r0, #0
 869              	.LVL67:
 870 0028 00E0     		b	.L62
 871              	.LVL68:
 872              	.L66:
 873 002a 0020     		movs	r0, #0
 874              	.LVL69:
 875              	.L62:
 891:Generated_Source\PSoC4/StripLights.c ****         #else  /* Else use lookup table */
 892:Generated_Source\PSoC4/StripLights.c ****             color = (uint32)StripLights_ledArray[y][x];
 893:Generated_Source\PSoC4/StripLights.c ****         #endif
 894:Generated_Source\PSoC4/StripLights.c **** 
 895:Generated_Source\PSoC4/StripLights.c ****     }
 896:Generated_Source\PSoC4/StripLights.c ****     return(color);
 897:Generated_Source\PSoC4/StripLights.c **** }
 876              		.loc 1 897 0
 877              		@ sp needed
 878 002c 7047     		bx	lr
 879              	.L68:
 880 002e C046     		.align	2
 881              	.L67:
 882 0030 00000000 		.word	StripLights_ledArray
 883              		.cfi_endproc
 884              	.LFE47:
 885              		.size	StripLights_GetPixel, .-StripLights_GetPixel
 886              		.section	.text.StripLights_DrawCircle,"ax",%progbits
 887              		.align	2
 888              		.global	StripLights_DrawCircle
 889              		.code	16
 890              		.thumb_func
 891              		.type	StripLights_DrawCircle, %function
 892              	StripLights_DrawCircle:
 893              	.LFB48:
 898:Generated_Source\PSoC4/StripLights.c **** 
 899:Generated_Source\PSoC4/StripLights.c **** /*******************************************************************************
 900:Generated_Source\PSoC4/StripLights.c **** * Function Name: StripLights_DrawCircle
 901:Generated_Source\PSoC4/StripLights.c **** ********************************************************************************
 902:Generated_Source\PSoC4/StripLights.c **** *
 903:Generated_Source\PSoC4/StripLights.c **** * Summary:
 904:Generated_Source\PSoC4/StripLights.c **** *  Draw a circle on the display given a start point and radius.  
 905:Generated_Source\PSoC4/StripLights.c **** *
 906:Generated_Source\PSoC4/StripLights.c **** *  This code uses Bresenham's Circle Algorithm. 
 907:Generated_Source\PSoC4/StripLights.c **** *
 908:Generated_Source\PSoC4/StripLights.c **** * Parameters:  
 909:Generated_Source\PSoC4/StripLights.c **** *  x0, y0: Center of circle
 910:Generated_Source\PSoC4/StripLights.c **** *  radius: Radius of circle
 911:Generated_Source\PSoC4/StripLights.c **** *  color:  Color of circle
 912:Generated_Source\PSoC4/StripLights.c **** *
 913:Generated_Source\PSoC4/StripLights.c **** * Return: 
 914:Generated_Source\PSoC4/StripLights.c **** *  None 
 915:Generated_Source\PSoC4/StripLights.c **** *  
 916:Generated_Source\PSoC4/StripLights.c **** *******************************************************************************/
 917:Generated_Source\PSoC4/StripLights.c **** void StripLights_DrawCircle (int32 x0, int32 y0, int32 radius, uint32 color)
 918:Generated_Source\PSoC4/StripLights.c **** {
 894              		.loc 1 918 0
 895              		.cfi_startproc
ARM GAS  C:\Users\JAMESS~1\AppData\Local\Temp\ccd7YNc7.s 			page 34


 896              		@ args = 0, pretend = 0, frame = 16
 897              		@ frame_needed = 0, uses_anonymous_args = 0
 898              	.LVL70:
 899 0000 F0B5     		push	{r4, r5, r6, r7, lr}
 900              		.cfi_def_cfa_offset 20
 901              		.cfi_offset 4, -20
 902              		.cfi_offset 5, -16
 903              		.cfi_offset 6, -12
 904              		.cfi_offset 7, -8
 905              		.cfi_offset 14, -4
 906 0002 5F46     		mov	r7, fp
 907 0004 5646     		mov	r6, r10
 908 0006 4D46     		mov	r5, r9
 909 0008 4446     		mov	r4, r8
 910 000a F0B4     		push	{r4, r5, r6, r7}
 911              		.cfi_def_cfa_offset 36
 912              		.cfi_offset 8, -36
 913              		.cfi_offset 9, -32
 914              		.cfi_offset 10, -28
 915              		.cfi_offset 11, -24
 916 000c 85B0     		sub	sp, sp, #20
 917              		.cfi_def_cfa_offset 56
 918 000e 8346     		mov	fp, r0
 919 0010 8846     		mov	r8, r1
 920 0012 1400     		movs	r4, r2
 921 0014 1D00     		movs	r5, r3
 922 0016 0193     		str	r3, [sp, #4]
 919:Generated_Source\PSoC4/StripLights.c **** 	int32 f = 1 - radius;
 923              		.loc 1 919 0
 924 0018 0123     		movs	r3, #1
 925              	.LVL71:
 926 001a 9B1A     		subs	r3, r3, r2
 927 001c 9946     		mov	r9, r3
 928              	.LVL72:
 920:Generated_Source\PSoC4/StripLights.c **** 	int32 ddF_x = 0;
 921:Generated_Source\PSoC4/StripLights.c **** 	int32 ddF_y = -2 * radius;
 929              		.loc 1 921 0
 930 001e D307     		lsls	r3, r2, #31
 931              	.LVL73:
 932 0020 9B1A     		subs	r3, r3, r2
 933 0022 5A00     		lsls	r2, r3, #1
 934              	.LVL74:
 935 0024 9246     		mov	r10, r2
 936              	.LVL75:
 922:Generated_Source\PSoC4/StripLights.c **** 	int32 x = 0;
 923:Generated_Source\PSoC4/StripLights.c **** 	int32 y = radius;
 924:Generated_Source\PSoC4/StripLights.c **** 
 925:Generated_Source\PSoC4/StripLights.c **** 	StripLights_Pixel(x0, y0 + radius, color);
 937              		.loc 1 925 0
 938 0026 6118     		adds	r1, r4, r1
 939              	.LVL76:
 940 0028 2A00     		movs	r2, r5
 941              	.LVL77:
 942 002a FFF7FEFF 		bl	StripLights_Pixel
 943              	.LVL78:
 926:Generated_Source\PSoC4/StripLights.c **** 	StripLights_Pixel(x0, y0 - radius, color);
 944              		.loc 1 926 0
ARM GAS  C:\Users\JAMESS~1\AppData\Local\Temp\ccd7YNc7.s 			page 35


 945 002e 4346     		mov	r3, r8
 946 0030 191B     		subs	r1, r3, r4
 947 0032 2A00     		movs	r2, r5
 948 0034 5846     		mov	r0, fp
 949 0036 FFF7FEFF 		bl	StripLights_Pixel
 950              	.LVL79:
 927:Generated_Source\PSoC4/StripLights.c **** 	StripLights_Pixel( x0 + radius, y0, color);
 951              		.loc 1 927 0
 952 003a 5B46     		mov	r3, fp
 953 003c E018     		adds	r0, r4, r3
 954 003e 2A00     		movs	r2, r5
 955 0040 4146     		mov	r1, r8
 956 0042 FFF7FEFF 		bl	StripLights_Pixel
 957              	.LVL80:
 928:Generated_Source\PSoC4/StripLights.c **** 	StripLights_Pixel( x0 - radius, y0, color);
 958              		.loc 1 928 0
 959 0046 5B46     		mov	r3, fp
 960 0048 181B     		subs	r0, r3, r4
 961 004a 2A00     		movs	r2, r5
 962 004c 4146     		mov	r1, r8
 963 004e FFF7FEFF 		bl	StripLights_Pixel
 964              	.LVL81:
 922:Generated_Source\PSoC4/StripLights.c **** 	int32 y = radius;
 965              		.loc 1 922 0
 966 0052 0026     		movs	r6, #0
 920:Generated_Source\PSoC4/StripLights.c **** 	int32 ddF_y = -2 * radius;
 967              		.loc 1 920 0
 968 0054 0023     		movs	r3, #0
 929:Generated_Source\PSoC4/StripLights.c **** 
 930:Generated_Source\PSoC4/StripLights.c **** 	while(x < y)
 969              		.loc 1 930 0
 970 0056 48E0     		b	.L70
 971              	.LVL82:
 972              	.L72:
 931:Generated_Source\PSoC4/StripLights.c **** 	{
 932:Generated_Source\PSoC4/StripLights.c **** 		if(f >= 0)
 973              		.loc 1 932 0
 974 0058 4A46     		mov	r2, r9
 975 005a 002A     		cmp	r2, #0
 976 005c 04DB     		blt	.L71
 977              	.LVL83:
 933:Generated_Source\PSoC4/StripLights.c **** 		{
 934:Generated_Source\PSoC4/StripLights.c **** 			y--;
 978              		.loc 1 934 0
 979 005e 013C     		subs	r4, r4, #1
 980              	.LVL84:
 935:Generated_Source\PSoC4/StripLights.c **** 			ddF_y += 2;
 981              		.loc 1 935 0
 982 0060 0222     		movs	r2, #2
 983              	.LVL85:
 984 0062 9446     		mov	ip, r2
 985 0064 E244     		add	r10, r10, ip
 986              	.LVL86:
 936:Generated_Source\PSoC4/StripLights.c **** 			f += ddF_y;
 987              		.loc 1 936 0
 988 0066 D144     		add	r9, r9, r10
 989              	.LVL87:
ARM GAS  C:\Users\JAMESS~1\AppData\Local\Temp\ccd7YNc7.s 			page 36


 990              	.L71:
 937:Generated_Source\PSoC4/StripLights.c **** 		}
 938:Generated_Source\PSoC4/StripLights.c **** 		x++;
 991              		.loc 1 938 0
 992 0068 0136     		adds	r6, r6, #1
 993              	.LVL88:
 939:Generated_Source\PSoC4/StripLights.c **** 		ddF_x += 2;
 994              		.loc 1 939 0
 995 006a 9A1C     		adds	r2, r3, #2
 996 006c 0292     		str	r2, [sp, #8]
 997              	.LVL89:
 940:Generated_Source\PSoC4/StripLights.c **** 		f += ddF_x + 1;
 998              		.loc 1 940 0
 999 006e 0333     		adds	r3, r3, #3
 1000 0070 9944     		add	r9, r9, r3
 1001              	.LVL90:
 941:Generated_Source\PSoC4/StripLights.c **** 
 942:Generated_Source\PSoC4/StripLights.c **** 		StripLights_Pixel(x0 + x, y0 + y, color);
 1002              		.loc 1 942 0
 1003 0072 5946     		mov	r1, fp
 1004 0074 8F19     		adds	r7, r1, r6
 1005 0076 4146     		mov	r1, r8
 1006 0078 6318     		adds	r3, r4, r1
 1007 007a 019A     		ldr	r2, [sp, #4]
 1008              	.LVL91:
 1009 007c 0393     		str	r3, [sp, #12]
 1010 007e 1900     		movs	r1, r3
 1011 0080 3800     		movs	r0, r7
 1012 0082 FFF7FEFF 		bl	StripLights_Pixel
 1013              	.LVL92:
 943:Generated_Source\PSoC4/StripLights.c **** 		StripLights_Pixel(x0 - x, y0 + y, color);
 1014              		.loc 1 943 0
 1015 0086 5846     		mov	r0, fp
 1016 0088 851B     		subs	r5, r0, r6
 1017 008a 019A     		ldr	r2, [sp, #4]
 1018 008c 0399     		ldr	r1, [sp, #12]
 1019 008e 2800     		movs	r0, r5
 1020 0090 FFF7FEFF 		bl	StripLights_Pixel
 1021              	.LVL93:
 944:Generated_Source\PSoC4/StripLights.c **** 		StripLights_Pixel( x0 + x, y0 - y, color);
 1022              		.loc 1 944 0
 1023 0094 4146     		mov	r1, r8
 1024 0096 0B1B     		subs	r3, r1, r4
 1025 0098 019A     		ldr	r2, [sp, #4]
 1026 009a 0393     		str	r3, [sp, #12]
 1027 009c 1900     		movs	r1, r3
 1028 009e 3800     		movs	r0, r7
 1029 00a0 FFF7FEFF 		bl	StripLights_Pixel
 1030              	.LVL94:
 945:Generated_Source\PSoC4/StripLights.c **** 		StripLights_Pixel( x0 - x, y0 - y, color);
 1031              		.loc 1 945 0
 1032 00a4 019A     		ldr	r2, [sp, #4]
 1033 00a6 0399     		ldr	r1, [sp, #12]
 1034 00a8 2800     		movs	r0, r5
 1035 00aa FFF7FEFF 		bl	StripLights_Pixel
 1036              	.LVL95:
 946:Generated_Source\PSoC4/StripLights.c **** 		StripLights_Pixel( x0 + y, y0 + x, color);
ARM GAS  C:\Users\JAMESS~1\AppData\Local\Temp\ccd7YNc7.s 			page 37


 1037              		.loc 1 946 0
 1038 00ae 5946     		mov	r1, fp
 1039 00b0 6718     		adds	r7, r4, r1
 1040 00b2 4146     		mov	r1, r8
 1041 00b4 8D19     		adds	r5, r1, r6
 1042 00b6 019A     		ldr	r2, [sp, #4]
 1043 00b8 2900     		movs	r1, r5
 1044 00ba 3800     		movs	r0, r7
 1045 00bc FFF7FEFF 		bl	StripLights_Pixel
 1046              	.LVL96:
 947:Generated_Source\PSoC4/StripLights.c **** 		StripLights_Pixel( x0 - y, y0 + x, color);
 1047              		.loc 1 947 0
 1048 00c0 5946     		mov	r1, fp
 1049 00c2 0B1B     		subs	r3, r1, r4
 1050 00c4 019A     		ldr	r2, [sp, #4]
 1051 00c6 2900     		movs	r1, r5
 1052 00c8 0393     		str	r3, [sp, #12]
 1053 00ca 1800     		movs	r0, r3
 1054 00cc FFF7FEFF 		bl	StripLights_Pixel
 1055              	.LVL97:
 948:Generated_Source\PSoC4/StripLights.c **** 		StripLights_Pixel( x0 + y, y0 - x, color);
 1056              		.loc 1 948 0
 1057 00d0 4146     		mov	r1, r8
 1058 00d2 8D1B     		subs	r5, r1, r6
 1059 00d4 019A     		ldr	r2, [sp, #4]
 1060 00d6 2900     		movs	r1, r5
 1061 00d8 3800     		movs	r0, r7
 1062 00da FFF7FEFF 		bl	StripLights_Pixel
 1063              	.LVL98:
 949:Generated_Source\PSoC4/StripLights.c **** 		StripLights_Pixel( x0 - y, y0 - x, color);
 1064              		.loc 1 949 0
 1065 00de 019A     		ldr	r2, [sp, #4]
 1066 00e0 2900     		movs	r1, r5
 1067 00e2 0398     		ldr	r0, [sp, #12]
 1068 00e4 FFF7FEFF 		bl	StripLights_Pixel
 1069              	.LVL99:
 939:Generated_Source\PSoC4/StripLights.c **** 		f += ddF_x + 1;
 1070              		.loc 1 939 0
 1071 00e8 029B     		ldr	r3, [sp, #8]
 1072              	.LVL100:
 1073              	.L70:
 930:Generated_Source\PSoC4/StripLights.c **** 	{
 1074              		.loc 1 930 0
 1075 00ea A642     		cmp	r6, r4
 1076 00ec B4DB     		blt	.L72
 950:Generated_Source\PSoC4/StripLights.c **** 	}
 951:Generated_Source\PSoC4/StripLights.c **** }
 1077              		.loc 1 951 0
 1078 00ee 05B0     		add	sp, sp, #20
 1079              		@ sp needed
 1080              	.LVL101:
 1081              	.LVL102:
 1082              	.LVL103:
 1083              	.LVL104:
 1084              	.LVL105:
 1085              	.LVL106:
 1086 00f0 3CBC     		pop	{r2, r3, r4, r5}
ARM GAS  C:\Users\JAMESS~1\AppData\Local\Temp\ccd7YNc7.s 			page 38


 1087 00f2 9046     		mov	r8, r2
 1088 00f4 9946     		mov	r9, r3
 1089 00f6 A246     		mov	r10, r4
 1090 00f8 AB46     		mov	fp, r5
 1091 00fa F0BD     		pop	{r4, r5, r6, r7, pc}
 1092              		.cfi_endproc
 1093              	.LFE48:
 1094              		.size	StripLights_DrawCircle, .-StripLights_DrawCircle
 1095              		.section	.text.StripLights_DrawLine,"ax",%progbits
 1096              		.align	2
 1097              		.global	StripLights_DrawLine
 1098              		.code	16
 1099              		.thumb_func
 1100              		.type	StripLights_DrawLine, %function
 1101              	StripLights_DrawLine:
 1102              	.LFB49:
 952:Generated_Source\PSoC4/StripLights.c **** 
 953:Generated_Source\PSoC4/StripLights.c **** 
 954:Generated_Source\PSoC4/StripLights.c **** /*******************************************************************************
 955:Generated_Source\PSoC4/StripLights.c **** * Function Name: StripLights_DrawLine
 956:Generated_Source\PSoC4/StripLights.c **** ********************************************************************************
 957:Generated_Source\PSoC4/StripLights.c **** *
 958:Generated_Source\PSoC4/StripLights.c **** * Summary:
 959:Generated_Source\PSoC4/StripLights.c **** *  Draw a line on the display.  
 960:Generated_Source\PSoC4/StripLights.c **** *
 961:Generated_Source\PSoC4/StripLights.c **** * Parameters:  
 962:Generated_Source\PSoC4/StripLights.c **** *  x0, y0:  The beginning endpoint
 963:Generated_Source\PSoC4/StripLights.c **** *  x1, y1:  The end endpoint.
 964:Generated_Source\PSoC4/StripLights.c **** *  color:   Color of the line.
 965:Generated_Source\PSoC4/StripLights.c **** *
 966:Generated_Source\PSoC4/StripLights.c **** * Return: 
 967:Generated_Source\PSoC4/StripLights.c **** *  None 
 968:Generated_Source\PSoC4/StripLights.c **** *  
 969:Generated_Source\PSoC4/StripLights.c **** *******************************************************************************/
 970:Generated_Source\PSoC4/StripLights.c **** void StripLights_DrawLine(int32 x0, int32 y0, int32 x1, int32 y1, uint32 color)
 971:Generated_Source\PSoC4/StripLights.c **** {
 1103              		.loc 1 971 0
 1104              		.cfi_startproc
 1105              		@ args = 4, pretend = 0, frame = 8
 1106              		@ frame_needed = 0, uses_anonymous_args = 0
 1107              	.LVL107:
 1108 0000 F0B5     		push	{r4, r5, r6, r7, lr}
 1109              		.cfi_def_cfa_offset 20
 1110              		.cfi_offset 4, -20
 1111              		.cfi_offset 5, -16
 1112              		.cfi_offset 6, -12
 1113              		.cfi_offset 7, -8
 1114              		.cfi_offset 14, -4
 1115 0002 5F46     		mov	r7, fp
 1116 0004 5646     		mov	r6, r10
 1117 0006 4D46     		mov	r5, r9
 1118 0008 4446     		mov	r4, r8
 1119 000a F0B4     		push	{r4, r5, r6, r7}
 1120              		.cfi_def_cfa_offset 36
 1121              		.cfi_offset 8, -36
 1122              		.cfi_offset 9, -32
 1123              		.cfi_offset 10, -28
ARM GAS  C:\Users\JAMESS~1\AppData\Local\Temp\ccd7YNc7.s 			page 39


 1124              		.cfi_offset 11, -24
 1125 000c 83B0     		sub	sp, sp, #12
 1126              		.cfi_def_cfa_offset 48
 1127 000e 0400     		movs	r4, r0
 1128 0010 0D00     		movs	r5, r1
 1129 0012 0192     		str	r2, [sp, #4]
 1130 0014 9B46     		mov	fp, r3
 972:Generated_Source\PSoC4/StripLights.c **** 	int32 dy = y1 - y0; /* Difference between y0 and y1 */
 1131              		.loc 1 972 0
 1132 0016 5B1A     		subs	r3, r3, r1
 1133              	.LVL108:
 973:Generated_Source\PSoC4/StripLights.c **** 	int32 dx = x1 - x0; /* Difference between x0 and x1 */
 1134              		.loc 1 973 0
 1135 0018 171A     		subs	r7, r2, r0
 1136              	.LVL109:
 974:Generated_Source\PSoC4/StripLights.c **** 	int32 stepx, stepy;
 975:Generated_Source\PSoC4/StripLights.c **** 
 976:Generated_Source\PSoC4/StripLights.c **** 	if (dy < 0)
 1137              		.loc 1 976 0
 1138 001a 002B     		cmp	r3, #0
 1139 001c 04DA     		bge	.L84
 977:Generated_Source\PSoC4/StripLights.c **** 	{
 978:Generated_Source\PSoC4/StripLights.c **** 		dy = -dy;
 1140              		.loc 1 978 0
 1141 001e 5B42     		rsbs	r3, r3, #0
 1142              	.LVL110:
 979:Generated_Source\PSoC4/StripLights.c **** 		stepy = -1;
 1143              		.loc 1 979 0
 1144 0020 0122     		movs	r2, #1
 1145              	.LVL111:
 1146 0022 5242     		rsbs	r2, r2, #0
 1147 0024 9246     		mov	r10, r2
 1148 0026 01E0     		b	.L74
 1149              	.LVL112:
 1150              	.L84:
 980:Generated_Source\PSoC4/StripLights.c **** 	}
 981:Generated_Source\PSoC4/StripLights.c **** 	else
 982:Generated_Source\PSoC4/StripLights.c **** 	{
 983:Generated_Source\PSoC4/StripLights.c **** 		stepy = 1;
 1151              		.loc 1 983 0
 1152 0028 0122     		movs	r2, #1
 1153              	.LVL113:
 1154 002a 9246     		mov	r10, r2
 1155              	.L74:
 1156              	.LVL114:
 984:Generated_Source\PSoC4/StripLights.c **** 	}
 985:Generated_Source\PSoC4/StripLights.c **** 
 986:Generated_Source\PSoC4/StripLights.c **** 	if (dx < 0)
 1157              		.loc 1 986 0
 1158 002c 002F     		cmp	r7, #0
 1159 002e 04DA     		bge	.L85
 987:Generated_Source\PSoC4/StripLights.c **** 	{
 988:Generated_Source\PSoC4/StripLights.c **** 		dx = -dx;
 1160              		.loc 1 988 0
 1161 0030 7F42     		rsbs	r7, r7, #0
 1162              	.LVL115:
 989:Generated_Source\PSoC4/StripLights.c **** 		stepx = -1;
ARM GAS  C:\Users\JAMESS~1\AppData\Local\Temp\ccd7YNc7.s 			page 40


 1163              		.loc 1 989 0
 1164 0032 0122     		movs	r2, #1
 1165 0034 5242     		rsbs	r2, r2, #0
 1166 0036 9146     		mov	r9, r2
 1167 0038 01E0     		b	.L75
 1168              	.LVL116:
 1169              	.L85:
 990:Generated_Source\PSoC4/StripLights.c **** 	}
 991:Generated_Source\PSoC4/StripLights.c **** 	else
 992:Generated_Source\PSoC4/StripLights.c **** 	{
 993:Generated_Source\PSoC4/StripLights.c **** 		stepx = 1;
 1170              		.loc 1 993 0
 1171 003a 0122     		movs	r2, #1
 1172 003c 9146     		mov	r9, r2
 1173              	.L75:
 1174              	.LVL117:
 994:Generated_Source\PSoC4/StripLights.c **** 	}
 995:Generated_Source\PSoC4/StripLights.c **** 
 996:Generated_Source\PSoC4/StripLights.c **** 	dy <<= 1; /* dy is now 2*dy  */
 1175              		.loc 1 996 0
 1176 003e 5B00     		lsls	r3, r3, #1
 1177              	.LVL118:
 1178 0040 9846     		mov	r8, r3
 1179              	.LVL119:
 997:Generated_Source\PSoC4/StripLights.c **** 	dx <<= 1; /* dx is now 2*dx  */
 1180              		.loc 1 997 0
 1181 0042 7F00     		lsls	r7, r7, #1
 1182              	.LVL120:
 998:Generated_Source\PSoC4/StripLights.c **** 	StripLights_Pixel(x0, y0, color);
 1183              		.loc 1 998 0
 1184 0044 0C9A     		ldr	r2, [sp, #48]
 1185 0046 2900     		movs	r1, r5
 1186              	.LVL121:
 1187 0048 2000     		movs	r0, r4
 1188              	.LVL122:
 1189 004a FFF7FEFF 		bl	StripLights_Pixel
 1190              	.LVL123:
 999:Generated_Source\PSoC4/StripLights.c **** 
1000:Generated_Source\PSoC4/StripLights.c **** 	if (dx > dy) 
 1191              		.loc 1 1000 0
 1192 004e B845     		cmp	r8, r7
 1193 0050 12DA     		bge	.L76
 1194              	.LBB2:
1001:Generated_Source\PSoC4/StripLights.c **** 	{
1002:Generated_Source\PSoC4/StripLights.c **** 		int fraction = dy - (dx >> 1);
 1195              		.loc 1 1002 0
 1196 0052 7B10     		asrs	r3, r7, #1
 1197 0054 4246     		mov	r2, r8
 1198 0056 D61A     		subs	r6, r2, r3
 1199              	.LVL124:
1003:Generated_Source\PSoC4/StripLights.c **** 		while (x0 != x1)
 1200              		.loc 1 1003 0
 1201 0058 0AE0     		b	.L77
 1202              	.L79:
1004:Generated_Source\PSoC4/StripLights.c **** 		{
1005:Generated_Source\PSoC4/StripLights.c **** 			if (fraction >= 0)
 1203              		.loc 1 1005 0
ARM GAS  C:\Users\JAMESS~1\AppData\Local\Temp\ccd7YNc7.s 			page 41


 1204 005a 002E     		cmp	r6, #0
 1205 005c 01DB     		blt	.L78
1006:Generated_Source\PSoC4/StripLights.c **** 			{
1007:Generated_Source\PSoC4/StripLights.c **** 				y0 += stepy;
 1206              		.loc 1 1007 0
 1207 005e 5544     		add	r5, r5, r10
 1208              	.LVL125:
1008:Generated_Source\PSoC4/StripLights.c **** 				fraction -= dx;
 1209              		.loc 1 1008 0
 1210 0060 F61B     		subs	r6, r6, r7
 1211              	.LVL126:
 1212              	.L78:
1009:Generated_Source\PSoC4/StripLights.c **** 			}
1010:Generated_Source\PSoC4/StripLights.c **** 			x0 += stepx;
 1213              		.loc 1 1010 0
 1214 0062 4C44     		add	r4, r4, r9
 1215              	.LVL127:
1011:Generated_Source\PSoC4/StripLights.c **** 			fraction += dy;
 1216              		.loc 1 1011 0
 1217 0064 4644     		add	r6, r6, r8
 1218              	.LVL128:
1012:Generated_Source\PSoC4/StripLights.c **** 			StripLights_Pixel(x0, y0, color);
 1219              		.loc 1 1012 0
 1220 0066 0C9A     		ldr	r2, [sp, #48]
 1221 0068 2900     		movs	r1, r5
 1222 006a 2000     		movs	r0, r4
 1223 006c FFF7FEFF 		bl	StripLights_Pixel
 1224              	.LVL129:
 1225              	.L77:
1003:Generated_Source\PSoC4/StripLights.c **** 		{
 1226              		.loc 1 1003 0
 1227 0070 019B     		ldr	r3, [sp, #4]
 1228 0072 9C42     		cmp	r4, r3
 1229 0074 F1D1     		bne	.L79
 1230 0076 11E0     		b	.L73
 1231              	.LVL130:
 1232              	.L76:
 1233              	.LBE2:
 1234              	.LBB3:
1013:Generated_Source\PSoC4/StripLights.c **** 		}
1014:Generated_Source\PSoC4/StripLights.c **** 	}
1015:Generated_Source\PSoC4/StripLights.c **** 	else
1016:Generated_Source\PSoC4/StripLights.c **** 	{
1017:Generated_Source\PSoC4/StripLights.c **** 		int fraction = dx - (dy >> 1);
 1235              		.loc 1 1017 0
 1236 0078 4346     		mov	r3, r8
 1237 007a 5E10     		asrs	r6, r3, #1
 1238 007c BE1B     		subs	r6, r7, r6
 1239              	.LVL131:
1018:Generated_Source\PSoC4/StripLights.c **** 		while (y0 != y1)
 1240              		.loc 1 1018 0
 1241 007e 0BE0     		b	.L81
 1242              	.L83:
1019:Generated_Source\PSoC4/StripLights.c **** 		{
1020:Generated_Source\PSoC4/StripLights.c **** 			if (fraction >= 0)
 1243              		.loc 1 1020 0
 1244 0080 002E     		cmp	r6, #0
ARM GAS  C:\Users\JAMESS~1\AppData\Local\Temp\ccd7YNc7.s 			page 42


 1245 0082 02DB     		blt	.L82
1021:Generated_Source\PSoC4/StripLights.c **** 			{
1022:Generated_Source\PSoC4/StripLights.c **** 				x0 += stepx;
 1246              		.loc 1 1022 0
 1247 0084 4C44     		add	r4, r4, r9
 1248              	.LVL132:
1023:Generated_Source\PSoC4/StripLights.c **** 				fraction -= dy;
 1249              		.loc 1 1023 0
 1250 0086 4346     		mov	r3, r8
 1251 0088 F61A     		subs	r6, r6, r3
 1252              	.LVL133:
 1253              	.L82:
1024:Generated_Source\PSoC4/StripLights.c **** 			}
1025:Generated_Source\PSoC4/StripLights.c **** 			y0 += stepy;
 1254              		.loc 1 1025 0
 1255 008a 5544     		add	r5, r5, r10
 1256              	.LVL134:
1026:Generated_Source\PSoC4/StripLights.c **** 			fraction += dx;
 1257              		.loc 1 1026 0
 1258 008c F619     		adds	r6, r6, r7
 1259              	.LVL135:
1027:Generated_Source\PSoC4/StripLights.c **** 			StripLights_Pixel( x0, y0, color);
 1260              		.loc 1 1027 0
 1261 008e 0C9A     		ldr	r2, [sp, #48]
 1262 0090 2900     		movs	r1, r5
 1263 0092 2000     		movs	r0, r4
 1264 0094 FFF7FEFF 		bl	StripLights_Pixel
 1265              	.LVL136:
 1266              	.L81:
1018:Generated_Source\PSoC4/StripLights.c **** 		{
 1267              		.loc 1 1018 0
 1268 0098 5D45     		cmp	r5, fp
 1269 009a F1D1     		bne	.L83
 1270              	.LVL137:
 1271              	.L73:
 1272              	.LBE3:
1028:Generated_Source\PSoC4/StripLights.c **** 		}
1029:Generated_Source\PSoC4/StripLights.c **** 	}
1030:Generated_Source\PSoC4/StripLights.c **** }
 1273              		.loc 1 1030 0
 1274 009c 03B0     		add	sp, sp, #12
 1275              		@ sp needed
 1276              	.LVL138:
 1277              	.LVL139:
 1278              	.LVL140:
 1279              	.LVL141:
 1280              	.LVL142:
 1281              	.LVL143:
 1282              	.LVL144:
 1283 009e 3CBC     		pop	{r2, r3, r4, r5}
 1284 00a0 9046     		mov	r8, r2
 1285 00a2 9946     		mov	r9, r3
 1286 00a4 A246     		mov	r10, r4
 1287 00a6 AB46     		mov	fp, r5
 1288 00a8 F0BD     		pop	{r4, r5, r6, r7, pc}
 1289              		.cfi_endproc
 1290              	.LFE49:
ARM GAS  C:\Users\JAMESS~1\AppData\Local\Temp\ccd7YNc7.s 			page 43


 1291              		.size	StripLights_DrawLine, .-StripLights_DrawLine
 1292 00aa C046     		.section	.text.StripLights_DrawRect,"ax",%progbits
 1293              		.align	2
 1294              		.global	StripLights_DrawRect
 1295              		.code	16
 1296              		.thumb_func
 1297              		.type	StripLights_DrawRect, %function
 1298              	StripLights_DrawRect:
 1299              	.LFB50:
1031:Generated_Source\PSoC4/StripLights.c **** 
1032:Generated_Source\PSoC4/StripLights.c **** /*******************************************************************************
1033:Generated_Source\PSoC4/StripLights.c **** * Function Name: StripLights_DrawRect
1034:Generated_Source\PSoC4/StripLights.c **** ********************************************************************************
1035:Generated_Source\PSoC4/StripLights.c **** *
1036:Generated_Source\PSoC4/StripLights.c **** * Summary:
1037:Generated_Source\PSoC4/StripLights.c **** *  Draw a rectangle, filled or not.  
1038:Generated_Source\PSoC4/StripLights.c **** *
1039:Generated_Source\PSoC4/StripLights.c **** * Parameters:  
1040:Generated_Source\PSoC4/StripLights.c **** *  x0, y0:  The upper lefthand corner.
1041:Generated_Source\PSoC4/StripLights.c **** *  x1, y1:  The lower right corner.
1042:Generated_Source\PSoC4/StripLights.c **** *  fill:    Non-Zero if retangle is to be filled.
1043:Generated_Source\PSoC4/StripLights.c **** *  color:   Color for rectangle, border and fill.
1044:Generated_Source\PSoC4/StripLights.c **** *
1045:Generated_Source\PSoC4/StripLights.c **** * Return: 
1046:Generated_Source\PSoC4/StripLights.c **** *  None 
1047:Generated_Source\PSoC4/StripLights.c **** *  
1048:Generated_Source\PSoC4/StripLights.c **** *******************************************************************************/
1049:Generated_Source\PSoC4/StripLights.c **** void StripLights_DrawRect(int32 x0, int32 y0, int32 x1, int32 y1, int32 fill, uint32 color)
1050:Generated_Source\PSoC4/StripLights.c **** {	
 1300              		.loc 1 1050 0
 1301              		.cfi_startproc
 1302              		@ args = 8, pretend = 0, frame = 8
 1303              		@ frame_needed = 0, uses_anonymous_args = 0
 1304              	.LVL145:
 1305 0000 F0B5     		push	{r4, r5, r6, r7, lr}
 1306              		.cfi_def_cfa_offset 20
 1307              		.cfi_offset 4, -20
 1308              		.cfi_offset 5, -16
 1309              		.cfi_offset 6, -12
 1310              		.cfi_offset 7, -8
 1311              		.cfi_offset 14, -4
 1312 0002 85B0     		sub	sp, sp, #20
 1313              		.cfi_def_cfa_offset 40
 1314 0004 0400     		movs	r4, r0
 1315 0006 0391     		str	r1, [sp, #12]
 1316 0008 1600     		movs	r6, r2
 1317 000a 0293     		str	r3, [sp, #8]
 1318 000c 0B9F     		ldr	r7, [sp, #44]
1051:Generated_Source\PSoC4/StripLights.c ****      int xDiff;
1052:Generated_Source\PSoC4/StripLights.c **** 	/* Check if the rectangle is to be filled    */
1053:Generated_Source\PSoC4/StripLights.c **** 	if (fill != 0)
 1319              		.loc 1 1053 0
 1320 000e 0A9B     		ldr	r3, [sp, #40]
 1321              	.LVL146:
 1322 0010 002B     		cmp	r3, #0
 1323 0012 15D0     		beq	.L87
1054:Generated_Source\PSoC4/StripLights.c **** 	{	
ARM GAS  C:\Users\JAMESS~1\AppData\Local\Temp\ccd7YNc7.s 			page 44


1055:Generated_Source\PSoC4/StripLights.c ****         /* Find the difference between the x vars */
1056:Generated_Source\PSoC4/StripLights.c **** 		if(x0 > x1)
 1324              		.loc 1 1056 0
 1325 0014 9042     		cmp	r0, r2
 1326 0016 01DD     		ble	.L88
1057:Generated_Source\PSoC4/StripLights.c **** 		{
1058:Generated_Source\PSoC4/StripLights.c **** 			xDiff = x0 - x1; 
 1327              		.loc 1 1058 0
 1328 0018 851A     		subs	r5, r0, r2
 1329              	.LVL147:
 1330 001a 0EE0     		b	.L89
 1331              	.LVL148:
 1332              	.L88:
1059:Generated_Source\PSoC4/StripLights.c **** 		}
1060:Generated_Source\PSoC4/StripLights.c **** 		else
1061:Generated_Source\PSoC4/StripLights.c **** 		{
1062:Generated_Source\PSoC4/StripLights.c **** 			xDiff = x1 - x0;
 1333              		.loc 1 1062 0
 1334 001c 151A     		subs	r5, r2, r0
 1335              	.LVL149:
 1336 001e 0CE0     		b	.L89
 1337              	.LVL150:
 1338              	.L93:
1063:Generated_Source\PSoC4/StripLights.c **** 		}
1064:Generated_Source\PSoC4/StripLights.c **** 	
1065:Generated_Source\PSoC4/StripLights.c **** 	    /* Fill it with lines  */
1066:Generated_Source\PSoC4/StripLights.c **** 		while(xDiff >= 0)
1067:Generated_Source\PSoC4/StripLights.c **** 		{
1068:Generated_Source\PSoC4/StripLights.c **** 			StripLights_DrawLine(x0, y0, x0, y1, color);
 1339              		.loc 1 1068 0
 1340 0020 0097     		str	r7, [sp]
 1341 0022 029B     		ldr	r3, [sp, #8]
 1342 0024 2200     		movs	r2, r4
 1343 0026 0399     		ldr	r1, [sp, #12]
 1344 0028 2000     		movs	r0, r4
 1345 002a FFF7FEFF 		bl	StripLights_DrawLine
 1346              	.LVL151:
1069:Generated_Source\PSoC4/StripLights.c **** 		
1070:Generated_Source\PSoC4/StripLights.c **** 			if(x0 > x1)
 1347              		.loc 1 1070 0
 1348 002e B442     		cmp	r4, r6
 1349 0030 01DD     		ble	.L91
1071:Generated_Source\PSoC4/StripLights.c **** 				x0--;
 1350              		.loc 1 1071 0
 1351 0032 013C     		subs	r4, r4, #1
 1352              	.LVL152:
 1353 0034 00E0     		b	.L92
 1354              	.L91:
1072:Generated_Source\PSoC4/StripLights.c **** 			else
1073:Generated_Source\PSoC4/StripLights.c **** 				x0++;
 1355              		.loc 1 1073 0
 1356 0036 0134     		adds	r4, r4, #1
 1357              	.LVL153:
 1358              	.L92:
1074:Generated_Source\PSoC4/StripLights.c **** 		
1075:Generated_Source\PSoC4/StripLights.c **** 			xDiff--;
 1359              		.loc 1 1075 0
ARM GAS  C:\Users\JAMESS~1\AppData\Local\Temp\ccd7YNc7.s 			page 45


 1360 0038 013D     		subs	r5, r5, #1
 1361              	.LVL154:
 1362              	.L89:
1066:Generated_Source\PSoC4/StripLights.c **** 		{
 1363              		.loc 1 1066 0
 1364 003a 002D     		cmp	r5, #0
 1365 003c F0DA     		bge	.L93
 1366 003e 1AE0     		b	.L86
 1367              	.LVL155:
 1368              	.L87:
1076:Generated_Source\PSoC4/StripLights.c **** 		}
1077:Generated_Source\PSoC4/StripLights.c **** 	}
1078:Generated_Source\PSoC4/StripLights.c **** 	else 
1079:Generated_Source\PSoC4/StripLights.c **** 	{
1080:Generated_Source\PSoC4/StripLights.c **** 		/* Draw the four sides of the rectangle */
1081:Generated_Source\PSoC4/StripLights.c **** 		StripLights_DrawLine(x0, y0, x1, y0, color);
 1369              		.loc 1 1081 0
 1370 0040 0097     		str	r7, [sp]
 1371 0042 039D     		ldr	r5, [sp, #12]
 1372 0044 2B00     		movs	r3, r5
 1373 0046 2900     		movs	r1, r5
 1374              	.LVL156:
 1375 0048 FFF7FEFF 		bl	StripLights_DrawLine
 1376              	.LVL157:
1082:Generated_Source\PSoC4/StripLights.c **** 		StripLights_DrawLine(x0, y1, x1, y1, color);
 1377              		.loc 1 1082 0
 1378 004c 0097     		str	r7, [sp]
 1379 004e 0299     		ldr	r1, [sp, #8]
 1380 0050 0B00     		movs	r3, r1
 1381 0052 3200     		movs	r2, r6
 1382 0054 2000     		movs	r0, r4
 1383 0056 FFF7FEFF 		bl	StripLights_DrawLine
 1384              	.LVL158:
1083:Generated_Source\PSoC4/StripLights.c **** 		StripLights_DrawLine(x0, y0, x0, y1, color);
 1385              		.loc 1 1083 0
 1386 005a 0097     		str	r7, [sp]
 1387 005c 029B     		ldr	r3, [sp, #8]
 1388 005e 2200     		movs	r2, r4
 1389 0060 2900     		movs	r1, r5
 1390 0062 2000     		movs	r0, r4
 1391 0064 FFF7FEFF 		bl	StripLights_DrawLine
 1392              	.LVL159:
1084:Generated_Source\PSoC4/StripLights.c **** 		StripLights_DrawLine(x1, y0, x1, y1, color);
 1393              		.loc 1 1084 0
 1394 0068 0097     		str	r7, [sp]
 1395 006a 029B     		ldr	r3, [sp, #8]
 1396 006c 3200     		movs	r2, r6
 1397 006e 2900     		movs	r1, r5
 1398 0070 3000     		movs	r0, r6
 1399 0072 FFF7FEFF 		bl	StripLights_DrawLine
 1400              	.LVL160:
 1401              	.L86:
1085:Generated_Source\PSoC4/StripLights.c **** 	}
1086:Generated_Source\PSoC4/StripLights.c **** }
 1402              		.loc 1 1086 0
 1403 0076 05B0     		add	sp, sp, #20
 1404              		@ sp needed
ARM GAS  C:\Users\JAMESS~1\AppData\Local\Temp\ccd7YNc7.s 			page 46


 1405              	.LVL161:
 1406              	.LVL162:
 1407 0078 F0BD     		pop	{r4, r5, r6, r7, pc}
 1408              		.cfi_endproc
 1409              	.LFE50:
 1410              		.size	StripLights_DrawRect, .-StripLights_DrawRect
 1411 007a C046     		.section	.text.StripLights_Dim,"ax",%progbits
 1412              		.align	2
 1413              		.global	StripLights_Dim
 1414              		.code	16
 1415              		.thumb_func
 1416              		.type	StripLights_Dim, %function
 1417              	StripLights_Dim:
 1418              	.LFB51:
1087:Generated_Source\PSoC4/StripLights.c **** 
1088:Generated_Source\PSoC4/StripLights.c **** /*******************************************************************************
1089:Generated_Source\PSoC4/StripLights.c **** * Function Name: StripLights_Dim
1090:Generated_Source\PSoC4/StripLights.c **** ********************************************************************************
1091:Generated_Source\PSoC4/StripLights.c **** *
1092:Generated_Source\PSoC4/StripLights.c **** * Summary:
1093:Generated_Source\PSoC4/StripLights.c **** *  Dim all output by a specific level (0,1,2,3,4)  
1094:Generated_Source\PSoC4/StripLights.c **** *
1095:Generated_Source\PSoC4/StripLights.c **** * Parameters:  
1096:Generated_Source\PSoC4/StripLights.c **** *  dimLevel:  Dim level 1 to 4, 0 => No dimming.
1097:Generated_Source\PSoC4/StripLights.c **** *
1098:Generated_Source\PSoC4/StripLights.c **** * Return: 
1099:Generated_Source\PSoC4/StripLights.c **** *  None 
1100:Generated_Source\PSoC4/StripLights.c **** *  
1101:Generated_Source\PSoC4/StripLights.c **** *******************************************************************************/
1102:Generated_Source\PSoC4/StripLights.c **** void StripLights_Dim(uint32 dimLevel) 
1103:Generated_Source\PSoC4/StripLights.c **** {
 1419              		.loc 1 1103 0
 1420              		.cfi_startproc
 1421              		@ args = 0, pretend = 0, frame = 0
 1422              		@ frame_needed = 0, uses_anonymous_args = 0
 1423              		@ link register save eliminated.
 1424              	.LVL163:
1104:Generated_Source\PSoC4/StripLights.c **** extern uint32  StripLights_DimMask;
1105:Generated_Source\PSoC4/StripLights.c **** extern uint32  StripLights_DimShift;
1106:Generated_Source\PSoC4/StripLights.c **** 
1107:Generated_Source\PSoC4/StripLights.c ****     switch(dimLevel)
 1425              		.loc 1 1107 0
 1426 0000 0228     		cmp	r0, #2
 1427 0002 0FD0     		beq	.L97
 1428 0004 02D8     		bhi	.L98
 1429 0006 0128     		cmp	r0, #1
 1430 0008 05D0     		beq	.L99
 1431 000a 20E0     		b	.L96
 1432              	.L98:
 1433 000c 0328     		cmp	r0, #3
 1434 000e 10D0     		beq	.L100
 1435 0010 0428     		cmp	r0, #4
 1436 0012 15D0     		beq	.L101
 1437 0014 1BE0     		b	.L96
 1438              	.L99:
1108:Generated_Source\PSoC4/StripLights.c ****     {
1109:Generated_Source\PSoC4/StripLights.c ****        case 1:  // 1/2 bright
ARM GAS  C:\Users\JAMESS~1\AppData\Local\Temp\ccd7YNc7.s 			page 47


1110:Generated_Source\PSoC4/StripLights.c ****            StripLights_DimMask = 0x7F7F7F7F;
 1439              		.loc 1 1110 0
 1440 0016 124A     		ldr	r2, .L103
 1441 0018 124B     		ldr	r3, .L103+4
 1442 001a 1A60     		str	r2, [r3]
1111:Generated_Source\PSoC4/StripLights.c ****            StripLights_DimShift = 1;
 1443              		.loc 1 1111 0
 1444 001c 0122     		movs	r2, #1
 1445 001e 124B     		ldr	r3, .L103+8
 1446 0020 1A60     		str	r2, [r3]
1112:Generated_Source\PSoC4/StripLights.c ****            break;
 1447              		.loc 1 1112 0
 1448 0022 1BE0     		b	.L95
 1449              	.L97:
1113:Generated_Source\PSoC4/StripLights.c ****            
1114:Generated_Source\PSoC4/StripLights.c ****        case 2:
1115:Generated_Source\PSoC4/StripLights.c ****            StripLights_DimMask = 0x3F3F3F3F;
 1450              		.loc 1 1115 0
 1451 0024 114A     		ldr	r2, .L103+12
 1452 0026 0F4B     		ldr	r3, .L103+4
 1453 0028 1A60     		str	r2, [r3]
1116:Generated_Source\PSoC4/StripLights.c ****            StripLights_DimShift = 2;
 1454              		.loc 1 1116 0
 1455 002a 0222     		movs	r2, #2
 1456 002c 0E4B     		ldr	r3, .L103+8
 1457 002e 1A60     		str	r2, [r3]
1117:Generated_Source\PSoC4/StripLights.c ****            break;
 1458              		.loc 1 1117 0
 1459 0030 14E0     		b	.L95
 1460              	.L100:
1118:Generated_Source\PSoC4/StripLights.c ****            
1119:Generated_Source\PSoC4/StripLights.c ****        case 3:
1120:Generated_Source\PSoC4/StripLights.c ****            StripLights_DimMask = 0x1F1F1F1F;
 1461              		.loc 1 1120 0
 1462 0032 0F4A     		ldr	r2, .L103+16
 1463 0034 0B4B     		ldr	r3, .L103+4
 1464 0036 1A60     		str	r2, [r3]
1121:Generated_Source\PSoC4/StripLights.c ****            StripLights_DimShift = 3;
 1465              		.loc 1 1121 0
 1466 0038 0322     		movs	r2, #3
 1467 003a 0B4B     		ldr	r3, .L103+8
 1468 003c 1A60     		str	r2, [r3]
1122:Generated_Source\PSoC4/StripLights.c ****            break;
 1469              		.loc 1 1122 0
 1470 003e 0DE0     		b	.L95
 1471              	.L101:
1123:Generated_Source\PSoC4/StripLights.c ****            
1124:Generated_Source\PSoC4/StripLights.c ****        case 4:
1125:Generated_Source\PSoC4/StripLights.c ****            StripLights_DimMask = 0x0F0F0F0F;
 1472              		.loc 1 1125 0
 1473 0040 0C4A     		ldr	r2, .L103+20
 1474 0042 084B     		ldr	r3, .L103+4
 1475 0044 1A60     		str	r2, [r3]
1126:Generated_Source\PSoC4/StripLights.c ****            StripLights_DimShift = 4;
 1476              		.loc 1 1126 0
 1477 0046 0422     		movs	r2, #4
 1478 0048 074B     		ldr	r3, .L103+8
ARM GAS  C:\Users\JAMESS~1\AppData\Local\Temp\ccd7YNc7.s 			page 48


 1479 004a 1A60     		str	r2, [r3]
1127:Generated_Source\PSoC4/StripLights.c ****            break;
 1480              		.loc 1 1127 0
 1481 004c 06E0     		b	.L95
 1482              	.L96:
1128:Generated_Source\PSoC4/StripLights.c ****            
1129:Generated_Source\PSoC4/StripLights.c ****        default:
1130:Generated_Source\PSoC4/StripLights.c ****            StripLights_DimMask = 0xFFFFFFFF;
 1483              		.loc 1 1130 0
 1484 004e 0122     		movs	r2, #1
 1485 0050 5242     		rsbs	r2, r2, #0
 1486 0052 044B     		ldr	r3, .L103+4
 1487 0054 1A60     		str	r2, [r3]
1131:Generated_Source\PSoC4/StripLights.c ****            StripLights_DimShift = 0;
 1488              		.loc 1 1131 0
 1489 0056 0022     		movs	r2, #0
 1490 0058 034B     		ldr	r3, .L103+8
 1491 005a 1A60     		str	r2, [r3]
 1492              	.L95:
1132:Generated_Source\PSoC4/StripLights.c ****            break; 
1133:Generated_Source\PSoC4/StripLights.c ****     }
1134:Generated_Source\PSoC4/StripLights.c **** }
 1493              		.loc 1 1134 0
 1494              		@ sp needed
 1495 005c 7047     		bx	lr
 1496              	.L104:
 1497 005e C046     		.align	2
 1498              	.L103:
 1499 0060 7F7F7F7F 		.word	2139062143
 1500 0064 00000000 		.word	StripLights_DimMask
 1501 0068 00000000 		.word	StripLights_DimShift
 1502 006c 3F3F3F3F 		.word	1061109567
 1503 0070 1F1F1F1F 		.word	522133279
 1504 0074 0F0F0F0F 		.word	252645135
 1505              		.cfi_endproc
 1506              	.LFE51:
 1507              		.size	StripLights_Dim, .-StripLights_Dim
 1508              		.section	.text.StripLights_Start,"ax",%progbits
 1509              		.align	2
 1510              		.global	StripLights_Start
 1511              		.code	16
 1512              		.thumb_func
 1513              		.type	StripLights_Start, %function
 1514              	StripLights_Start:
 1515              	.LFB32:
 253:Generated_Source\PSoC4/StripLights.c ****     extern uint8 StripLights_initvar;
 1516              		.loc 1 253 0
 1517              		.cfi_startproc
 1518              		@ args = 0, pretend = 0, frame = 0
 1519              		@ frame_needed = 0, uses_anonymous_args = 0
 1520 0000 10B5     		push	{r4, lr}
 1521              		.cfi_def_cfa_offset 8
 1522              		.cfi_offset 4, -8
 1523              		.cfi_offset 14, -4
 264:Generated_Source\PSoC4/StripLights.c **** 
 1524              		.loc 1 264 0
 1525 0002 0322     		movs	r2, #3
ARM GAS  C:\Users\JAMESS~1\AppData\Local\Temp\ccd7YNc7.s 			page 49


 1526 0004 184B     		ldr	r3, .L107
 1527 0006 1A70     		strb	r2, [r3]
 279:Generated_Source\PSoC4/StripLights.c ****         StripLights_Compare0 = (uint8)StripLights_COMPARE_ZERO;
 1528              		.loc 1 279 0
 1529 0008 0B32     		adds	r2, r2, #11
 1530 000a 184B     		ldr	r3, .L107+4
 1531 000c 1A70     		strb	r2, [r3]
 280:Generated_Source\PSoC4/StripLights.c ****         StripLights_Compare1 = (uint8)StripLights_COMPARE_ONE;        
 1532              		.loc 1 280 0
 1533 000e 023A     		subs	r2, r2, #2
 1534 0010 174B     		ldr	r3, .L107+8
 1535 0012 1A70     		strb	r2, [r3]
 281:Generated_Source\PSoC4/StripLights.c ****     #endif /* CY_PSOC5A */
 1536              		.loc 1 281 0
 1537 0014 053A     		subs	r2, r2, #5
 1538 0016 174B     		ldr	r3, .L107+12
 1539 0018 1A70     		strb	r2, [r3]
 285:Generated_Source\PSoC4/StripLights.c ****     StripLights_MemClear(StripLights_OFF);
 1540              		.loc 1 285 0
 1541 001a 174C     		ldr	r4, .L107+16
 1542 001c 0123     		movs	r3, #1
 1543 001e 2370     		strb	r3, [r4]
 286:Generated_Source\PSoC4/StripLights.c ****     StripLights_CONTROL = StripLights_DISABLE;
 1544              		.loc 1 286 0
 1545 0020 1820     		movs	r0, #24
 1546 0022 FFF7FEFF 		bl	StripLights_getColor
 1547              	.LVL164:
 1548 0026 FFF7FEFF 		bl	StripLights_MemClear
 1549              	.LVL165:
 287:Generated_Source\PSoC4/StripLights.c ****     
 1550              		.loc 1 287 0
 1551 002a 0023     		movs	r3, #0
 1552 002c 2370     		strb	r3, [r4]
 289:Generated_Source\PSoC4/StripLights.c ****     
 1553              		.loc 1 289 0
 1554 002e 0020     		movs	r0, #0
 1555 0030 FFF7FEFF 		bl	StripLights_SetFont
 1556              	.LVL166:
 292:Generated_Source\PSoC4/StripLights.c **** 
 1557              		.loc 1 292 0
 1558 0034 0020     		movs	r0, #0
 1559 0036 FFF7FEFF 		bl	StripLights_Dim
 1560              	.LVL167:
 294:Generated_Source\PSoC4/StripLights.c ****     {
 1561              		.loc 1 294 0
 1562 003a 104B     		ldr	r3, .L107+20
 1563 003c 1B7F     		ldrb	r3, [r3, #28]
 1564 003e 002B     		cmp	r3, #0
 1565 0040 0ED1     		bne	.L106
 297:Generated_Source\PSoC4/StripLights.c ****  
 1566              		.loc 1 297 0
 1567 0042 0122     		movs	r2, #1
 1568 0044 0D4B     		ldr	r3, .L107+20
 1569 0046 1A77     		strb	r2, [r3, #28]
 303:Generated_Source\PSoC4/StripLights.c **** 		   StripLights_fisr_StartEx(StripLights_FISR);
 1570              		.loc 1 303 0
 1571 0048 0D48     		ldr	r0, .L107+24
ARM GAS  C:\Users\JAMESS~1\AppData\Local\Temp\ccd7YNc7.s 			page 50


 1572 004a FFF7FEFF 		bl	StripLights_cisr_StartEx
 1573              	.LVL168:
 304:Generated_Source\PSoC4/StripLights.c ****         
 1574              		.loc 1 304 0
 1575 004e 0D48     		ldr	r0, .L107+28
 1576 0050 FFF7FEFF 		bl	StripLights_fisr_StartEx
 1577              	.LVL169:
 307:Generated_Source\PSoC4/StripLights.c ****            StripLights_fisr_SetPriority(0u);
 1578              		.loc 1 307 0
 1579 0054 0120     		movs	r0, #1
 1580 0056 FFF7FEFF 		bl	StripLights_cisr_SetPriority
 1581              	.LVL170:
 308:Generated_Source\PSoC4/StripLights.c ****        }
 1582              		.loc 1 308 0
 1583 005a 0020     		movs	r0, #0
 1584 005c FFF7FEFF 		bl	StripLights_fisr_SetPriority
 1585              	.LVL171:
 1586              	.L106:
 316:Generated_Source\PSoC4/StripLights.c **** }
 1587              		.loc 1 316 0
 1588 0060 0122     		movs	r2, #1
 1589 0062 094B     		ldr	r3, .L107+32
 1590 0064 1A60     		str	r2, [r3]
 317:Generated_Source\PSoC4/StripLights.c **** 
 1591              		.loc 1 317 0
 1592              		@ sp needed
 1593 0066 10BD     		pop	{r4, pc}
 1594              	.L108:
 1595              		.align	2
 1596              	.L107:
 1597 0068 91000F40 		.word	1074725009
 1598 006c 41000F40 		.word	1074724929
 1599 0070 21000F40 		.word	1074724897
 1600 0074 31000F40 		.word	1074724913
 1601 0078 72000F40 		.word	1074724978
 1602 007c 00000000 		.word	.LANCHOR0
 1603 0080 00000000 		.word	StripLights_CISR
 1604 0084 00000000 		.word	StripLights_FISR
 1605 0088 00000000 		.word	StripLights_refreshComplete
 1606              		.cfi_endproc
 1607              	.LFE32:
 1608              		.size	StripLights_Start, .-StripLights_Start
 1609              		.section	.text.StripLights_Bplot8,"ax",%progbits
 1610              		.align	2
 1611              		.global	StripLights_Bplot8
 1612              		.code	16
 1613              		.thumb_func
 1614              		.type	StripLights_Bplot8, %function
 1615              	StripLights_Bplot8:
 1616              	.LFB52:
1135:Generated_Source\PSoC4/StripLights.c **** 
1136:Generated_Source\PSoC4/StripLights.c **** /*******************************************************************************
1137:Generated_Source\PSoC4/StripLights.c **** * Function Name: StripLights_Bplot8
1138:Generated_Source\PSoC4/StripLights.c **** ********************************************************************************
1139:Generated_Source\PSoC4/StripLights.c **** *
1140:Generated_Source\PSoC4/StripLights.c **** * Summary:
1141:Generated_Source\PSoC4/StripLights.c **** *  Draw a bitmap image on the display using 8-bit color. 
ARM GAS  C:\Users\JAMESS~1\AppData\Local\Temp\ccd7YNc7.s 			page 51


1142:Generated_Source\PSoC4/StripLights.c **** *
1143:Generated_Source\PSoC4/StripLights.c **** * Parameters:  
1144:Generated_Source\PSoC4/StripLights.c **** *    x, y:  The upper left corner of the image location
1145:Generated_Source\PSoC4/StripLights.c **** *  bitMap:  A pointer to an image array.  The first two values is the X and Y
1146:Generated_Source\PSoC4/StripLights.c **** *           size of the bitmap.
1147:Generated_Source\PSoC4/StripLights.c **** *  update:  If not 0 update the display after drawing image.
1148:Generated_Source\PSoC4/StripLights.c **** *
1149:Generated_Source\PSoC4/StripLights.c **** * Return: 
1150:Generated_Source\PSoC4/StripLights.c **** *  None 
1151:Generated_Source\PSoC4/StripLights.c **** *  
1152:Generated_Source\PSoC4/StripLights.c **** *******************************************************************************/
1153:Generated_Source\PSoC4/StripLights.c **** void StripLights_Bplot8( int32 x, int32 y, uint8 * bitMap, int32 update)
1154:Generated_Source\PSoC4/StripLights.c **** {
 1617              		.loc 1 1154 0
 1618              		.cfi_startproc
 1619              		@ args = 0, pretend = 0, frame = 8
 1620              		@ frame_needed = 0, uses_anonymous_args = 0
 1621              	.LVL172:
 1622 0000 F0B5     		push	{r4, r5, r6, r7, lr}
 1623              		.cfi_def_cfa_offset 20
 1624              		.cfi_offset 4, -20
 1625              		.cfi_offset 5, -16
 1626              		.cfi_offset 6, -12
 1627              		.cfi_offset 7, -8
 1628              		.cfi_offset 14, -4
 1629 0002 5F46     		mov	r7, fp
 1630 0004 4646     		mov	r6, r8
 1631 0006 C0B4     		push	{r6, r7}
 1632              		.cfi_def_cfa_offset 28
 1633              		.cfi_offset 8, -28
 1634              		.cfi_offset 11, -24
 1635 0008 83B0     		sub	sp, sp, #12
 1636              		.cfi_def_cfa_offset 40
 1637 000a 0190     		str	r0, [sp, #4]
 1638 000c 0091     		str	r1, [sp]
 1639 000e 1700     		movs	r7, r2
 1640 0010 9B46     		mov	fp, r3
 1641              	.LVL173:
1155:Generated_Source\PSoC4/StripLights.c ****     int32 dx, dy;
1156:Generated_Source\PSoC4/StripLights.c ****     int32 aindex = 0;
1157:Generated_Source\PSoC4/StripLights.c ****     int32 maxX, maxY;
1158:Generated_Source\PSoC4/StripLights.c **** 
1159:Generated_Source\PSoC4/StripLights.c ****     maxX = x + (int32)bitMap[aindex++];
 1642              		.loc 1 1159 0
 1643 0012 1378     		ldrb	r3, [r2]
 1644              	.LVL174:
 1645 0014 1E18     		adds	r6, r3, r0
 1646              	.LVL175:
1160:Generated_Source\PSoC4/StripLights.c ****     maxY = y  + (int32)bitMap[aindex++];
 1647              		.loc 1 1160 0
 1648 0016 7B78     		ldrb	r3, [r7, #1]
 1649 0018 8846     		mov	r8, r1
 1650 001a 9844     		add	r8, r8, r3
 1651              	.LVL176:
 1652 001c 0223     		movs	r3, #2
1161:Generated_Source\PSoC4/StripLights.c **** 
1162:Generated_Source\PSoC4/StripLights.c **** 	for(dy = y; dy < maxY; dy++)
ARM GAS  C:\Users\JAMESS~1\AppData\Local\Temp\ccd7YNc7.s 			page 52


 1653              		.loc 1 1162 0
 1654 001e 0EE0     		b	.L110
 1655              	.LVL177:
 1656              	.L111:
1163:Generated_Source\PSoC4/StripLights.c ****     {
1164:Generated_Source\PSoC4/StripLights.c **** 		for(dx = x; dx < maxX; dx++)
1165:Generated_Source\PSoC4/StripLights.c ****         {
1166:Generated_Source\PSoC4/StripLights.c ****             StripLights_Pixel(dx, dy, bitMap[aindex++]);
 1657              		.loc 1 1166 0 discriminator 3
 1658 0020 5D1C     		adds	r5, r3, #1
 1659              	.LVL178:
 1660 0022 FA5C     		ldrb	r2, [r7, r3]
 1661 0024 0099     		ldr	r1, [sp]
 1662 0026 2000     		movs	r0, r4
 1663 0028 FFF7FEFF 		bl	StripLights_Pixel
 1664              	.LVL179:
1164:Generated_Source\PSoC4/StripLights.c ****         {
 1665              		.loc 1 1164 0 discriminator 3
 1666 002c 0134     		adds	r4, r4, #1
 1667              	.LVL180:
 1668              		.loc 1 1166 0 discriminator 3
 1669 002e 2B00     		movs	r3, r5
 1670 0030 00E0     		b	.L112
 1671              	.LVL181:
 1672              	.L114:
 1673 0032 019C     		ldr	r4, [sp, #4]
 1674              	.LVL182:
 1675              	.L112:
1164:Generated_Source\PSoC4/StripLights.c ****         {
 1676              		.loc 1 1164 0 discriminator 1
 1677 0034 B442     		cmp	r4, r6
 1678 0036 F3DB     		blt	.L111
1162:Generated_Source\PSoC4/StripLights.c ****     {
 1679              		.loc 1 1162 0 discriminator 2
 1680 0038 009A     		ldr	r2, [sp]
 1681 003a 0132     		adds	r2, r2, #1
 1682 003c 0092     		str	r2, [sp]
 1683              	.LVL183:
 1684              	.L110:
1162:Generated_Source\PSoC4/StripLights.c ****     {
 1685              		.loc 1 1162 0 is_stmt 0 discriminator 1
 1686 003e 009A     		ldr	r2, [sp]
 1687 0040 4245     		cmp	r2, r8
 1688 0042 F6DB     		blt	.L114
1167:Generated_Source\PSoC4/StripLights.c ****         }
1168:Generated_Source\PSoC4/StripLights.c ****     }
1169:Generated_Source\PSoC4/StripLights.c **** 	if(update) StripLights_Trigger(1);
 1689              		.loc 1 1169 0 is_stmt 1
 1690 0044 5B46     		mov	r3, fp
 1691              	.LVL184:
 1692 0046 002B     		cmp	r3, #0
 1693 0048 02D0     		beq	.L109
 1694              	.LVL185:
 1695              		.loc 1 1169 0 is_stmt 0 discriminator 1
 1696 004a 0120     		movs	r0, #1
 1697 004c FFF7FEFF 		bl	StripLights_Trigger
 1698              	.LVL186:
ARM GAS  C:\Users\JAMESS~1\AppData\Local\Temp\ccd7YNc7.s 			page 53


 1699              	.L109:
1170:Generated_Source\PSoC4/StripLights.c **** }
 1700              		.loc 1 1170 0 is_stmt 1
 1701 0050 03B0     		add	sp, sp, #12
 1702              	.LVL187:
 1703              		@ sp needed
 1704              	.LVL188:
 1705              	.LVL189:
 1706              	.LVL190:
 1707              	.LVL191:
 1708 0052 0CBC     		pop	{r2, r3}
 1709 0054 9046     		mov	r8, r2
 1710 0056 9B46     		mov	fp, r3
 1711 0058 F0BD     		pop	{r4, r5, r6, r7, pc}
 1712              		.cfi_endproc
 1713              	.LFE52:
 1714              		.size	StripLights_Bplot8, .-StripLights_Bplot8
 1715 005a C046     		.section	.text.StripLights_Bplot32,"ax",%progbits
 1716              		.align	2
 1717              		.global	StripLights_Bplot32
 1718              		.code	16
 1719              		.thumb_func
 1720              		.type	StripLights_Bplot32, %function
 1721              	StripLights_Bplot32:
 1722              	.LFB53:
1171:Generated_Source\PSoC4/StripLights.c **** 
1172:Generated_Source\PSoC4/StripLights.c **** /*******************************************************************************
1173:Generated_Source\PSoC4/StripLights.c **** * Function Name: StripLights_Bplot32
1174:Generated_Source\PSoC4/StripLights.c **** ********************************************************************************
1175:Generated_Source\PSoC4/StripLights.c **** *
1176:Generated_Source\PSoC4/StripLights.c **** * Summary:
1177:Generated_Source\PSoC4/StripLights.c **** *  Draw a bitmap image on the display using 32-bit color. 
1178:Generated_Source\PSoC4/StripLights.c **** *
1179:Generated_Source\PSoC4/StripLights.c **** * Parameters:  
1180:Generated_Source\PSoC4/StripLights.c **** *    x, y:  The upper left corner of the image location
1181:Generated_Source\PSoC4/StripLights.c **** *  bitMap:  A pointer to an image array.  The first two values is the X and Y
1182:Generated_Source\PSoC4/StripLights.c **** *           size of the bitmap.
1183:Generated_Source\PSoC4/StripLights.c **** *  update:  If not 0 update the display after drawing image.
1184:Generated_Source\PSoC4/StripLights.c **** *
1185:Generated_Source\PSoC4/StripLights.c **** * Return: 
1186:Generated_Source\PSoC4/StripLights.c **** *  None 
1187:Generated_Source\PSoC4/StripLights.c **** *  
1188:Generated_Source\PSoC4/StripLights.c **** *******************************************************************************/
1189:Generated_Source\PSoC4/StripLights.c **** void StripLights_Bplot32( int32 x, int32 y, uint32 * bitMap, int32 update)
1190:Generated_Source\PSoC4/StripLights.c **** {
 1723              		.loc 1 1190 0
 1724              		.cfi_startproc
 1725              		@ args = 0, pretend = 0, frame = 8
 1726              		@ frame_needed = 0, uses_anonymous_args = 0
 1727              	.LVL192:
 1728 0000 F0B5     		push	{r4, r5, r6, r7, lr}
 1729              		.cfi_def_cfa_offset 20
 1730              		.cfi_offset 4, -20
 1731              		.cfi_offset 5, -16
 1732              		.cfi_offset 6, -12
 1733              		.cfi_offset 7, -8
 1734              		.cfi_offset 14, -4
ARM GAS  C:\Users\JAMESS~1\AppData\Local\Temp\ccd7YNc7.s 			page 54


 1735 0002 5F46     		mov	r7, fp
 1736 0004 4646     		mov	r6, r8
 1737 0006 C0B4     		push	{r6, r7}
 1738              		.cfi_def_cfa_offset 28
 1739              		.cfi_offset 8, -28
 1740              		.cfi_offset 11, -24
 1741 0008 83B0     		sub	sp, sp, #12
 1742              		.cfi_def_cfa_offset 40
 1743 000a 0190     		str	r0, [sp, #4]
 1744 000c 0091     		str	r1, [sp]
 1745 000e 1700     		movs	r7, r2
 1746 0010 9B46     		mov	fp, r3
 1747              	.LVL193:
1191:Generated_Source\PSoC4/StripLights.c ****     int32 dx, dy;
1192:Generated_Source\PSoC4/StripLights.c ****     int32 aindex = 0;
1193:Generated_Source\PSoC4/StripLights.c ****     int32 maxX, maxY;
1194:Generated_Source\PSoC4/StripLights.c **** 
1195:Generated_Source\PSoC4/StripLights.c ****     maxX = x + (int32)bitMap[aindex++];
 1748              		.loc 1 1195 0
 1749 0012 1368     		ldr	r3, [r2]
 1750              	.LVL194:
 1751 0014 1E00     		movs	r6, r3
 1752 0016 8446     		mov	ip, r0
 1753 0018 6644     		add	r6, r6, ip
 1754              	.LVL195:
1196:Generated_Source\PSoC4/StripLights.c ****     maxY = y  + (int32)bitMap[aindex++];
 1755              		.loc 1 1196 0
 1756 001a 5368     		ldr	r3, [r2, #4]
 1757 001c 9846     		mov	r8, r3
 1758 001e 8C46     		mov	ip, r1
 1759 0020 E044     		add	r8, r8, ip
 1760              	.LVL196:
 1761 0022 0223     		movs	r3, #2
1197:Generated_Source\PSoC4/StripLights.c **** 
1198:Generated_Source\PSoC4/StripLights.c **** 	for(dy = y; dy < maxY; dy++)
 1762              		.loc 1 1198 0
 1763 0024 0FE0     		b	.L116
 1764              	.LVL197:
 1765              	.L117:
1199:Generated_Source\PSoC4/StripLights.c ****     {
1200:Generated_Source\PSoC4/StripLights.c **** 		for(dx = x; dx < maxX; dx++)
1201:Generated_Source\PSoC4/StripLights.c ****         {
1202:Generated_Source\PSoC4/StripLights.c ****             StripLights_Pixel(dx, dy, bitMap[aindex++]);
 1766              		.loc 1 1202 0 discriminator 3
 1767 0026 5D1C     		adds	r5, r3, #1
 1768              	.LVL198:
 1769 0028 9B00     		lsls	r3, r3, #2
 1770 002a FA58     		ldr	r2, [r7, r3]
 1771 002c 0099     		ldr	r1, [sp]
 1772 002e 2000     		movs	r0, r4
 1773 0030 FFF7FEFF 		bl	StripLights_Pixel
 1774              	.LVL199:
1200:Generated_Source\PSoC4/StripLights.c ****         {
 1775              		.loc 1 1200 0 discriminator 3
 1776 0034 0134     		adds	r4, r4, #1
 1777              	.LVL200:
 1778              		.loc 1 1202 0 discriminator 3
ARM GAS  C:\Users\JAMESS~1\AppData\Local\Temp\ccd7YNc7.s 			page 55


 1779 0036 2B00     		movs	r3, r5
 1780 0038 00E0     		b	.L118
 1781              	.LVL201:
 1782              	.L120:
 1783 003a 019C     		ldr	r4, [sp, #4]
 1784              	.LVL202:
 1785              	.L118:
1200:Generated_Source\PSoC4/StripLights.c ****         {
 1786              		.loc 1 1200 0 discriminator 1
 1787 003c B442     		cmp	r4, r6
 1788 003e F2DB     		blt	.L117
1198:Generated_Source\PSoC4/StripLights.c ****     {
 1789              		.loc 1 1198 0 discriminator 2
 1790 0040 009A     		ldr	r2, [sp]
 1791 0042 0132     		adds	r2, r2, #1
 1792 0044 0092     		str	r2, [sp]
 1793              	.LVL203:
 1794              	.L116:
1198:Generated_Source\PSoC4/StripLights.c ****     {
 1795              		.loc 1 1198 0 is_stmt 0 discriminator 1
 1796 0046 009A     		ldr	r2, [sp]
 1797 0048 4245     		cmp	r2, r8
 1798 004a F6DB     		blt	.L120
1203:Generated_Source\PSoC4/StripLights.c ****         }
1204:Generated_Source\PSoC4/StripLights.c ****     }
1205:Generated_Source\PSoC4/StripLights.c **** 	if(update) StripLights_Trigger(1);
 1799              		.loc 1 1205 0 is_stmt 1
 1800 004c 5B46     		mov	r3, fp
 1801              	.LVL204:
 1802 004e 002B     		cmp	r3, #0
 1803 0050 02D0     		beq	.L115
 1804              	.LVL205:
 1805              		.loc 1 1205 0 is_stmt 0 discriminator 1
 1806 0052 0120     		movs	r0, #1
 1807 0054 FFF7FEFF 		bl	StripLights_Trigger
 1808              	.LVL206:
 1809              	.L115:
1206:Generated_Source\PSoC4/StripLights.c **** }
 1810              		.loc 1 1206 0 is_stmt 1
 1811 0058 03B0     		add	sp, sp, #12
 1812              	.LVL207:
 1813              		@ sp needed
 1814              	.LVL208:
 1815              	.LVL209:
 1816              	.LVL210:
 1817              	.LVL211:
 1818 005a 0CBC     		pop	{r2, r3}
 1819 005c 9046     		mov	r8, r2
 1820 005e 9B46     		mov	fp, r3
 1821 0060 F0BD     		pop	{r4, r5, r6, r7, pc}
 1822              		.cfi_endproc
 1823              	.LFE53:
 1824              		.size	StripLights_Bplot32, .-StripLights_Bplot32
 1825              		.global	__aeabi_uidiv
 1826 0062 C046     		.section	.text.StripLights_RgbBlend,"ax",%progbits
 1827              		.align	2
 1828              		.global	StripLights_RgbBlend
ARM GAS  C:\Users\JAMESS~1\AppData\Local\Temp\ccd7YNc7.s 			page 56


 1829              		.code	16
 1830              		.thumb_func
 1831              		.type	StripLights_RgbBlend, %function
 1832              	StripLights_RgbBlend:
 1833              	.LFB54:
1207:Generated_Source\PSoC4/StripLights.c **** 
1208:Generated_Source\PSoC4/StripLights.c **** /*******************************************************************************
1209:Generated_Source\PSoC4/StripLights.c **** * Function Name: StripLights_RgbBlend()
1210:Generated_Source\PSoC4/StripLights.c **** ********************************************************************************
1211:Generated_Source\PSoC4/StripLights.c **** * Summary:  Blend two colors into one.
1212:Generated_Source\PSoC4/StripLights.c **** *    
1213:Generated_Source\PSoC4/StripLights.c **** *    newColor = (pct * toColor)  + ((100-pct) * fromColor)
1214:Generated_Source\PSoC4/StripLights.c **** *
1215:Generated_Source\PSoC4/StripLights.c **** * Parameters:  
1216:Generated_Source\PSoC4/StripLights.c **** *  void  
1217:Generated_Source\PSoC4/StripLights.c **** *
1218:Generated_Source\PSoC4/StripLights.c **** * Return: 
1219:Generated_Source\PSoC4/StripLights.c **** *  void
1220:Generated_Source\PSoC4/StripLights.c **** *
1221:Generated_Source\PSoC4/StripLights.c **** *******************************************************************************/
1222:Generated_Source\PSoC4/StripLights.c **** uint32 StripLights_RgbBlend(uint32 fromColor, uint32 toColor, uint32 pct)
1223:Generated_Source\PSoC4/StripLights.c **** {
 1834              		.loc 1 1223 0
 1835              		.cfi_startproc
 1836              		@ args = 0, pretend = 0, frame = 0
 1837              		@ frame_needed = 0, uses_anonymous_args = 0
 1838              	.LVL212:
 1839 0000 F8B5     		push	{r3, r4, r5, r6, r7, lr}
 1840              		.cfi_def_cfa_offset 24
 1841              		.cfi_offset 3, -24
 1842              		.cfi_offset 4, -20
 1843              		.cfi_offset 5, -16
 1844              		.cfi_offset 6, -12
 1845              		.cfi_offset 7, -8
 1846              		.cfi_offset 14, -4
 1847 0002 4F46     		mov	r7, r9
 1848 0004 4646     		mov	r6, r8
 1849 0006 C0B4     		push	{r6, r7}
 1850              		.cfi_def_cfa_offset 32
 1851              		.cfi_offset 8, -32
 1852              		.cfi_offset 9, -28
 1853 0008 0400     		movs	r4, r0
 1854 000a 0E00     		movs	r6, r1
 1855 000c 9146     		mov	r9, r2
 1856              	.LVL213:
1224:Generated_Source\PSoC4/StripLights.c ****     uint32 newColor = 0;
1225:Generated_Source\PSoC4/StripLights.c ****  
1226:Generated_Source\PSoC4/StripLights.c ****     #if(StripLights_CHIP == StripLights_CHIP_SF2812RGBW)
1227:Generated_Source\PSoC4/StripLights.c ****         uint32 tc, fc;
1228:Generated_Source\PSoC4/StripLights.c ****         
1229:Generated_Source\PSoC4/StripLights.c ****         tc = toColor >> 8;
1230:Generated_Source\PSoC4/StripLights.c ****         fc = fromColor >> 8;
1231:Generated_Source\PSoC4/StripLights.c ****         newColor = ((((pct * (tc & 0x00FF0000)) + ((100-pct) * (fc & 0x00FF0000)))/100) & 0x00FF000
1232:Generated_Source\PSoC4/StripLights.c ****     #endif
1233:Generated_Source\PSoC4/StripLights.c ****     newColor |= (((pct * (toColor & 0x00FF0000)) + ((100-pct) * (fromColor & 0x00FF0000)))/100) & 0
 1857              		.loc 1 1233 0
 1858 000e FF25     		movs	r5, #255
ARM GAS  C:\Users\JAMESS~1\AppData\Local\Temp\ccd7YNc7.s 			page 57


 1859 0010 2D04     		lsls	r5, r5, #16
 1860 0012 0800     		movs	r0, r1
 1861              	.LVL214:
 1862 0014 2840     		ands	r0, r5
 1863 0016 5043     		muls	r0, r2
 1864 0018 6423     		movs	r3, #100
 1865 001a 9B1A     		subs	r3, r3, r2
 1866 001c 9846     		mov	r8, r3
 1867 001e 2300     		movs	r3, r4
 1868 0020 2B40     		ands	r3, r5
 1869 0022 4246     		mov	r2, r8
 1870              	.LVL215:
 1871 0024 5343     		muls	r3, r2
 1872 0026 C018     		adds	r0, r0, r3
 1873 0028 6421     		movs	r1, #100
 1874              	.LVL216:
 1875 002a FFF7FEFF 		bl	__aeabi_uidiv
 1876              	.LVL217:
 1877 002e 0540     		ands	r5, r0
 1878              	.LVL218:
1234:Generated_Source\PSoC4/StripLights.c ****     newColor |= (((pct * (toColor & 0x0000FF00)) + ((100-pct) * (fromColor & 0x0000FF00)))/100) & 0
 1879              		.loc 1 1234 0
 1880 0030 FF27     		movs	r7, #255
 1881 0032 3F02     		lsls	r7, r7, #8
 1882 0034 3000     		movs	r0, r6
 1883 0036 3840     		ands	r0, r7
 1884 0038 4B46     		mov	r3, r9
 1885 003a 5843     		muls	r0, r3
 1886 003c 2300     		movs	r3, r4
 1887 003e 3B40     		ands	r3, r7
 1888 0040 4246     		mov	r2, r8
 1889 0042 5343     		muls	r3, r2
 1890 0044 C018     		adds	r0, r0, r3
 1891 0046 6421     		movs	r1, #100
 1892 0048 FFF7FEFF 		bl	__aeabi_uidiv
 1893              	.LVL219:
 1894 004c 0740     		ands	r7, r0
 1895 004e 3D43     		orrs	r5, r7
 1896              	.LVL220:
1235:Generated_Source\PSoC4/StripLights.c ****     newColor |= (((pct * (toColor & 0x000000FF)) + ((100-pct) * (fromColor & 0x000000FF)))/100) & 0
 1897              		.loc 1 1235 0
 1898 0050 FF27     		movs	r7, #255
 1899 0052 3000     		movs	r0, r6
 1900 0054 3840     		ands	r0, r7
 1901 0056 4B46     		mov	r3, r9
 1902 0058 5843     		muls	r0, r3
 1903 005a 3C40     		ands	r4, r7
 1904              	.LVL221:
 1905 005c 4346     		mov	r3, r8
 1906 005e 5C43     		muls	r4, r3
 1907 0060 0019     		adds	r0, r0, r4
 1908 0062 6421     		movs	r1, #100
 1909 0064 FFF7FEFF 		bl	__aeabi_uidiv
 1910              	.LVL222:
 1911 0068 3840     		ands	r0, r7
 1912 006a 2843     		orrs	r0, r5
 1913              	.LVL223:
ARM GAS  C:\Users\JAMESS~1\AppData\Local\Temp\ccd7YNc7.s 			page 58


1236:Generated_Source\PSoC4/StripLights.c ****  
1237:Generated_Source\PSoC4/StripLights.c ****    return(newColor);
1238:Generated_Source\PSoC4/StripLights.c **** }
 1914              		.loc 1 1238 0
 1915              		@ sp needed
 1916              	.LVL224:
 1917              	.LVL225:
 1918 006c 0CBC     		pop	{r2, r3}
 1919 006e 9046     		mov	r8, r2
 1920 0070 9946     		mov	r9, r3
 1921 0072 F8BD     		pop	{r3, r4, r5, r6, r7, pc}
 1922              		.cfi_endproc
 1923              	.LFE54:
 1924              		.size	StripLights_RgbBlend, .-StripLights_RgbBlend
 1925              		.global	StripLights_CLUT
 1926              		.global	StripLights_gamma
 1927              		.comm	StripLights_DimShift,4,4
 1928              		.comm	StripLights_DimMask,4,4
 1929              		.comm	StripLights_refreshComplete,4,4
 1930              		.global	StripLights_row
 1931              		.global	StripLights_ledIndex
 1932              		.comm	StripLights_ledArray,300,4
 1933              		.global	StripLights_initvar
 1934              		.global	StripLights_ExitCritical
 1935              		.global	StripLights_EnterCritical
 1936              		.section	.rodata
 1937              		.align	2
 1938              		.set	.LANCHOR1,. + 0
 1939              		.set	.LANCHOR2,. + 256
 1940              		.type	StripLights_gamma, %object
 1941              		.size	StripLights_gamma, 256
 1942              	StripLights_gamma:
 1943 0000 00       		.byte	0
 1944 0001 00       		.byte	0
 1945 0002 00       		.byte	0
 1946 0003 00       		.byte	0
 1947 0004 00       		.byte	0
 1948 0005 00       		.byte	0
 1949 0006 00       		.byte	0
 1950 0007 00       		.byte	0
 1951 0008 00       		.byte	0
 1952 0009 00       		.byte	0
 1953 000a 00       		.byte	0
 1954 000b 00       		.byte	0
 1955 000c 00       		.byte	0
 1956 000d 00       		.byte	0
 1957 000e 00       		.byte	0
 1958 000f 00       		.byte	0
 1959 0010 00       		.byte	0
 1960 0011 00       		.byte	0
 1961 0012 00       		.byte	0
 1962 0013 00       		.byte	0
 1963 0014 00       		.byte	0
 1964 0015 00       		.byte	0
 1965 0016 00       		.byte	0
 1966 0017 00       		.byte	0
 1967 0018 00       		.byte	0
ARM GAS  C:\Users\JAMESS~1\AppData\Local\Temp\ccd7YNc7.s 			page 59


 1968 0019 00       		.byte	0
 1969 001a 00       		.byte	0
 1970 001b 00       		.byte	0
 1971 001c 01       		.byte	1
 1972 001d 01       		.byte	1
 1973 001e 01       		.byte	1
 1974 001f 01       		.byte	1
 1975 0020 01       		.byte	1
 1976 0021 01       		.byte	1
 1977 0022 01       		.byte	1
 1978 0023 01       		.byte	1
 1979 0024 01       		.byte	1
 1980 0025 01       		.byte	1
 1981 0026 01       		.byte	1
 1982 0027 01       		.byte	1
 1983 0028 01       		.byte	1
 1984 0029 02       		.byte	2
 1985 002a 02       		.byte	2
 1986 002b 02       		.byte	2
 1987 002c 02       		.byte	2
 1988 002d 02       		.byte	2
 1989 002e 02       		.byte	2
 1990 002f 02       		.byte	2
 1991 0030 02       		.byte	2
 1992 0031 03       		.byte	3
 1993 0032 03       		.byte	3
 1994 0033 03       		.byte	3
 1995 0034 03       		.byte	3
 1996 0035 03       		.byte	3
 1997 0036 03       		.byte	3
 1998 0037 03       		.byte	3
 1999 0038 04       		.byte	4
 2000 0039 04       		.byte	4
 2001 003a 04       		.byte	4
 2002 003b 04       		.byte	4
 2003 003c 04       		.byte	4
 2004 003d 05       		.byte	5
 2005 003e 05       		.byte	5
 2006 003f 05       		.byte	5
 2007 0040 05       		.byte	5
 2008 0041 06       		.byte	6
 2009 0042 06       		.byte	6
 2010 0043 06       		.byte	6
 2011 0044 06       		.byte	6
 2012 0045 07       		.byte	7
 2013 0046 07       		.byte	7
 2014 0047 07       		.byte	7
 2015 0048 07       		.byte	7
 2016 0049 08       		.byte	8
 2017 004a 08       		.byte	8
 2018 004b 08       		.byte	8
 2019 004c 09       		.byte	9
 2020 004d 09       		.byte	9
 2021 004e 09       		.byte	9
 2022 004f 0A       		.byte	10
 2023 0050 0A       		.byte	10
 2024 0051 0A       		.byte	10
ARM GAS  C:\Users\JAMESS~1\AppData\Local\Temp\ccd7YNc7.s 			page 60


 2025 0052 0B       		.byte	11
 2026 0053 0B       		.byte	11
 2027 0054 0B       		.byte	11
 2028 0055 0C       		.byte	12
 2029 0056 0C       		.byte	12
 2030 0057 0D       		.byte	13
 2031 0058 0D       		.byte	13
 2032 0059 0D       		.byte	13
 2033 005a 0E       		.byte	14
 2034 005b 0E       		.byte	14
 2035 005c 0F       		.byte	15
 2036 005d 0F       		.byte	15
 2037 005e 10       		.byte	16
 2038 005f 10       		.byte	16
 2039 0060 11       		.byte	17
 2040 0061 11       		.byte	17
 2041 0062 12       		.byte	18
 2042 0063 12       		.byte	18
 2043 0064 13       		.byte	19
 2044 0065 13       		.byte	19
 2045 0066 14       		.byte	20
 2046 0067 14       		.byte	20
 2047 0068 15       		.byte	21
 2048 0069 15       		.byte	21
 2049 006a 16       		.byte	22
 2050 006b 16       		.byte	22
 2051 006c 17       		.byte	23
 2052 006d 18       		.byte	24
 2053 006e 18       		.byte	24
 2054 006f 19       		.byte	25
 2055 0070 19       		.byte	25
 2056 0071 1A       		.byte	26
 2057 0072 1B       		.byte	27
 2058 0073 1B       		.byte	27
 2059 0074 1C       		.byte	28
 2060 0075 1D       		.byte	29
 2061 0076 1D       		.byte	29
 2062 0077 1E       		.byte	30
 2063 0078 1F       		.byte	31
 2064 0079 20       		.byte	32
 2065 007a 20       		.byte	32
 2066 007b 21       		.byte	33
 2067 007c 22       		.byte	34
 2068 007d 23       		.byte	35
 2069 007e 23       		.byte	35
 2070 007f 24       		.byte	36
 2071 0080 25       		.byte	37
 2072 0081 26       		.byte	38
 2073 0082 27       		.byte	39
 2074 0083 27       		.byte	39
 2075 0084 28       		.byte	40
 2076 0085 29       		.byte	41
 2077 0086 2A       		.byte	42
 2078 0087 2B       		.byte	43
 2079 0088 2C       		.byte	44
 2080 0089 2D       		.byte	45
 2081 008a 2E       		.byte	46
ARM GAS  C:\Users\JAMESS~1\AppData\Local\Temp\ccd7YNc7.s 			page 61


 2082 008b 2F       		.byte	47
 2083 008c 30       		.byte	48
 2084 008d 31       		.byte	49
 2085 008e 32       		.byte	50
 2086 008f 32       		.byte	50
 2087 0090 33       		.byte	51
 2088 0091 34       		.byte	52
 2089 0092 36       		.byte	54
 2090 0093 37       		.byte	55
 2091 0094 38       		.byte	56
 2092 0095 39       		.byte	57
 2093 0096 3A       		.byte	58
 2094 0097 3B       		.byte	59
 2095 0098 3C       		.byte	60
 2096 0099 3D       		.byte	61
 2097 009a 3E       		.byte	62
 2098 009b 3F       		.byte	63
 2099 009c 40       		.byte	64
 2100 009d 42       		.byte	66
 2101 009e 43       		.byte	67
 2102 009f 44       		.byte	68
 2103 00a0 45       		.byte	69
 2104 00a1 46       		.byte	70
 2105 00a2 48       		.byte	72
 2106 00a3 49       		.byte	73
 2107 00a4 4A       		.byte	74
 2108 00a5 4B       		.byte	75
 2109 00a6 4D       		.byte	77
 2110 00a7 4E       		.byte	78
 2111 00a8 4F       		.byte	79
 2112 00a9 51       		.byte	81
 2113 00aa 52       		.byte	82
 2114 00ab 53       		.byte	83
 2115 00ac 55       		.byte	85
 2116 00ad 56       		.byte	86
 2117 00ae 57       		.byte	87
 2118 00af 59       		.byte	89
 2119 00b0 5A       		.byte	90
 2120 00b1 5C       		.byte	92
 2121 00b2 5D       		.byte	93
 2122 00b3 5F       		.byte	95
 2123 00b4 60       		.byte	96
 2124 00b5 62       		.byte	98
 2125 00b6 63       		.byte	99
 2126 00b7 65       		.byte	101
 2127 00b8 66       		.byte	102
 2128 00b9 68       		.byte	104
 2129 00ba 69       		.byte	105
 2130 00bb 6B       		.byte	107
 2131 00bc 6D       		.byte	109
 2132 00bd 6E       		.byte	110
 2133 00be 70       		.byte	112
 2134 00bf 72       		.byte	114
 2135 00c0 73       		.byte	115
 2136 00c1 75       		.byte	117
 2137 00c2 77       		.byte	119
 2138 00c3 78       		.byte	120
ARM GAS  C:\Users\JAMESS~1\AppData\Local\Temp\ccd7YNc7.s 			page 62


 2139 00c4 7A       		.byte	122
 2140 00c5 7C       		.byte	124
 2141 00c6 7E       		.byte	126
 2142 00c7 7F       		.byte	127
 2143 00c8 81       		.byte	-127
 2144 00c9 83       		.byte	-125
 2145 00ca 85       		.byte	-123
 2146 00cb 87       		.byte	-121
 2147 00cc 89       		.byte	-119
 2148 00cd 8A       		.byte	-118
 2149 00ce 8C       		.byte	-116
 2150 00cf 8E       		.byte	-114
 2151 00d0 90       		.byte	-112
 2152 00d1 92       		.byte	-110
 2153 00d2 94       		.byte	-108
 2154 00d3 96       		.byte	-106
 2155 00d4 98       		.byte	-104
 2156 00d5 9A       		.byte	-102
 2157 00d6 9C       		.byte	-100
 2158 00d7 9E       		.byte	-98
 2159 00d8 A0       		.byte	-96
 2160 00d9 A2       		.byte	-94
 2161 00da A4       		.byte	-92
 2162 00db A7       		.byte	-89
 2163 00dc A9       		.byte	-87
 2164 00dd AB       		.byte	-85
 2165 00de AD       		.byte	-83
 2166 00df AF       		.byte	-81
 2167 00e0 B1       		.byte	-79
 2168 00e1 B4       		.byte	-76
 2169 00e2 B6       		.byte	-74
 2170 00e3 B8       		.byte	-72
 2171 00e4 BA       		.byte	-70
 2172 00e5 BD       		.byte	-67
 2173 00e6 BF       		.byte	-65
 2174 00e7 C1       		.byte	-63
 2175 00e8 C4       		.byte	-60
 2176 00e9 C6       		.byte	-58
 2177 00ea C8       		.byte	-56
 2178 00eb CB       		.byte	-53
 2179 00ec CD       		.byte	-51
 2180 00ed D0       		.byte	-48
 2181 00ee D2       		.byte	-46
 2182 00ef D5       		.byte	-43
 2183 00f0 D7       		.byte	-41
 2184 00f1 DA       		.byte	-38
 2185 00f2 DC       		.byte	-36
 2186 00f3 DF       		.byte	-33
 2187 00f4 E1       		.byte	-31
 2188 00f5 E4       		.byte	-28
 2189 00f6 E7       		.byte	-25
 2190 00f7 E9       		.byte	-23
 2191 00f8 EC       		.byte	-20
 2192 00f9 EF       		.byte	-17
 2193 00fa F1       		.byte	-15
 2194 00fb F4       		.byte	-12
 2195 00fc F7       		.byte	-9
ARM GAS  C:\Users\JAMESS~1\AppData\Local\Temp\ccd7YNc7.s 			page 63


 2196 00fd F9       		.byte	-7
 2197 00fe FC       		.byte	-4
 2198 00ff FF       		.byte	-1
 2199              		.type	StripLights_CLUT, %object
 2200              		.size	StripLights_CLUT, 480
 2201              	StripLights_CLUT:
 2202 0100 FFFF0000 		.word	65535
 2203 0104 FFCC0000 		.word	52479
 2204 0108 FF990000 		.word	39423
 2205 010c FF330000 		.word	13311
 2206 0110 FF000000 		.word	255
 2207 0114 B3006600 		.word	6684851
 2208 0118 99009900 		.word	10027161
 2209 011c 6600B300 		.word	11731046
 2210 0120 3300CC00 		.word	13369395
 2211 0124 1919B300 		.word	11737369
 2212 0128 00339900 		.word	10040064
 2213 012c 00409900 		.word	10043392
 2214 0130 00669900 		.word	10053120
 2215 0134 00999900 		.word	10066176
 2216 0138 00CC9900 		.word	10079232
 2217 013c 00E66600 		.word	6743552
 2218 0140 00FF0000 		.word	65280
 2219 0144 33FF0000 		.word	65331
 2220 0148 66FF0000 		.word	65382
 2221 014c 80FF0000 		.word	65408
 2222 0150 99FF0000 		.word	65433
 2223 0154 B2FF0000 		.word	65458
 2224 0158 CCFF0000 		.word	65484
 2225 015c E5FF0000 		.word	65509
 2226 0160 00000000 		.word	0
 2227 0164 00005500 		.word	5570560
 2228 0168 0000AA00 		.word	11141120
 2229 016c 0000FF00 		.word	16711680
 2230 0170 55000000 		.word	85
 2231 0174 55005500 		.word	5570645
 2232 0178 5500AA00 		.word	11141205
 2233 017c 5500FF00 		.word	16711765
 2234 0180 AA000000 		.word	170
 2235 0184 AA005500 		.word	5570730
 2236 0188 AA00AA00 		.word	11141290
 2237 018c AA00FF00 		.word	16711850
 2238 0190 FF000000 		.word	255
 2239 0194 FF005500 		.word	5570815
 2240 0198 FF00AA00 		.word	11141375
 2241 019c FF00FF00 		.word	16711935
 2242 01a0 00550000 		.word	21760
 2243 01a4 00555500 		.word	5592320
 2244 01a8 0055AA00 		.word	11162880
 2245 01ac 0055FF00 		.word	16733440
 2246 01b0 55550000 		.word	21845
 2247 01b4 55555500 		.word	5592405
 2248 01b8 5555AA00 		.word	11162965
 2249 01bc 5555FF00 		.word	16733525
 2250 01c0 AA550000 		.word	21930
 2251 01c4 AA555500 		.word	5592490
 2252 01c8 AA55AA00 		.word	11163050
ARM GAS  C:\Users\JAMESS~1\AppData\Local\Temp\ccd7YNc7.s 			page 64


 2253 01cc AA55FF00 		.word	16733610
 2254 01d0 FF550000 		.word	22015
 2255 01d4 FF555500 		.word	5592575
 2256 01d8 FF55AA00 		.word	11163135
 2257 01dc FF55FF00 		.word	16733695
 2258 01e0 00AA0000 		.word	43520
 2259 01e4 00AA5500 		.word	5614080
 2260 01e8 00AAAA00 		.word	11184640
 2261 01ec 00AAFF00 		.word	16755200
 2262 01f0 55AA0000 		.word	43605
 2263 01f4 55AA5500 		.word	5614165
 2264 01f8 55AAAA00 		.word	11184725
 2265 01fc 55AAFF00 		.word	16755285
 2266 0200 AAAA0000 		.word	43690
 2267 0204 AAAA5500 		.word	5614250
 2268 0208 AAAAAA00 		.word	11184810
 2269 020c AAAAFF00 		.word	16755370
 2270 0210 FFAA0000 		.word	43775
 2271 0214 FFAA5500 		.word	5614335
 2272 0218 FFAAAA00 		.word	11184895
 2273 021c FFAAFF00 		.word	16755455
 2274 0220 00FF0000 		.word	65280
 2275 0224 00FF5500 		.word	5635840
 2276 0228 00FFAA00 		.word	11206400
 2277 022c 00FFFF00 		.word	16776960
 2278 0230 55FF0000 		.word	65365
 2279 0234 55FF5500 		.word	5635925
 2280 0238 55FFAA00 		.word	11206485
 2281 023c 55FFFF00 		.word	16777045
 2282 0240 AAFF0000 		.word	65450
 2283 0244 AAFF5500 		.word	5636010
 2284 0248 AAFFAA00 		.word	11206570
 2285 024c AAFFFF00 		.word	16777130
 2286 0250 FFFF0000 		.word	65535
 2287 0254 FFFF5500 		.word	5636095
 2288 0258 FFFFAA00 		.word	11206655
 2289 025c FFFFFF00 		.word	16777215
 2290 0260 FF800000 		.word	33023
 2291 0264 FF008000 		.word	8388863
 2292 0268 FF00FF00 		.word	16711935
 2293 026c 8000FF00 		.word	16711808
 2294 0270 0080FF00 		.word	16744448
 2295 0274 00FF8000 		.word	8453888
 2296 0278 FF000000 		.word	255
 2297 027c 20202000 		.word	2105376
 2298 0280 00002000 		.word	2097152
 2299 0284 00000010 		.word	268435456
 2300 0288 00FF0000 		.word	65280
 2301 028c 30FF0000 		.word	65328
 2302 0290 FFFFFFFF 		.word	-1
 2303 0294 000000FF 		.word	-16777216
 2304 0298 808080FF 		.word	-8355712
 2305 029c 404040FF 		.word	-12566464
 2306 02a0 0000FF00 		.word	16711680
 2307 02a4 0010F000 		.word	15732736
 2308 02a8 0020E000 		.word	14688256
 2309 02ac 0030D000 		.word	13643776
ARM GAS  C:\Users\JAMESS~1\AppData\Local\Temp\ccd7YNc7.s 			page 65


 2310 02b0 0040C000 		.word	12599296
 2311 02b4 0050B000 		.word	11554816
 2312 02b8 0060A000 		.word	10510336
 2313 02bc 00709000 		.word	9465856
 2314 02c0 00808000 		.word	8421376
 2315 02c4 00907000 		.word	7376896
 2316 02c8 00A06000 		.word	6332416
 2317 02cc 00B05000 		.word	5287936
 2318 02d0 00C04000 		.word	4243456
 2319 02d4 00D03000 		.word	3198976
 2320 02d8 00E02000 		.word	2154496
 2321 02dc 00FF0000 		.word	65280
 2322              		.bss
 2323              		.align	2
 2324              		.set	.LANCHOR0,. + 0
 2325              		.type	StripLights_row, %object
 2326              		.size	StripLights_row, 4
 2327              	StripLights_row:
 2328 0000 00000000 		.space	4
 2329              		.type	StripLights_ledIndex, %object
 2330              		.size	StripLights_ledIndex, 4
 2331              	StripLights_ledIndex:
 2332 0004 00000000 		.space	4
 2333              		.type	color.5824, %object
 2334              		.size	color.5824, 4
 2335              	color.5824:
 2336 0008 00000000 		.space	4
 2337              		.type	color.5832, %object
 2338              		.size	color.5832, 4
 2339              	color.5832:
 2340 000c 00000000 		.space	4
 2341              		.type	StripLights_EnterCritical, %object
 2342              		.size	StripLights_EnterCritical, 4
 2343              	StripLights_EnterCritical:
 2344 0010 00000000 		.space	4
 2345              		.type	StripLights_ExitCritical, %object
 2346              		.size	StripLights_ExitCritical, 4
 2347              	StripLights_ExitCritical:
 2348 0014 00000000 		.space	4
 2349              		.type	colorIndex.5817, %object
 2350              		.size	colorIndex.5817, 4
 2351              	colorIndex.5817:
 2352 0018 00000000 		.space	4
 2353              		.type	StripLights_initvar, %object
 2354              		.size	StripLights_initvar, 1
 2355              	StripLights_initvar:
 2356 001c 00       		.space	1
 2357              		.text
 2358              	.Letext0:
 2359              		.file 2 "Generated_Source\\PSoC4/cytypes.h"
 2360              		.file 3 "Generated_Source\\PSoC4/StripLights.h"
 2361              		.file 4 "Generated_Source\\PSoC4/CyLib.h"
 2362              		.file 5 "Generated_Source\\PSoC4\\StripLights_fonts.h"
 2363              		.file 6 "Generated_Source\\PSoC4/StripLights_cisr.h"
 2364              		.file 7 "Generated_Source\\PSoC4/StripLights_fisr.h"
 2365              		.section	.debug_info,"",%progbits
 2366              	.Ldebug_info0:
ARM GAS  C:\Users\JAMESS~1\AppData\Local\Temp\ccd7YNc7.s 			page 66


 2367 0000 820D0000 		.4byte	0xd82
 2368 0004 0400     		.2byte	0x4
 2369 0006 00000000 		.4byte	.Ldebug_abbrev0
 2370 000a 04       		.byte	0x4
 2371 000b 01       		.uleb128 0x1
 2372 000c 12010000 		.4byte	.LASF81
 2373 0010 0C       		.byte	0xc
 2374 0011 88000000 		.4byte	.LASF82
 2375 0015 8F020000 		.4byte	.LASF83
 2376 0019 00000000 		.4byte	.Ldebug_ranges0+0
 2377 001d 00000000 		.4byte	0
 2378 0021 00000000 		.4byte	.Ldebug_line0
 2379 0025 02       		.uleb128 0x2
 2380 0026 01       		.byte	0x1
 2381 0027 06       		.byte	0x6
 2382 0028 28020000 		.4byte	.LASF0
 2383 002c 02       		.uleb128 0x2
 2384 002d 01       		.byte	0x1
 2385 002e 08       		.byte	0x8
 2386 002f ED020000 		.4byte	.LASF1
 2387 0033 02       		.uleb128 0x2
 2388 0034 02       		.byte	0x2
 2389 0035 05       		.byte	0x5
 2390 0036 4F000000 		.4byte	.LASF2
 2391 003a 02       		.uleb128 0x2
 2392 003b 02       		.byte	0x2
 2393 003c 07       		.byte	0x7
 2394 003d 18040000 		.4byte	.LASF3
 2395 0041 02       		.uleb128 0x2
 2396 0042 04       		.byte	0x4
 2397 0043 05       		.byte	0x5
 2398 0044 6D020000 		.4byte	.LASF4
 2399 0048 02       		.uleb128 0x2
 2400 0049 04       		.byte	0x4
 2401 004a 07       		.byte	0x7
 2402 004b 80030000 		.4byte	.LASF5
 2403 004f 02       		.uleb128 0x2
 2404 0050 08       		.byte	0x8
 2405 0051 05       		.byte	0x5
 2406 0052 52020000 		.4byte	.LASF6
 2407 0056 02       		.uleb128 0x2
 2408 0057 08       		.byte	0x8
 2409 0058 07       		.byte	0x7
 2410 0059 37030000 		.4byte	.LASF7
 2411 005d 03       		.uleb128 0x3
 2412 005e 04       		.byte	0x4
 2413 005f 05       		.byte	0x5
 2414 0060 696E7400 		.ascii	"int\000"
 2415 0064 02       		.uleb128 0x2
 2416 0065 04       		.byte	0x4
 2417 0066 07       		.byte	0x7
 2418 0067 73030000 		.4byte	.LASF8
 2419 006b 04       		.uleb128 0x4
 2420 006c D3010000 		.4byte	.LASF9
 2421 0070 02       		.byte	0x2
 2422 0071 D201     		.2byte	0x1d2
 2423 0073 2C000000 		.4byte	0x2c
ARM GAS  C:\Users\JAMESS~1\AppData\Local\Temp\ccd7YNc7.s 			page 67


 2424 0077 04       		.uleb128 0x4
 2425 0078 83040000 		.4byte	.LASF10
 2426 007c 02       		.byte	0x2
 2427 007d D401     		.2byte	0x1d4
 2428 007f 48000000 		.4byte	0x48
 2429 0083 04       		.uleb128 0x4
 2430 0084 B4040000 		.4byte	.LASF11
 2431 0088 02       		.byte	0x2
 2432 0089 D701     		.2byte	0x1d7
 2433 008b 41000000 		.4byte	0x41
 2434 008f 02       		.uleb128 0x2
 2435 0090 04       		.byte	0x4
 2436 0091 04       		.byte	0x4
 2437 0092 34020000 		.4byte	.LASF12
 2438 0096 02       		.uleb128 0x2
 2439 0097 08       		.byte	0x8
 2440 0098 04       		.byte	0x4
 2441 0099 63050000 		.4byte	.LASF13
 2442 009d 02       		.uleb128 0x2
 2443 009e 01       		.byte	0x1
 2444 009f 08       		.byte	0x8
 2445 00a0 20000000 		.4byte	.LASF14
 2446 00a4 04       		.uleb128 0x4
 2447 00a5 90040000 		.4byte	.LASF15
 2448 00a9 02       		.byte	0x2
 2449 00aa 7C02     		.2byte	0x27c
 2450 00ac B0000000 		.4byte	0xb0
 2451 00b0 05       		.uleb128 0x5
 2452 00b1 6B000000 		.4byte	0x6b
 2453 00b5 06       		.uleb128 0x6
 2454 00b6 04       		.byte	0x4
 2455 00b7 BB000000 		.4byte	0xbb
 2456 00bb 07       		.uleb128 0x7
 2457 00bc 08       		.uleb128 0x8
 2458 00bd 93050000 		.4byte	.LASF16
 2459 00c1 03       		.byte	0x3
 2460 00c2 12       		.byte	0x12
 2461 00c3 B5000000 		.4byte	0xb5
 2462 00c7 02       		.uleb128 0x2
 2463 00c8 04       		.byte	0x4
 2464 00c9 07       		.byte	0x7
 2465 00ca 4B050000 		.4byte	.LASF17
 2466 00ce 02       		.uleb128 0x2
 2467 00cf 08       		.byte	0x8
 2468 00d0 04       		.byte	0x4
 2469 00d1 D7020000 		.4byte	.LASF18
 2470 00d5 09       		.uleb128 0x9
 2471 00d6 EF040000 		.4byte	.LASF21
 2472 00da 01       		.byte	0x1
 2473 00db 4802     		.2byte	0x248
 2474 00dd 00000000 		.4byte	.LFB41
 2475 00e1 70000000 		.4byte	.LFE41-.LFB41
 2476 00e5 01       		.uleb128 0x1
 2477 00e6 9C       		.byte	0x9c
 2478 00e7 16010000 		.4byte	0x116
 2479 00eb 0A       		.uleb128 0xa
 2480 00ec A0010000 		.4byte	.LASF19
ARM GAS  C:\Users\JAMESS~1\AppData\Local\Temp\ccd7YNc7.s 			page 68


 2481 00f0 01       		.byte	0x1
 2482 00f1 4A02     		.2byte	0x24a
 2483 00f3 77000000 		.4byte	0x77
 2484 00f7 0A       		.uleb128 0xa
 2485 00f8 3A000000 		.4byte	.LASF20
 2486 00fc 01       		.byte	0x1
 2487 00fd 4B02     		.2byte	0x24b
 2488 00ff 77000000 		.4byte	0x77
 2489 0103 0B       		.uleb128 0xb
 2490 0104 59000000 		.4byte	.LASF23
 2491 0108 01       		.byte	0x1
 2492 0109 4C02     		.2byte	0x24c
 2493 010b 77000000 		.4byte	0x77
 2494 010f 05       		.uleb128 0x5
 2495 0110 03       		.byte	0x3
 2496 0111 08000000 		.4byte	color.5824
 2497 0115 00       		.byte	0
 2498 0116 09       		.uleb128 0x9
 2499 0117 CD040000 		.4byte	.LASF22
 2500 011b 01       		.byte	0x1
 2501 011c 8602     		.2byte	0x286
 2502 011e 00000000 		.4byte	.LFB42
 2503 0122 8C000000 		.4byte	.LFE42-.LFB42
 2504 0126 01       		.uleb128 0x1
 2505 0127 9C       		.byte	0x9c
 2506 0128 63010000 		.4byte	0x163
 2507 012c 0A       		.uleb128 0xa
 2508 012d A0010000 		.4byte	.LASF19
 2509 0131 01       		.byte	0x1
 2510 0132 8802     		.2byte	0x288
 2511 0134 77000000 		.4byte	0x77
 2512 0138 0A       		.uleb128 0xa
 2513 0139 3A000000 		.4byte	.LASF20
 2514 013d 01       		.byte	0x1
 2515 013e 8902     		.2byte	0x289
 2516 0140 77000000 		.4byte	0x77
 2517 0144 0B       		.uleb128 0xb
 2518 0145 59000000 		.4byte	.LASF23
 2519 0149 01       		.byte	0x1
 2520 014a 8A02     		.2byte	0x28a
 2521 014c 77000000 		.4byte	0x77
 2522 0150 05       		.uleb128 0x5
 2523 0151 03       		.byte	0x3
 2524 0152 0C000000 		.4byte	color.5832
 2525 0156 0A       		.uleb128 0xa
 2526 0157 9B030000 		.4byte	.LASF24
 2527 015b 01       		.byte	0x1
 2528 015c 8B02     		.2byte	0x28b
 2529 015e 77000000 		.4byte	0x77
 2530 0162 00       		.byte	0
 2531 0163 09       		.uleb128 0x9
 2532 0164 4D040000 		.4byte	.LASF25
 2533 0168 01       		.byte	0x1
 2534 0169 4C01     		.2byte	0x14c
 2535 016b 00000000 		.4byte	.LFB33
 2536 016f 0C000000 		.4byte	.LFE33-.LFB33
 2537 0173 01       		.uleb128 0x1
ARM GAS  C:\Users\JAMESS~1\AppData\Local\Temp\ccd7YNc7.s 			page 69


 2538 0174 9C       		.byte	0x9c
 2539 0175 96010000 		.4byte	0x196
 2540 0179 0C       		.uleb128 0xc
 2541 017a 54050000 		.4byte	.LASF26
 2542 017e 01       		.byte	0x1
 2543 017f 4C01     		.2byte	0x14c
 2544 0181 BC000000 		.4byte	0xbc
 2545 0185 01       		.uleb128 0x1
 2546 0186 50       		.byte	0x50
 2547 0187 0C       		.uleb128 0xc
 2548 0188 11000000 		.4byte	.LASF27
 2549 018c 01       		.byte	0x1
 2550 018d 4C01     		.2byte	0x14c
 2551 018f BC000000 		.4byte	0xbc
 2552 0193 01       		.uleb128 0x1
 2553 0194 51       		.byte	0x51
 2554 0195 00       		.byte	0
 2555 0196 09       		.uleb128 0x9
 2556 0197 0A020000 		.4byte	.LASF28
 2557 019b 01       		.byte	0x1
 2558 019c B601     		.2byte	0x1b6
 2559 019e 00000000 		.4byte	.LFB36
 2560 01a2 80000000 		.4byte	.LFE36-.LFB36
 2561 01a6 01       		.uleb128 0x1
 2562 01a7 9C       		.byte	0x9c
 2563 01a8 CD010000 		.4byte	0x1cd
 2564 01ac 0D       		.uleb128 0xd
 2565 01ad 72737400 		.ascii	"rst\000"
 2566 01b1 01       		.byte	0x1
 2567 01b2 B601     		.2byte	0x1b6
 2568 01b4 77000000 		.4byte	0x77
 2569 01b8 00000000 		.4byte	.LLST0
 2570 01bc 0E       		.uleb128 0xe
 2571 01bd 59000000 		.4byte	.LASF23
 2572 01c1 01       		.byte	0x1
 2573 01c2 B801     		.2byte	0x1b8
 2574 01c4 77000000 		.4byte	0x77
 2575 01c8 21000000 		.4byte	.LLST1
 2576 01cc 00       		.byte	0
 2577 01cd 0F       		.uleb128 0xf
 2578 01ce F1030000 		.4byte	.LASF84
 2579 01d2 01       		.byte	0x1
 2580 01d3 F101     		.2byte	0x1f1
 2581 01d5 77000000 		.4byte	0x77
 2582 01d9 00000000 		.4byte	.LFB37
 2583 01dd 1C000000 		.4byte	.LFE37-.LFB37
 2584 01e1 01       		.uleb128 0x1
 2585 01e2 9C       		.byte	0x9c
 2586 01e3 10       		.uleb128 0x10
 2587 01e4 D9010000 		.4byte	.LASF29
 2588 01e8 01       		.byte	0x1
 2589 01e9 5F01     		.2byte	0x15f
 2590 01eb 00000000 		.4byte	.LFB34
 2591 01ef 54000000 		.4byte	.LFE34-.LFB34
 2592 01f3 01       		.uleb128 0x1
 2593 01f4 9C       		.byte	0x9c
 2594 01f5 5A020000 		.4byte	0x25a
ARM GAS  C:\Users\JAMESS~1\AppData\Local\Temp\ccd7YNc7.s 			page 70


 2595 01f9 11       		.uleb128 0x11
 2596 01fa DB000000 		.4byte	.LASF30
 2597 01fe 01       		.byte	0x1
 2598 01ff 5F01     		.2byte	0x15f
 2599 0201 77000000 		.4byte	0x77
 2600 0205 7E000000 		.4byte	.LLST2
 2601 0209 0E       		.uleb128 0xe
 2602 020a CB010000 		.4byte	.LASF31
 2603 020e 01       		.byte	0x1
 2604 020f 6201     		.2byte	0x162
 2605 0211 77000000 		.4byte	0x77
 2606 0215 AA000000 		.4byte	.LLST3
 2607 0219 12       		.uleb128 0x12
 2608 021a 14000000 		.4byte	.LVL13
 2609 021e 96010000 		.4byte	0x196
 2610 0222 2C020000 		.4byte	0x22c
 2611 0226 13       		.uleb128 0x13
 2612 0227 01       		.uleb128 0x1
 2613 0228 50       		.byte	0x50
 2614 0229 01       		.uleb128 0x1
 2615 022a 31       		.byte	0x31
 2616 022b 00       		.byte	0
 2617 022c 12       		.uleb128 0x12
 2618 022d 26000000 		.4byte	.LVL15
 2619 0231 430D0000 		.4byte	0xd43
 2620 0235 40020000 		.4byte	0x240
 2621 0239 13       		.uleb128 0x13
 2622 023a 01       		.uleb128 0x1
 2623 023b 50       		.byte	0x50
 2624 023c 02       		.uleb128 0x2
 2625 023d 08       		.byte	0x8
 2626 023e 64       		.byte	0x64
 2627 023f 00       		.byte	0
 2628 0240 14       		.uleb128 0x14
 2629 0241 2C000000 		.4byte	.LVL17
 2630 0245 CD010000 		.4byte	0x1cd
 2631 0249 15       		.uleb128 0x15
 2632 024a 3A000000 		.4byte	.LVL19
 2633 024e 430D0000 		.4byte	0xd43
 2634 0252 13       		.uleb128 0x13
 2635 0253 01       		.uleb128 0x1
 2636 0254 50       		.byte	0x50
 2637 0255 02       		.uleb128 0x2
 2638 0256 08       		.byte	0x8
 2639 0257 64       		.byte	0x64
 2640 0258 00       		.byte	0
 2641 0259 00       		.byte	0
 2642 025a 10       		.uleb128 0x10
 2643 025b 3A020000 		.4byte	.LASF32
 2644 025f 01       		.byte	0x1
 2645 0260 9001     		.2byte	0x190
 2646 0262 00000000 		.4byte	.LFB35
 2647 0266 2C000000 		.4byte	.LFE35-.LFB35
 2648 026a 01       		.uleb128 0x1
 2649 026b 9C       		.byte	0x9c
 2650 026c 9E020000 		.4byte	0x29e
 2651 0270 0D       		.uleb128 0xd
ARM GAS  C:\Users\JAMESS~1\AppData\Local\Temp\ccd7YNc7.s 			page 71


 2652 0271 72737400 		.ascii	"rst\000"
 2653 0275 01       		.byte	0x1
 2654 0276 9001     		.2byte	0x190
 2655 0278 77000000 		.4byte	0x77
 2656 027c C9000000 		.4byte	.LLST4
 2657 0280 12       		.uleb128 0x12
 2658 0281 14000000 		.4byte	.LVL25
 2659 0285 96010000 		.4byte	0x196
 2660 0289 94020000 		.4byte	0x294
 2661 028d 13       		.uleb128 0x13
 2662 028e 01       		.uleb128 0x1
 2663 028f 50       		.byte	0x50
 2664 0290 02       		.uleb128 0x2
 2665 0291 74       		.byte	0x74
 2666 0292 00       		.sleb128 0
 2667 0293 00       		.byte	0
 2668 0294 14       		.uleb128 0x14
 2669 0295 18000000 		.4byte	.LVL26
 2670 0299 CD010000 		.4byte	0x1cd
 2671 029d 00       		.byte	0
 2672 029e 16       		.uleb128 0x16
 2673 029f DE040000 		.4byte	.LASF85
 2674 02a3 01       		.byte	0x1
 2675 02a4 0C02     		.2byte	0x20c
 2676 02a6 00000000 		.4byte	.LFB38
 2677 02aa 0C000000 		.4byte	.LFE38-.LFB38
 2678 02ae 01       		.uleb128 0x1
 2679 02af 9C       		.byte	0x9c
 2680 02b0 17       		.uleb128 0x17
 2681 02b1 03040000 		.4byte	.LASF33
 2682 02b5 01       		.byte	0x1
 2683 02b6 1102     		.2byte	0x211
 2684 02b8 77000000 		.4byte	0x77
 2685 02bc 00000000 		.4byte	.LFB39
 2686 02c0 0C000000 		.4byte	.LFE39-.LFB39
 2687 02c4 01       		.uleb128 0x1
 2688 02c5 9C       		.byte	0x9c
 2689 02c6 DB020000 		.4byte	0x2db
 2690 02ca 11       		.uleb128 0x11
 2691 02cb 59000000 		.4byte	.LASF23
 2692 02cf 01       		.byte	0x1
 2693 02d0 1102     		.2byte	0x211
 2694 02d2 77000000 		.4byte	0x77
 2695 02d6 F5000000 		.4byte	.LLST5
 2696 02da 00       		.byte	0
 2697 02db 18       		.uleb128 0x18
 2698 02dc FB020000 		.4byte	.LASF34
 2699 02e0 01       		.byte	0x1
 2700 02e1 2702     		.2byte	0x227
 2701 02e3 77000000 		.4byte	0x77
 2702 02e7 00000000 		.4byte	.LFB40
 2703 02eb 24000000 		.4byte	.LFE40-.LFB40
 2704 02ef 01       		.uleb128 0x1
 2705 02f0 9C       		.byte	0x9c
 2706 02f1 32030000 		.4byte	0x332
 2707 02f5 11       		.uleb128 0x11
 2708 02f6 44040000 		.4byte	.LASF35
ARM GAS  C:\Users\JAMESS~1\AppData\Local\Temp\ccd7YNc7.s 			page 72


 2709 02fa 01       		.byte	0x1
 2710 02fb 2702     		.2byte	0x227
 2711 02fd 77000000 		.4byte	0x77
 2712 0301 21010000 		.4byte	.LLST6
 2713 0305 0B       		.uleb128 0xb
 2714 0306 59000000 		.4byte	.LASF23
 2715 030a 01       		.byte	0x1
 2716 030b 2902     		.2byte	0x229
 2717 030d 77000000 		.4byte	0x77
 2718 0311 01       		.uleb128 0x1
 2719 0312 50       		.byte	0x50
 2720 0313 0A       		.uleb128 0xa
 2721 0314 00000000 		.4byte	.LASF36
 2722 0318 01       		.byte	0x1
 2723 0319 2A02     		.2byte	0x22a
 2724 031b 47030000 		.4byte	0x347
 2725 031f 0B       		.uleb128 0xb
 2726 0320 27030000 		.4byte	.LASF37
 2727 0324 01       		.byte	0x1
 2728 0325 2B02     		.2byte	0x22b
 2729 0327 77000000 		.4byte	0x77
 2730 032b 05       		.uleb128 0x5
 2731 032c 03       		.byte	0x3
 2732 032d 18000000 		.4byte	colorIndex.5817
 2733 0331 00       		.byte	0
 2734 0332 19       		.uleb128 0x19
 2735 0333 42030000 		.4byte	0x342
 2736 0337 42030000 		.4byte	0x342
 2737 033b 1A       		.uleb128 0x1a
 2738 033c C7000000 		.4byte	0xc7
 2739 0340 77       		.byte	0x77
 2740 0341 00       		.byte	0
 2741 0342 1B       		.uleb128 0x1b
 2742 0343 77000000 		.4byte	0x77
 2743 0347 1B       		.uleb128 0x1b
 2744 0348 32030000 		.4byte	0x332
 2745 034c 09       		.uleb128 0x9
 2746 034d 1D050000 		.4byte	.LASF38
 2747 0351 01       		.byte	0x1
 2748 0352 DB02     		.2byte	0x2db
 2749 0354 00000000 		.4byte	.LFB44
 2750 0358 2C000000 		.4byte	.LFE44-.LFB44
 2751 035c 01       		.uleb128 0x1
 2752 035d 9C       		.byte	0x9c
 2753 035e 91030000 		.4byte	0x391
 2754 0362 0C       		.uleb128 0xc
 2755 0363 59000000 		.4byte	.LASF23
 2756 0367 01       		.byte	0x1
 2757 0368 DB02     		.2byte	0x2db
 2758 036a 77000000 		.4byte	0x77
 2759 036e 01       		.uleb128 0x1
 2760 036f 50       		.byte	0x50
 2761 0370 1C       		.uleb128 0x1c
 2762 0371 726F7700 		.ascii	"row\000"
 2763 0375 01       		.byte	0x1
 2764 0376 DD02     		.2byte	0x2dd
 2765 0378 77000000 		.4byte	0x77
ARM GAS  C:\Users\JAMESS~1\AppData\Local\Temp\ccd7YNc7.s 			page 73


 2766 037c 42010000 		.4byte	.LLST7
 2767 0380 1C       		.uleb128 0x1c
 2768 0381 636F6C00 		.ascii	"col\000"
 2769 0385 01       		.byte	0x1
 2770 0386 DD02     		.2byte	0x2dd
 2771 0388 77000000 		.4byte	0x77
 2772 038c 61010000 		.4byte	.LLST8
 2773 0390 00       		.byte	0
 2774 0391 09       		.uleb128 0x9
 2775 0392 2B040000 		.4byte	.LASF39
 2776 0396 01       		.byte	0x1
 2777 0397 C802     		.2byte	0x2c8
 2778 0399 00000000 		.4byte	.LFB43
 2779 039d 0E000000 		.4byte	.LFE43-.LFB43
 2780 03a1 01       		.uleb128 0x1
 2781 03a2 9C       		.byte	0x9c
 2782 03a3 DC030000 		.4byte	0x3dc
 2783 03a7 11       		.uleb128 0x11
 2784 03a8 59000000 		.4byte	.LASF23
 2785 03ac 01       		.byte	0x1
 2786 03ad C802     		.2byte	0x2c8
 2787 03af 77000000 		.4byte	0x77
 2788 03b3 7F010000 		.4byte	.LLST9
 2789 03b7 12       		.uleb128 0x12
 2790 03b8 06000000 		.4byte	.LVL45
 2791 03bc 4C030000 		.4byte	0x34c
 2792 03c0 CC030000 		.4byte	0x3cc
 2793 03c4 13       		.uleb128 0x13
 2794 03c5 01       		.uleb128 0x1
 2795 03c6 50       		.byte	0x50
 2796 03c7 03       		.uleb128 0x3
 2797 03c8 F3       		.byte	0xf3
 2798 03c9 01       		.uleb128 0x1
 2799 03ca 50       		.byte	0x50
 2800 03cb 00       		.byte	0
 2801 03cc 15       		.uleb128 0x15
 2802 03cd 0C000000 		.4byte	.LVL46
 2803 03d1 96010000 		.4byte	0x196
 2804 03d5 13       		.uleb128 0x13
 2805 03d6 01       		.uleb128 0x1
 2806 03d7 50       		.byte	0x50
 2807 03d8 01       		.uleb128 0x1
 2808 03d9 31       		.byte	0x31
 2809 03da 00       		.byte	0
 2810 03db 00       		.byte	0
 2811 03dc 09       		.uleb128 0x9
 2812 03dd B4010000 		.4byte	.LASF40
 2813 03e1 01       		.byte	0x1
 2814 03e2 FB02     		.2byte	0x2fb
 2815 03e4 00000000 		.4byte	.LFB45
 2816 03e8 24000000 		.4byte	.LFE45-.LFB45
 2817 03ec 01       		.uleb128 0x1
 2818 03ed 9C       		.byte	0x9c
 2819 03ee 03040000 		.4byte	0x403
 2820 03f2 11       		.uleb128 0x11
 2821 03f3 59000000 		.4byte	.LASF23
 2822 03f7 01       		.byte	0x1
ARM GAS  C:\Users\JAMESS~1\AppData\Local\Temp\ccd7YNc7.s 			page 74


 2823 03f8 FB02     		.2byte	0x2fb
 2824 03fa 77000000 		.4byte	0x77
 2825 03fe A0010000 		.4byte	.LLST10
 2826 0402 00       		.byte	0
 2827 0403 09       		.uleb128 0x9
 2828 0404 39050000 		.4byte	.LASF41
 2829 0408 01       		.byte	0x1
 2830 0409 1A03     		.2byte	0x31a
 2831 040b 00000000 		.4byte	.LFB46
 2832 040f 24000000 		.4byte	.LFE46-.LFB46
 2833 0413 01       		.uleb128 0x1
 2834 0414 9C       		.byte	0x9c
 2835 0415 44040000 		.4byte	0x444
 2836 0419 0D       		.uleb128 0xd
 2837 041a 7800     		.ascii	"x\000"
 2838 041c 01       		.byte	0x1
 2839 041d 1A03     		.2byte	0x31a
 2840 041f 83000000 		.4byte	0x83
 2841 0423 E8010000 		.4byte	.LLST11
 2842 0427 0D       		.uleb128 0xd
 2843 0428 7900     		.ascii	"y\000"
 2844 042a 01       		.byte	0x1
 2845 042b 1A03     		.2byte	0x31a
 2846 042d 83000000 		.4byte	0x83
 2847 0431 17020000 		.4byte	.LLST12
 2848 0435 0C       		.uleb128 0xc
 2849 0436 59000000 		.4byte	.LASF23
 2850 043a 01       		.byte	0x1
 2851 043b 1A03     		.2byte	0x31a
 2852 043d 77000000 		.4byte	0x77
 2853 0441 01       		.uleb128 0x1
 2854 0442 52       		.byte	0x52
 2855 0443 00       		.byte	0
 2856 0444 17       		.uleb128 0x17
 2857 0445 25000000 		.4byte	.LASF42
 2858 0449 01       		.byte	0x1
 2859 044a 6103     		.2byte	0x361
 2860 044c 77000000 		.4byte	0x77
 2861 0450 00000000 		.4byte	.LFB47
 2862 0454 34000000 		.4byte	.LFE47-.LFB47
 2863 0458 01       		.uleb128 0x1
 2864 0459 9C       		.byte	0x9c
 2865 045a 8B040000 		.4byte	0x48b
 2866 045e 0D       		.uleb128 0xd
 2867 045f 7800     		.ascii	"x\000"
 2868 0461 01       		.byte	0x1
 2869 0462 6103     		.2byte	0x361
 2870 0464 83000000 		.4byte	0x83
 2871 0468 44020000 		.4byte	.LLST13
 2872 046c 0D       		.uleb128 0xd
 2873 046d 7900     		.ascii	"y\000"
 2874 046f 01       		.byte	0x1
 2875 0470 6103     		.2byte	0x361
 2876 0472 83000000 		.4byte	0x83
 2877 0476 C9020000 		.4byte	.LLST14
 2878 047a 0E       		.uleb128 0xe
 2879 047b 59000000 		.4byte	.LASF23
ARM GAS  C:\Users\JAMESS~1\AppData\Local\Temp\ccd7YNc7.s 			page 75


 2880 047f 01       		.byte	0x1
 2881 0480 6303     		.2byte	0x363
 2882 0482 77000000 		.4byte	0x77
 2883 0486 01030000 		.4byte	.LLST15
 2884 048a 00       		.byte	0
 2885 048b 09       		.uleb128 0x9
 2886 048c 10030000 		.4byte	.LASF43
 2887 0490 01       		.byte	0x1
 2888 0491 9503     		.2byte	0x395
 2889 0493 00000000 		.4byte	.LFB48
 2890 0497 FC000000 		.4byte	.LFE48-.LFB48
 2891 049b 01       		.uleb128 0x1
 2892 049c 9C       		.byte	0x9c
 2893 049d C0060000 		.4byte	0x6c0
 2894 04a1 0D       		.uleb128 0xd
 2895 04a2 783000   		.ascii	"x0\000"
 2896 04a5 01       		.byte	0x1
 2897 04a6 9503     		.2byte	0x395
 2898 04a8 83000000 		.4byte	0x83
 2899 04ac 37030000 		.4byte	.LLST16
 2900 04b0 0D       		.uleb128 0xd
 2901 04b1 793000   		.ascii	"y0\000"
 2902 04b4 01       		.byte	0x1
 2903 04b5 9503     		.2byte	0x395
 2904 04b7 83000000 		.4byte	0x83
 2905 04bb 63030000 		.4byte	.LLST17
 2906 04bf 11       		.uleb128 0x11
 2907 04c0 7C050000 		.4byte	.LASF44
 2908 04c4 01       		.byte	0x1
 2909 04c5 9503     		.2byte	0x395
 2910 04c7 83000000 		.4byte	0x83
 2911 04cb 8F030000 		.4byte	.LLST18
 2912 04cf 11       		.uleb128 0x11
 2913 04d0 59000000 		.4byte	.LASF23
 2914 04d4 01       		.byte	0x1
 2915 04d5 9503     		.2byte	0x395
 2916 04d7 77000000 		.4byte	0x77
 2917 04db BB030000 		.4byte	.LLST19
 2918 04df 1C       		.uleb128 0x1c
 2919 04e0 6600     		.ascii	"f\000"
 2920 04e2 01       		.byte	0x1
 2921 04e3 9703     		.2byte	0x397
 2922 04e5 83000000 		.4byte	0x83
 2923 04e9 E5030000 		.4byte	.LLST20
 2924 04ed 0E       		.uleb128 0xe
 2925 04ee AE040000 		.4byte	.LASF45
 2926 04f2 01       		.byte	0x1
 2927 04f3 9803     		.2byte	0x398
 2928 04f5 83000000 		.4byte	0x83
 2929 04f9 19040000 		.4byte	.LLST21
 2930 04fd 0E       		.uleb128 0xe
 2931 04fe 60020000 		.4byte	.LASF46
 2932 0502 01       		.byte	0x1
 2933 0503 9903     		.2byte	0x399
 2934 0505 83000000 		.4byte	0x83
 2935 0509 5A040000 		.4byte	.LLST22
 2936 050d 1C       		.uleb128 0x1c
ARM GAS  C:\Users\JAMESS~1\AppData\Local\Temp\ccd7YNc7.s 			page 76


 2937 050e 7800     		.ascii	"x\000"
 2938 0510 01       		.byte	0x1
 2939 0511 9A03     		.2byte	0x39a
 2940 0513 83000000 		.4byte	0x83
 2941 0517 78040000 		.4byte	.LLST23
 2942 051b 1C       		.uleb128 0x1c
 2943 051c 7900     		.ascii	"y\000"
 2944 051e 01       		.byte	0x1
 2945 051f 9B03     		.2byte	0x39b
 2946 0521 83000000 		.4byte	0x83
 2947 0525 97040000 		.4byte	.LLST24
 2948 0529 12       		.uleb128 0x12
 2949 052a 2E000000 		.4byte	.LVL78
 2950 052e 03040000 		.4byte	0x403
 2951 0532 4C050000 		.4byte	0x54c
 2952 0536 13       		.uleb128 0x13
 2953 0537 01       		.uleb128 0x1
 2954 0538 50       		.byte	0x50
 2955 0539 02       		.uleb128 0x2
 2956 053a 7B       		.byte	0x7b
 2957 053b 00       		.sleb128 0
 2958 053c 13       		.uleb128 0x13
 2959 053d 01       		.uleb128 0x1
 2960 053e 51       		.byte	0x51
 2961 053f 05       		.uleb128 0x5
 2962 0540 74       		.byte	0x74
 2963 0541 00       		.sleb128 0
 2964 0542 78       		.byte	0x78
 2965 0543 00       		.sleb128 0
 2966 0544 22       		.byte	0x22
 2967 0545 13       		.uleb128 0x13
 2968 0546 01       		.uleb128 0x1
 2969 0547 52       		.byte	0x52
 2970 0548 02       		.uleb128 0x2
 2971 0549 75       		.byte	0x75
 2972 054a 00       		.sleb128 0
 2973 054b 00       		.byte	0
 2974 054c 12       		.uleb128 0x12
 2975 054d 3A000000 		.4byte	.LVL79
 2976 0551 03040000 		.4byte	0x403
 2977 0555 6F050000 		.4byte	0x56f
 2978 0559 13       		.uleb128 0x13
 2979 055a 01       		.uleb128 0x1
 2980 055b 50       		.byte	0x50
 2981 055c 02       		.uleb128 0x2
 2982 055d 7B       		.byte	0x7b
 2983 055e 00       		.sleb128 0
 2984 055f 13       		.uleb128 0x13
 2985 0560 01       		.uleb128 0x1
 2986 0561 51       		.byte	0x51
 2987 0562 05       		.uleb128 0x5
 2988 0563 78       		.byte	0x78
 2989 0564 00       		.sleb128 0
 2990 0565 74       		.byte	0x74
 2991 0566 00       		.sleb128 0
 2992 0567 1C       		.byte	0x1c
 2993 0568 13       		.uleb128 0x13
ARM GAS  C:\Users\JAMESS~1\AppData\Local\Temp\ccd7YNc7.s 			page 77


 2994 0569 01       		.uleb128 0x1
 2995 056a 52       		.byte	0x52
 2996 056b 02       		.uleb128 0x2
 2997 056c 75       		.byte	0x75
 2998 056d 00       		.sleb128 0
 2999 056e 00       		.byte	0
 3000 056f 12       		.uleb128 0x12
 3001 0570 46000000 		.4byte	.LVL80
 3002 0574 03040000 		.4byte	0x403
 3003 0578 92050000 		.4byte	0x592
 3004 057c 13       		.uleb128 0x13
 3005 057d 01       		.uleb128 0x1
 3006 057e 50       		.byte	0x50
 3007 057f 05       		.uleb128 0x5
 3008 0580 74       		.byte	0x74
 3009 0581 00       		.sleb128 0
 3010 0582 7B       		.byte	0x7b
 3011 0583 00       		.sleb128 0
 3012 0584 22       		.byte	0x22
 3013 0585 13       		.uleb128 0x13
 3014 0586 01       		.uleb128 0x1
 3015 0587 51       		.byte	0x51
 3016 0588 02       		.uleb128 0x2
 3017 0589 78       		.byte	0x78
 3018 058a 00       		.sleb128 0
 3019 058b 13       		.uleb128 0x13
 3020 058c 01       		.uleb128 0x1
 3021 058d 52       		.byte	0x52
 3022 058e 02       		.uleb128 0x2
 3023 058f 75       		.byte	0x75
 3024 0590 00       		.sleb128 0
 3025 0591 00       		.byte	0
 3026 0592 12       		.uleb128 0x12
 3027 0593 52000000 		.4byte	.LVL81
 3028 0597 03040000 		.4byte	0x403
 3029 059b B5050000 		.4byte	0x5b5
 3030 059f 13       		.uleb128 0x13
 3031 05a0 01       		.uleb128 0x1
 3032 05a1 50       		.byte	0x50
 3033 05a2 05       		.uleb128 0x5
 3034 05a3 7B       		.byte	0x7b
 3035 05a4 00       		.sleb128 0
 3036 05a5 74       		.byte	0x74
 3037 05a6 00       		.sleb128 0
 3038 05a7 1C       		.byte	0x1c
 3039 05a8 13       		.uleb128 0x13
 3040 05a9 01       		.uleb128 0x1
 3041 05aa 51       		.byte	0x51
 3042 05ab 02       		.uleb128 0x2
 3043 05ac 78       		.byte	0x78
 3044 05ad 00       		.sleb128 0
 3045 05ae 13       		.uleb128 0x13
 3046 05af 01       		.uleb128 0x1
 3047 05b0 52       		.byte	0x52
 3048 05b1 02       		.uleb128 0x2
 3049 05b2 75       		.byte	0x75
 3050 05b3 00       		.sleb128 0
ARM GAS  C:\Users\JAMESS~1\AppData\Local\Temp\ccd7YNc7.s 			page 78


 3051 05b4 00       		.byte	0
 3052 05b5 12       		.uleb128 0x12
 3053 05b6 86000000 		.4byte	.LVL92
 3054 05ba 03040000 		.4byte	0x403
 3055 05be D7050000 		.4byte	0x5d7
 3056 05c2 13       		.uleb128 0x13
 3057 05c3 01       		.uleb128 0x1
 3058 05c4 50       		.byte	0x50
 3059 05c5 02       		.uleb128 0x2
 3060 05c6 77       		.byte	0x77
 3061 05c7 00       		.sleb128 0
 3062 05c8 13       		.uleb128 0x13
 3063 05c9 01       		.uleb128 0x1
 3064 05ca 51       		.byte	0x51
 3065 05cb 03       		.uleb128 0x3
 3066 05cc 91       		.byte	0x91
 3067 05cd 54       		.sleb128 -44
 3068 05ce 06       		.byte	0x6
 3069 05cf 13       		.uleb128 0x13
 3070 05d0 01       		.uleb128 0x1
 3071 05d1 52       		.byte	0x52
 3072 05d2 03       		.uleb128 0x3
 3073 05d3 91       		.byte	0x91
 3074 05d4 4C       		.sleb128 -52
 3075 05d5 06       		.byte	0x6
 3076 05d6 00       		.byte	0
 3077 05d7 12       		.uleb128 0x12
 3078 05d8 94000000 		.4byte	.LVL93
 3079 05dc 03040000 		.4byte	0x403
 3080 05e0 F9050000 		.4byte	0x5f9
 3081 05e4 13       		.uleb128 0x13
 3082 05e5 01       		.uleb128 0x1
 3083 05e6 50       		.byte	0x50
 3084 05e7 02       		.uleb128 0x2
 3085 05e8 75       		.byte	0x75
 3086 05e9 00       		.sleb128 0
 3087 05ea 13       		.uleb128 0x13
 3088 05eb 01       		.uleb128 0x1
 3089 05ec 51       		.byte	0x51
 3090 05ed 03       		.uleb128 0x3
 3091 05ee 91       		.byte	0x91
 3092 05ef 54       		.sleb128 -44
 3093 05f0 06       		.byte	0x6
 3094 05f1 13       		.uleb128 0x13
 3095 05f2 01       		.uleb128 0x1
 3096 05f3 52       		.byte	0x52
 3097 05f4 03       		.uleb128 0x3
 3098 05f5 91       		.byte	0x91
 3099 05f6 4C       		.sleb128 -52
 3100 05f7 06       		.byte	0x6
 3101 05f8 00       		.byte	0
 3102 05f9 12       		.uleb128 0x12
 3103 05fa A4000000 		.4byte	.LVL94
 3104 05fe 03040000 		.4byte	0x403
 3105 0602 1B060000 		.4byte	0x61b
 3106 0606 13       		.uleb128 0x13
 3107 0607 01       		.uleb128 0x1
ARM GAS  C:\Users\JAMESS~1\AppData\Local\Temp\ccd7YNc7.s 			page 79


 3108 0608 50       		.byte	0x50
 3109 0609 02       		.uleb128 0x2
 3110 060a 77       		.byte	0x77
 3111 060b 00       		.sleb128 0
 3112 060c 13       		.uleb128 0x13
 3113 060d 01       		.uleb128 0x1
 3114 060e 51       		.byte	0x51
 3115 060f 03       		.uleb128 0x3
 3116 0610 91       		.byte	0x91
 3117 0611 54       		.sleb128 -44
 3118 0612 06       		.byte	0x6
 3119 0613 13       		.uleb128 0x13
 3120 0614 01       		.uleb128 0x1
 3121 0615 52       		.byte	0x52
 3122 0616 03       		.uleb128 0x3
 3123 0617 91       		.byte	0x91
 3124 0618 4C       		.sleb128 -52
 3125 0619 06       		.byte	0x6
 3126 061a 00       		.byte	0
 3127 061b 12       		.uleb128 0x12
 3128 061c AE000000 		.4byte	.LVL95
 3129 0620 03040000 		.4byte	0x403
 3130 0624 3D060000 		.4byte	0x63d
 3131 0628 13       		.uleb128 0x13
 3132 0629 01       		.uleb128 0x1
 3133 062a 50       		.byte	0x50
 3134 062b 02       		.uleb128 0x2
 3135 062c 75       		.byte	0x75
 3136 062d 00       		.sleb128 0
 3137 062e 13       		.uleb128 0x13
 3138 062f 01       		.uleb128 0x1
 3139 0630 51       		.byte	0x51
 3140 0631 03       		.uleb128 0x3
 3141 0632 91       		.byte	0x91
 3142 0633 54       		.sleb128 -44
 3143 0634 06       		.byte	0x6
 3144 0635 13       		.uleb128 0x13
 3145 0636 01       		.uleb128 0x1
 3146 0637 52       		.byte	0x52
 3147 0638 03       		.uleb128 0x3
 3148 0639 91       		.byte	0x91
 3149 063a 4C       		.sleb128 -52
 3150 063b 06       		.byte	0x6
 3151 063c 00       		.byte	0
 3152 063d 12       		.uleb128 0x12
 3153 063e C0000000 		.4byte	.LVL96
 3154 0642 03040000 		.4byte	0x403
 3155 0646 5E060000 		.4byte	0x65e
 3156 064a 13       		.uleb128 0x13
 3157 064b 01       		.uleb128 0x1
 3158 064c 50       		.byte	0x50
 3159 064d 02       		.uleb128 0x2
 3160 064e 77       		.byte	0x77
 3161 064f 00       		.sleb128 0
 3162 0650 13       		.uleb128 0x13
 3163 0651 01       		.uleb128 0x1
 3164 0652 51       		.byte	0x51
ARM GAS  C:\Users\JAMESS~1\AppData\Local\Temp\ccd7YNc7.s 			page 80


 3165 0653 02       		.uleb128 0x2
 3166 0654 75       		.byte	0x75
 3167 0655 00       		.sleb128 0
 3168 0656 13       		.uleb128 0x13
 3169 0657 01       		.uleb128 0x1
 3170 0658 52       		.byte	0x52
 3171 0659 03       		.uleb128 0x3
 3172 065a 91       		.byte	0x91
 3173 065b 4C       		.sleb128 -52
 3174 065c 06       		.byte	0x6
 3175 065d 00       		.byte	0
 3176 065e 12       		.uleb128 0x12
 3177 065f D0000000 		.4byte	.LVL97
 3178 0663 03040000 		.4byte	0x403
 3179 0667 80060000 		.4byte	0x680
 3180 066b 13       		.uleb128 0x13
 3181 066c 01       		.uleb128 0x1
 3182 066d 50       		.byte	0x50
 3183 066e 03       		.uleb128 0x3
 3184 066f 91       		.byte	0x91
 3185 0670 54       		.sleb128 -44
 3186 0671 06       		.byte	0x6
 3187 0672 13       		.uleb128 0x13
 3188 0673 01       		.uleb128 0x1
 3189 0674 51       		.byte	0x51
 3190 0675 02       		.uleb128 0x2
 3191 0676 75       		.byte	0x75
 3192 0677 00       		.sleb128 0
 3193 0678 13       		.uleb128 0x13
 3194 0679 01       		.uleb128 0x1
 3195 067a 52       		.byte	0x52
 3196 067b 03       		.uleb128 0x3
 3197 067c 91       		.byte	0x91
 3198 067d 4C       		.sleb128 -52
 3199 067e 06       		.byte	0x6
 3200 067f 00       		.byte	0
 3201 0680 12       		.uleb128 0x12
 3202 0681 DE000000 		.4byte	.LVL98
 3203 0685 03040000 		.4byte	0x403
 3204 0689 A1060000 		.4byte	0x6a1
 3205 068d 13       		.uleb128 0x13
 3206 068e 01       		.uleb128 0x1
 3207 068f 50       		.byte	0x50
 3208 0690 02       		.uleb128 0x2
 3209 0691 77       		.byte	0x77
 3210 0692 00       		.sleb128 0
 3211 0693 13       		.uleb128 0x13
 3212 0694 01       		.uleb128 0x1
 3213 0695 51       		.byte	0x51
 3214 0696 02       		.uleb128 0x2
 3215 0697 75       		.byte	0x75
 3216 0698 00       		.sleb128 0
 3217 0699 13       		.uleb128 0x13
 3218 069a 01       		.uleb128 0x1
 3219 069b 52       		.byte	0x52
 3220 069c 03       		.uleb128 0x3
 3221 069d 91       		.byte	0x91
ARM GAS  C:\Users\JAMESS~1\AppData\Local\Temp\ccd7YNc7.s 			page 81


 3222 069e 4C       		.sleb128 -52
 3223 069f 06       		.byte	0x6
 3224 06a0 00       		.byte	0
 3225 06a1 15       		.uleb128 0x15
 3226 06a2 E8000000 		.4byte	.LVL99
 3227 06a6 03040000 		.4byte	0x403
 3228 06aa 13       		.uleb128 0x13
 3229 06ab 01       		.uleb128 0x1
 3230 06ac 50       		.byte	0x50
 3231 06ad 03       		.uleb128 0x3
 3232 06ae 91       		.byte	0x91
 3233 06af 54       		.sleb128 -44
 3234 06b0 06       		.byte	0x6
 3235 06b1 13       		.uleb128 0x13
 3236 06b2 01       		.uleb128 0x1
 3237 06b3 51       		.byte	0x51
 3238 06b4 02       		.uleb128 0x2
 3239 06b5 75       		.byte	0x75
 3240 06b6 00       		.sleb128 0
 3241 06b7 13       		.uleb128 0x13
 3242 06b8 01       		.uleb128 0x1
 3243 06b9 52       		.byte	0x52
 3244 06ba 03       		.uleb128 0x3
 3245 06bb 91       		.byte	0x91
 3246 06bc 4C       		.sleb128 -52
 3247 06bd 06       		.byte	0x6
 3248 06be 00       		.byte	0
 3249 06bf 00       		.byte	0
 3250 06c0 09       		.uleb128 0x9
 3251 06c1 AB050000 		.4byte	.LASF47
 3252 06c5 01       		.byte	0x1
 3253 06c6 CA03     		.2byte	0x3ca
 3254 06c8 00000000 		.4byte	.LFB49
 3255 06cc AA000000 		.4byte	.LFE49-.LFB49
 3256 06d0 01       		.uleb128 0x1
 3257 06d1 9C       		.byte	0x9c
 3258 06d2 F3070000 		.4byte	0x7f3
 3259 06d6 0D       		.uleb128 0xd
 3260 06d7 783000   		.ascii	"x0\000"
 3261 06da 01       		.byte	0x1
 3262 06db CA03     		.2byte	0x3ca
 3263 06dd 83000000 		.4byte	0x83
 3264 06e1 AA040000 		.4byte	.LLST25
 3265 06e5 0D       		.uleb128 0xd
 3266 06e6 793000   		.ascii	"y0\000"
 3267 06e9 01       		.byte	0x1
 3268 06ea CA03     		.2byte	0x3ca
 3269 06ec 83000000 		.4byte	0x83
 3270 06f0 C8040000 		.4byte	.LLST26
 3271 06f4 0D       		.uleb128 0xd
 3272 06f5 783100   		.ascii	"x1\000"
 3273 06f8 01       		.byte	0x1
 3274 06f9 CA03     		.2byte	0x3ca
 3275 06fb 83000000 		.4byte	0x83
 3276 06ff E6040000 		.4byte	.LLST27
 3277 0703 0D       		.uleb128 0xd
 3278 0704 793100   		.ascii	"y1\000"
ARM GAS  C:\Users\JAMESS~1\AppData\Local\Temp\ccd7YNc7.s 			page 82


 3279 0707 01       		.byte	0x1
 3280 0708 CA03     		.2byte	0x3ca
 3281 070a 83000000 		.4byte	0x83
 3282 070e 1C050000 		.4byte	.LLST28
 3283 0712 0C       		.uleb128 0xc
 3284 0713 59000000 		.4byte	.LASF23
 3285 0717 01       		.byte	0x1
 3286 0718 CA03     		.2byte	0x3ca
 3287 071a 77000000 		.4byte	0x77
 3288 071e 02       		.uleb128 0x2
 3289 071f 91       		.byte	0x91
 3290 0720 00       		.sleb128 0
 3291 0721 1C       		.uleb128 0x1c
 3292 0722 647900   		.ascii	"dy\000"
 3293 0725 01       		.byte	0x1
 3294 0726 CC03     		.2byte	0x3cc
 3295 0728 83000000 		.4byte	0x83
 3296 072c 48050000 		.4byte	.LLST29
 3297 0730 1C       		.uleb128 0x1c
 3298 0731 647800   		.ascii	"dx\000"
 3299 0734 01       		.byte	0x1
 3300 0735 CD03     		.2byte	0x3cd
 3301 0737 83000000 		.4byte	0x83
 3302 073b 71050000 		.4byte	.LLST30
 3303 073f 0E       		.uleb128 0xe
 3304 0740 E5030000 		.4byte	.LASF48
 3305 0744 01       		.byte	0x1
 3306 0745 CE03     		.2byte	0x3ce
 3307 0747 83000000 		.4byte	0x83
 3308 074b 84050000 		.4byte	.LLST31
 3309 074f 0E       		.uleb128 0xe
 3310 0750 EB030000 		.4byte	.LASF49
 3311 0754 01       		.byte	0x1
 3312 0755 CE03     		.2byte	0x3ce
 3313 0757 83000000 		.4byte	0x83
 3314 075b A4050000 		.4byte	.LLST32
 3315 075f 1D       		.uleb128 0x1d
 3316 0760 52000000 		.4byte	.LBB2
 3317 0764 26000000 		.4byte	.LBE2-.LBB2
 3318 0768 9A070000 		.4byte	0x79a
 3319 076c 0E       		.uleb128 0xe
 3320 076d DC030000 		.4byte	.LASF50
 3321 0771 01       		.byte	0x1
 3322 0772 EA03     		.2byte	0x3ea
 3323 0774 5D000000 		.4byte	0x5d
 3324 0778 C4050000 		.4byte	.LLST33
 3325 077c 15       		.uleb128 0x15
 3326 077d 70000000 		.4byte	.LVL129
 3327 0781 03040000 		.4byte	0x403
 3328 0785 13       		.uleb128 0x13
 3329 0786 01       		.uleb128 0x1
 3330 0787 50       		.byte	0x50
 3331 0788 02       		.uleb128 0x2
 3332 0789 74       		.byte	0x74
 3333 078a 00       		.sleb128 0
 3334 078b 13       		.uleb128 0x13
 3335 078c 01       		.uleb128 0x1
ARM GAS  C:\Users\JAMESS~1\AppData\Local\Temp\ccd7YNc7.s 			page 83


 3336 078d 51       		.byte	0x51
 3337 078e 02       		.uleb128 0x2
 3338 078f 75       		.byte	0x75
 3339 0790 00       		.sleb128 0
 3340 0791 13       		.uleb128 0x13
 3341 0792 01       		.uleb128 0x1
 3342 0793 52       		.byte	0x52
 3343 0794 03       		.uleb128 0x3
 3344 0795 91       		.byte	0x91
 3345 0796 00       		.sleb128 0
 3346 0797 06       		.byte	0x6
 3347 0798 00       		.byte	0
 3348 0799 00       		.byte	0
 3349 079a 1D       		.uleb128 0x1d
 3350 079b 78000000 		.4byte	.LBB3
 3351 079f 24000000 		.4byte	.LBE3-.LBB3
 3352 07a3 D5070000 		.4byte	0x7d5
 3353 07a7 0E       		.uleb128 0xe
 3354 07a8 DC030000 		.4byte	.LASF50
 3355 07ac 01       		.byte	0x1
 3356 07ad F903     		.2byte	0x3f9
 3357 07af 5D000000 		.4byte	0x5d
 3358 07b3 D7050000 		.4byte	.LLST34
 3359 07b7 15       		.uleb128 0x15
 3360 07b8 98000000 		.4byte	.LVL136
 3361 07bc 03040000 		.4byte	0x403
 3362 07c0 13       		.uleb128 0x13
 3363 07c1 01       		.uleb128 0x1
 3364 07c2 50       		.byte	0x50
 3365 07c3 02       		.uleb128 0x2
 3366 07c4 74       		.byte	0x74
 3367 07c5 00       		.sleb128 0
 3368 07c6 13       		.uleb128 0x13
 3369 07c7 01       		.uleb128 0x1
 3370 07c8 51       		.byte	0x51
 3371 07c9 02       		.uleb128 0x2
 3372 07ca 75       		.byte	0x75
 3373 07cb 00       		.sleb128 0
 3374 07cc 13       		.uleb128 0x13
 3375 07cd 01       		.uleb128 0x1
 3376 07ce 52       		.byte	0x52
 3377 07cf 03       		.uleb128 0x3
 3378 07d0 91       		.byte	0x91
 3379 07d1 00       		.sleb128 0
 3380 07d2 06       		.byte	0x6
 3381 07d3 00       		.byte	0
 3382 07d4 00       		.byte	0
 3383 07d5 15       		.uleb128 0x15
 3384 07d6 4E000000 		.4byte	.LVL123
 3385 07da 03040000 		.4byte	0x403
 3386 07de 13       		.uleb128 0x13
 3387 07df 01       		.uleb128 0x1
 3388 07e0 50       		.byte	0x50
 3389 07e1 02       		.uleb128 0x2
 3390 07e2 74       		.byte	0x74
 3391 07e3 00       		.sleb128 0
 3392 07e4 13       		.uleb128 0x13
ARM GAS  C:\Users\JAMESS~1\AppData\Local\Temp\ccd7YNc7.s 			page 84


 3393 07e5 01       		.uleb128 0x1
 3394 07e6 51       		.byte	0x51
 3395 07e7 02       		.uleb128 0x2
 3396 07e8 75       		.byte	0x75
 3397 07e9 00       		.sleb128 0
 3398 07ea 13       		.uleb128 0x13
 3399 07eb 01       		.uleb128 0x1
 3400 07ec 52       		.byte	0x52
 3401 07ed 03       		.uleb128 0x3
 3402 07ee 91       		.byte	0x91
 3403 07ef 00       		.sleb128 0
 3404 07f0 06       		.byte	0x6
 3405 07f1 00       		.byte	0
 3406 07f2 00       		.byte	0
 3407 07f3 09       		.uleb128 0x9
 3408 07f4 73000000 		.4byte	.LASF51
 3409 07f8 01       		.byte	0x1
 3410 07f9 1904     		.2byte	0x419
 3411 07fb 00000000 		.4byte	.LFB50
 3412 07ff 7A000000 		.4byte	.LFE50-.LFB50
 3413 0803 01       		.uleb128 0x1
 3414 0804 9C       		.byte	0x9c
 3415 0805 4B090000 		.4byte	0x94b
 3416 0809 0D       		.uleb128 0xd
 3417 080a 783000   		.ascii	"x0\000"
 3418 080d 01       		.byte	0x1
 3419 080e 1904     		.2byte	0x419
 3420 0810 83000000 		.4byte	0x83
 3421 0814 EA050000 		.4byte	.LLST35
 3422 0818 0D       		.uleb128 0xd
 3423 0819 793000   		.ascii	"y0\000"
 3424 081c 01       		.byte	0x1
 3425 081d 1904     		.2byte	0x419
 3426 081f 83000000 		.4byte	0x83
 3427 0823 1E060000 		.4byte	.LLST36
 3428 0827 0D       		.uleb128 0xd
 3429 0828 783100   		.ascii	"x1\000"
 3430 082b 01       		.byte	0x1
 3431 082c 1904     		.2byte	0x419
 3432 082e 83000000 		.4byte	0x83
 3433 0832 54060000 		.4byte	.LLST37
 3434 0836 0D       		.uleb128 0xd
 3435 0837 793100   		.ascii	"y1\000"
 3436 083a 01       		.byte	0x1
 3437 083b 1904     		.2byte	0x419
 3438 083d 83000000 		.4byte	0x83
 3439 0841 96060000 		.4byte	.LLST38
 3440 0845 0C       		.uleb128 0xc
 3441 0846 0D010000 		.4byte	.LASF52
 3442 084a 01       		.byte	0x1
 3443 084b 1904     		.2byte	0x419
 3444 084d 83000000 		.4byte	0x83
 3445 0851 02       		.uleb128 0x2
 3446 0852 91       		.byte	0x91
 3447 0853 00       		.sleb128 0
 3448 0854 0C       		.uleb128 0xc
 3449 0855 59000000 		.4byte	.LASF23
ARM GAS  C:\Users\JAMESS~1\AppData\Local\Temp\ccd7YNc7.s 			page 85


 3450 0859 01       		.byte	0x1
 3451 085a 1904     		.2byte	0x419
 3452 085c 77000000 		.4byte	0x77
 3453 0860 02       		.uleb128 0x2
 3454 0861 91       		.byte	0x91
 3455 0862 04       		.sleb128 4
 3456 0863 0E       		.uleb128 0xe
 3457 0864 8A040000 		.4byte	.LASF53
 3458 0868 01       		.byte	0x1
 3459 0869 1B04     		.2byte	0x41b
 3460 086b 5D000000 		.4byte	0x5d
 3461 086f B5060000 		.4byte	.LLST39
 3462 0873 12       		.uleb128 0x12
 3463 0874 2E000000 		.4byte	.LVL151
 3464 0878 C0060000 		.4byte	0x6c0
 3465 087c A2080000 		.4byte	0x8a2
 3466 0880 13       		.uleb128 0x13
 3467 0881 01       		.uleb128 0x1
 3468 0882 50       		.byte	0x50
 3469 0883 02       		.uleb128 0x2
 3470 0884 74       		.byte	0x74
 3471 0885 00       		.sleb128 0
 3472 0886 13       		.uleb128 0x13
 3473 0887 01       		.uleb128 0x1
 3474 0888 51       		.byte	0x51
 3475 0889 03       		.uleb128 0x3
 3476 088a 91       		.byte	0x91
 3477 088b 64       		.sleb128 -28
 3478 088c 06       		.byte	0x6
 3479 088d 13       		.uleb128 0x13
 3480 088e 01       		.uleb128 0x1
 3481 088f 52       		.byte	0x52
 3482 0890 02       		.uleb128 0x2
 3483 0891 74       		.byte	0x74
 3484 0892 00       		.sleb128 0
 3485 0893 13       		.uleb128 0x13
 3486 0894 01       		.uleb128 0x1
 3487 0895 53       		.byte	0x53
 3488 0896 03       		.uleb128 0x3
 3489 0897 91       		.byte	0x91
 3490 0898 60       		.sleb128 -32
 3491 0899 06       		.byte	0x6
 3492 089a 13       		.uleb128 0x13
 3493 089b 02       		.uleb128 0x2
 3494 089c 7D       		.byte	0x7d
 3495 089d 00       		.sleb128 0
 3496 089e 02       		.uleb128 0x2
 3497 089f 77       		.byte	0x77
 3498 08a0 00       		.sleb128 0
 3499 08a1 00       		.byte	0
 3500 08a2 12       		.uleb128 0x12
 3501 08a3 4C000000 		.4byte	.LVL157
 3502 08a7 C0060000 		.4byte	0x6c0
 3503 08ab C3080000 		.4byte	0x8c3
 3504 08af 13       		.uleb128 0x13
 3505 08b0 01       		.uleb128 0x1
 3506 08b1 51       		.byte	0x51
ARM GAS  C:\Users\JAMESS~1\AppData\Local\Temp\ccd7YNc7.s 			page 86


 3507 08b2 02       		.uleb128 0x2
 3508 08b3 75       		.byte	0x75
 3509 08b4 00       		.sleb128 0
 3510 08b5 13       		.uleb128 0x13
 3511 08b6 01       		.uleb128 0x1
 3512 08b7 53       		.byte	0x53
 3513 08b8 02       		.uleb128 0x2
 3514 08b9 75       		.byte	0x75
 3515 08ba 00       		.sleb128 0
 3516 08bb 13       		.uleb128 0x13
 3517 08bc 02       		.uleb128 0x2
 3518 08bd 7D       		.byte	0x7d
 3519 08be 00       		.sleb128 0
 3520 08bf 02       		.uleb128 0x2
 3521 08c0 77       		.byte	0x77
 3522 08c1 00       		.sleb128 0
 3523 08c2 00       		.byte	0
 3524 08c3 12       		.uleb128 0x12
 3525 08c4 5A000000 		.4byte	.LVL158
 3526 08c8 C0060000 		.4byte	0x6c0
 3527 08cc F2080000 		.4byte	0x8f2
 3528 08d0 13       		.uleb128 0x13
 3529 08d1 01       		.uleb128 0x1
 3530 08d2 50       		.byte	0x50
 3531 08d3 02       		.uleb128 0x2
 3532 08d4 74       		.byte	0x74
 3533 08d5 00       		.sleb128 0
 3534 08d6 13       		.uleb128 0x13
 3535 08d7 01       		.uleb128 0x1
 3536 08d8 51       		.byte	0x51
 3537 08d9 03       		.uleb128 0x3
 3538 08da 91       		.byte	0x91
 3539 08db 60       		.sleb128 -32
 3540 08dc 06       		.byte	0x6
 3541 08dd 13       		.uleb128 0x13
 3542 08de 01       		.uleb128 0x1
 3543 08df 52       		.byte	0x52
 3544 08e0 02       		.uleb128 0x2
 3545 08e1 76       		.byte	0x76
 3546 08e2 00       		.sleb128 0
 3547 08e3 13       		.uleb128 0x13
 3548 08e4 01       		.uleb128 0x1
 3549 08e5 53       		.byte	0x53
 3550 08e6 03       		.uleb128 0x3
 3551 08e7 91       		.byte	0x91
 3552 08e8 60       		.sleb128 -32
 3553 08e9 06       		.byte	0x6
 3554 08ea 13       		.uleb128 0x13
 3555 08eb 02       		.uleb128 0x2
 3556 08ec 7D       		.byte	0x7d
 3557 08ed 00       		.sleb128 0
 3558 08ee 02       		.uleb128 0x2
 3559 08ef 77       		.byte	0x77
 3560 08f0 00       		.sleb128 0
 3561 08f1 00       		.byte	0
 3562 08f2 12       		.uleb128 0x12
 3563 08f3 68000000 		.4byte	.LVL159
ARM GAS  C:\Users\JAMESS~1\AppData\Local\Temp\ccd7YNc7.s 			page 87


 3564 08f7 C0060000 		.4byte	0x6c0
 3565 08fb 20090000 		.4byte	0x920
 3566 08ff 13       		.uleb128 0x13
 3567 0900 01       		.uleb128 0x1
 3568 0901 50       		.byte	0x50
 3569 0902 02       		.uleb128 0x2
 3570 0903 74       		.byte	0x74
 3571 0904 00       		.sleb128 0
 3572 0905 13       		.uleb128 0x13
 3573 0906 01       		.uleb128 0x1
 3574 0907 51       		.byte	0x51
 3575 0908 02       		.uleb128 0x2
 3576 0909 75       		.byte	0x75
 3577 090a 00       		.sleb128 0
 3578 090b 13       		.uleb128 0x13
 3579 090c 01       		.uleb128 0x1
 3580 090d 52       		.byte	0x52
 3581 090e 02       		.uleb128 0x2
 3582 090f 74       		.byte	0x74
 3583 0910 00       		.sleb128 0
 3584 0911 13       		.uleb128 0x13
 3585 0912 01       		.uleb128 0x1
 3586 0913 53       		.byte	0x53
 3587 0914 03       		.uleb128 0x3
 3588 0915 91       		.byte	0x91
 3589 0916 60       		.sleb128 -32
 3590 0917 06       		.byte	0x6
 3591 0918 13       		.uleb128 0x13
 3592 0919 02       		.uleb128 0x2
 3593 091a 7D       		.byte	0x7d
 3594 091b 00       		.sleb128 0
 3595 091c 02       		.uleb128 0x2
 3596 091d 77       		.byte	0x77
 3597 091e 00       		.sleb128 0
 3598 091f 00       		.byte	0
 3599 0920 15       		.uleb128 0x15
 3600 0921 76000000 		.4byte	.LVL160
 3601 0925 C0060000 		.4byte	0x6c0
 3602 0929 13       		.uleb128 0x13
 3603 092a 01       		.uleb128 0x1
 3604 092b 50       		.byte	0x50
 3605 092c 02       		.uleb128 0x2
 3606 092d 76       		.byte	0x76
 3607 092e 00       		.sleb128 0
 3608 092f 13       		.uleb128 0x13
 3609 0930 01       		.uleb128 0x1
 3610 0931 51       		.byte	0x51
 3611 0932 02       		.uleb128 0x2
 3612 0933 75       		.byte	0x75
 3613 0934 00       		.sleb128 0
 3614 0935 13       		.uleb128 0x13
 3615 0936 01       		.uleb128 0x1
 3616 0937 52       		.byte	0x52
 3617 0938 02       		.uleb128 0x2
 3618 0939 76       		.byte	0x76
 3619 093a 00       		.sleb128 0
 3620 093b 13       		.uleb128 0x13
ARM GAS  C:\Users\JAMESS~1\AppData\Local\Temp\ccd7YNc7.s 			page 88


 3621 093c 01       		.uleb128 0x1
 3622 093d 53       		.byte	0x53
 3623 093e 03       		.uleb128 0x3
 3624 093f 91       		.byte	0x91
 3625 0940 60       		.sleb128 -32
 3626 0941 06       		.byte	0x6
 3627 0942 13       		.uleb128 0x13
 3628 0943 02       		.uleb128 0x2
 3629 0944 7D       		.byte	0x7d
 3630 0945 00       		.sleb128 0
 3631 0946 02       		.uleb128 0x2
 3632 0947 77       		.byte	0x77
 3633 0948 00       		.sleb128 0
 3634 0949 00       		.byte	0
 3635 094a 00       		.byte	0
 3636 094b 09       		.uleb128 0x9
 3637 094c CC030000 		.4byte	.LASF54
 3638 0950 01       		.byte	0x1
 3639 0951 4E04     		.2byte	0x44e
 3640 0953 00000000 		.4byte	.LFB51
 3641 0957 78000000 		.4byte	.LFE51-.LFB51
 3642 095b 01       		.uleb128 0x1
 3643 095c 9C       		.byte	0x9c
 3644 095d 88090000 		.4byte	0x988
 3645 0961 0C       		.uleb128 0xc
 3646 0962 92030000 		.4byte	.LASF55
 3647 0966 01       		.byte	0x1
 3648 0967 4E04     		.2byte	0x44e
 3649 0969 77000000 		.4byte	0x77
 3650 096d 01       		.uleb128 0x1
 3651 096e 50       		.byte	0x50
 3652 096f 0A       		.uleb128 0xa
 3653 0970 A0010000 		.4byte	.LASF19
 3654 0974 01       		.byte	0x1
 3655 0975 5004     		.2byte	0x450
 3656 0977 77000000 		.4byte	0x77
 3657 097b 0A       		.uleb128 0xa
 3658 097c 3A000000 		.4byte	.LASF20
 3659 0980 01       		.byte	0x1
 3660 0981 5104     		.2byte	0x451
 3661 0983 77000000 		.4byte	0x77
 3662 0987 00       		.byte	0
 3663 0988 1E       		.uleb128 0x1e
 3664 0989 6A050000 		.4byte	.LASF56
 3665 098d 01       		.byte	0x1
 3666 098e FC       		.byte	0xfc
 3667 098f 00000000 		.4byte	.LFB32
 3668 0993 8C000000 		.4byte	.LFE32-.LFB32
 3669 0997 01       		.uleb128 0x1
 3670 0998 9C       		.byte	0x9c
 3671 0999 460A0000 		.4byte	0xa46
 3672 099d 1F       		.uleb128 0x1f
 3673 099e F6010000 		.4byte	.LASF57
 3674 09a2 01       		.byte	0x1
 3675 09a3 FE       		.byte	0xfe
 3676 09a4 6B000000 		.4byte	0x6b
 3677 09a8 1F       		.uleb128 0x1f
ARM GAS  C:\Users\JAMESS~1\AppData\Local\Temp\ccd7YNc7.s 			page 89


 3678 09a9 9B030000 		.4byte	.LASF24
 3679 09ad 01       		.byte	0x1
 3680 09ae FF       		.byte	0xff
 3681 09af 77000000 		.4byte	0x77
 3682 09b3 12       		.uleb128 0x12
 3683 09b4 26000000 		.4byte	.LVL164
 3684 09b8 B0020000 		.4byte	0x2b0
 3685 09bc C6090000 		.4byte	0x9c6
 3686 09c0 13       		.uleb128 0x13
 3687 09c1 01       		.uleb128 0x1
 3688 09c2 50       		.byte	0x50
 3689 09c3 01       		.uleb128 0x1
 3690 09c4 48       		.byte	0x48
 3691 09c5 00       		.byte	0
 3692 09c6 14       		.uleb128 0x14
 3693 09c7 2A000000 		.4byte	.LVL165
 3694 09cb 4C030000 		.4byte	0x34c
 3695 09cf 12       		.uleb128 0x12
 3696 09d0 34000000 		.4byte	.LVL166
 3697 09d4 4E0D0000 		.4byte	0xd4e
 3698 09d8 E2090000 		.4byte	0x9e2
 3699 09dc 13       		.uleb128 0x13
 3700 09dd 01       		.uleb128 0x1
 3701 09de 50       		.byte	0x50
 3702 09df 01       		.uleb128 0x1
 3703 09e0 30       		.byte	0x30
 3704 09e1 00       		.byte	0
 3705 09e2 12       		.uleb128 0x12
 3706 09e3 3A000000 		.4byte	.LVL167
 3707 09e7 4B090000 		.4byte	0x94b
 3708 09eb F5090000 		.4byte	0x9f5
 3709 09ef 13       		.uleb128 0x13
 3710 09f0 01       		.uleb128 0x1
 3711 09f1 50       		.byte	0x50
 3712 09f2 01       		.uleb128 0x1
 3713 09f3 30       		.byte	0x30
 3714 09f4 00       		.byte	0
 3715 09f5 12       		.uleb128 0x12
 3716 09f6 4E000000 		.4byte	.LVL168
 3717 09fa 590D0000 		.4byte	0xd59
 3718 09fe 0C0A0000 		.4byte	0xa0c
 3719 0a02 13       		.uleb128 0x13
 3720 0a03 01       		.uleb128 0x1
 3721 0a04 50       		.byte	0x50
 3722 0a05 05       		.uleb128 0x5
 3723 0a06 03       		.byte	0x3
 3724 0a07 00000000 		.4byte	StripLights_CISR
 3725 0a0b 00       		.byte	0
 3726 0a0c 12       		.uleb128 0x12
 3727 0a0d 54000000 		.4byte	.LVL169
 3728 0a11 640D0000 		.4byte	0xd64
 3729 0a15 230A0000 		.4byte	0xa23
 3730 0a19 13       		.uleb128 0x13
 3731 0a1a 01       		.uleb128 0x1
 3732 0a1b 50       		.byte	0x50
 3733 0a1c 05       		.uleb128 0x5
 3734 0a1d 03       		.byte	0x3
ARM GAS  C:\Users\JAMESS~1\AppData\Local\Temp\ccd7YNc7.s 			page 90


 3735 0a1e 00000000 		.4byte	StripLights_FISR
 3736 0a22 00       		.byte	0
 3737 0a23 12       		.uleb128 0x12
 3738 0a24 5A000000 		.4byte	.LVL170
 3739 0a28 6F0D0000 		.4byte	0xd6f
 3740 0a2c 360A0000 		.4byte	0xa36
 3741 0a30 13       		.uleb128 0x13
 3742 0a31 01       		.uleb128 0x1
 3743 0a32 50       		.byte	0x50
 3744 0a33 01       		.uleb128 0x1
 3745 0a34 31       		.byte	0x31
 3746 0a35 00       		.byte	0
 3747 0a36 15       		.uleb128 0x15
 3748 0a37 60000000 		.4byte	.LVL171
 3749 0a3b 7A0D0000 		.4byte	0xd7a
 3750 0a3f 13       		.uleb128 0x13
 3751 0a40 01       		.uleb128 0x1
 3752 0a41 50       		.byte	0x50
 3753 0a42 01       		.uleb128 0x1
 3754 0a43 30       		.byte	0x30
 3755 0a44 00       		.byte	0
 3756 0a45 00       		.byte	0
 3757 0a46 09       		.uleb128 0x9
 3758 0a47 BA040000 		.4byte	.LASF58
 3759 0a4b 01       		.byte	0x1
 3760 0a4c 8104     		.2byte	0x481
 3761 0a4e 00000000 		.4byte	.LFB52
 3762 0a52 5A000000 		.4byte	.LFE52-.LFB52
 3763 0a56 01       		.uleb128 0x1
 3764 0a57 9C       		.byte	0x9c
 3765 0a58 110B0000 		.4byte	0xb11
 3766 0a5c 0D       		.uleb128 0xd
 3767 0a5d 7800     		.ascii	"x\000"
 3768 0a5f 01       		.byte	0x1
 3769 0a60 8104     		.2byte	0x481
 3770 0a62 83000000 		.4byte	0x83
 3771 0a66 D3060000 		.4byte	.LLST40
 3772 0a6a 0D       		.uleb128 0xd
 3773 0a6b 7900     		.ascii	"y\000"
 3774 0a6d 01       		.byte	0x1
 3775 0a6e 8104     		.2byte	0x481
 3776 0a70 83000000 		.4byte	0x83
 3777 0a74 F2060000 		.4byte	.LLST41
 3778 0a78 11       		.uleb128 0x11
 3779 0a79 A4050000 		.4byte	.LASF59
 3780 0a7d 01       		.byte	0x1
 3781 0a7e 8104     		.2byte	0x481
 3782 0a80 110B0000 		.4byte	0xb11
 3783 0a84 13070000 		.4byte	.LLST42
 3784 0a88 11       		.uleb128 0x11
 3785 0a89 66020000 		.4byte	.LASF60
 3786 0a8d 01       		.byte	0x1
 3787 0a8e 8104     		.2byte	0x481
 3788 0a90 83000000 		.4byte	0x83
 3789 0a94 3F070000 		.4byte	.LLST43
 3790 0a98 1C       		.uleb128 0x1c
 3791 0a99 647800   		.ascii	"dx\000"
ARM GAS  C:\Users\JAMESS~1\AppData\Local\Temp\ccd7YNc7.s 			page 91


 3792 0a9c 01       		.byte	0x1
 3793 0a9d 8304     		.2byte	0x483
 3794 0a9f 83000000 		.4byte	0x83
 3795 0aa3 81070000 		.4byte	.LLST44
 3796 0aa7 1C       		.uleb128 0x1c
 3797 0aa8 647900   		.ascii	"dy\000"
 3798 0aab 01       		.byte	0x1
 3799 0aac 8304     		.2byte	0x483
 3800 0aae 83000000 		.4byte	0x83
 3801 0ab2 9F070000 		.4byte	.LLST45
 3802 0ab6 0E       		.uleb128 0xe
 3803 0ab7 32050000 		.4byte	.LASF61
 3804 0abb 01       		.byte	0x1
 3805 0abc 8404     		.2byte	0x484
 3806 0abe 83000000 		.4byte	0x83
 3807 0ac2 E1070000 		.4byte	.LLST46
 3808 0ac6 0E       		.uleb128 0xe
 3809 0ac7 8A020000 		.4byte	.LASF62
 3810 0acb 01       		.byte	0x1
 3811 0acc 8504     		.2byte	0x485
 3812 0ace 83000000 		.4byte	0x83
 3813 0ad2 22080000 		.4byte	.LLST47
 3814 0ad6 0E       		.uleb128 0xe
 3815 0ad7 32030000 		.4byte	.LASF63
 3816 0adb 01       		.byte	0x1
 3817 0adc 8504     		.2byte	0x485
 3818 0ade 83000000 		.4byte	0x83
 3819 0ae2 35080000 		.4byte	.LLST48
 3820 0ae6 12       		.uleb128 0x12
 3821 0ae7 2C000000 		.4byte	.LVL179
 3822 0aeb 03040000 		.4byte	0x403
 3823 0aef 010B0000 		.4byte	0xb01
 3824 0af3 13       		.uleb128 0x13
 3825 0af4 01       		.uleb128 0x1
 3826 0af5 50       		.byte	0x50
 3827 0af6 02       		.uleb128 0x2
 3828 0af7 74       		.byte	0x74
 3829 0af8 00       		.sleb128 0
 3830 0af9 13       		.uleb128 0x13
 3831 0afa 01       		.uleb128 0x1
 3832 0afb 51       		.byte	0x51
 3833 0afc 03       		.uleb128 0x3
 3834 0afd 7D       		.byte	0x7d
 3835 0afe 00       		.sleb128 0
 3836 0aff 06       		.byte	0x6
 3837 0b00 00       		.byte	0
 3838 0b01 15       		.uleb128 0x15
 3839 0b02 50000000 		.4byte	.LVL186
 3840 0b06 96010000 		.4byte	0x196
 3841 0b0a 13       		.uleb128 0x13
 3842 0b0b 01       		.uleb128 0x1
 3843 0b0c 50       		.byte	0x50
 3844 0b0d 01       		.uleb128 0x1
 3845 0b0e 31       		.byte	0x31
 3846 0b0f 00       		.byte	0
 3847 0b10 00       		.byte	0
 3848 0b11 06       		.uleb128 0x6
ARM GAS  C:\Users\JAMESS~1\AppData\Local\Temp\ccd7YNc7.s 			page 92


 3849 0b12 04       		.byte	0x4
 3850 0b13 6B000000 		.4byte	0x6b
 3851 0b17 09       		.uleb128 0x9
 3852 0b18 76020000 		.4byte	.LASF64
 3853 0b1c 01       		.byte	0x1
 3854 0b1d A504     		.2byte	0x4a5
 3855 0b1f 00000000 		.4byte	.LFB53
 3856 0b23 62000000 		.4byte	.LFE53-.LFB53
 3857 0b27 01       		.uleb128 0x1
 3858 0b28 9C       		.byte	0x9c
 3859 0b29 E20B0000 		.4byte	0xbe2
 3860 0b2d 0D       		.uleb128 0xd
 3861 0b2e 7800     		.ascii	"x\000"
 3862 0b30 01       		.byte	0x1
 3863 0b31 A504     		.2byte	0x4a5
 3864 0b33 83000000 		.4byte	0x83
 3865 0b37 48080000 		.4byte	.LLST49
 3866 0b3b 0D       		.uleb128 0xd
 3867 0b3c 7900     		.ascii	"y\000"
 3868 0b3e 01       		.byte	0x1
 3869 0b3f A504     		.2byte	0x4a5
 3870 0b41 83000000 		.4byte	0x83
 3871 0b45 67080000 		.4byte	.LLST50
 3872 0b49 11       		.uleb128 0x11
 3873 0b4a A4050000 		.4byte	.LASF59
 3874 0b4e 01       		.byte	0x1
 3875 0b4f A504     		.2byte	0x4a5
 3876 0b51 E20B0000 		.4byte	0xbe2
 3877 0b55 88080000 		.4byte	.LLST51
 3878 0b59 11       		.uleb128 0x11
 3879 0b5a 66020000 		.4byte	.LASF60
 3880 0b5e 01       		.byte	0x1
 3881 0b5f A504     		.2byte	0x4a5
 3882 0b61 83000000 		.4byte	0x83
 3883 0b65 B4080000 		.4byte	.LLST52
 3884 0b69 1C       		.uleb128 0x1c
 3885 0b6a 647800   		.ascii	"dx\000"
 3886 0b6d 01       		.byte	0x1
 3887 0b6e A704     		.2byte	0x4a7
 3888 0b70 83000000 		.4byte	0x83
 3889 0b74 F6080000 		.4byte	.LLST53
 3890 0b78 1C       		.uleb128 0x1c
 3891 0b79 647900   		.ascii	"dy\000"
 3892 0b7c 01       		.byte	0x1
 3893 0b7d A704     		.2byte	0x4a7
 3894 0b7f 83000000 		.4byte	0x83
 3895 0b83 14090000 		.4byte	.LLST54
 3896 0b87 0E       		.uleb128 0xe
 3897 0b88 32050000 		.4byte	.LASF61
 3898 0b8c 01       		.byte	0x1
 3899 0b8d A804     		.2byte	0x4a8
 3900 0b8f 83000000 		.4byte	0x83
 3901 0b93 56090000 		.4byte	.LLST55
 3902 0b97 0E       		.uleb128 0xe
 3903 0b98 8A020000 		.4byte	.LASF62
 3904 0b9c 01       		.byte	0x1
 3905 0b9d A904     		.2byte	0x4a9
ARM GAS  C:\Users\JAMESS~1\AppData\Local\Temp\ccd7YNc7.s 			page 93


 3906 0b9f 83000000 		.4byte	0x83
 3907 0ba3 97090000 		.4byte	.LLST56
 3908 0ba7 0E       		.uleb128 0xe
 3909 0ba8 32030000 		.4byte	.LASF63
 3910 0bac 01       		.byte	0x1
 3911 0bad A904     		.2byte	0x4a9
 3912 0baf 83000000 		.4byte	0x83
 3913 0bb3 AA090000 		.4byte	.LLST57
 3914 0bb7 12       		.uleb128 0x12
 3915 0bb8 34000000 		.4byte	.LVL199
 3916 0bbc 03040000 		.4byte	0x403
 3917 0bc0 D20B0000 		.4byte	0xbd2
 3918 0bc4 13       		.uleb128 0x13
 3919 0bc5 01       		.uleb128 0x1
 3920 0bc6 50       		.byte	0x50
 3921 0bc7 02       		.uleb128 0x2
 3922 0bc8 74       		.byte	0x74
 3923 0bc9 00       		.sleb128 0
 3924 0bca 13       		.uleb128 0x13
 3925 0bcb 01       		.uleb128 0x1
 3926 0bcc 51       		.byte	0x51
 3927 0bcd 03       		.uleb128 0x3
 3928 0bce 7D       		.byte	0x7d
 3929 0bcf 00       		.sleb128 0
 3930 0bd0 06       		.byte	0x6
 3931 0bd1 00       		.byte	0
 3932 0bd2 15       		.uleb128 0x15
 3933 0bd3 58000000 		.4byte	.LVL206
 3934 0bd7 96010000 		.4byte	0x196
 3935 0bdb 13       		.uleb128 0x13
 3936 0bdc 01       		.uleb128 0x1
 3937 0bdd 50       		.byte	0x50
 3938 0bde 01       		.uleb128 0x1
 3939 0bdf 31       		.byte	0x31
 3940 0be0 00       		.byte	0
 3941 0be1 00       		.byte	0
 3942 0be2 06       		.uleb128 0x6
 3943 0be3 04       		.byte	0x4
 3944 0be4 77000000 		.4byte	0x77
 3945 0be8 18       		.uleb128 0x18
 3946 0be9 C0050000 		.4byte	.LASF65
 3947 0bed 01       		.byte	0x1
 3948 0bee C604     		.2byte	0x4c6
 3949 0bf0 77000000 		.4byte	0x77
 3950 0bf4 00000000 		.4byte	.LFB54
 3951 0bf8 74000000 		.4byte	.LFE54-.LFB54
 3952 0bfc 01       		.uleb128 0x1
 3953 0bfd 9C       		.byte	0x9c
 3954 0bfe 430C0000 		.4byte	0xc43
 3955 0c02 11       		.uleb128 0x11
 3956 0c03 1E020000 		.4byte	.LASF66
 3957 0c07 01       		.byte	0x1
 3958 0c08 C604     		.2byte	0x4c6
 3959 0c0a 77000000 		.4byte	0x77
 3960 0c0e BD090000 		.4byte	.LLST58
 3961 0c12 11       		.uleb128 0x11
 3962 0c13 4E030000 		.4byte	.LASF67
ARM GAS  C:\Users\JAMESS~1\AppData\Local\Temp\ccd7YNc7.s 			page 94


 3963 0c17 01       		.byte	0x1
 3964 0c18 C604     		.2byte	0x4c6
 3965 0c1a 77000000 		.4byte	0x77
 3966 0c1e E9090000 		.4byte	.LLST59
 3967 0c22 0D       		.uleb128 0xd
 3968 0c23 70637400 		.ascii	"pct\000"
 3969 0c27 01       		.byte	0x1
 3970 0c28 C604     		.2byte	0x4c6
 3971 0c2a 77000000 		.4byte	0x77
 3972 0c2e 150A0000 		.4byte	.LLST60
 3973 0c32 0E       		.uleb128 0xe
 3974 0c33 9B050000 		.4byte	.LASF68
 3975 0c37 01       		.byte	0x1
 3976 0c38 C804     		.2byte	0x4c8
 3977 0c3a 77000000 		.4byte	0x77
 3978 0c3e 410A0000 		.4byte	.LLST61
 3979 0c42 00       		.byte	0
 3980 0c43 20       		.uleb128 0x20
 3981 0c44 4A0C0000 		.4byte	0xc4a
 3982 0c48 21       		.uleb128 0x21
 3983 0c49 00       		.byte	0
 3984 0c4a 22       		.uleb128 0x22
 3985 0c4b E1000000 		.4byte	.LASF69
 3986 0c4f 01       		.byte	0x1
 3987 0c50 19       		.byte	0x19
 3988 0c51 5B0C0000 		.4byte	0xc5b
 3989 0c55 05       		.uleb128 0x5
 3990 0c56 03       		.byte	0x3
 3991 0c57 00000000 		.4byte	StripLights_EnterCritical
 3992 0c5b 06       		.uleb128 0x6
 3993 0c5c 04       		.byte	0x4
 3994 0c5d 430C0000 		.4byte	0xc43
 3995 0c61 22       		.uleb128 0x22
 3996 0c62 6A040000 		.4byte	.LASF70
 3997 0c66 01       		.byte	0x1
 3998 0c67 1A       		.byte	0x1a
 3999 0c68 5B0C0000 		.4byte	0xc5b
 4000 0c6c 05       		.uleb128 0x5
 4001 0c6d 03       		.byte	0x3
 4002 0c6e 00000000 		.4byte	StripLights_ExitCritical
 4003 0c72 22       		.uleb128 0x22
 4004 0c73 F6010000 		.4byte	.LASF57
 4005 0c77 01       		.byte	0x1
 4006 0c78 1D       		.byte	0x1d
 4007 0c79 6B000000 		.4byte	0x6b
 4008 0c7d 05       		.uleb128 0x5
 4009 0c7e 03       		.byte	0x3
 4010 0c7f 00000000 		.4byte	StripLights_initvar
 4011 0c83 19       		.uleb128 0x19
 4012 0c84 77000000 		.4byte	0x77
 4013 0c88 990C0000 		.4byte	0xc99
 4014 0c8c 1A       		.uleb128 0x1a
 4015 0c8d C7000000 		.4byte	0xc7
 4016 0c91 00       		.byte	0
 4017 0c92 1A       		.uleb128 0x1a
 4018 0c93 C7000000 		.4byte	0xc7
 4019 0c97 4A       		.byte	0x4a
ARM GAS  C:\Users\JAMESS~1\AppData\Local\Temp\ccd7YNc7.s 			page 95


 4020 0c98 00       		.byte	0
 4021 0c99 22       		.uleb128 0x22
 4022 0c9a AD000000 		.4byte	.LASF71
 4023 0c9e 01       		.byte	0x1
 4024 0c9f 20       		.byte	0x20
 4025 0ca0 830C0000 		.4byte	0xc83
 4026 0ca4 05       		.uleb128 0x5
 4027 0ca5 03       		.byte	0x3
 4028 0ca6 00000000 		.4byte	StripLights_ledArray
 4029 0caa 22       		.uleb128 0x22
 4030 0cab B7030000 		.4byte	.LASF72
 4031 0caf 01       		.byte	0x1
 4032 0cb0 25       		.byte	0x25
 4033 0cb1 77000000 		.4byte	0x77
 4034 0cb5 05       		.uleb128 0x5
 4035 0cb6 03       		.byte	0x3
 4036 0cb7 00000000 		.4byte	StripLights_ledIndex
 4037 0cbb 22       		.uleb128 0x22
 4038 0cbc 83050000 		.4byte	.LASF73
 4039 0cc0 01       		.byte	0x1
 4040 0cc1 26       		.byte	0x26
 4041 0cc2 77000000 		.4byte	0x77
 4042 0cc6 05       		.uleb128 0x5
 4043 0cc7 03       		.byte	0x3
 4044 0cc8 00000000 		.4byte	StripLights_row
 4045 0ccc 23       		.uleb128 0x23
 4046 0ccd 9B030000 		.4byte	.LASF24
 4047 0cd1 01       		.byte	0x1
 4048 0cd2 8B02     		.2byte	0x28b
 4049 0cd4 77000000 		.4byte	0x77
 4050 0cd8 05       		.uleb128 0x5
 4051 0cd9 03       		.byte	0x3
 4052 0cda 00000000 		.4byte	StripLights_refreshComplete
 4053 0cde 23       		.uleb128 0x23
 4054 0cdf A0010000 		.4byte	.LASF19
 4055 0ce3 01       		.byte	0x1
 4056 0ce4 5004     		.2byte	0x450
 4057 0ce6 77000000 		.4byte	0x77
 4058 0cea 05       		.uleb128 0x5
 4059 0ceb 03       		.byte	0x3
 4060 0cec 00000000 		.4byte	StripLights_DimMask
 4061 0cf0 23       		.uleb128 0x23
 4062 0cf1 3A000000 		.4byte	.LASF20
 4063 0cf5 01       		.byte	0x1
 4064 0cf6 5104     		.2byte	0x451
 4065 0cf8 77000000 		.4byte	0x77
 4066 0cfc 05       		.uleb128 0x5
 4067 0cfd 03       		.byte	0x3
 4068 0cfe 00000000 		.4byte	StripLights_DimShift
 4069 0d02 19       		.uleb128 0x19
 4070 0d03 120D0000 		.4byte	0xd12
 4071 0d07 120D0000 		.4byte	0xd12
 4072 0d0b 1A       		.uleb128 0x1a
 4073 0d0c C7000000 		.4byte	0xc7
 4074 0d10 FF       		.byte	0xff
 4075 0d11 00       		.byte	0
 4076 0d12 1B       		.uleb128 0x1b
ARM GAS  C:\Users\JAMESS~1\AppData\Local\Temp\ccd7YNc7.s 			page 96


 4077 0d13 6B000000 		.4byte	0x6b
 4078 0d17 22       		.uleb128 0x22
 4079 0d18 FB000000 		.4byte	.LASF74
 4080 0d1c 01       		.byte	0x1
 4081 0d1d 2D       		.byte	0x2d
 4082 0d1e 280D0000 		.4byte	0xd28
 4083 0d22 05       		.uleb128 0x5
 4084 0d23 03       		.byte	0x3
 4085 0d24 00000000 		.4byte	StripLights_gamma
 4086 0d28 1B       		.uleb128 0x1b
 4087 0d29 020D0000 		.4byte	0xd02
 4088 0d2d 22       		.uleb128 0x22
 4089 0d2e 00000000 		.4byte	.LASF36
 4090 0d32 01       		.byte	0x1
 4091 0d33 57       		.byte	0x57
 4092 0d34 3E0D0000 		.4byte	0xd3e
 4093 0d38 05       		.uleb128 0x5
 4094 0d39 03       		.byte	0x3
 4095 0d3a 00000000 		.4byte	StripLights_CLUT
 4096 0d3e 1B       		.uleb128 0x1b
 4097 0d3f 32030000 		.4byte	0x332
 4098 0d43 24       		.uleb128 0x24
 4099 0d44 E3020000 		.4byte	.LASF75
 4100 0d48 E3020000 		.4byte	.LASF75
 4101 0d4c 04       		.byte	0x4
 4102 0d4d DA       		.byte	0xda
 4103 0d4e 24       		.uleb128 0x24
 4104 0d4f 5F000000 		.4byte	.LASF76
 4105 0d53 5F000000 		.4byte	.LASF76
 4106 0d57 05       		.byte	0x5
 4107 0d58 1B       		.byte	0x1b
 4108 0d59 24       		.uleb128 0x24
 4109 0d5a C2000000 		.4byte	.LASF77
 4110 0d5e C2000000 		.4byte	.LASF77
 4111 0d62 06       		.byte	0x6
 4112 0d63 18       		.byte	0x18
 4113 0d64 24       		.uleb128 0x24
 4114 0d65 95040000 		.4byte	.LASF78
 4115 0d69 95040000 		.4byte	.LASF78
 4116 0d6d 07       		.byte	0x7
 4117 0d6e 18       		.byte	0x18
 4118 0d6f 24       		.uleb128 0x24
 4119 0d70 56030000 		.4byte	.LASF79
 4120 0d74 56030000 		.4byte	.LASF79
 4121 0d78 06       		.byte	0x6
 4122 0d79 20       		.byte	0x20
 4123 0d7a 24       		.uleb128 0x24
 4124 0d7b 00050000 		.4byte	.LASF80
 4125 0d7f 00050000 		.4byte	.LASF80
 4126 0d83 07       		.byte	0x7
 4127 0d84 20       		.byte	0x20
 4128 0d85 00       		.byte	0
 4129              		.section	.debug_abbrev,"",%progbits
 4130              	.Ldebug_abbrev0:
 4131 0000 01       		.uleb128 0x1
 4132 0001 11       		.uleb128 0x11
 4133 0002 01       		.byte	0x1
ARM GAS  C:\Users\JAMESS~1\AppData\Local\Temp\ccd7YNc7.s 			page 97


 4134 0003 25       		.uleb128 0x25
 4135 0004 0E       		.uleb128 0xe
 4136 0005 13       		.uleb128 0x13
 4137 0006 0B       		.uleb128 0xb
 4138 0007 03       		.uleb128 0x3
 4139 0008 0E       		.uleb128 0xe
 4140 0009 1B       		.uleb128 0x1b
 4141 000a 0E       		.uleb128 0xe
 4142 000b 55       		.uleb128 0x55
 4143 000c 17       		.uleb128 0x17
 4144 000d 11       		.uleb128 0x11
 4145 000e 01       		.uleb128 0x1
 4146 000f 10       		.uleb128 0x10
 4147 0010 17       		.uleb128 0x17
 4148 0011 00       		.byte	0
 4149 0012 00       		.byte	0
 4150 0013 02       		.uleb128 0x2
 4151 0014 24       		.uleb128 0x24
 4152 0015 00       		.byte	0
 4153 0016 0B       		.uleb128 0xb
 4154 0017 0B       		.uleb128 0xb
 4155 0018 3E       		.uleb128 0x3e
 4156 0019 0B       		.uleb128 0xb
 4157 001a 03       		.uleb128 0x3
 4158 001b 0E       		.uleb128 0xe
 4159 001c 00       		.byte	0
 4160 001d 00       		.byte	0
 4161 001e 03       		.uleb128 0x3
 4162 001f 24       		.uleb128 0x24
 4163 0020 00       		.byte	0
 4164 0021 0B       		.uleb128 0xb
 4165 0022 0B       		.uleb128 0xb
 4166 0023 3E       		.uleb128 0x3e
 4167 0024 0B       		.uleb128 0xb
 4168 0025 03       		.uleb128 0x3
 4169 0026 08       		.uleb128 0x8
 4170 0027 00       		.byte	0
 4171 0028 00       		.byte	0
 4172 0029 04       		.uleb128 0x4
 4173 002a 16       		.uleb128 0x16
 4174 002b 00       		.byte	0
 4175 002c 03       		.uleb128 0x3
 4176 002d 0E       		.uleb128 0xe
 4177 002e 3A       		.uleb128 0x3a
 4178 002f 0B       		.uleb128 0xb
 4179 0030 3B       		.uleb128 0x3b
 4180 0031 05       		.uleb128 0x5
 4181 0032 49       		.uleb128 0x49
 4182 0033 13       		.uleb128 0x13
 4183 0034 00       		.byte	0
 4184 0035 00       		.byte	0
 4185 0036 05       		.uleb128 0x5
 4186 0037 35       		.uleb128 0x35
 4187 0038 00       		.byte	0
 4188 0039 49       		.uleb128 0x49
 4189 003a 13       		.uleb128 0x13
 4190 003b 00       		.byte	0
ARM GAS  C:\Users\JAMESS~1\AppData\Local\Temp\ccd7YNc7.s 			page 98


 4191 003c 00       		.byte	0
 4192 003d 06       		.uleb128 0x6
 4193 003e 0F       		.uleb128 0xf
 4194 003f 00       		.byte	0
 4195 0040 0B       		.uleb128 0xb
 4196 0041 0B       		.uleb128 0xb
 4197 0042 49       		.uleb128 0x49
 4198 0043 13       		.uleb128 0x13
 4199 0044 00       		.byte	0
 4200 0045 00       		.byte	0
 4201 0046 07       		.uleb128 0x7
 4202 0047 15       		.uleb128 0x15
 4203 0048 00       		.byte	0
 4204 0049 27       		.uleb128 0x27
 4205 004a 19       		.uleb128 0x19
 4206 004b 00       		.byte	0
 4207 004c 00       		.byte	0
 4208 004d 08       		.uleb128 0x8
 4209 004e 16       		.uleb128 0x16
 4210 004f 00       		.byte	0
 4211 0050 03       		.uleb128 0x3
 4212 0051 0E       		.uleb128 0xe
 4213 0052 3A       		.uleb128 0x3a
 4214 0053 0B       		.uleb128 0xb
 4215 0054 3B       		.uleb128 0x3b
 4216 0055 0B       		.uleb128 0xb
 4217 0056 49       		.uleb128 0x49
 4218 0057 13       		.uleb128 0x13
 4219 0058 00       		.byte	0
 4220 0059 00       		.byte	0
 4221 005a 09       		.uleb128 0x9
 4222 005b 2E       		.uleb128 0x2e
 4223 005c 01       		.byte	0x1
 4224 005d 3F       		.uleb128 0x3f
 4225 005e 19       		.uleb128 0x19
 4226 005f 03       		.uleb128 0x3
 4227 0060 0E       		.uleb128 0xe
 4228 0061 3A       		.uleb128 0x3a
 4229 0062 0B       		.uleb128 0xb
 4230 0063 3B       		.uleb128 0x3b
 4231 0064 05       		.uleb128 0x5
 4232 0065 27       		.uleb128 0x27
 4233 0066 19       		.uleb128 0x19
 4234 0067 11       		.uleb128 0x11
 4235 0068 01       		.uleb128 0x1
 4236 0069 12       		.uleb128 0x12
 4237 006a 06       		.uleb128 0x6
 4238 006b 40       		.uleb128 0x40
 4239 006c 18       		.uleb128 0x18
 4240 006d 9742     		.uleb128 0x2117
 4241 006f 19       		.uleb128 0x19
 4242 0070 01       		.uleb128 0x1
 4243 0071 13       		.uleb128 0x13
 4244 0072 00       		.byte	0
 4245 0073 00       		.byte	0
 4246 0074 0A       		.uleb128 0xa
 4247 0075 34       		.uleb128 0x34
ARM GAS  C:\Users\JAMESS~1\AppData\Local\Temp\ccd7YNc7.s 			page 99


 4248 0076 00       		.byte	0
 4249 0077 03       		.uleb128 0x3
 4250 0078 0E       		.uleb128 0xe
 4251 0079 3A       		.uleb128 0x3a
 4252 007a 0B       		.uleb128 0xb
 4253 007b 3B       		.uleb128 0x3b
 4254 007c 05       		.uleb128 0x5
 4255 007d 49       		.uleb128 0x49
 4256 007e 13       		.uleb128 0x13
 4257 007f 3F       		.uleb128 0x3f
 4258 0080 19       		.uleb128 0x19
 4259 0081 3C       		.uleb128 0x3c
 4260 0082 19       		.uleb128 0x19
 4261 0083 00       		.byte	0
 4262 0084 00       		.byte	0
 4263 0085 0B       		.uleb128 0xb
 4264 0086 34       		.uleb128 0x34
 4265 0087 00       		.byte	0
 4266 0088 03       		.uleb128 0x3
 4267 0089 0E       		.uleb128 0xe
 4268 008a 3A       		.uleb128 0x3a
 4269 008b 0B       		.uleb128 0xb
 4270 008c 3B       		.uleb128 0x3b
 4271 008d 05       		.uleb128 0x5
 4272 008e 49       		.uleb128 0x49
 4273 008f 13       		.uleb128 0x13
 4274 0090 02       		.uleb128 0x2
 4275 0091 18       		.uleb128 0x18
 4276 0092 00       		.byte	0
 4277 0093 00       		.byte	0
 4278 0094 0C       		.uleb128 0xc
 4279 0095 05       		.uleb128 0x5
 4280 0096 00       		.byte	0
 4281 0097 03       		.uleb128 0x3
 4282 0098 0E       		.uleb128 0xe
 4283 0099 3A       		.uleb128 0x3a
 4284 009a 0B       		.uleb128 0xb
 4285 009b 3B       		.uleb128 0x3b
 4286 009c 05       		.uleb128 0x5
 4287 009d 49       		.uleb128 0x49
 4288 009e 13       		.uleb128 0x13
 4289 009f 02       		.uleb128 0x2
 4290 00a0 18       		.uleb128 0x18
 4291 00a1 00       		.byte	0
 4292 00a2 00       		.byte	0
 4293 00a3 0D       		.uleb128 0xd
 4294 00a4 05       		.uleb128 0x5
 4295 00a5 00       		.byte	0
 4296 00a6 03       		.uleb128 0x3
 4297 00a7 08       		.uleb128 0x8
 4298 00a8 3A       		.uleb128 0x3a
 4299 00a9 0B       		.uleb128 0xb
 4300 00aa 3B       		.uleb128 0x3b
 4301 00ab 05       		.uleb128 0x5
 4302 00ac 49       		.uleb128 0x49
 4303 00ad 13       		.uleb128 0x13
 4304 00ae 02       		.uleb128 0x2
ARM GAS  C:\Users\JAMESS~1\AppData\Local\Temp\ccd7YNc7.s 			page 100


 4305 00af 17       		.uleb128 0x17
 4306 00b0 00       		.byte	0
 4307 00b1 00       		.byte	0
 4308 00b2 0E       		.uleb128 0xe
 4309 00b3 34       		.uleb128 0x34
 4310 00b4 00       		.byte	0
 4311 00b5 03       		.uleb128 0x3
 4312 00b6 0E       		.uleb128 0xe
 4313 00b7 3A       		.uleb128 0x3a
 4314 00b8 0B       		.uleb128 0xb
 4315 00b9 3B       		.uleb128 0x3b
 4316 00ba 05       		.uleb128 0x5
 4317 00bb 49       		.uleb128 0x49
 4318 00bc 13       		.uleb128 0x13
 4319 00bd 02       		.uleb128 0x2
 4320 00be 17       		.uleb128 0x17
 4321 00bf 00       		.byte	0
 4322 00c0 00       		.byte	0
 4323 00c1 0F       		.uleb128 0xf
 4324 00c2 2E       		.uleb128 0x2e
 4325 00c3 00       		.byte	0
 4326 00c4 3F       		.uleb128 0x3f
 4327 00c5 19       		.uleb128 0x19
 4328 00c6 03       		.uleb128 0x3
 4329 00c7 0E       		.uleb128 0xe
 4330 00c8 3A       		.uleb128 0x3a
 4331 00c9 0B       		.uleb128 0xb
 4332 00ca 3B       		.uleb128 0x3b
 4333 00cb 05       		.uleb128 0x5
 4334 00cc 27       		.uleb128 0x27
 4335 00cd 19       		.uleb128 0x19
 4336 00ce 49       		.uleb128 0x49
 4337 00cf 13       		.uleb128 0x13
 4338 00d0 11       		.uleb128 0x11
 4339 00d1 01       		.uleb128 0x1
 4340 00d2 12       		.uleb128 0x12
 4341 00d3 06       		.uleb128 0x6
 4342 00d4 40       		.uleb128 0x40
 4343 00d5 18       		.uleb128 0x18
 4344 00d6 9742     		.uleb128 0x2117
 4345 00d8 19       		.uleb128 0x19
 4346 00d9 00       		.byte	0
 4347 00da 00       		.byte	0
 4348 00db 10       		.uleb128 0x10
 4349 00dc 2E       		.uleb128 0x2e
 4350 00dd 01       		.byte	0x1
 4351 00de 3F       		.uleb128 0x3f
 4352 00df 19       		.uleb128 0x19
 4353 00e0 03       		.uleb128 0x3
 4354 00e1 0E       		.uleb128 0xe
 4355 00e2 3A       		.uleb128 0x3a
 4356 00e3 0B       		.uleb128 0xb
 4357 00e4 3B       		.uleb128 0x3b
 4358 00e5 05       		.uleb128 0x5
 4359 00e6 27       		.uleb128 0x27
 4360 00e7 19       		.uleb128 0x19
 4361 00e8 11       		.uleb128 0x11
ARM GAS  C:\Users\JAMESS~1\AppData\Local\Temp\ccd7YNc7.s 			page 101


 4362 00e9 01       		.uleb128 0x1
 4363 00ea 12       		.uleb128 0x12
 4364 00eb 06       		.uleb128 0x6
 4365 00ec 40       		.uleb128 0x40
 4366 00ed 18       		.uleb128 0x18
 4367 00ee 9642     		.uleb128 0x2116
 4368 00f0 19       		.uleb128 0x19
 4369 00f1 01       		.uleb128 0x1
 4370 00f2 13       		.uleb128 0x13
 4371 00f3 00       		.byte	0
 4372 00f4 00       		.byte	0
 4373 00f5 11       		.uleb128 0x11
 4374 00f6 05       		.uleb128 0x5
 4375 00f7 00       		.byte	0
 4376 00f8 03       		.uleb128 0x3
 4377 00f9 0E       		.uleb128 0xe
 4378 00fa 3A       		.uleb128 0x3a
 4379 00fb 0B       		.uleb128 0xb
 4380 00fc 3B       		.uleb128 0x3b
 4381 00fd 05       		.uleb128 0x5
 4382 00fe 49       		.uleb128 0x49
 4383 00ff 13       		.uleb128 0x13
 4384 0100 02       		.uleb128 0x2
 4385 0101 17       		.uleb128 0x17
 4386 0102 00       		.byte	0
 4387 0103 00       		.byte	0
 4388 0104 12       		.uleb128 0x12
 4389 0105 898201   		.uleb128 0x4109
 4390 0108 01       		.byte	0x1
 4391 0109 11       		.uleb128 0x11
 4392 010a 01       		.uleb128 0x1
 4393 010b 31       		.uleb128 0x31
 4394 010c 13       		.uleb128 0x13
 4395 010d 01       		.uleb128 0x1
 4396 010e 13       		.uleb128 0x13
 4397 010f 00       		.byte	0
 4398 0110 00       		.byte	0
 4399 0111 13       		.uleb128 0x13
 4400 0112 8A8201   		.uleb128 0x410a
 4401 0115 00       		.byte	0
 4402 0116 02       		.uleb128 0x2
 4403 0117 18       		.uleb128 0x18
 4404 0118 9142     		.uleb128 0x2111
 4405 011a 18       		.uleb128 0x18
 4406 011b 00       		.byte	0
 4407 011c 00       		.byte	0
 4408 011d 14       		.uleb128 0x14
 4409 011e 898201   		.uleb128 0x4109
 4410 0121 00       		.byte	0
 4411 0122 11       		.uleb128 0x11
 4412 0123 01       		.uleb128 0x1
 4413 0124 31       		.uleb128 0x31
 4414 0125 13       		.uleb128 0x13
 4415 0126 00       		.byte	0
 4416 0127 00       		.byte	0
 4417 0128 15       		.uleb128 0x15
 4418 0129 898201   		.uleb128 0x4109
ARM GAS  C:\Users\JAMESS~1\AppData\Local\Temp\ccd7YNc7.s 			page 102


 4419 012c 01       		.byte	0x1
 4420 012d 11       		.uleb128 0x11
 4421 012e 01       		.uleb128 0x1
 4422 012f 31       		.uleb128 0x31
 4423 0130 13       		.uleb128 0x13
 4424 0131 00       		.byte	0
 4425 0132 00       		.byte	0
 4426 0133 16       		.uleb128 0x16
 4427 0134 2E       		.uleb128 0x2e
 4428 0135 00       		.byte	0
 4429 0136 3F       		.uleb128 0x3f
 4430 0137 19       		.uleb128 0x19
 4431 0138 03       		.uleb128 0x3
 4432 0139 0E       		.uleb128 0xe
 4433 013a 3A       		.uleb128 0x3a
 4434 013b 0B       		.uleb128 0xb
 4435 013c 3B       		.uleb128 0x3b
 4436 013d 05       		.uleb128 0x5
 4437 013e 27       		.uleb128 0x27
 4438 013f 19       		.uleb128 0x19
 4439 0140 11       		.uleb128 0x11
 4440 0141 01       		.uleb128 0x1
 4441 0142 12       		.uleb128 0x12
 4442 0143 06       		.uleb128 0x6
 4443 0144 40       		.uleb128 0x40
 4444 0145 18       		.uleb128 0x18
 4445 0146 9742     		.uleb128 0x2117
 4446 0148 19       		.uleb128 0x19
 4447 0149 00       		.byte	0
 4448 014a 00       		.byte	0
 4449 014b 17       		.uleb128 0x17
 4450 014c 2E       		.uleb128 0x2e
 4451 014d 01       		.byte	0x1
 4452 014e 3F       		.uleb128 0x3f
 4453 014f 19       		.uleb128 0x19
 4454 0150 03       		.uleb128 0x3
 4455 0151 0E       		.uleb128 0xe
 4456 0152 3A       		.uleb128 0x3a
 4457 0153 0B       		.uleb128 0xb
 4458 0154 3B       		.uleb128 0x3b
 4459 0155 05       		.uleb128 0x5
 4460 0156 27       		.uleb128 0x27
 4461 0157 19       		.uleb128 0x19
 4462 0158 49       		.uleb128 0x49
 4463 0159 13       		.uleb128 0x13
 4464 015a 11       		.uleb128 0x11
 4465 015b 01       		.uleb128 0x1
 4466 015c 12       		.uleb128 0x12
 4467 015d 06       		.uleb128 0x6
 4468 015e 40       		.uleb128 0x40
 4469 015f 18       		.uleb128 0x18
 4470 0160 9742     		.uleb128 0x2117
 4471 0162 19       		.uleb128 0x19
 4472 0163 01       		.uleb128 0x1
 4473 0164 13       		.uleb128 0x13
 4474 0165 00       		.byte	0
 4475 0166 00       		.byte	0
ARM GAS  C:\Users\JAMESS~1\AppData\Local\Temp\ccd7YNc7.s 			page 103


 4476 0167 18       		.uleb128 0x18
 4477 0168 2E       		.uleb128 0x2e
 4478 0169 01       		.byte	0x1
 4479 016a 3F       		.uleb128 0x3f
 4480 016b 19       		.uleb128 0x19
 4481 016c 03       		.uleb128 0x3
 4482 016d 0E       		.uleb128 0xe
 4483 016e 3A       		.uleb128 0x3a
 4484 016f 0B       		.uleb128 0xb
 4485 0170 3B       		.uleb128 0x3b
 4486 0171 05       		.uleb128 0x5
 4487 0172 27       		.uleb128 0x27
 4488 0173 19       		.uleb128 0x19
 4489 0174 49       		.uleb128 0x49
 4490 0175 13       		.uleb128 0x13
 4491 0176 11       		.uleb128 0x11
 4492 0177 01       		.uleb128 0x1
 4493 0178 12       		.uleb128 0x12
 4494 0179 06       		.uleb128 0x6
 4495 017a 40       		.uleb128 0x40
 4496 017b 18       		.uleb128 0x18
 4497 017c 9642     		.uleb128 0x2116
 4498 017e 19       		.uleb128 0x19
 4499 017f 01       		.uleb128 0x1
 4500 0180 13       		.uleb128 0x13
 4501 0181 00       		.byte	0
 4502 0182 00       		.byte	0
 4503 0183 19       		.uleb128 0x19
 4504 0184 01       		.uleb128 0x1
 4505 0185 01       		.byte	0x1
 4506 0186 49       		.uleb128 0x49
 4507 0187 13       		.uleb128 0x13
 4508 0188 01       		.uleb128 0x1
 4509 0189 13       		.uleb128 0x13
 4510 018a 00       		.byte	0
 4511 018b 00       		.byte	0
 4512 018c 1A       		.uleb128 0x1a
 4513 018d 21       		.uleb128 0x21
 4514 018e 00       		.byte	0
 4515 018f 49       		.uleb128 0x49
 4516 0190 13       		.uleb128 0x13
 4517 0191 2F       		.uleb128 0x2f
 4518 0192 0B       		.uleb128 0xb
 4519 0193 00       		.byte	0
 4520 0194 00       		.byte	0
 4521 0195 1B       		.uleb128 0x1b
 4522 0196 26       		.uleb128 0x26
 4523 0197 00       		.byte	0
 4524 0198 49       		.uleb128 0x49
 4525 0199 13       		.uleb128 0x13
 4526 019a 00       		.byte	0
 4527 019b 00       		.byte	0
 4528 019c 1C       		.uleb128 0x1c
 4529 019d 34       		.uleb128 0x34
 4530 019e 00       		.byte	0
 4531 019f 03       		.uleb128 0x3
 4532 01a0 08       		.uleb128 0x8
ARM GAS  C:\Users\JAMESS~1\AppData\Local\Temp\ccd7YNc7.s 			page 104


 4533 01a1 3A       		.uleb128 0x3a
 4534 01a2 0B       		.uleb128 0xb
 4535 01a3 3B       		.uleb128 0x3b
 4536 01a4 05       		.uleb128 0x5
 4537 01a5 49       		.uleb128 0x49
 4538 01a6 13       		.uleb128 0x13
 4539 01a7 02       		.uleb128 0x2
 4540 01a8 17       		.uleb128 0x17
 4541 01a9 00       		.byte	0
 4542 01aa 00       		.byte	0
 4543 01ab 1D       		.uleb128 0x1d
 4544 01ac 0B       		.uleb128 0xb
 4545 01ad 01       		.byte	0x1
 4546 01ae 11       		.uleb128 0x11
 4547 01af 01       		.uleb128 0x1
 4548 01b0 12       		.uleb128 0x12
 4549 01b1 06       		.uleb128 0x6
 4550 01b2 01       		.uleb128 0x1
 4551 01b3 13       		.uleb128 0x13
 4552 01b4 00       		.byte	0
 4553 01b5 00       		.byte	0
 4554 01b6 1E       		.uleb128 0x1e
 4555 01b7 2E       		.uleb128 0x2e
 4556 01b8 01       		.byte	0x1
 4557 01b9 3F       		.uleb128 0x3f
 4558 01ba 19       		.uleb128 0x19
 4559 01bb 03       		.uleb128 0x3
 4560 01bc 0E       		.uleb128 0xe
 4561 01bd 3A       		.uleb128 0x3a
 4562 01be 0B       		.uleb128 0xb
 4563 01bf 3B       		.uleb128 0x3b
 4564 01c0 0B       		.uleb128 0xb
 4565 01c1 27       		.uleb128 0x27
 4566 01c2 19       		.uleb128 0x19
 4567 01c3 11       		.uleb128 0x11
 4568 01c4 01       		.uleb128 0x1
 4569 01c5 12       		.uleb128 0x12
 4570 01c6 06       		.uleb128 0x6
 4571 01c7 40       		.uleb128 0x40
 4572 01c8 18       		.uleb128 0x18
 4573 01c9 9742     		.uleb128 0x2117
 4574 01cb 19       		.uleb128 0x19
 4575 01cc 01       		.uleb128 0x1
 4576 01cd 13       		.uleb128 0x13
 4577 01ce 00       		.byte	0
 4578 01cf 00       		.byte	0
 4579 01d0 1F       		.uleb128 0x1f
 4580 01d1 34       		.uleb128 0x34
 4581 01d2 00       		.byte	0
 4582 01d3 03       		.uleb128 0x3
 4583 01d4 0E       		.uleb128 0xe
 4584 01d5 3A       		.uleb128 0x3a
 4585 01d6 0B       		.uleb128 0xb
 4586 01d7 3B       		.uleb128 0x3b
 4587 01d8 0B       		.uleb128 0xb
 4588 01d9 49       		.uleb128 0x49
 4589 01da 13       		.uleb128 0x13
ARM GAS  C:\Users\JAMESS~1\AppData\Local\Temp\ccd7YNc7.s 			page 105


 4590 01db 3F       		.uleb128 0x3f
 4591 01dc 19       		.uleb128 0x19
 4592 01dd 3C       		.uleb128 0x3c
 4593 01de 19       		.uleb128 0x19
 4594 01df 00       		.byte	0
 4595 01e0 00       		.byte	0
 4596 01e1 20       		.uleb128 0x20
 4597 01e2 15       		.uleb128 0x15
 4598 01e3 01       		.byte	0x1
 4599 01e4 01       		.uleb128 0x1
 4600 01e5 13       		.uleb128 0x13
 4601 01e6 00       		.byte	0
 4602 01e7 00       		.byte	0
 4603 01e8 21       		.uleb128 0x21
 4604 01e9 18       		.uleb128 0x18
 4605 01ea 00       		.byte	0
 4606 01eb 00       		.byte	0
 4607 01ec 00       		.byte	0
 4608 01ed 22       		.uleb128 0x22
 4609 01ee 34       		.uleb128 0x34
 4610 01ef 00       		.byte	0
 4611 01f0 03       		.uleb128 0x3
 4612 01f1 0E       		.uleb128 0xe
 4613 01f2 3A       		.uleb128 0x3a
 4614 01f3 0B       		.uleb128 0xb
 4615 01f4 3B       		.uleb128 0x3b
 4616 01f5 0B       		.uleb128 0xb
 4617 01f6 49       		.uleb128 0x49
 4618 01f7 13       		.uleb128 0x13
 4619 01f8 3F       		.uleb128 0x3f
 4620 01f9 19       		.uleb128 0x19
 4621 01fa 02       		.uleb128 0x2
 4622 01fb 18       		.uleb128 0x18
 4623 01fc 00       		.byte	0
 4624 01fd 00       		.byte	0
 4625 01fe 23       		.uleb128 0x23
 4626 01ff 34       		.uleb128 0x34
 4627 0200 00       		.byte	0
 4628 0201 03       		.uleb128 0x3
 4629 0202 0E       		.uleb128 0xe
 4630 0203 3A       		.uleb128 0x3a
 4631 0204 0B       		.uleb128 0xb
 4632 0205 3B       		.uleb128 0x3b
 4633 0206 05       		.uleb128 0x5
 4634 0207 49       		.uleb128 0x49
 4635 0208 13       		.uleb128 0x13
 4636 0209 3F       		.uleb128 0x3f
 4637 020a 19       		.uleb128 0x19
 4638 020b 02       		.uleb128 0x2
 4639 020c 18       		.uleb128 0x18
 4640 020d 00       		.byte	0
 4641 020e 00       		.byte	0
 4642 020f 24       		.uleb128 0x24
 4643 0210 2E       		.uleb128 0x2e
 4644 0211 00       		.byte	0
 4645 0212 3F       		.uleb128 0x3f
 4646 0213 19       		.uleb128 0x19
ARM GAS  C:\Users\JAMESS~1\AppData\Local\Temp\ccd7YNc7.s 			page 106


 4647 0214 3C       		.uleb128 0x3c
 4648 0215 19       		.uleb128 0x19
 4649 0216 6E       		.uleb128 0x6e
 4650 0217 0E       		.uleb128 0xe
 4651 0218 03       		.uleb128 0x3
 4652 0219 0E       		.uleb128 0xe
 4653 021a 3A       		.uleb128 0x3a
 4654 021b 0B       		.uleb128 0xb
 4655 021c 3B       		.uleb128 0x3b
 4656 021d 0B       		.uleb128 0xb
 4657 021e 00       		.byte	0
 4658 021f 00       		.byte	0
 4659 0220 00       		.byte	0
 4660              		.section	.debug_loc,"",%progbits
 4661              	.Ldebug_loc0:
 4662              	.LLST0:
 4663 0000 00000000 		.4byte	.LVL1
 4664 0004 2C000000 		.4byte	.LVL5
 4665 0008 0100     		.2byte	0x1
 4666 000a 50       		.byte	0x50
 4667 000b 2C000000 		.4byte	.LVL5
 4668 000f 80000000 		.4byte	.LFE36
 4669 0013 0400     		.2byte	0x4
 4670 0015 F3       		.byte	0xf3
 4671 0016 01       		.uleb128 0x1
 4672 0017 50       		.byte	0x50
 4673 0018 9F       		.byte	0x9f
 4674 0019 00000000 		.4byte	0
 4675 001d 00000000 		.4byte	0
 4676              	.LLST1:
 4677 0021 1E000000 		.4byte	.LVL2
 4678 0025 24000000 		.4byte	.LVL3
 4679 0029 0100     		.2byte	0x1
 4680 002b 53       		.byte	0x53
 4681 002c 24000000 		.4byte	.LVL3
 4682 0030 2A000000 		.4byte	.LVL4
 4683 0034 1000     		.2byte	0x10
 4684 0036 03       		.byte	0x3
 4685 0037 00000000 		.4byte	StripLights_row
 4686 003b 06       		.byte	0x6
 4687 003c 0A       		.byte	0xa
 4688 003d 2C01     		.2byte	0x12c
 4689 003f 1E       		.byte	0x1e
 4690 0040 03       		.byte	0x3
 4691 0041 00000000 		.4byte	StripLights_ledArray
 4692 0045 22       		.byte	0x22
 4693 0046 2A000000 		.4byte	.LVL4
 4694 004a 3A000000 		.4byte	.LVL6
 4695 004e 0100     		.2byte	0x1
 4696 0050 53       		.byte	0x53
 4697 0051 3A000000 		.4byte	.LVL6
 4698 0055 3C000000 		.4byte	.LVL7
 4699 0059 0100     		.2byte	0x1
 4700 005b 54       		.byte	0x54
 4701 005c 3C000000 		.4byte	.LVL7
 4702 0060 42000000 		.4byte	.LVL8
 4703 0064 0500     		.2byte	0x5
ARM GAS  C:\Users\JAMESS~1\AppData\Local\Temp\ccd7YNc7.s 			page 107


 4704 0066 73       		.byte	0x73
 4705 0067 00       		.sleb128 0
 4706 0068 38       		.byte	0x38
 4707 0069 25       		.byte	0x25
 4708 006a 9F       		.byte	0x9f
 4709 006b 42000000 		.4byte	.LVL8
 4710 006f 44000000 		.4byte	.LVL9
 4711 0073 0100     		.2byte	0x1
 4712 0075 53       		.byte	0x53
 4713 0076 00000000 		.4byte	0
 4714 007a 00000000 		.4byte	0
 4715              	.LLST2:
 4716 007e 00000000 		.4byte	.LVL10
 4717 0082 0D000000 		.4byte	.LVL12-1
 4718 0086 0100     		.2byte	0x1
 4719 0088 50       		.byte	0x50
 4720 0089 0D000000 		.4byte	.LVL12-1
 4721 008d 4E000000 		.4byte	.LVL22
 4722 0091 0100     		.2byte	0x1
 4723 0093 55       		.byte	0x55
 4724 0094 4E000000 		.4byte	.LVL22
 4725 0098 54000000 		.4byte	.LFE34
 4726 009c 0400     		.2byte	0x4
 4727 009e F3       		.byte	0xf3
 4728 009f 01       		.uleb128 0x1
 4729 00a0 50       		.byte	0x50
 4730 00a1 9F       		.byte	0x9f
 4731 00a2 00000000 		.4byte	0
 4732 00a6 00000000 		.4byte	0
 4733              	.LLST3:
 4734 00aa 04000000 		.4byte	.LVL11
 4735 00ae 18000000 		.4byte	.LVL14
 4736 00b2 0200     		.2byte	0x2
 4737 00b4 30       		.byte	0x30
 4738 00b5 9F       		.byte	0x9f
 4739 00b6 18000000 		.4byte	.LVL14
 4740 00ba 4E000000 		.4byte	.LVL21
 4741 00be 0100     		.2byte	0x1
 4742 00c0 54       		.byte	0x54
 4743 00c1 00000000 		.4byte	0
 4744 00c5 00000000 		.4byte	0
 4745              	.LLST4:
 4746 00c9 00000000 		.4byte	.LVL23
 4747 00cd 0D000000 		.4byte	.LVL24-1
 4748 00d1 0100     		.2byte	0x1
 4749 00d3 50       		.byte	0x50
 4750 00d4 0D000000 		.4byte	.LVL24-1
 4751 00d8 26000000 		.4byte	.LVL28
 4752 00dc 0100     		.2byte	0x1
 4753 00de 54       		.byte	0x54
 4754 00df 26000000 		.4byte	.LVL28
 4755 00e3 2C000000 		.4byte	.LFE35
 4756 00e7 0400     		.2byte	0x4
 4757 00e9 F3       		.byte	0xf3
 4758 00ea 01       		.uleb128 0x1
 4759 00eb 50       		.byte	0x50
 4760 00ec 9F       		.byte	0x9f
ARM GAS  C:\Users\JAMESS~1\AppData\Local\Temp\ccd7YNc7.s 			page 108


 4761 00ed 00000000 		.4byte	0
 4762 00f1 00000000 		.4byte	0
 4763              	.LLST5:
 4764 00f5 00000000 		.4byte	.LVL29
 4765 00f9 02000000 		.4byte	.LVL30
 4766 00fd 0100     		.2byte	0x1
 4767 00ff 50       		.byte	0x50
 4768 0100 02000000 		.4byte	.LVL30
 4769 0104 06000000 		.4byte	.LVL31
 4770 0108 0400     		.2byte	0x4
 4771 010a F3       		.byte	0xf3
 4772 010b 01       		.uleb128 0x1
 4773 010c 50       		.byte	0x50
 4774 010d 9F       		.byte	0x9f
 4775 010e 06000000 		.4byte	.LVL31
 4776 0112 0C000000 		.4byte	.LFE39
 4777 0116 0100     		.2byte	0x1
 4778 0118 50       		.byte	0x50
 4779 0119 00000000 		.4byte	0
 4780 011d 00000000 		.4byte	0
 4781              	.LLST6:
 4782 0121 00000000 		.4byte	.LVL32
 4783 0125 0A000000 		.4byte	.LVL33
 4784 0129 0100     		.2byte	0x1
 4785 012b 50       		.byte	0x50
 4786 012c 0A000000 		.4byte	.LVL33
 4787 0130 24000000 		.4byte	.LFE40
 4788 0134 0400     		.2byte	0x4
 4789 0136 F3       		.byte	0xf3
 4790 0137 01       		.uleb128 0x1
 4791 0138 50       		.byte	0x50
 4792 0139 9F       		.byte	0x9f
 4793 013a 00000000 		.4byte	0
 4794 013e 00000000 		.4byte	0
 4795              	.LLST7:
 4796 0142 02000000 		.4byte	.LVL37
 4797 0146 06000000 		.4byte	.LVL38
 4798 014a 0200     		.2byte	0x2
 4799 014c 30       		.byte	0x30
 4800 014d 9F       		.byte	0x9f
 4801 014e 06000000 		.4byte	.LVL38
 4802 0152 26000000 		.4byte	.LVL43
 4803 0156 0100     		.2byte	0x1
 4804 0158 54       		.byte	0x54
 4805 0159 00000000 		.4byte	0
 4806 015d 00000000 		.4byte	0
 4807              	.LLST8:
 4808 0161 06000000 		.4byte	.LVL38
 4809 0165 1A000000 		.4byte	.LVL40
 4810 0169 0100     		.2byte	0x1
 4811 016b 51       		.byte	0x51
 4812 016c 1C000000 		.4byte	.LVL41
 4813 0170 22000000 		.4byte	.LVL42
 4814 0174 0100     		.2byte	0x1
 4815 0176 51       		.byte	0x51
 4816 0177 00000000 		.4byte	0
 4817 017b 00000000 		.4byte	0
ARM GAS  C:\Users\JAMESS~1\AppData\Local\Temp\ccd7YNc7.s 			page 109


 4818              	.LLST9:
 4819 017f 00000000 		.4byte	.LVL44
 4820 0183 05000000 		.4byte	.LVL45-1
 4821 0187 0100     		.2byte	0x1
 4822 0189 50       		.byte	0x50
 4823 018a 05000000 		.4byte	.LVL45-1
 4824 018e 0E000000 		.4byte	.LFE43
 4825 0192 0400     		.2byte	0x4
 4826 0194 F3       		.byte	0xf3
 4827 0195 01       		.uleb128 0x1
 4828 0196 50       		.byte	0x50
 4829 0197 9F       		.byte	0x9f
 4830 0198 00000000 		.4byte	0
 4831 019c 00000000 		.4byte	0
 4832              	.LLST10:
 4833 01a0 00000000 		.4byte	.LVL47
 4834 01a4 10000000 		.4byte	.LVL48
 4835 01a8 0100     		.2byte	0x1
 4836 01aa 50       		.byte	0x50
 4837 01ab 10000000 		.4byte	.LVL48
 4838 01af 12000000 		.4byte	.LVL49
 4839 01b3 0100     		.2byte	0x1
 4840 01b5 52       		.byte	0x52
 4841 01b6 12000000 		.4byte	.LVL49
 4842 01ba 16000000 		.4byte	.LVL50
 4843 01be 0500     		.2byte	0x5
 4844 01c0 70       		.byte	0x70
 4845 01c1 00       		.sleb128 0
 4846 01c2 38       		.byte	0x38
 4847 01c3 25       		.byte	0x25
 4848 01c4 9F       		.byte	0x9f
 4849 01c5 16000000 		.4byte	.LVL50
 4850 01c9 18000000 		.4byte	.LVL51
 4851 01cd 0100     		.2byte	0x1
 4852 01cf 50       		.byte	0x50
 4853 01d0 18000000 		.4byte	.LVL51
 4854 01d4 24000000 		.4byte	.LFE45
 4855 01d8 0600     		.2byte	0x6
 4856 01da F3       		.byte	0xf3
 4857 01db 01       		.uleb128 0x1
 4858 01dc 50       		.byte	0x50
 4859 01dd 40       		.byte	0x40
 4860 01de 25       		.byte	0x25
 4861 01df 9F       		.byte	0x9f
 4862 01e0 00000000 		.4byte	0
 4863 01e4 00000000 		.4byte	0
 4864              	.LLST11:
 4865 01e8 00000000 		.4byte	.LVL52
 4866 01ec 16000000 		.4byte	.LVL54
 4867 01f0 0100     		.2byte	0x1
 4868 01f2 50       		.byte	0x50
 4869 01f3 16000000 		.4byte	.LVL54
 4870 01f7 18000000 		.4byte	.LVL55
 4871 01fb 0100     		.2byte	0x1
 4872 01fd 50       		.byte	0x50
 4873 01fe 18000000 		.4byte	.LVL55
 4874 0202 1C000000 		.4byte	.LVL56
ARM GAS  C:\Users\JAMESS~1\AppData\Local\Temp\ccd7YNc7.s 			page 110


 4875 0206 0700     		.2byte	0x7
 4876 0208 F3       		.byte	0xf3
 4877 0209 01       		.uleb128 0x1
 4878 020a 50       		.byte	0x50
 4879 020b 71       		.byte	0x71
 4880 020c 00       		.sleb128 0
 4881 020d 22       		.byte	0x22
 4882 020e 9F       		.byte	0x9f
 4883 020f 00000000 		.4byte	0
 4884 0213 00000000 		.4byte	0
 4885              	.LLST12:
 4886 0217 00000000 		.4byte	.LVL52
 4887 021b 14000000 		.4byte	.LVL53
 4888 021f 0100     		.2byte	0x1
 4889 0221 51       		.byte	0x51
 4890 0222 14000000 		.4byte	.LVL53
 4891 0226 16000000 		.4byte	.LVL54
 4892 022a 0400     		.2byte	0x4
 4893 022c F3       		.byte	0xf3
 4894 022d 01       		.uleb128 0x1
 4895 022e 51       		.byte	0x51
 4896 022f 9F       		.byte	0x9f
 4897 0230 16000000 		.4byte	.LVL54
 4898 0234 1C000000 		.4byte	.LVL56
 4899 0238 0200     		.2byte	0x2
 4900 023a 30       		.byte	0x30
 4901 023b 9F       		.byte	0x9f
 4902 023c 00000000 		.4byte	0
 4903 0240 00000000 		.4byte	0
 4904              	.LLST13:
 4905 0244 00000000 		.4byte	.LVL57
 4906 0248 16000000 		.4byte	.LVL59
 4907 024c 0100     		.2byte	0x1
 4908 024e 50       		.byte	0x50
 4909 024f 16000000 		.4byte	.LVL59
 4910 0253 18000000 		.4byte	.LVL60
 4911 0257 0100     		.2byte	0x1
 4912 0259 50       		.byte	0x50
 4913 025a 18000000 		.4byte	.LVL60
 4914 025e 1E000000 		.4byte	.LVL62
 4915 0262 0700     		.2byte	0x7
 4916 0264 F3       		.byte	0xf3
 4917 0265 01       		.uleb128 0x1
 4918 0266 50       		.byte	0x50
 4919 0267 71       		.byte	0x71
 4920 0268 00       		.sleb128 0
 4921 0269 22       		.byte	0x22
 4922 026a 9F       		.byte	0x9f
 4923 026b 1E000000 		.4byte	.LVL62
 4924 026f 20000000 		.4byte	.LVL63
 4925 0273 0100     		.2byte	0x1
 4926 0275 50       		.byte	0x50
 4927 0276 20000000 		.4byte	.LVL63
 4928 027a 22000000 		.4byte	.LVL64
 4929 027e 0400     		.2byte	0x4
 4930 0280 F3       		.byte	0xf3
 4931 0281 01       		.uleb128 0x1
ARM GAS  C:\Users\JAMESS~1\AppData\Local\Temp\ccd7YNc7.s 			page 111


 4932 0282 50       		.byte	0x50
 4933 0283 9F       		.byte	0x9f
 4934 0284 22000000 		.4byte	.LVL64
 4935 0288 24000000 		.4byte	.LVL65
 4936 028c 0100     		.2byte	0x1
 4937 028e 50       		.byte	0x50
 4938 028f 24000000 		.4byte	.LVL65
 4939 0293 26000000 		.4byte	.LVL66
 4940 0297 0400     		.2byte	0x4
 4941 0299 F3       		.byte	0xf3
 4942 029a 01       		.uleb128 0x1
 4943 029b 50       		.byte	0x50
 4944 029c 9F       		.byte	0x9f
 4945 029d 26000000 		.4byte	.LVL66
 4946 02a1 28000000 		.4byte	.LVL67
 4947 02a5 0100     		.2byte	0x1
 4948 02a7 50       		.byte	0x50
 4949 02a8 28000000 		.4byte	.LVL67
 4950 02ac 2A000000 		.4byte	.LVL68
 4951 02b0 0400     		.2byte	0x4
 4952 02b2 F3       		.byte	0xf3
 4953 02b3 01       		.uleb128 0x1
 4954 02b4 50       		.byte	0x50
 4955 02b5 9F       		.byte	0x9f
 4956 02b6 2A000000 		.4byte	.LVL68
 4957 02ba 2C000000 		.4byte	.LVL69
 4958 02be 0100     		.2byte	0x1
 4959 02c0 50       		.byte	0x50
 4960 02c1 00000000 		.4byte	0
 4961 02c5 00000000 		.4byte	0
 4962              	.LLST14:
 4963 02c9 00000000 		.4byte	.LVL57
 4964 02cd 14000000 		.4byte	.LVL58
 4965 02d1 0100     		.2byte	0x1
 4966 02d3 51       		.byte	0x51
 4967 02d4 14000000 		.4byte	.LVL58
 4968 02d8 16000000 		.4byte	.LVL59
 4969 02dc 0400     		.2byte	0x4
 4970 02de F3       		.byte	0xf3
 4971 02df 01       		.uleb128 0x1
 4972 02e0 51       		.byte	0x51
 4973 02e1 9F       		.byte	0x9f
 4974 02e2 16000000 		.4byte	.LVL59
 4975 02e6 1E000000 		.4byte	.LVL62
 4976 02ea 0200     		.2byte	0x2
 4977 02ec 30       		.byte	0x30
 4978 02ed 9F       		.byte	0x9f
 4979 02ee 1E000000 		.4byte	.LVL62
 4980 02f2 2C000000 		.4byte	.LVL69
 4981 02f6 0100     		.2byte	0x1
 4982 02f8 51       		.byte	0x51
 4983 02f9 00000000 		.4byte	0
 4984 02fd 00000000 		.4byte	0
 4985              	.LLST15:
 4986 0301 00000000 		.4byte	.LVL57
 4987 0305 1C000000 		.4byte	.LVL61
 4988 0309 0200     		.2byte	0x2
ARM GAS  C:\Users\JAMESS~1\AppData\Local\Temp\ccd7YNc7.s 			page 112


 4989 030b 30       		.byte	0x30
 4990 030c 9F       		.byte	0x9f
 4991 030d 1C000000 		.4byte	.LVL61
 4992 0311 1E000000 		.4byte	.LVL62
 4993 0315 0100     		.2byte	0x1
 4994 0317 50       		.byte	0x50
 4995 0318 1E000000 		.4byte	.LVL62
 4996 031c 2C000000 		.4byte	.LVL69
 4997 0320 0200     		.2byte	0x2
 4998 0322 30       		.byte	0x30
 4999 0323 9F       		.byte	0x9f
 5000 0324 2C000000 		.4byte	.LVL69
 5001 0328 34000000 		.4byte	.LFE47
 5002 032c 0100     		.2byte	0x1
 5003 032e 50       		.byte	0x50
 5004 032f 00000000 		.4byte	0
 5005 0333 00000000 		.4byte	0
 5006              	.LLST16:
 5007 0337 00000000 		.4byte	.LVL70
 5008 033b 2D000000 		.4byte	.LVL78-1
 5009 033f 0100     		.2byte	0x1
 5010 0341 50       		.byte	0x50
 5011 0342 2D000000 		.4byte	.LVL78-1
 5012 0346 F0000000 		.4byte	.LVL106
 5013 034a 0100     		.2byte	0x1
 5014 034c 5B       		.byte	0x5b
 5015 034d F0000000 		.4byte	.LVL106
 5016 0351 FC000000 		.4byte	.LFE48
 5017 0355 0400     		.2byte	0x4
 5018 0357 F3       		.byte	0xf3
 5019 0358 01       		.uleb128 0x1
 5020 0359 50       		.byte	0x50
 5021 035a 9F       		.byte	0x9f
 5022 035b 00000000 		.4byte	0
 5023 035f 00000000 		.4byte	0
 5024              	.LLST17:
 5025 0363 00000000 		.4byte	.LVL70
 5026 0367 28000000 		.4byte	.LVL76
 5027 036b 0100     		.2byte	0x1
 5028 036d 51       		.byte	0x51
 5029 036e 28000000 		.4byte	.LVL76
 5030 0372 F0000000 		.4byte	.LVL103
 5031 0376 0100     		.2byte	0x1
 5032 0378 58       		.byte	0x58
 5033 0379 F0000000 		.4byte	.LVL103
 5034 037d FC000000 		.4byte	.LFE48
 5035 0381 0400     		.2byte	0x4
 5036 0383 F3       		.byte	0xf3
 5037 0384 01       		.uleb128 0x1
 5038 0385 51       		.byte	0x51
 5039 0386 9F       		.byte	0x9f
 5040 0387 00000000 		.4byte	0
 5041 038b 00000000 		.4byte	0
 5042              	.LLST18:
 5043 038f 00000000 		.4byte	.LVL70
 5044 0393 24000000 		.4byte	.LVL74
 5045 0397 0100     		.2byte	0x1
ARM GAS  C:\Users\JAMESS~1\AppData\Local\Temp\ccd7YNc7.s 			page 113


 5046 0399 52       		.byte	0x52
 5047 039a 24000000 		.4byte	.LVL74
 5048 039e 58000000 		.4byte	.LVL82
 5049 03a2 0100     		.2byte	0x1
 5050 03a4 54       		.byte	0x54
 5051 03a5 58000000 		.4byte	.LVL82
 5052 03a9 FC000000 		.4byte	.LFE48
 5053 03ad 0400     		.2byte	0x4
 5054 03af F3       		.byte	0xf3
 5055 03b0 01       		.uleb128 0x1
 5056 03b1 52       		.byte	0x52
 5057 03b2 9F       		.byte	0x9f
 5058 03b3 00000000 		.4byte	0
 5059 03b7 00000000 		.4byte	0
 5060              	.LLST19:
 5061 03bb 00000000 		.4byte	.LVL70
 5062 03bf 1A000000 		.4byte	.LVL71
 5063 03c3 0100     		.2byte	0x1
 5064 03c5 53       		.byte	0x53
 5065 03c6 1A000000 		.4byte	.LVL71
 5066 03ca 58000000 		.4byte	.LVL82
 5067 03ce 0100     		.2byte	0x1
 5068 03d0 55       		.byte	0x55
 5069 03d1 58000000 		.4byte	.LVL82
 5070 03d5 FC000000 		.4byte	.LFE48
 5071 03d9 0200     		.2byte	0x2
 5072 03db 91       		.byte	0x91
 5073 03dc 4C       		.sleb128 -52
 5074 03dd 00000000 		.4byte	0
 5075 03e1 00000000 		.4byte	0
 5076              	.LLST20:
 5077 03e5 1E000000 		.4byte	.LVL72
 5078 03e9 20000000 		.4byte	.LVL73
 5079 03ed 0100     		.2byte	0x1
 5080 03ef 53       		.byte	0x53
 5081 03f0 20000000 		.4byte	.LVL73
 5082 03f4 5E000000 		.4byte	.LVL83
 5083 03f8 0100     		.2byte	0x1
 5084 03fa 59       		.byte	0x59
 5085 03fb 5E000000 		.4byte	.LVL83
 5086 03ff 62000000 		.4byte	.LVL85
 5087 0403 0100     		.2byte	0x1
 5088 0405 52       		.byte	0x52
 5089 0406 62000000 		.4byte	.LVL85
 5090 040a F0000000 		.4byte	.LVL104
 5091 040e 0100     		.2byte	0x1
 5092 0410 59       		.byte	0x59
 5093 0411 00000000 		.4byte	0
 5094 0415 00000000 		.4byte	0
 5095              	.LLST21:
 5096 0419 1E000000 		.4byte	.LVL72
 5097 041d 58000000 		.4byte	.LVL82
 5098 0421 0200     		.2byte	0x2
 5099 0423 30       		.byte	0x30
 5100 0424 9F       		.byte	0x9f
 5101 0425 58000000 		.4byte	.LVL82
 5102 0429 6E000000 		.4byte	.LVL89
ARM GAS  C:\Users\JAMESS~1\AppData\Local\Temp\ccd7YNc7.s 			page 114


 5103 042d 0100     		.2byte	0x1
 5104 042f 53       		.byte	0x53
 5105 0430 6E000000 		.4byte	.LVL89
 5106 0434 7C000000 		.4byte	.LVL91
 5107 0438 0100     		.2byte	0x1
 5108 043a 52       		.byte	0x52
 5109 043b 7C000000 		.4byte	.LVL91
 5110 043f EA000000 		.4byte	.LVL100
 5111 0443 0200     		.2byte	0x2
 5112 0445 91       		.byte	0x91
 5113 0446 50       		.sleb128 -48
 5114 0447 EA000000 		.4byte	.LVL100
 5115 044b FC000000 		.4byte	.LFE48
 5116 044f 0100     		.2byte	0x1
 5117 0451 53       		.byte	0x53
 5118 0452 00000000 		.4byte	0
 5119 0456 00000000 		.4byte	0
 5120              	.LLST22:
 5121 045a 26000000 		.4byte	.LVL75
 5122 045e 2A000000 		.4byte	.LVL77
 5123 0462 0100     		.2byte	0x1
 5124 0464 52       		.byte	0x52
 5125 0465 2A000000 		.4byte	.LVL77
 5126 0469 F0000000 		.4byte	.LVL105
 5127 046d 0100     		.2byte	0x1
 5128 046f 5A       		.byte	0x5a
 5129 0470 00000000 		.4byte	0
 5130 0474 00000000 		.4byte	0
 5131              	.LLST23:
 5132 0478 26000000 		.4byte	.LVL75
 5133 047c 58000000 		.4byte	.LVL82
 5134 0480 0200     		.2byte	0x2
 5135 0482 30       		.byte	0x30
 5136 0483 9F       		.byte	0x9f
 5137 0484 58000000 		.4byte	.LVL82
 5138 0488 F0000000 		.4byte	.LVL102
 5139 048c 0100     		.2byte	0x1
 5140 048e 56       		.byte	0x56
 5141 048f 00000000 		.4byte	0
 5142 0493 00000000 		.4byte	0
 5143              	.LLST24:
 5144 0497 26000000 		.4byte	.LVL75
 5145 049b F0000000 		.4byte	.LVL101
 5146 049f 0100     		.2byte	0x1
 5147 04a1 54       		.byte	0x54
 5148 04a2 00000000 		.4byte	0
 5149 04a6 00000000 		.4byte	0
 5150              	.LLST25:
 5151 04aa 00000000 		.4byte	.LVL107
 5152 04ae 4A000000 		.4byte	.LVL122
 5153 04b2 0100     		.2byte	0x1
 5154 04b4 50       		.byte	0x50
 5155 04b5 4A000000 		.4byte	.LVL122
 5156 04b9 9E000000 		.4byte	.LVL138
 5157 04bd 0100     		.2byte	0x1
 5158 04bf 54       		.byte	0x54
 5159 04c0 00000000 		.4byte	0
ARM GAS  C:\Users\JAMESS~1\AppData\Local\Temp\ccd7YNc7.s 			page 115


 5160 04c4 00000000 		.4byte	0
 5161              	.LLST26:
 5162 04c8 00000000 		.4byte	.LVL107
 5163 04cc 48000000 		.4byte	.LVL121
 5164 04d0 0100     		.2byte	0x1
 5165 04d2 51       		.byte	0x51
 5166 04d3 48000000 		.4byte	.LVL121
 5167 04d7 9E000000 		.4byte	.LVL139
 5168 04db 0100     		.2byte	0x1
 5169 04dd 55       		.byte	0x55
 5170 04de 00000000 		.4byte	0
 5171 04e2 00000000 		.4byte	0
 5172              	.LLST27:
 5173 04e6 00000000 		.4byte	.LVL107
 5174 04ea 22000000 		.4byte	.LVL111
 5175 04ee 0100     		.2byte	0x1
 5176 04f0 52       		.byte	0x52
 5177 04f1 22000000 		.4byte	.LVL111
 5178 04f5 28000000 		.4byte	.LVL112
 5179 04f9 0200     		.2byte	0x2
 5180 04fb 91       		.byte	0x91
 5181 04fc 54       		.sleb128 -44
 5182 04fd 28000000 		.4byte	.LVL112
 5183 0501 2A000000 		.4byte	.LVL113
 5184 0505 0100     		.2byte	0x1
 5185 0507 52       		.byte	0x52
 5186 0508 2A000000 		.4byte	.LVL113
 5187 050c AA000000 		.4byte	.LFE49
 5188 0510 0200     		.2byte	0x2
 5189 0512 91       		.byte	0x91
 5190 0513 54       		.sleb128 -44
 5191 0514 00000000 		.4byte	0
 5192 0518 00000000 		.4byte	0
 5193              	.LLST28:
 5194 051c 00000000 		.4byte	.LVL107
 5195 0520 18000000 		.4byte	.LVL108
 5196 0524 0100     		.2byte	0x1
 5197 0526 53       		.byte	0x53
 5198 0527 18000000 		.4byte	.LVL108
 5199 052b 9E000000 		.4byte	.LVL144
 5200 052f 0100     		.2byte	0x1
 5201 0531 5B       		.byte	0x5b
 5202 0532 9E000000 		.4byte	.LVL144
 5203 0536 AA000000 		.4byte	.LFE49
 5204 053a 0400     		.2byte	0x4
 5205 053c F3       		.byte	0xf3
 5206 053d 01       		.uleb128 0x1
 5207 053e 53       		.byte	0x53
 5208 053f 9F       		.byte	0x9f
 5209 0540 00000000 		.4byte	0
 5210 0544 00000000 		.4byte	0
 5211              	.LLST29:
 5212 0548 18000000 		.4byte	.LVL108
 5213 054c 40000000 		.4byte	.LVL118
 5214 0550 0100     		.2byte	0x1
 5215 0552 53       		.byte	0x53
 5216 0553 42000000 		.4byte	.LVL119
ARM GAS  C:\Users\JAMESS~1\AppData\Local\Temp\ccd7YNc7.s 			page 116


 5217 0557 4D000000 		.4byte	.LVL123-1
 5218 055b 0100     		.2byte	0x1
 5219 055d 53       		.byte	0x53
 5220 055e 4D000000 		.4byte	.LVL123-1
 5221 0562 9E000000 		.4byte	.LVL141
 5222 0566 0100     		.2byte	0x1
 5223 0568 58       		.byte	0x58
 5224 0569 00000000 		.4byte	0
 5225 056d 00000000 		.4byte	0
 5226              	.LLST30:
 5227 0571 1A000000 		.4byte	.LVL109
 5228 0575 9E000000 		.4byte	.LVL140
 5229 0579 0100     		.2byte	0x1
 5230 057b 57       		.byte	0x57
 5231 057c 00000000 		.4byte	0
 5232 0580 00000000 		.4byte	0
 5233              	.LLST31:
 5234 0584 32000000 		.4byte	.LVL115
 5235 0588 3A000000 		.4byte	.LVL116
 5236 058c 0300     		.2byte	0x3
 5237 058e 09       		.byte	0x9
 5238 058f FF       		.byte	0xff
 5239 0590 9F       		.byte	0x9f
 5240 0591 3E000000 		.4byte	.LVL117
 5241 0595 9E000000 		.4byte	.LVL142
 5242 0599 0100     		.2byte	0x1
 5243 059b 59       		.byte	0x59
 5244 059c 00000000 		.4byte	0
 5245 05a0 00000000 		.4byte	0
 5246              	.LLST32:
 5247 05a4 20000000 		.4byte	.LVL110
 5248 05a8 28000000 		.4byte	.LVL112
 5249 05ac 0300     		.2byte	0x3
 5250 05ae 09       		.byte	0x9
 5251 05af FF       		.byte	0xff
 5252 05b0 9F       		.byte	0x9f
 5253 05b1 2C000000 		.4byte	.LVL114
 5254 05b5 9E000000 		.4byte	.LVL143
 5255 05b9 0100     		.2byte	0x1
 5256 05bb 5A       		.byte	0x5a
 5257 05bc 00000000 		.4byte	0
 5258 05c0 00000000 		.4byte	0
 5259              	.LLST33:
 5260 05c4 58000000 		.4byte	.LVL124
 5261 05c8 78000000 		.4byte	.LVL130
 5262 05cc 0100     		.2byte	0x1
 5263 05ce 56       		.byte	0x56
 5264 05cf 00000000 		.4byte	0
 5265 05d3 00000000 		.4byte	0
 5266              	.LLST34:
 5267 05d7 7E000000 		.4byte	.LVL131
 5268 05db 9C000000 		.4byte	.LVL137
 5269 05df 0100     		.2byte	0x1
 5270 05e1 56       		.byte	0x56
 5271 05e2 00000000 		.4byte	0
 5272 05e6 00000000 		.4byte	0
 5273              	.LLST35:
ARM GAS  C:\Users\JAMESS~1\AppData\Local\Temp\ccd7YNc7.s 			page 117


 5274 05ea 00000000 		.4byte	.LVL145
 5275 05ee 20000000 		.4byte	.LVL150
 5276 05f2 0100     		.2byte	0x1
 5277 05f4 50       		.byte	0x50
 5278 05f5 20000000 		.4byte	.LVL150
 5279 05f9 40000000 		.4byte	.LVL155
 5280 05fd 0100     		.2byte	0x1
 5281 05ff 54       		.byte	0x54
 5282 0600 40000000 		.4byte	.LVL155
 5283 0604 4B000000 		.4byte	.LVL157-1
 5284 0608 0100     		.2byte	0x1
 5285 060a 50       		.byte	0x50
 5286 060b 4B000000 		.4byte	.LVL157-1
 5287 060f 78000000 		.4byte	.LVL161
 5288 0613 0100     		.2byte	0x1
 5289 0615 54       		.byte	0x54
 5290 0616 00000000 		.4byte	0
 5291 061a 00000000 		.4byte	0
 5292              	.LLST36:
 5293 061e 00000000 		.4byte	.LVL145
 5294 0622 20000000 		.4byte	.LVL150
 5295 0626 0100     		.2byte	0x1
 5296 0628 51       		.byte	0x51
 5297 0629 20000000 		.4byte	.LVL150
 5298 062d 40000000 		.4byte	.LVL155
 5299 0631 0200     		.2byte	0x2
 5300 0633 91       		.byte	0x91
 5301 0634 64       		.sleb128 -28
 5302 0635 40000000 		.4byte	.LVL155
 5303 0639 48000000 		.4byte	.LVL156
 5304 063d 0100     		.2byte	0x1
 5305 063f 51       		.byte	0x51
 5306 0640 48000000 		.4byte	.LVL156
 5307 0644 7A000000 		.4byte	.LFE50
 5308 0648 0200     		.2byte	0x2
 5309 064a 91       		.byte	0x91
 5310 064b 64       		.sleb128 -28
 5311 064c 00000000 		.4byte	0
 5312 0650 00000000 		.4byte	0
 5313              	.LLST37:
 5314 0654 00000000 		.4byte	.LVL145
 5315 0658 20000000 		.4byte	.LVL150
 5316 065c 0100     		.2byte	0x1
 5317 065e 52       		.byte	0x52
 5318 065f 20000000 		.4byte	.LVL150
 5319 0663 40000000 		.4byte	.LVL155
 5320 0667 0100     		.2byte	0x1
 5321 0669 56       		.byte	0x56
 5322 066a 40000000 		.4byte	.LVL155
 5323 066e 4B000000 		.4byte	.LVL157-1
 5324 0672 0100     		.2byte	0x1
 5325 0674 52       		.byte	0x52
 5326 0675 4B000000 		.4byte	.LVL157-1
 5327 0679 78000000 		.4byte	.LVL162
 5328 067d 0100     		.2byte	0x1
 5329 067f 56       		.byte	0x56
 5330 0680 78000000 		.4byte	.LVL162
ARM GAS  C:\Users\JAMESS~1\AppData\Local\Temp\ccd7YNc7.s 			page 118


 5331 0684 7A000000 		.4byte	.LFE50
 5332 0688 0400     		.2byte	0x4
 5333 068a F3       		.byte	0xf3
 5334 068b 01       		.uleb128 0x1
 5335 068c 52       		.byte	0x52
 5336 068d 9F       		.byte	0x9f
 5337 068e 00000000 		.4byte	0
 5338 0692 00000000 		.4byte	0
 5339              	.LLST38:
 5340 0696 00000000 		.4byte	.LVL145
 5341 069a 10000000 		.4byte	.LVL146
 5342 069e 0100     		.2byte	0x1
 5343 06a0 53       		.byte	0x53
 5344 06a1 10000000 		.4byte	.LVL146
 5345 06a5 7A000000 		.4byte	.LFE50
 5346 06a9 0200     		.2byte	0x2
 5347 06ab 91       		.byte	0x91
 5348 06ac 60       		.sleb128 -32
 5349 06ad 00000000 		.4byte	0
 5350 06b1 00000000 		.4byte	0
 5351              	.LLST39:
 5352 06b5 1A000000 		.4byte	.LVL147
 5353 06b9 1C000000 		.4byte	.LVL148
 5354 06bd 0100     		.2byte	0x1
 5355 06bf 55       		.byte	0x55
 5356 06c0 1E000000 		.4byte	.LVL149
 5357 06c4 40000000 		.4byte	.LVL155
 5358 06c8 0100     		.2byte	0x1
 5359 06ca 55       		.byte	0x55
 5360 06cb 00000000 		.4byte	0
 5361 06cf 00000000 		.4byte	0
 5362              	.LLST40:
 5363 06d3 00000000 		.4byte	.LVL172
 5364 06d7 20000000 		.4byte	.LVL177
 5365 06db 0100     		.2byte	0x1
 5366 06dd 50       		.byte	0x50
 5367 06de 20000000 		.4byte	.LVL177
 5368 06e2 5A000000 		.4byte	.LFE52
 5369 06e6 0200     		.2byte	0x2
 5370 06e8 91       		.byte	0x91
 5371 06e9 5C       		.sleb128 -36
 5372 06ea 00000000 		.4byte	0
 5373 06ee 00000000 		.4byte	0
 5374              	.LLST41:
 5375 06f2 00000000 		.4byte	.LVL172
 5376 06f6 20000000 		.4byte	.LVL177
 5377 06fa 0100     		.2byte	0x1
 5378 06fc 51       		.byte	0x51
 5379 06fd 20000000 		.4byte	.LVL177
 5380 0701 5A000000 		.4byte	.LFE52
 5381 0705 0400     		.2byte	0x4
 5382 0707 F3       		.byte	0xf3
 5383 0708 01       		.uleb128 0x1
 5384 0709 51       		.byte	0x51
 5385 070a 9F       		.byte	0x9f
 5386 070b 00000000 		.4byte	0
 5387 070f 00000000 		.4byte	0
ARM GAS  C:\Users\JAMESS~1\AppData\Local\Temp\ccd7YNc7.s 			page 119


 5388              	.LLST42:
 5389 0713 00000000 		.4byte	.LVL172
 5390 0717 20000000 		.4byte	.LVL177
 5391 071b 0100     		.2byte	0x1
 5392 071d 52       		.byte	0x52
 5393 071e 20000000 		.4byte	.LVL177
 5394 0722 52000000 		.4byte	.LVL189
 5395 0726 0100     		.2byte	0x1
 5396 0728 57       		.byte	0x57
 5397 0729 52000000 		.4byte	.LVL189
 5398 072d 5A000000 		.4byte	.LFE52
 5399 0731 0400     		.2byte	0x4
 5400 0733 F3       		.byte	0xf3
 5401 0734 01       		.uleb128 0x1
 5402 0735 52       		.byte	0x52
 5403 0736 9F       		.byte	0x9f
 5404 0737 00000000 		.4byte	0
 5405 073b 00000000 		.4byte	0
 5406              	.LLST43:
 5407 073f 00000000 		.4byte	.LVL172
 5408 0743 14000000 		.4byte	.LVL174
 5409 0747 0100     		.2byte	0x1
 5410 0749 53       		.byte	0x53
 5411 074a 14000000 		.4byte	.LVL174
 5412 074e 4A000000 		.4byte	.LVL185
 5413 0752 0100     		.2byte	0x1
 5414 0754 5B       		.byte	0x5b
 5415 0755 4A000000 		.4byte	.LVL185
 5416 0759 4F000000 		.4byte	.LVL186-1
 5417 075d 0100     		.2byte	0x1
 5418 075f 53       		.byte	0x53
 5419 0760 4F000000 		.4byte	.LVL186-1
 5420 0764 52000000 		.4byte	.LVL191
 5421 0768 0100     		.2byte	0x1
 5422 076a 5B       		.byte	0x5b
 5423 076b 52000000 		.4byte	.LVL191
 5424 076f 5A000000 		.4byte	.LFE52
 5425 0773 0400     		.2byte	0x4
 5426 0775 F3       		.byte	0xf3
 5427 0776 01       		.uleb128 0x1
 5428 0777 53       		.byte	0x53
 5429 0778 9F       		.byte	0x9f
 5430 0779 00000000 		.4byte	0
 5431 077d 00000000 		.4byte	0
 5432              	.LLST44:
 5433 0781 20000000 		.4byte	.LVL177
 5434 0785 32000000 		.4byte	.LVL181
 5435 0789 0100     		.2byte	0x1
 5436 078b 54       		.byte	0x54
 5437 078c 34000000 		.4byte	.LVL182
 5438 0790 3E000000 		.4byte	.LVL183
 5439 0794 0100     		.2byte	0x1
 5440 0796 54       		.byte	0x54
 5441 0797 00000000 		.4byte	0
 5442 079b 00000000 		.4byte	0
 5443              	.LLST45:
 5444 079f 1C000000 		.4byte	.LVL176
ARM GAS  C:\Users\JAMESS~1\AppData\Local\Temp\ccd7YNc7.s 			page 120


 5445 07a3 20000000 		.4byte	.LVL177
 5446 07a7 0100     		.2byte	0x1
 5447 07a9 51       		.byte	0x51
 5448 07aa 20000000 		.4byte	.LVL177
 5449 07ae 32000000 		.4byte	.LVL181
 5450 07b2 0200     		.2byte	0x2
 5451 07b4 7D       		.byte	0x7d
 5452 07b5 00       		.sleb128 0
 5453 07b6 32000000 		.4byte	.LVL181
 5454 07ba 34000000 		.4byte	.LVL182
 5455 07be 0100     		.2byte	0x1
 5456 07c0 52       		.byte	0x52
 5457 07c1 34000000 		.4byte	.LVL182
 5458 07c5 52000000 		.4byte	.LVL187
 5459 07c9 0200     		.2byte	0x2
 5460 07cb 7D       		.byte	0x7d
 5461 07cc 00       		.sleb128 0
 5462 07cd 52000000 		.4byte	.LVL187
 5463 07d1 5A000000 		.4byte	.LFE52
 5464 07d5 0200     		.2byte	0x2
 5465 07d7 91       		.byte	0x91
 5466 07d8 58       		.sleb128 -40
 5467 07d9 00000000 		.4byte	0
 5468 07dd 00000000 		.4byte	0
 5469              	.LLST46:
 5470 07e1 12000000 		.4byte	.LVL173
 5471 07e5 16000000 		.4byte	.LVL175
 5472 07e9 0200     		.2byte	0x2
 5473 07eb 31       		.byte	0x31
 5474 07ec 9F       		.byte	0x9f
 5475 07ed 16000000 		.4byte	.LVL175
 5476 07f1 20000000 		.4byte	.LVL177
 5477 07f5 0200     		.2byte	0x2
 5478 07f7 32       		.byte	0x32
 5479 07f8 9F       		.byte	0x9f
 5480 07f9 20000000 		.4byte	.LVL177
 5481 07fd 22000000 		.4byte	.LVL178
 5482 0801 0100     		.2byte	0x1
 5483 0803 53       		.byte	0x53
 5484 0804 22000000 		.4byte	.LVL178
 5485 0808 32000000 		.4byte	.LVL181
 5486 080c 0100     		.2byte	0x1
 5487 080e 55       		.byte	0x55
 5488 080f 32000000 		.4byte	.LVL181
 5489 0813 46000000 		.4byte	.LVL184
 5490 0817 0100     		.2byte	0x1
 5491 0819 53       		.byte	0x53
 5492 081a 00000000 		.4byte	0
 5493 081e 00000000 		.4byte	0
 5494              	.LLST47:
 5495 0822 16000000 		.4byte	.LVL175
 5496 0826 52000000 		.4byte	.LVL188
 5497 082a 0100     		.2byte	0x1
 5498 082c 56       		.byte	0x56
 5499 082d 00000000 		.4byte	0
 5500 0831 00000000 		.4byte	0
 5501              	.LLST48:
ARM GAS  C:\Users\JAMESS~1\AppData\Local\Temp\ccd7YNc7.s 			page 121


 5502 0835 1C000000 		.4byte	.LVL176
 5503 0839 52000000 		.4byte	.LVL190
 5504 083d 0100     		.2byte	0x1
 5505 083f 58       		.byte	0x58
 5506 0840 00000000 		.4byte	0
 5507 0844 00000000 		.4byte	0
 5508              	.LLST49:
 5509 0848 00000000 		.4byte	.LVL192
 5510 084c 26000000 		.4byte	.LVL197
 5511 0850 0100     		.2byte	0x1
 5512 0852 50       		.byte	0x50
 5513 0853 26000000 		.4byte	.LVL197
 5514 0857 62000000 		.4byte	.LFE53
 5515 085b 0200     		.2byte	0x2
 5516 085d 91       		.byte	0x91
 5517 085e 5C       		.sleb128 -36
 5518 085f 00000000 		.4byte	0
 5519 0863 00000000 		.4byte	0
 5520              	.LLST50:
 5521 0867 00000000 		.4byte	.LVL192
 5522 086b 26000000 		.4byte	.LVL197
 5523 086f 0100     		.2byte	0x1
 5524 0871 51       		.byte	0x51
 5525 0872 26000000 		.4byte	.LVL197
 5526 0876 62000000 		.4byte	.LFE53
 5527 087a 0400     		.2byte	0x4
 5528 087c F3       		.byte	0xf3
 5529 087d 01       		.uleb128 0x1
 5530 087e 51       		.byte	0x51
 5531 087f 9F       		.byte	0x9f
 5532 0880 00000000 		.4byte	0
 5533 0884 00000000 		.4byte	0
 5534              	.LLST51:
 5535 0888 00000000 		.4byte	.LVL192
 5536 088c 26000000 		.4byte	.LVL197
 5537 0890 0100     		.2byte	0x1
 5538 0892 52       		.byte	0x52
 5539 0893 26000000 		.4byte	.LVL197
 5540 0897 5A000000 		.4byte	.LVL209
 5541 089b 0100     		.2byte	0x1
 5542 089d 57       		.byte	0x57
 5543 089e 5A000000 		.4byte	.LVL209
 5544 08a2 62000000 		.4byte	.LFE53
 5545 08a6 0400     		.2byte	0x4
 5546 08a8 F3       		.byte	0xf3
 5547 08a9 01       		.uleb128 0x1
 5548 08aa 52       		.byte	0x52
 5549 08ab 9F       		.byte	0x9f
 5550 08ac 00000000 		.4byte	0
 5551 08b0 00000000 		.4byte	0
 5552              	.LLST52:
 5553 08b4 00000000 		.4byte	.LVL192
 5554 08b8 14000000 		.4byte	.LVL194
 5555 08bc 0100     		.2byte	0x1
 5556 08be 53       		.byte	0x53
 5557 08bf 14000000 		.4byte	.LVL194
 5558 08c3 52000000 		.4byte	.LVL205
ARM GAS  C:\Users\JAMESS~1\AppData\Local\Temp\ccd7YNc7.s 			page 122


 5559 08c7 0100     		.2byte	0x1
 5560 08c9 5B       		.byte	0x5b
 5561 08ca 52000000 		.4byte	.LVL205
 5562 08ce 57000000 		.4byte	.LVL206-1
 5563 08d2 0100     		.2byte	0x1
 5564 08d4 53       		.byte	0x53
 5565 08d5 57000000 		.4byte	.LVL206-1
 5566 08d9 5A000000 		.4byte	.LVL211
 5567 08dd 0100     		.2byte	0x1
 5568 08df 5B       		.byte	0x5b
 5569 08e0 5A000000 		.4byte	.LVL211
 5570 08e4 62000000 		.4byte	.LFE53
 5571 08e8 0400     		.2byte	0x4
 5572 08ea F3       		.byte	0xf3
 5573 08eb 01       		.uleb128 0x1
 5574 08ec 53       		.byte	0x53
 5575 08ed 9F       		.byte	0x9f
 5576 08ee 00000000 		.4byte	0
 5577 08f2 00000000 		.4byte	0
 5578              	.LLST53:
 5579 08f6 26000000 		.4byte	.LVL197
 5580 08fa 3A000000 		.4byte	.LVL201
 5581 08fe 0100     		.2byte	0x1
 5582 0900 54       		.byte	0x54
 5583 0901 3C000000 		.4byte	.LVL202
 5584 0905 46000000 		.4byte	.LVL203
 5585 0909 0100     		.2byte	0x1
 5586 090b 54       		.byte	0x54
 5587 090c 00000000 		.4byte	0
 5588 0910 00000000 		.4byte	0
 5589              	.LLST54:
 5590 0914 22000000 		.4byte	.LVL196
 5591 0918 26000000 		.4byte	.LVL197
 5592 091c 0100     		.2byte	0x1
 5593 091e 51       		.byte	0x51
 5594 091f 26000000 		.4byte	.LVL197
 5595 0923 3A000000 		.4byte	.LVL201
 5596 0927 0200     		.2byte	0x2
 5597 0929 7D       		.byte	0x7d
 5598 092a 00       		.sleb128 0
 5599 092b 3A000000 		.4byte	.LVL201
 5600 092f 3C000000 		.4byte	.LVL202
 5601 0933 0100     		.2byte	0x1
 5602 0935 52       		.byte	0x52
 5603 0936 3C000000 		.4byte	.LVL202
 5604 093a 5A000000 		.4byte	.LVL207
 5605 093e 0200     		.2byte	0x2
 5606 0940 7D       		.byte	0x7d
 5607 0941 00       		.sleb128 0
 5608 0942 5A000000 		.4byte	.LVL207
 5609 0946 62000000 		.4byte	.LFE53
 5610 094a 0200     		.2byte	0x2
 5611 094c 91       		.byte	0x91
 5612 094d 58       		.sleb128 -40
 5613 094e 00000000 		.4byte	0
 5614 0952 00000000 		.4byte	0
 5615              	.LLST55:
ARM GAS  C:\Users\JAMESS~1\AppData\Local\Temp\ccd7YNc7.s 			page 123


 5616 0956 12000000 		.4byte	.LVL193
 5617 095a 1A000000 		.4byte	.LVL195
 5618 095e 0200     		.2byte	0x2
 5619 0960 31       		.byte	0x31
 5620 0961 9F       		.byte	0x9f
 5621 0962 1A000000 		.4byte	.LVL195
 5622 0966 26000000 		.4byte	.LVL197
 5623 096a 0200     		.2byte	0x2
 5624 096c 32       		.byte	0x32
 5625 096d 9F       		.byte	0x9f
 5626 096e 26000000 		.4byte	.LVL197
 5627 0972 28000000 		.4byte	.LVL198
 5628 0976 0100     		.2byte	0x1
 5629 0978 53       		.byte	0x53
 5630 0979 28000000 		.4byte	.LVL198
 5631 097d 3A000000 		.4byte	.LVL201
 5632 0981 0100     		.2byte	0x1
 5633 0983 55       		.byte	0x55
 5634 0984 3A000000 		.4byte	.LVL201
 5635 0988 4E000000 		.4byte	.LVL204
 5636 098c 0100     		.2byte	0x1
 5637 098e 53       		.byte	0x53
 5638 098f 00000000 		.4byte	0
 5639 0993 00000000 		.4byte	0
 5640              	.LLST56:
 5641 0997 1A000000 		.4byte	.LVL195
 5642 099b 5A000000 		.4byte	.LVL208
 5643 099f 0100     		.2byte	0x1
 5644 09a1 56       		.byte	0x56
 5645 09a2 00000000 		.4byte	0
 5646 09a6 00000000 		.4byte	0
 5647              	.LLST57:
 5648 09aa 22000000 		.4byte	.LVL196
 5649 09ae 5A000000 		.4byte	.LVL210
 5650 09b2 0100     		.2byte	0x1
 5651 09b4 58       		.byte	0x58
 5652 09b5 00000000 		.4byte	0
 5653 09b9 00000000 		.4byte	0
 5654              	.LLST58:
 5655 09bd 00000000 		.4byte	.LVL212
 5656 09c1 14000000 		.4byte	.LVL214
 5657 09c5 0100     		.2byte	0x1
 5658 09c7 50       		.byte	0x50
 5659 09c8 14000000 		.4byte	.LVL214
 5660 09cc 5C000000 		.4byte	.LVL221
 5661 09d0 0100     		.2byte	0x1
 5662 09d2 54       		.byte	0x54
 5663 09d3 5C000000 		.4byte	.LVL221
 5664 09d7 74000000 		.4byte	.LFE54
 5665 09db 0400     		.2byte	0x4
 5666 09dd F3       		.byte	0xf3
 5667 09de 01       		.uleb128 0x1
 5668 09df 50       		.byte	0x50
 5669 09e0 9F       		.byte	0x9f
 5670 09e1 00000000 		.4byte	0
 5671 09e5 00000000 		.4byte	0
 5672              	.LLST59:
ARM GAS  C:\Users\JAMESS~1\AppData\Local\Temp\ccd7YNc7.s 			page 124


 5673 09e9 00000000 		.4byte	.LVL212
 5674 09ed 2A000000 		.4byte	.LVL216
 5675 09f1 0100     		.2byte	0x1
 5676 09f3 51       		.byte	0x51
 5677 09f4 2A000000 		.4byte	.LVL216
 5678 09f8 6C000000 		.4byte	.LVL224
 5679 09fc 0100     		.2byte	0x1
 5680 09fe 56       		.byte	0x56
 5681 09ff 6C000000 		.4byte	.LVL224
 5682 0a03 74000000 		.4byte	.LFE54
 5683 0a07 0400     		.2byte	0x4
 5684 0a09 F3       		.byte	0xf3
 5685 0a0a 01       		.uleb128 0x1
 5686 0a0b 51       		.byte	0x51
 5687 0a0c 9F       		.byte	0x9f
 5688 0a0d 00000000 		.4byte	0
 5689 0a11 00000000 		.4byte	0
 5690              	.LLST60:
 5691 0a15 00000000 		.4byte	.LVL212
 5692 0a19 24000000 		.4byte	.LVL215
 5693 0a1d 0100     		.2byte	0x1
 5694 0a1f 52       		.byte	0x52
 5695 0a20 24000000 		.4byte	.LVL215
 5696 0a24 6C000000 		.4byte	.LVL225
 5697 0a28 0100     		.2byte	0x1
 5698 0a2a 59       		.byte	0x59
 5699 0a2b 6C000000 		.4byte	.LVL225
 5700 0a2f 74000000 		.4byte	.LFE54
 5701 0a33 0400     		.2byte	0x4
 5702 0a35 F3       		.byte	0xf3
 5703 0a36 01       		.uleb128 0x1
 5704 0a37 52       		.byte	0x52
 5705 0a38 9F       		.byte	0x9f
 5706 0a39 00000000 		.4byte	0
 5707 0a3d 00000000 		.4byte	0
 5708              	.LLST61:
 5709 0a41 0E000000 		.4byte	.LVL213
 5710 0a45 30000000 		.4byte	.LVL218
 5711 0a49 0200     		.2byte	0x2
 5712 0a4b 30       		.byte	0x30
 5713 0a4c 9F       		.byte	0x9f
 5714 0a4d 30000000 		.4byte	.LVL218
 5715 0a51 6C000000 		.4byte	.LVL223
 5716 0a55 0100     		.2byte	0x1
 5717 0a57 55       		.byte	0x55
 5718 0a58 6C000000 		.4byte	.LVL223
 5719 0a5c 74000000 		.4byte	.LFE54
 5720 0a60 0100     		.2byte	0x1
 5721 0a62 50       		.byte	0x50
 5722 0a63 00000000 		.4byte	0
 5723 0a67 00000000 		.4byte	0
 5724              		.section	.debug_aranges,"",%progbits
 5725 0000 CC000000 		.4byte	0xcc
 5726 0004 0200     		.2byte	0x2
 5727 0006 00000000 		.4byte	.Ldebug_info0
 5728 000a 04       		.byte	0x4
 5729 000b 00       		.byte	0
ARM GAS  C:\Users\JAMESS~1\AppData\Local\Temp\ccd7YNc7.s 			page 125


 5730 000c 0000     		.2byte	0
 5731 000e 0000     		.2byte	0
 5732 0010 00000000 		.4byte	.LFB41
 5733 0014 70000000 		.4byte	.LFE41-.LFB41
 5734 0018 00000000 		.4byte	.LFB42
 5735 001c 8C000000 		.4byte	.LFE42-.LFB42
 5736 0020 00000000 		.4byte	.LFB33
 5737 0024 0C000000 		.4byte	.LFE33-.LFB33
 5738 0028 00000000 		.4byte	.LFB36
 5739 002c 80000000 		.4byte	.LFE36-.LFB36
 5740 0030 00000000 		.4byte	.LFB37
 5741 0034 1C000000 		.4byte	.LFE37-.LFB37
 5742 0038 00000000 		.4byte	.LFB34
 5743 003c 54000000 		.4byte	.LFE34-.LFB34
 5744 0040 00000000 		.4byte	.LFB35
 5745 0044 2C000000 		.4byte	.LFE35-.LFB35
 5746 0048 00000000 		.4byte	.LFB38
 5747 004c 0C000000 		.4byte	.LFE38-.LFB38
 5748 0050 00000000 		.4byte	.LFB39
 5749 0054 0C000000 		.4byte	.LFE39-.LFB39
 5750 0058 00000000 		.4byte	.LFB40
 5751 005c 24000000 		.4byte	.LFE40-.LFB40
 5752 0060 00000000 		.4byte	.LFB44
 5753 0064 2C000000 		.4byte	.LFE44-.LFB44
 5754 0068 00000000 		.4byte	.LFB43
 5755 006c 0E000000 		.4byte	.LFE43-.LFB43
 5756 0070 00000000 		.4byte	.LFB45
 5757 0074 24000000 		.4byte	.LFE45-.LFB45
 5758 0078 00000000 		.4byte	.LFB46
 5759 007c 24000000 		.4byte	.LFE46-.LFB46
 5760 0080 00000000 		.4byte	.LFB47
 5761 0084 34000000 		.4byte	.LFE47-.LFB47
 5762 0088 00000000 		.4byte	.LFB48
 5763 008c FC000000 		.4byte	.LFE48-.LFB48
 5764 0090 00000000 		.4byte	.LFB49
 5765 0094 AA000000 		.4byte	.LFE49-.LFB49
 5766 0098 00000000 		.4byte	.LFB50
 5767 009c 7A000000 		.4byte	.LFE50-.LFB50
 5768 00a0 00000000 		.4byte	.LFB51
 5769 00a4 78000000 		.4byte	.LFE51-.LFB51
 5770 00a8 00000000 		.4byte	.LFB32
 5771 00ac 8C000000 		.4byte	.LFE32-.LFB32
 5772 00b0 00000000 		.4byte	.LFB52
 5773 00b4 5A000000 		.4byte	.LFE52-.LFB52
 5774 00b8 00000000 		.4byte	.LFB53
 5775 00bc 62000000 		.4byte	.LFE53-.LFB53
 5776 00c0 00000000 		.4byte	.LFB54
 5777 00c4 74000000 		.4byte	.LFE54-.LFB54
 5778 00c8 00000000 		.4byte	0
 5779 00cc 00000000 		.4byte	0
 5780              		.section	.debug_ranges,"",%progbits
 5781              	.Ldebug_ranges0:
 5782 0000 00000000 		.4byte	.LFB41
 5783 0004 70000000 		.4byte	.LFE41
 5784 0008 00000000 		.4byte	.LFB42
 5785 000c 8C000000 		.4byte	.LFE42
 5786 0010 00000000 		.4byte	.LFB33
ARM GAS  C:\Users\JAMESS~1\AppData\Local\Temp\ccd7YNc7.s 			page 126


 5787 0014 0C000000 		.4byte	.LFE33
 5788 0018 00000000 		.4byte	.LFB36
 5789 001c 80000000 		.4byte	.LFE36
 5790 0020 00000000 		.4byte	.LFB37
 5791 0024 1C000000 		.4byte	.LFE37
 5792 0028 00000000 		.4byte	.LFB34
 5793 002c 54000000 		.4byte	.LFE34
 5794 0030 00000000 		.4byte	.LFB35
 5795 0034 2C000000 		.4byte	.LFE35
 5796 0038 00000000 		.4byte	.LFB38
 5797 003c 0C000000 		.4byte	.LFE38
 5798 0040 00000000 		.4byte	.LFB39
 5799 0044 0C000000 		.4byte	.LFE39
 5800 0048 00000000 		.4byte	.LFB40
 5801 004c 24000000 		.4byte	.LFE40
 5802 0050 00000000 		.4byte	.LFB44
 5803 0054 2C000000 		.4byte	.LFE44
 5804 0058 00000000 		.4byte	.LFB43
 5805 005c 0E000000 		.4byte	.LFE43
 5806 0060 00000000 		.4byte	.LFB45
 5807 0064 24000000 		.4byte	.LFE45
 5808 0068 00000000 		.4byte	.LFB46
 5809 006c 24000000 		.4byte	.LFE46
 5810 0070 00000000 		.4byte	.LFB47
 5811 0074 34000000 		.4byte	.LFE47
 5812 0078 00000000 		.4byte	.LFB48
 5813 007c FC000000 		.4byte	.LFE48
 5814 0080 00000000 		.4byte	.LFB49
 5815 0084 AA000000 		.4byte	.LFE49
 5816 0088 00000000 		.4byte	.LFB50
 5817 008c 7A000000 		.4byte	.LFE50
 5818 0090 00000000 		.4byte	.LFB51
 5819 0094 78000000 		.4byte	.LFE51
 5820 0098 00000000 		.4byte	.LFB32
 5821 009c 8C000000 		.4byte	.LFE32
 5822 00a0 00000000 		.4byte	.LFB52
 5823 00a4 5A000000 		.4byte	.LFE52
 5824 00a8 00000000 		.4byte	.LFB53
 5825 00ac 62000000 		.4byte	.LFE53
 5826 00b0 00000000 		.4byte	.LFB54
 5827 00b4 74000000 		.4byte	.LFE54
 5828 00b8 00000000 		.4byte	0
 5829 00bc 00000000 		.4byte	0
 5830              		.section	.debug_line,"",%progbits
 5831              	.Ldebug_line0:
 5832 0000 C5030000 		.section	.debug_str,"MS",%progbits,1
 5832      0200A700 
 5832      00000201 
 5832      FB0E0D00 
 5832      01010101 
 5833              	.LASF36:
 5834 0000 53747269 		.ascii	"StripLights_CLUT\000"
 5834      704C6967 
 5834      6874735F 
 5834      434C5554 
 5834      00
 5835              	.LASF27:
ARM GAS  C:\Users\JAMESS~1\AppData\Local\Temp\ccd7YNc7.s 			page 127


 5836 0011 45784372 		.ascii	"ExCriticalFunc\000"
 5836      69746963 
 5836      616C4675 
 5836      6E6300
 5837              	.LASF14:
 5838 0020 63686172 		.ascii	"char\000"
 5838      00
 5839              	.LASF42:
 5840 0025 53747269 		.ascii	"StripLights_GetPixel\000"
 5840      704C6967 
 5840      6874735F 
 5840      47657450 
 5840      6978656C 
 5841              	.LASF20:
 5842 003a 53747269 		.ascii	"StripLights_DimShift\000"
 5842      704C6967 
 5842      6874735F 
 5842      44696D53 
 5842      68696674 
 5843              	.LASF2:
 5844 004f 73686F72 		.ascii	"short int\000"
 5844      7420696E 
 5844      7400
 5845              	.LASF23:
 5846 0059 636F6C6F 		.ascii	"color\000"
 5846      7200
 5847              	.LASF76:
 5848 005f 53747269 		.ascii	"StripLights_SetFont\000"
 5848      704C6967 
 5848      6874735F 
 5848      53657446 
 5848      6F6E7400 
 5849              	.LASF51:
 5850 0073 53747269 		.ascii	"StripLights_DrawRect\000"
 5850      704C6967 
 5850      6874735F 
 5850      44726177 
 5850      52656374 
 5851              	.LASF82:
 5852 0088 47656E65 		.ascii	"Generated_Source\\PSoC4\\StripLights.c\000"
 5852      72617465 
 5852      645F536F 
 5852      75726365 
 5852      5C50536F 
 5853              	.LASF71:
 5854 00ad 53747269 		.ascii	"StripLights_ledArray\000"
 5854      704C6967 
 5854      6874735F 
 5854      6C656441 
 5854      72726179 
 5855              	.LASF77:
 5856 00c2 53747269 		.ascii	"StripLights_cisr_StartEx\000"
 5856      704C6967 
 5856      6874735F 
 5856      63697372 
 5856      5F537461 
 5857              	.LASF30:
ARM GAS  C:\Users\JAMESS~1\AppData\Local\Temp\ccd7YNc7.s 			page 128


 5858 00db 64656C61 		.ascii	"delay\000"
 5858      7900
 5859              	.LASF69:
 5860 00e1 53747269 		.ascii	"StripLights_EnterCritical\000"
 5860      704C6967 
 5860      6874735F 
 5860      456E7465 
 5860      72437269 
 5861              	.LASF74:
 5862 00fb 53747269 		.ascii	"StripLights_gamma\000"
 5862      704C6967 
 5862      6874735F 
 5862      67616D6D 
 5862      6100
 5863              	.LASF52:
 5864 010d 66696C6C 		.ascii	"fill\000"
 5864      00
 5865              	.LASF81:
 5866 0112 474E5520 		.ascii	"GNU C11 5.4.1 20160609 (release) [ARM/embedded-5-br"
 5866      43313120 
 5866      352E342E 
 5866      31203230 
 5866      31363036 
 5867 0145 616E6368 		.ascii	"anch revision 237715] -mcpu=cortex-m0 -mthumb -g -O"
 5867      20726576 
 5867      6973696F 
 5867      6E203233 
 5867      37373135 
 5868 0178 67202D66 		.ascii	"g -ffunction-sections -ffat-lto-objects\000"
 5868      66756E63 
 5868      74696F6E 
 5868      2D736563 
 5868      74696F6E 
 5869              	.LASF19:
 5870 01a0 53747269 		.ascii	"StripLights_DimMask\000"
 5870      704C6967 
 5870      6874735F 
 5870      44696D4D 
 5870      61736B00 
 5871              	.LASF40:
 5872 01b4 53747269 		.ascii	"StripLights_WriteColor\000"
 5872      704C6967 
 5872      6874735F 
 5872      57726974 
 5872      65436F6C 
 5873              	.LASF31:
 5874 01cb 746F436F 		.ascii	"toCount\000"
 5874      756E7400 
 5875              	.LASF9:
 5876 01d3 75696E74 		.ascii	"uint8\000"
 5876      3800
 5877              	.LASF29:
 5878 01d9 53747269 		.ascii	"StripLights_TriggerWaitDelay\000"
 5878      704C6967 
 5878      6874735F 
 5878      54726967 
 5878      67657257 
ARM GAS  C:\Users\JAMESS~1\AppData\Local\Temp\ccd7YNc7.s 			page 129


 5879              	.LASF57:
 5880 01f6 53747269 		.ascii	"StripLights_initvar\000"
 5880      704C6967 
 5880      6874735F 
 5880      696E6974 
 5880      76617200 
 5881              	.LASF28:
 5882 020a 53747269 		.ascii	"StripLights_Trigger\000"
 5882      704C6967 
 5882      6874735F 
 5882      54726967 
 5882      67657200 
 5883              	.LASF66:
 5884 021e 66726F6D 		.ascii	"fromColor\000"
 5884      436F6C6F 
 5884      7200
 5885              	.LASF0:
 5886 0228 7369676E 		.ascii	"signed char\000"
 5886      65642063 
 5886      68617200 
 5887              	.LASF12:
 5888 0234 666C6F61 		.ascii	"float\000"
 5888      7400
 5889              	.LASF32:
 5890 023a 53747269 		.ascii	"StripLights_TriggerWait\000"
 5890      704C6967 
 5890      6874735F 
 5890      54726967 
 5890      67657257 
 5891              	.LASF6:
 5892 0252 6C6F6E67 		.ascii	"long long int\000"
 5892      206C6F6E 
 5892      6720696E 
 5892      7400
 5893              	.LASF46:
 5894 0260 6464465F 		.ascii	"ddF_y\000"
 5894      7900
 5895              	.LASF60:
 5896 0266 75706461 		.ascii	"update\000"
 5896      746500
 5897              	.LASF4:
 5898 026d 6C6F6E67 		.ascii	"long int\000"
 5898      20696E74 
 5898      00
 5899              	.LASF64:
 5900 0276 53747269 		.ascii	"StripLights_Bplot32\000"
 5900      704C6967 
 5900      6874735F 
 5900      42706C6F 
 5900      74333200 
 5901              	.LASF62:
 5902 028a 6D617858 		.ascii	"maxX\000"
 5902      00
 5903              	.LASF83:
 5904 028f 433A5C55 		.ascii	"C:\\Users\\James Sun\\Documents\\Git\\Whackamole\\W"
 5904      73657273 
 5904      5C4A616D 
ARM GAS  C:\Users\JAMESS~1\AppData\Local\Temp\ccd7YNc7.s 			page 130


 5904      65732053 
 5904      756E5C44 
 5905 02bc 6861636B 		.ascii	"hackamole\\Whackamole.cydsn\000"
 5905      616D6F6C 
 5905      655C5768 
 5905      61636B61 
 5905      6D6F6C65 
 5906              	.LASF18:
 5907 02d7 6C6F6E67 		.ascii	"long double\000"
 5907      20646F75 
 5907      626C6500 
 5908              	.LASF75:
 5909 02e3 43794465 		.ascii	"CyDelayUs\000"
 5909      6C617955 
 5909      7300
 5910              	.LASF1:
 5911 02ed 756E7369 		.ascii	"unsigned char\000"
 5911      676E6564 
 5911      20636861 
 5911      7200
 5912              	.LASF34:
 5913 02fb 53747269 		.ascii	"StripLights_ColorInc\000"
 5913      704C6967 
 5913      6874735F 
 5913      436F6C6F 
 5913      72496E63 
 5914              	.LASF43:
 5915 0310 53747269 		.ascii	"StripLights_DrawCircle\000"
 5915      704C6967 
 5915      6874735F 
 5915      44726177 
 5915      43697263 
 5916              	.LASF37:
 5917 0327 636F6C6F 		.ascii	"colorIndex\000"
 5917      72496E64 
 5917      657800
 5918              	.LASF63:
 5919 0332 6D617859 		.ascii	"maxY\000"
 5919      00
 5920              	.LASF7:
 5921 0337 6C6F6E67 		.ascii	"long long unsigned int\000"
 5921      206C6F6E 
 5921      6720756E 
 5921      7369676E 
 5921      65642069 
 5922              	.LASF67:
 5923 034e 746F436F 		.ascii	"toColor\000"
 5923      6C6F7200 
 5924              	.LASF79:
 5925 0356 53747269 		.ascii	"StripLights_cisr_SetPriority\000"
 5925      704C6967 
 5925      6874735F 
 5925      63697372 
 5925      5F536574 
 5926              	.LASF8:
 5927 0373 756E7369 		.ascii	"unsigned int\000"
 5927      676E6564 
ARM GAS  C:\Users\JAMESS~1\AppData\Local\Temp\ccd7YNc7.s 			page 131


 5927      20696E74 
 5927      00
 5928              	.LASF5:
 5929 0380 6C6F6E67 		.ascii	"long unsigned int\000"
 5929      20756E73 
 5929      69676E65 
 5929      6420696E 
 5929      7400
 5930              	.LASF55:
 5931 0392 64696D4C 		.ascii	"dimLevel\000"
 5931      6576656C 
 5931      00
 5932              	.LASF24:
 5933 039b 53747269 		.ascii	"StripLights_refreshComplete\000"
 5933      704C6967 
 5933      6874735F 
 5933      72656672 
 5933      65736843 
 5934              	.LASF72:
 5935 03b7 53747269 		.ascii	"StripLights_ledIndex\000"
 5935      704C6967 
 5935      6874735F 
 5935      6C656449 
 5935      6E646578 
 5936              	.LASF54:
 5937 03cc 53747269 		.ascii	"StripLights_Dim\000"
 5937      704C6967 
 5937      6874735F 
 5937      44696D00 
 5938              	.LASF50:
 5939 03dc 66726163 		.ascii	"fraction\000"
 5939      74696F6E 
 5939      00
 5940              	.LASF48:
 5941 03e5 73746570 		.ascii	"stepx\000"
 5941      7800
 5942              	.LASF49:
 5943 03eb 73746570 		.ascii	"stepy\000"
 5943      7900
 5944              	.LASF84:
 5945 03f1 53747269 		.ascii	"StripLights_Ready\000"
 5945      704C6967 
 5945      6874735F 
 5945      52656164 
 5945      7900
 5946              	.LASF33:
 5947 0403 53747269 		.ascii	"StripLights_getColor\000"
 5947      704C6967 
 5947      6874735F 
 5947      67657443 
 5947      6F6C6F72 
 5948              	.LASF3:
 5949 0418 73686F72 		.ascii	"short unsigned int\000"
 5949      7420756E 
 5949      7369676E 
 5949      65642069 
 5949      6E7400
ARM GAS  C:\Users\JAMESS~1\AppData\Local\Temp\ccd7YNc7.s 			page 132


 5950              	.LASF39:
 5951 042b 53747269 		.ascii	"StripLights_DisplayClear\000"
 5951      704C6967 
 5951      6874735F 
 5951      44697370 
 5951      6C617943 
 5952              	.LASF35:
 5953 0444 696E6356 		.ascii	"incValue\000"
 5953      616C7565 
 5953      00
 5954              	.LASF25:
 5955 044d 53747269 		.ascii	"StripLights_SetCriticalFuncs\000"
 5955      704C6967 
 5955      6874735F 
 5955      53657443 
 5955      72697469 
 5956              	.LASF70:
 5957 046a 53747269 		.ascii	"StripLights_ExitCritical\000"
 5957      704C6967 
 5957      6874735F 
 5957      45786974 
 5957      43726974 
 5958              	.LASF10:
 5959 0483 75696E74 		.ascii	"uint32\000"
 5959      333200
 5960              	.LASF53:
 5961 048a 78446966 		.ascii	"xDiff\000"
 5961      6600
 5962              	.LASF15:
 5963 0490 72656738 		.ascii	"reg8\000"
 5963      00
 5964              	.LASF78:
 5965 0495 53747269 		.ascii	"StripLights_fisr_StartEx\000"
 5965      704C6967 
 5965      6874735F 
 5965      66697372 
 5965      5F537461 
 5966              	.LASF45:
 5967 04ae 6464465F 		.ascii	"ddF_x\000"
 5967      7800
 5968              	.LASF11:
 5969 04b4 696E7433 		.ascii	"int32\000"
 5969      3200
 5970              	.LASF58:
 5971 04ba 53747269 		.ascii	"StripLights_Bplot8\000"
 5971      704C6967 
 5971      6874735F 
 5971      42706C6F 
 5971      743800
 5972              	.LASF22:
 5973 04cd 53747269 		.ascii	"StripLights_CISR\000"
 5973      704C6967 
 5973      6874735F 
 5973      43495352 
 5973      00
 5974              	.LASF85:
 5975 04de 53747269 		.ascii	"StripLights_Stop\000"
ARM GAS  C:\Users\JAMESS~1\AppData\Local\Temp\ccd7YNc7.s 			page 133


 5975      704C6967 
 5975      6874735F 
 5975      53746F70 
 5975      00
 5976              	.LASF21:
 5977 04ef 53747269 		.ascii	"StripLights_FISR\000"
 5977      704C6967 
 5977      6874735F 
 5977      46495352 
 5977      00
 5978              	.LASF80:
 5979 0500 53747269 		.ascii	"StripLights_fisr_SetPriority\000"
 5979      704C6967 
 5979      6874735F 
 5979      66697372 
 5979      5F536574 
 5980              	.LASF38:
 5981 051d 53747269 		.ascii	"StripLights_MemClear\000"
 5981      704C6967 
 5981      6874735F 
 5981      4D656D43 
 5981      6C656172 
 5982              	.LASF61:
 5983 0532 61696E64 		.ascii	"aindex\000"
 5983      657800
 5984              	.LASF41:
 5985 0539 53747269 		.ascii	"StripLights_Pixel\000"
 5985      704C6967 
 5985      6874735F 
 5985      50697865 
 5985      6C00
 5986              	.LASF17:
 5987 054b 73697A65 		.ascii	"sizetype\000"
 5987      74797065 
 5987      00
 5988              	.LASF26:
 5989 0554 456E4372 		.ascii	"EnCriticalFunc\000"
 5989      69746963 
 5989      616C4675 
 5989      6E6300
 5990              	.LASF13:
 5991 0563 646F7562 		.ascii	"double\000"
 5991      6C6500
 5992              	.LASF56:
 5993 056a 53747269 		.ascii	"StripLights_Start\000"
 5993      704C6967 
 5993      6874735F 
 5993      53746172 
 5993      7400
 5994              	.LASF44:
 5995 057c 72616469 		.ascii	"radius\000"
 5995      757300
 5996              	.LASF73:
 5997 0583 53747269 		.ascii	"StripLights_row\000"
 5997      704C6967 
 5997      6874735F 
 5997      726F7700 
ARM GAS  C:\Users\JAMESS~1\AppData\Local\Temp\ccd7YNc7.s 			page 134


 5998              	.LASF16:
 5999 0593 66756E63 		.ascii	"funcPtr\000"
 5999      50747200 
 6000              	.LASF68:
 6001 059b 6E657743 		.ascii	"newColor\000"
 6001      6F6C6F72 
 6001      00
 6002              	.LASF59:
 6003 05a4 6269744D 		.ascii	"bitMap\000"
 6003      617000
 6004              	.LASF47:
 6005 05ab 53747269 		.ascii	"StripLights_DrawLine\000"
 6005      704C6967 
 6005      6874735F 
 6005      44726177 
 6005      4C696E65 
 6006              	.LASF65:
 6007 05c0 53747269 		.ascii	"StripLights_RgbBlend\000"
 6007      704C6967 
 6007      6874735F 
 6007      52676242 
 6007      6C656E64 
 6008              		.ident	"GCC: (GNU Tools for ARM Embedded Processors) 5.4.1 20160609 (release) [ARM/embedded-5-bran
