ARM GAS  C:\Users\JAMESS~1\AppData\Local\Temp\ccs0turg.s 			page 1


   1              		.syntax unified
   2              		.cpu cortex-m0
   3              		.fpu softvfp
   4              		.eabi_attribute 20, 1
   5              		.eabi_attribute 21, 1
   6              		.eabi_attribute 23, 3
   7              		.eabi_attribute 24, 1
   8              		.eabi_attribute 25, 1
   9              		.eabi_attribute 26, 1
  10              		.eabi_attribute 30, 1
  11              		.eabi_attribute 34, 0
  12              		.eabi_attribute 18, 4
  13              		.thumb
  14              		.syntax unified
  15              		.file	"StripLights_fonts.c"
  16              		.text
  17              	.Ltext0:
  18              		.cfi_sections	.debug_frame
  19              		.section	.text.StripLights_SetFont,"ax",%progbits
  20              		.align	2
  21              		.global	StripLights_SetFont
  22              		.code	16
  23              		.thumb_func
  24              		.type	StripLights_SetFont, %function
  25              	StripLights_SetFont:
  26              	.LFB32:
  27              		.file 1 "Generated_Source\\PSoC4\\StripLights_fonts.c"
   1:Generated_Source\PSoC4/StripLights_fonts.c **** /* ========================================
   2:Generated_Source\PSoC4/StripLights_fonts.c ****  *
   3:Generated_Source\PSoC4/StripLights_fonts.c ****  * Copyright YOUR COMPANY, THE YEAR
   4:Generated_Source\PSoC4/StripLights_fonts.c ****  * All Rights Reserved
   5:Generated_Source\PSoC4/StripLights_fonts.c ****  * UNPUBLISHED, LICENSED SOFTWARE.
   6:Generated_Source\PSoC4/StripLights_fonts.c ****  *
   7:Generated_Source\PSoC4/StripLights_fonts.c ****  * CONFIDENTIAL AND PROPRIETARY INFORMATION
   8:Generated_Source\PSoC4/StripLights_fonts.c ****  * WHICH IS THE PROPERTY OF your company.
   9:Generated_Source\PSoC4/StripLights_fonts.c ****  *
  10:Generated_Source\PSoC4/StripLights_fonts.c ****  * ========================================
  11:Generated_Source\PSoC4/StripLights_fonts.c **** */
  12:Generated_Source\PSoC4/StripLights_fonts.c **** #include <project.h>
  13:Generated_Source\PSoC4/StripLights_fonts.c **** #include "cytypes.h"
  14:Generated_Source\PSoC4/StripLights_fonts.c **** #include "stdlib.h"
  15:Generated_Source\PSoC4/StripLights_fonts.c **** #include "cyfitter.h"
  16:Generated_Source\PSoC4/StripLights_fonts.c **** #include "StripLights.h"
  17:Generated_Source\PSoC4/StripLights_fonts.c **** #include "StripLights_fonts.h"
  18:Generated_Source\PSoC4/StripLights_fonts.c **** 
  19:Generated_Source\PSoC4/StripLights_fonts.c **** uint8 const * StripLights_fontPtr;
  20:Generated_Source\PSoC4/StripLights_fonts.c **** int32 StripLights_fontX;
  21:Generated_Source\PSoC4/StripLights_fonts.c **** int32 StripLights_fontY;
  22:Generated_Source\PSoC4/StripLights_fonts.c **** int32 StripLights_fontOffset;
  23:Generated_Source\PSoC4/StripLights_fonts.c **** 
  24:Generated_Source\PSoC4/StripLights_fonts.c **** 
  25:Generated_Source\PSoC4/StripLights_fonts.c **** // standard ascii 5x7 font
  26:Generated_Source\PSoC4/StripLights_fonts.c **** // defines ascii characters 0x20-0x7F (32-127)
  27:Generated_Source\PSoC4/StripLights_fonts.c **** const uint8 StripLights_Font5x7[] = {
  28:Generated_Source\PSoC4/StripLights_fonts.c **** 	0x00, 0x00, 0x00, 0x00, 0x00,// (space)
  29:Generated_Source\PSoC4/StripLights_fonts.c **** 	0x00, 0x00, 0x5F, 0x00, 0x00,// !
  30:Generated_Source\PSoC4/StripLights_fonts.c **** 	0x00, 0x07, 0x00, 0x07, 0x00,// "
ARM GAS  C:\Users\JAMESS~1\AppData\Local\Temp\ccs0turg.s 			page 2


  31:Generated_Source\PSoC4/StripLights_fonts.c **** 	0x14, 0x7F, 0x14, 0x7F, 0x14,// #
  32:Generated_Source\PSoC4/StripLights_fonts.c **** 	0x24, 0x2A, 0x7F, 0x2A, 0x12,// $
  33:Generated_Source\PSoC4/StripLights_fonts.c **** 	0x23, 0x13, 0x08, 0x64, 0x62,// %
  34:Generated_Source\PSoC4/StripLights_fonts.c **** 	0x36, 0x49, 0x55, 0x22, 0x50,// &
  35:Generated_Source\PSoC4/StripLights_fonts.c **** 	0x00, 0x05, 0x03, 0x00, 0x00,// '
  36:Generated_Source\PSoC4/StripLights_fonts.c **** 	0x00, 0x1C, 0x22, 0x41, 0x00,// (
  37:Generated_Source\PSoC4/StripLights_fonts.c **** 	0x00, 0x41, 0x22, 0x1C, 0x00,// )
  38:Generated_Source\PSoC4/StripLights_fonts.c **** 	0x08, 0x2A, 0x1C, 0x2A, 0x08,// *
  39:Generated_Source\PSoC4/StripLights_fonts.c **** 	0x08, 0x08, 0x3E, 0x08, 0x08,// +
  40:Generated_Source\PSoC4/StripLights_fonts.c **** 	0x00, 0x50, 0x30, 0x00, 0x00,// ,
  41:Generated_Source\PSoC4/StripLights_fonts.c **** 	0x08, 0x08, 0x08, 0x08, 0x08,// -
  42:Generated_Source\PSoC4/StripLights_fonts.c **** 	0x00, 0x60, 0x60, 0x00, 0x00,// .
  43:Generated_Source\PSoC4/StripLights_fonts.c **** 	0x20, 0x10, 0x08, 0x04, 0x02,// /
  44:Generated_Source\PSoC4/StripLights_fonts.c **** 	0x3E, 0x51, 0x49, 0x45, 0x3E,// 0
  45:Generated_Source\PSoC4/StripLights_fonts.c **** 	0x00, 0x42, 0x7F, 0x40, 0x00,// 1
  46:Generated_Source\PSoC4/StripLights_fonts.c **** 	0x42, 0x61, 0x51, 0x49, 0x46,// 2
  47:Generated_Source\PSoC4/StripLights_fonts.c **** 	0x21, 0x41, 0x45, 0x4B, 0x31,// 3
  48:Generated_Source\PSoC4/StripLights_fonts.c **** 	0x18, 0x14, 0x12, 0x7F, 0x10,// 4
  49:Generated_Source\PSoC4/StripLights_fonts.c **** 	0x27, 0x45, 0x45, 0x45, 0x39,// 5
  50:Generated_Source\PSoC4/StripLights_fonts.c **** 	0x3C, 0x4A, 0x49, 0x49, 0x30,// 6
  51:Generated_Source\PSoC4/StripLights_fonts.c **** 	0x01, 0x71, 0x09, 0x05, 0x03,// 7
  52:Generated_Source\PSoC4/StripLights_fonts.c **** 	0x36, 0x49, 0x49, 0x49, 0x36,// 8
  53:Generated_Source\PSoC4/StripLights_fonts.c **** 	0x06, 0x49, 0x49, 0x29, 0x1E,// 9
  54:Generated_Source\PSoC4/StripLights_fonts.c **** 	0x00, 0x36, 0x36, 0x00, 0x00,// :
  55:Generated_Source\PSoC4/StripLights_fonts.c **** 	0x00, 0x56, 0x36, 0x00, 0x00,// ;
  56:Generated_Source\PSoC4/StripLights_fonts.c **** 	0x00, 0x08, 0x14, 0x22, 0x41,// <
  57:Generated_Source\PSoC4/StripLights_fonts.c **** 	0x14, 0x14, 0x14, 0x14, 0x14,// =
  58:Generated_Source\PSoC4/StripLights_fonts.c **** 	0x41, 0x22, 0x14, 0x08, 0x00,// >
  59:Generated_Source\PSoC4/StripLights_fonts.c **** 	0x02, 0x01, 0x51, 0x09, 0x06,// ?
  60:Generated_Source\PSoC4/StripLights_fonts.c **** 	0x32, 0x49, 0x79, 0x41, 0x3E,// @
  61:Generated_Source\PSoC4/StripLights_fonts.c **** 	0x7E, 0x11, 0x11, 0x11, 0x7E,// A
  62:Generated_Source\PSoC4/StripLights_fonts.c **** 	0x7F, 0x49, 0x49, 0x49, 0x36,// B
  63:Generated_Source\PSoC4/StripLights_fonts.c **** 	0x3E, 0x41, 0x41, 0x41, 0x22,// C
  64:Generated_Source\PSoC4/StripLights_fonts.c **** 	0x7F, 0x41, 0x41, 0x22, 0x1C,// D
  65:Generated_Source\PSoC4/StripLights_fonts.c **** 	0x7F, 0x49, 0x49, 0x49, 0x41,// E
  66:Generated_Source\PSoC4/StripLights_fonts.c **** 	0x7F, 0x09, 0x09, 0x01, 0x01,// F
  67:Generated_Source\PSoC4/StripLights_fonts.c **** 	0x3E, 0x41, 0x41, 0x51, 0x32,// G
  68:Generated_Source\PSoC4/StripLights_fonts.c **** 	0x7F, 0x08, 0x08, 0x08, 0x7F,// H
  69:Generated_Source\PSoC4/StripLights_fonts.c **** 	0x00, 0x41, 0x7F, 0x41, 0x00,// I
  70:Generated_Source\PSoC4/StripLights_fonts.c **** 	0x20, 0x40, 0x41, 0x3F, 0x01,// J
  71:Generated_Source\PSoC4/StripLights_fonts.c **** 	0x7F, 0x08, 0x14, 0x22, 0x41,// K
  72:Generated_Source\PSoC4/StripLights_fonts.c **** 	0x7F, 0x40, 0x40, 0x40, 0x40,// L
  73:Generated_Source\PSoC4/StripLights_fonts.c **** 	0x7F, 0x02, 0x04, 0x02, 0x7F,// M
  74:Generated_Source\PSoC4/StripLights_fonts.c **** 	0x7F, 0x04, 0x08, 0x10, 0x7F,// N
  75:Generated_Source\PSoC4/StripLights_fonts.c **** 	0x3E, 0x41, 0x41, 0x41, 0x3E,// O
  76:Generated_Source\PSoC4/StripLights_fonts.c **** 	0x7F, 0x09, 0x09, 0x09, 0x06,// P
  77:Generated_Source\PSoC4/StripLights_fonts.c **** 	0x3E, 0x41, 0x51, 0x21, 0x5E,// Q
  78:Generated_Source\PSoC4/StripLights_fonts.c **** 	0x7F, 0x09, 0x19, 0x29, 0x46,// R
  79:Generated_Source\PSoC4/StripLights_fonts.c **** 	0x46, 0x49, 0x49, 0x49, 0x31,// S
  80:Generated_Source\PSoC4/StripLights_fonts.c **** 	0x01, 0x01, 0x7F, 0x01, 0x01,// T
  81:Generated_Source\PSoC4/StripLights_fonts.c **** 	0x3F, 0x40, 0x40, 0x40, 0x3F,// U
  82:Generated_Source\PSoC4/StripLights_fonts.c **** 	0x1F, 0x20, 0x40, 0x20, 0x1F,// V
  83:Generated_Source\PSoC4/StripLights_fonts.c **** 	0x7F, 0x20, 0x18, 0x20, 0x7F,// W
  84:Generated_Source\PSoC4/StripLights_fonts.c **** 	0x63, 0x14, 0x08, 0x14, 0x63,// X
  85:Generated_Source\PSoC4/StripLights_fonts.c **** 	0x03, 0x04, 0x78, 0x04, 0x03,// Y
  86:Generated_Source\PSoC4/StripLights_fonts.c **** 	0x61, 0x51, 0x49, 0x45, 0x43,// Z
  87:Generated_Source\PSoC4/StripLights_fonts.c **** 	0x00, 0x00, 0x7F, 0x41, 0x41,// [
ARM GAS  C:\Users\JAMESS~1\AppData\Local\Temp\ccs0turg.s 			page 3


  88:Generated_Source\PSoC4/StripLights_fonts.c **** 	0x02, 0x04, 0x08, 0x10, 0x20,// "\"
  89:Generated_Source\PSoC4/StripLights_fonts.c **** 	0x41, 0x41, 0x7F, 0x00, 0x00,// ]
  90:Generated_Source\PSoC4/StripLights_fonts.c **** 	0x04, 0x02, 0x01, 0x02, 0x04,// ^
  91:Generated_Source\PSoC4/StripLights_fonts.c **** 	0x40, 0x40, 0x40, 0x40, 0x40,// _
  92:Generated_Source\PSoC4/StripLights_fonts.c **** 	0x00, 0x01, 0x02, 0x04, 0x00,// `
  93:Generated_Source\PSoC4/StripLights_fonts.c **** 	0x20, 0x54, 0x54, 0x54, 0x78,// a
  94:Generated_Source\PSoC4/StripLights_fonts.c **** 	0x7F, 0x48, 0x44, 0x44, 0x38,// b
  95:Generated_Source\PSoC4/StripLights_fonts.c **** 	0x38, 0x44, 0x44, 0x44, 0x20,// c
  96:Generated_Source\PSoC4/StripLights_fonts.c **** 	0x38, 0x44, 0x44, 0x48, 0x7F,// d
  97:Generated_Source\PSoC4/StripLights_fonts.c **** 	0x38, 0x54, 0x54, 0x54, 0x18,// e
  98:Generated_Source\PSoC4/StripLights_fonts.c **** 	0x08, 0x7E, 0x09, 0x01, 0x02,// f
  99:Generated_Source\PSoC4/StripLights_fonts.c **** 	0x08, 0x14, 0x54, 0x54, 0x3C,// g
 100:Generated_Source\PSoC4/StripLights_fonts.c **** 	0x7F, 0x08, 0x04, 0x04, 0x78,// h
 101:Generated_Source\PSoC4/StripLights_fonts.c **** 	0x00, 0x44, 0x7D, 0x40, 0x00,// i
 102:Generated_Source\PSoC4/StripLights_fonts.c **** 	0x20, 0x40, 0x44, 0x3D, 0x00,// j
 103:Generated_Source\PSoC4/StripLights_fonts.c **** 	0x00, 0x7F, 0x10, 0x28, 0x44,// k
 104:Generated_Source\PSoC4/StripLights_fonts.c **** 	0x00, 0x41, 0x7F, 0x40, 0x00,// l
 105:Generated_Source\PSoC4/StripLights_fonts.c **** 	0x7C, 0x04, 0x18, 0x04, 0x78,// m
 106:Generated_Source\PSoC4/StripLights_fonts.c **** 	0x7C, 0x08, 0x04, 0x04, 0x78,// n
 107:Generated_Source\PSoC4/StripLights_fonts.c **** 	0x38, 0x44, 0x44, 0x44, 0x38,// o
 108:Generated_Source\PSoC4/StripLights_fonts.c **** 	0x7C, 0x14, 0x14, 0x14, 0x08,// p
 109:Generated_Source\PSoC4/StripLights_fonts.c **** 	0x08, 0x14, 0x14, 0x18, 0x7C,// q
 110:Generated_Source\PSoC4/StripLights_fonts.c **** 	0x7C, 0x08, 0x04, 0x04, 0x08,// r
 111:Generated_Source\PSoC4/StripLights_fonts.c **** 	0x48, 0x54, 0x54, 0x54, 0x20,// s
 112:Generated_Source\PSoC4/StripLights_fonts.c **** 	0x04, 0x3F, 0x44, 0x40, 0x20,// t
 113:Generated_Source\PSoC4/StripLights_fonts.c **** 	0x3C, 0x40, 0x40, 0x20, 0x7C,// u
 114:Generated_Source\PSoC4/StripLights_fonts.c **** 	0x1C, 0x20, 0x40, 0x20, 0x1C,// v
 115:Generated_Source\PSoC4/StripLights_fonts.c **** 	0x3C, 0x40, 0x30, 0x40, 0x3C,// w
 116:Generated_Source\PSoC4/StripLights_fonts.c **** 	0x44, 0x28, 0x10, 0x28, 0x44,// x
 117:Generated_Source\PSoC4/StripLights_fonts.c **** 	0x0C, 0x50, 0x50, 0x50, 0x3C,// y
 118:Generated_Source\PSoC4/StripLights_fonts.c **** 	0x44, 0x64, 0x54, 0x4C, 0x44,// z
 119:Generated_Source\PSoC4/StripLights_fonts.c **** 	0x00, 0x08, 0x36, 0x41, 0x00,// {
 120:Generated_Source\PSoC4/StripLights_fonts.c **** 	0x00, 0x00, 0x7F, 0x00, 0x00,// |
 121:Generated_Source\PSoC4/StripLights_fonts.c **** 	0x00, 0x41, 0x36, 0x08, 0x00,// }
 122:Generated_Source\PSoC4/StripLights_fonts.c **** 	0x08, 0x08, 0x2A, 0x1C, 0x08,// ->
 123:Generated_Source\PSoC4/StripLights_fonts.c **** 	0x08, 0x1C, 0x2A, 0x08, 0x08 // <-
 124:Generated_Source\PSoC4/StripLights_fonts.c **** };
 125:Generated_Source\PSoC4/StripLights_fonts.c **** 
 126:Generated_Source\PSoC4/StripLights_fonts.c **** 
 127:Generated_Source\PSoC4/StripLights_fonts.c **** /*******************************************************************************
 128:Generated_Source\PSoC4/StripLights_fonts.c **** * Function Name: StripLights_SetFont
 129:Generated_Source\PSoC4/StripLights_fonts.c **** ********************************************************************************
 130:Generated_Source\PSoC4/StripLights_fonts.c **** * Summary:
 131:Generated_Source\PSoC4/StripLights_fonts.c **** *   Set the specific font.  (Only one font supported at this time.)
 132:Generated_Source\PSoC4/StripLights_fonts.c **** *
 133:Generated_Source\PSoC4/StripLights_fonts.c **** * Parameters:  
 134:Generated_Source\PSoC4/StripLights_fonts.c **** *  uint32 font: Font to be selected 
 135:Generated_Source\PSoC4/StripLights_fonts.c **** *
 136:Generated_Source\PSoC4/StripLights_fonts.c **** * Return: 
 137:Generated_Source\PSoC4/StripLights_fonts.c **** *  void
 138:Generated_Source\PSoC4/StripLights_fonts.c **** *
 139:Generated_Source\PSoC4/StripLights_fonts.c **** *******************************************************************************/
 140:Generated_Source\PSoC4/StripLights_fonts.c **** void StripLights_SetFont( uint32 font)
 141:Generated_Source\PSoC4/StripLights_fonts.c **** {
  28              		.loc 1 141 0
  29              		.cfi_startproc
  30              		@ args = 0, pretend = 0, frame = 0
ARM GAS  C:\Users\JAMESS~1\AppData\Local\Temp\ccs0turg.s 			page 4


  31              		@ frame_needed = 0, uses_anonymous_args = 0
  32              		@ link register save eliminated.
  33              	.LVL0:
 142:Generated_Source\PSoC4/StripLights_fonts.c ****     switch(font)
  34              		.loc 1 142 0
  35 0000 0028     		cmp	r0, #0
  36 0002 0CD1     		bne	.L5
 143:Generated_Source\PSoC4/StripLights_fonts.c ****     {
 144:Generated_Source\PSoC4/StripLights_fonts.c ****        case StripLights_FONT_5X7:
 145:Generated_Source\PSoC4/StripLights_fonts.c ****            StripLights_fontPtr = StripLights_Font5x7;
  37              		.loc 1 145 0
  38 0004 0C4A     		ldr	r2, .L6
  39 0006 0D4B     		ldr	r3, .L6+4
  40 0008 1A60     		str	r2, [r3]
 146:Generated_Source\PSoC4/StripLights_fonts.c ****            StripLights_fontX = StripLights_Font5x7_XSIZE;
  41              		.loc 1 146 0
  42 000a 0522     		movs	r2, #5
  43 000c 0C4B     		ldr	r3, .L6+8
  44 000e 1A60     		str	r2, [r3]
 147:Generated_Source\PSoC4/StripLights_fonts.c ****            StripLights_fontY = StripLights_Font5x7_YSIZE;
  45              		.loc 1 147 0
  46 0010 0232     		adds	r2, r2, #2
  47 0012 0C4B     		ldr	r3, .L6+12
  48 0014 1A60     		str	r2, [r3]
 148:Generated_Source\PSoC4/StripLights_fonts.c ****            StripLights_fontOffset = StripLights_Font5x7_OFFSET;
  49              		.loc 1 148 0
  50 0016 1932     		adds	r2, r2, #25
  51 0018 0B4B     		ldr	r3, .L6+16
  52 001a 1A60     		str	r2, [r3]
 149:Generated_Source\PSoC4/StripLights_fonts.c ****            break;
  53              		.loc 1 149 0
  54 001c 0BE0     		b	.L1
  55              	.L5:
 150:Generated_Source\PSoC4/StripLights_fonts.c ****            
 151:Generated_Source\PSoC4/StripLights_fonts.c ****        default:
 152:Generated_Source\PSoC4/StripLights_fonts.c ****            StripLights_fontPtr = StripLights_Font5x7;
  56              		.loc 1 152 0
  57 001e 064A     		ldr	r2, .L6
  58 0020 064B     		ldr	r3, .L6+4
  59 0022 1A60     		str	r2, [r3]
 153:Generated_Source\PSoC4/StripLights_fonts.c ****            StripLights_fontX = StripLights_Font5x7_XSIZE;
  60              		.loc 1 153 0
  61 0024 0522     		movs	r2, #5
  62 0026 064B     		ldr	r3, .L6+8
  63 0028 1A60     		str	r2, [r3]
 154:Generated_Source\PSoC4/StripLights_fonts.c ****            StripLights_fontY = StripLights_Font5x7_YSIZE;
  64              		.loc 1 154 0
  65 002a 0232     		adds	r2, r2, #2
  66 002c 054B     		ldr	r3, .L6+12
  67 002e 1A60     		str	r2, [r3]
 155:Generated_Source\PSoC4/StripLights_fonts.c ****            StripLights_fontOffset = StripLights_Font5x7_OFFSET;
  68              		.loc 1 155 0
  69 0030 1932     		adds	r2, r2, #25
  70 0032 054B     		ldr	r3, .L6+16
  71 0034 1A60     		str	r2, [r3]
  72              	.L1:
 156:Generated_Source\PSoC4/StripLights_fonts.c ****            break;
ARM GAS  C:\Users\JAMESS~1\AppData\Local\Temp\ccs0turg.s 			page 5


 157:Generated_Source\PSoC4/StripLights_fonts.c ****     }
 158:Generated_Source\PSoC4/StripLights_fonts.c **** }
  73              		.loc 1 158 0
  74              		@ sp needed
  75 0036 7047     		bx	lr
  76              	.L7:
  77              		.align	2
  78              	.L6:
  79 0038 00000000 		.word	.LANCHOR0
  80 003c 00000000 		.word	StripLights_fontPtr
  81 0040 00000000 		.word	StripLights_fontX
  82 0044 00000000 		.word	StripLights_fontY
  83 0048 00000000 		.word	StripLights_fontOffset
  84              		.cfi_endproc
  85              	.LFE32:
  86              		.size	StripLights_SetFont, .-StripLights_SetFont
  87              		.section	.text.StripLights_PutChar,"ax",%progbits
  88              		.align	2
  89              		.global	StripLights_PutChar
  90              		.code	16
  91              		.thumb_func
  92              		.type	StripLights_PutChar, %function
  93              	StripLights_PutChar:
  94              	.LFB34:
 159:Generated_Source\PSoC4/StripLights_fonts.c **** 
 160:Generated_Source\PSoC4/StripLights_fonts.c **** 
 161:Generated_Source\PSoC4/StripLights_fonts.c **** /*******************************************************************************
 162:Generated_Source\PSoC4/StripLights_fonts.c **** * Function Name: StripLights_PrintString
 163:Generated_Source\PSoC4/StripLights_fonts.c **** ********************************************************************************
 164:Generated_Source\PSoC4/StripLights_fonts.c **** * Summary:
 165:Generated_Source\PSoC4/StripLights_fonts.c **** *   Print string at the given location.
 166:Generated_Source\PSoC4/StripLights_fonts.c **** *
 167:Generated_Source\PSoC4/StripLights_fonts.c **** * Parameters:  
 168:Generated_Source\PSoC4/StripLights_fonts.c **** *  uint32 xpos: X location at which to start string.
 169:Generated_Source\PSoC4/StripLights_fonts.c **** *  uint32 ypos: Upper Y location to place string.
 170:Generated_Source\PSoC4/StripLights_fonts.c **** *  char * theString:  The string to print.
 171:Generated_Source\PSoC4/StripLights_fonts.c **** *  uint32 fg: The forground fount color.
 172:Generated_Source\PSoC4/StripLights_fonts.c **** *  uint32 bg: Background color
 173:Generated_Source\PSoC4/StripLights_fonts.c **** *
 174:Generated_Source\PSoC4/StripLights_fonts.c **** * Return: 
 175:Generated_Source\PSoC4/StripLights_fonts.c **** *  void
 176:Generated_Source\PSoC4/StripLights_fonts.c **** *
 177:Generated_Source\PSoC4/StripLights_fonts.c **** *******************************************************************************/
 178:Generated_Source\PSoC4/StripLights_fonts.c **** void StripLights_PrintString(int32 xpos, int32 ypos, char * theString, uint32 fg, uint32 bg)
 179:Generated_Source\PSoC4/StripLights_fonts.c **** {
 180:Generated_Source\PSoC4/StripLights_fonts.c ****     uint32 strPos = 0;
 181:Generated_Source\PSoC4/StripLights_fonts.c ****     uint32 yStop;
 182:Generated_Source\PSoC4/StripLights_fonts.c ****     
 183:Generated_Source\PSoC4/StripLights_fonts.c ****     yStop = ypos + StripLights_fontY;
 184:Generated_Source\PSoC4/StripLights_fonts.c ****     if(yStop > StripLights_MAX_Y) yStop = StripLights_MAX_Y;
 185:Generated_Source\PSoC4/StripLights_fonts.c ****     
 186:Generated_Source\PSoC4/StripLights_fonts.c ****     while(theString[strPos] != 0)
 187:Generated_Source\PSoC4/StripLights_fonts.c ****     {
 188:Generated_Source\PSoC4/StripLights_fonts.c **** 		// Print character
 189:Generated_Source\PSoC4/StripLights_fonts.c ****         if(fg == StripLights_COLORWHEEL_FONT)
 190:Generated_Source\PSoC4/StripLights_fonts.c ****         {
 191:Generated_Source\PSoC4/StripLights_fonts.c ****             StripLights_PutChar(xpos, ypos, theString[strPos], StripLights_ColorInc(1), bg);
ARM GAS  C:\Users\JAMESS~1\AppData\Local\Temp\ccs0turg.s 			page 6


 192:Generated_Source\PSoC4/StripLights_fonts.c ****         }
 193:Generated_Source\PSoC4/StripLights_fonts.c ****         else
 194:Generated_Source\PSoC4/StripLights_fonts.c ****         {
 195:Generated_Source\PSoC4/StripLights_fonts.c ****             StripLights_PutChar(xpos, ypos, theString[strPos], fg, bg);
 196:Generated_Source\PSoC4/StripLights_fonts.c ****         }
 197:Generated_Source\PSoC4/StripLights_fonts.c ****         strPos++;   // Advance to next character
 198:Generated_Source\PSoC4/StripLights_fonts.c ****         xpos += StripLights_fontX;  // Advance to next x location for next character
 199:Generated_Source\PSoC4/StripLights_fonts.c **** 		
 200:Generated_Source\PSoC4/StripLights_fonts.c **** 		// If not last character clear out area between characters.
 201:Generated_Source\PSoC4/StripLights_fonts.c ****         if(theString[strPos] != 0)
 202:Generated_Source\PSoC4/StripLights_fonts.c ****         {
 203:Generated_Source\PSoC4/StripLights_fonts.c **** 			if(bg != StripLights_TRANS_BG)
 204:Generated_Source\PSoC4/StripLights_fonts.c **** 			{
 205:Generated_Source\PSoC4/StripLights_fonts.c **** 			     StripLights_DrawLine(xpos, ypos, xpos, ypos+StripLights_fontY, bg);
 206:Generated_Source\PSoC4/StripLights_fonts.c **** 			}
 207:Generated_Source\PSoC4/StripLights_fonts.c ****         }
 208:Generated_Source\PSoC4/StripLights_fonts.c ****         xpos++;
 209:Generated_Source\PSoC4/StripLights_fonts.c ****     }
 210:Generated_Source\PSoC4/StripLights_fonts.c **** 	if(bg != StripLights_TRANS_BG)
 211:Generated_Source\PSoC4/StripLights_fonts.c **** 	{
 212:Generated_Source\PSoC4/StripLights_fonts.c ****         StripLights_DrawLine(xpos-1, ypos, xpos-1, ypos+StripLights_fontY, bg);
 213:Generated_Source\PSoC4/StripLights_fonts.c **** 	}
 214:Generated_Source\PSoC4/StripLights_fonts.c **** }
 215:Generated_Source\PSoC4/StripLights_fonts.c **** 
 216:Generated_Source\PSoC4/StripLights_fonts.c **** /*******************************************************************************
 217:Generated_Source\PSoC4/StripLights_fonts.c **** * Function Name: StripLights_PutChar
 218:Generated_Source\PSoC4/StripLights_fonts.c **** ********************************************************************************
 219:Generated_Source\PSoC4/StripLights_fonts.c **** * Summary:
 220:Generated_Source\PSoC4/StripLights_fonts.c **** *   Print character at the given location.
 221:Generated_Source\PSoC4/StripLights_fonts.c **** *
 222:Generated_Source\PSoC4/StripLights_fonts.c **** * Parameters:  
 223:Generated_Source\PSoC4/StripLights_fonts.c **** *  uint32 xpos: X location at which to start string.
 224:Generated_Source\PSoC4/StripLights_fonts.c **** *  uint32 ypos: Upper Y location to place string.
 225:Generated_Source\PSoC4/StripLights_fonts.c **** *  char theChar:  The character to print.
 226:Generated_Source\PSoC4/StripLights_fonts.c **** *  uint32 fg: The forground fount color.
 227:Generated_Source\PSoC4/StripLights_fonts.c **** *  uint32 bg: Background color
 228:Generated_Source\PSoC4/StripLights_fonts.c **** *
 229:Generated_Source\PSoC4/StripLights_fonts.c **** * Return: 
 230:Generated_Source\PSoC4/StripLights_fonts.c **** *  void
 231:Generated_Source\PSoC4/StripLights_fonts.c **** *
 232:Generated_Source\PSoC4/StripLights_fonts.c **** *******************************************************************************/
 233:Generated_Source\PSoC4/StripLights_fonts.c **** void StripLights_PutChar(int32 xpos, int32 ypos, uint8 theChar, uint32 fg, uint32 bg)
 234:Generated_Source\PSoC4/StripLights_fonts.c **** {
  95              		.loc 1 234 0
  96              		.cfi_startproc
  97              		@ args = 4, pretend = 0, frame = 8
  98              		@ frame_needed = 0, uses_anonymous_args = 0
  99              	.LVL1:
 100 0000 F0B5     		push	{r4, r5, r6, r7, lr}
 101              		.cfi_def_cfa_offset 20
 102              		.cfi_offset 4, -20
 103              		.cfi_offset 5, -16
 104              		.cfi_offset 6, -12
 105              		.cfi_offset 7, -8
 106              		.cfi_offset 14, -4
 107 0002 5F46     		mov	r7, fp
 108 0004 5646     		mov	r6, r10
ARM GAS  C:\Users\JAMESS~1\AppData\Local\Temp\ccs0turg.s 			page 7


 109 0006 4D46     		mov	r5, r9
 110 0008 E0B4     		push	{r5, r6, r7}
 111              		.cfi_def_cfa_offset 32
 112              		.cfi_offset 9, -32
 113              		.cfi_offset 10, -28
 114              		.cfi_offset 11, -24
 115 000a 82B0     		sub	sp, sp, #8
 116              		.cfi_def_cfa_offset 40
 117 000c 0600     		movs	r6, r0
 118 000e 0191     		str	r1, [sp, #4]
 119 0010 0093     		str	r3, [sp]
 120 0012 0A9B     		ldr	r3, [sp, #40]
 121              	.LVL2:
 122 0014 9A46     		mov	r10, r3
 235:Generated_Source\PSoC4/StripLights_fonts.c ****     int32 x,y, fp;
 236:Generated_Source\PSoC4/StripLights_fonts.c ****     uint8 mask;
 237:Generated_Source\PSoC4/StripLights_fonts.c ****     int32 yStop, xStop;
 238:Generated_Source\PSoC4/StripLights_fonts.c ****    
 239:Generated_Source\PSoC4/StripLights_fonts.c ****     fp = (theChar - StripLights_fontOffset) * StripLights_fontX;
 123              		.loc 1 239 0
 124 0016 1D4B     		ldr	r3, .L15
 125 0018 1B68     		ldr	r3, [r3]
 126 001a D21A     		subs	r2, r2, r3
 127              	.LVL3:
 128 001c 1C4B     		ldr	r3, .L15+4
 129 001e 1B68     		ldr	r3, [r3]
 130 0020 5A43     		muls	r2, r3
 131 0022 9146     		mov	r9, r2
 132              	.LVL4:
 240:Generated_Source\PSoC4/StripLights_fonts.c ****    
 241:Generated_Source\PSoC4/StripLights_fonts.c ****     xStop = xpos + StripLights_fontX;
 133              		.loc 1 241 0
 134 0024 9B46     		mov	fp, r3
 135 0026 8344     		add	fp, fp, r0
 136              	.LVL5:
 242:Generated_Source\PSoC4/StripLights_fonts.c **** //    if(xStop > StripLights_MAX_X) xStop = StripLights_MAX_X;
 243:Generated_Source\PSoC4/StripLights_fonts.c **** //   
 244:Generated_Source\PSoC4/StripLights_fonts.c ****     yStop = ypos + StripLights_fontY;
 137              		.loc 1 244 0
 138 0028 1A4B     		ldr	r3, .L15+8
 139 002a 1B68     		ldr	r3, [r3]
 140 002c 5F18     		adds	r7, r3, r1
 141              	.LVL6:
 245:Generated_Source\PSoC4/StripLights_fonts.c **** //    if(yStop > StripLights_MAX_Y) yStop = StripLights_MAX_Y;
 246:Generated_Source\PSoC4/StripLights_fonts.c ****    
 247:Generated_Source\PSoC4/StripLights_fonts.c ****     for( x = xpos; x < xStop; x++)
 142              		.loc 1 247 0
 143 002e 24E0     		b	.L9
 144              	.LVL7:
 145              	.L12:
 248:Generated_Source\PSoC4/StripLights_fonts.c ****     {
 249:Generated_Source\PSoC4/StripLights_fonts.c ****         mask = 0x01;
 250:Generated_Source\PSoC4/StripLights_fonts.c ****         for(y = ypos; y <= yStop; y++)
 251:Generated_Source\PSoC4/StripLights_fonts.c ****         {
 252:Generated_Source\PSoC4/StripLights_fonts.c ****             if((y >= 0) && (x >= 0))
 146              		.loc 1 252 0
 147 0030 002D     		cmp	r5, #0
ARM GAS  C:\Users\JAMESS~1\AppData\Local\Temp\ccs0turg.s 			page 8


 148 0032 16DB     		blt	.L10
 149              		.loc 1 252 0 is_stmt 0 discriminator 1
 150 0034 002E     		cmp	r6, #0
 151 0036 14DB     		blt	.L10
 253:Generated_Source\PSoC4/StripLights_fonts.c ****             {
 254:Generated_Source\PSoC4/StripLights_fonts.c ****                 if(mask & StripLights_fontPtr[fp])
 152              		.loc 1 254 0 is_stmt 1
 153 0038 174B     		ldr	r3, .L15+12
 154 003a 1B68     		ldr	r3, [r3]
 155 003c 4A46     		mov	r2, r9
 156 003e 9B5C     		ldrb	r3, [r3, r2]
 157 0040 2342     		tst	r3, r4
 158 0042 05D0     		beq	.L11
 159              	.LVL8:
 255:Generated_Source\PSoC4/StripLights_fonts.c ****                 { 
 256:Generated_Source\PSoC4/StripLights_fonts.c **** 				     StripLights_Pixel( x, y, fg);
 160              		.loc 1 256 0
 161 0044 009A     		ldr	r2, [sp]
 162              	.LVL9:
 163 0046 2900     		movs	r1, r5
 164 0048 3000     		movs	r0, r6
 165 004a FFF7FEFF 		bl	StripLights_Pixel
 166              	.LVL10:
 167 004e 08E0     		b	.L10
 168              	.LVL11:
 169              	.L11:
 257:Generated_Source\PSoC4/StripLights_fonts.c ****                 }
 258:Generated_Source\PSoC4/StripLights_fonts.c ****                 else
 259:Generated_Source\PSoC4/StripLights_fonts.c ****                 {
 260:Generated_Source\PSoC4/StripLights_fonts.c **** 					if(bg != StripLights_TRANS_BG)
 170              		.loc 1 260 0
 171 0050 FF23     		movs	r3, #255
 172 0052 1B06     		lsls	r3, r3, #24
 173 0054 9A45     		cmp	r10, r3
 174 0056 04D0     		beq	.L10
 261:Generated_Source\PSoC4/StripLights_fonts.c **** 					{
 262:Generated_Source\PSoC4/StripLights_fonts.c **** 				        StripLights_Pixel( x, y, bg);
 175              		.loc 1 262 0
 176 0058 5246     		mov	r2, r10
 177              	.LVL12:
 178 005a 2900     		movs	r1, r5
 179 005c 3000     		movs	r0, r6
 180 005e FFF7FEFF 		bl	StripLights_Pixel
 181              	.LVL13:
 182              	.L10:
 263:Generated_Source\PSoC4/StripLights_fonts.c **** 					}
 264:Generated_Source\PSoC4/StripLights_fonts.c ****                 }
 265:Generated_Source\PSoC4/StripLights_fonts.c ****             }
 266:Generated_Source\PSoC4/StripLights_fonts.c ****             mask = mask << 1;
 183              		.loc 1 266 0 discriminator 2
 184 0062 6400     		lsls	r4, r4, #1
 185              	.LVL14:
 186 0064 E4B2     		uxtb	r4, r4
 187              	.LVL15:
 250:Generated_Source\PSoC4/StripLights_fonts.c ****         {
 188              		.loc 1 250 0 discriminator 2
 189 0066 0135     		adds	r5, r5, #1
ARM GAS  C:\Users\JAMESS~1\AppData\Local\Temp\ccs0turg.s 			page 9


 190              	.LVL16:
 191 0068 01E0     		b	.L13
 192              	.LVL17:
 193              	.L14:
 194 006a 019D     		ldr	r5, [sp, #4]
 195 006c 0124     		movs	r4, #1
 196              	.L13:
 197              	.LVL18:
 250:Generated_Source\PSoC4/StripLights_fonts.c ****         {
 198              		.loc 1 250 0 is_stmt 0 discriminator 1
 199 006e BD42     		cmp	r5, r7
 200 0070 DEDD     		ble	.L12
 267:Generated_Source\PSoC4/StripLights_fonts.c ****         }
 268:Generated_Source\PSoC4/StripLights_fonts.c ****         fp++;
 201              		.loc 1 268 0 is_stmt 1 discriminator 2
 202 0072 0123     		movs	r3, #1
 203 0074 9C46     		mov	ip, r3
 204 0076 E144     		add	r9, r9, ip
 205              	.LVL19:
 247:Generated_Source\PSoC4/StripLights_fonts.c ****     {
 206              		.loc 1 247 0 discriminator 2
 207 0078 0136     		adds	r6, r6, #1
 208              	.LVL20:
 209              	.L9:
 247:Generated_Source\PSoC4/StripLights_fonts.c ****     {
 210              		.loc 1 247 0 is_stmt 0 discriminator 1
 211 007a 5E45     		cmp	r6, fp
 212 007c F5DB     		blt	.L14
 269:Generated_Source\PSoC4/StripLights_fonts.c ****     }
 270:Generated_Source\PSoC4/StripLights_fonts.c **** }
 213              		.loc 1 270 0 is_stmt 1
 214 007e 02B0     		add	sp, sp, #8
 215              	.LVL21:
 216              		@ sp needed
 217              	.LVL22:
 218              	.LVL23:
 219              	.LVL24:
 220              	.LVL25:
 221 0080 1CBC     		pop	{r2, r3, r4}
 222 0082 9146     		mov	r9, r2
 223 0084 9A46     		mov	r10, r3
 224 0086 A346     		mov	fp, r4
 225 0088 F0BD     		pop	{r4, r5, r6, r7, pc}
 226              	.L16:
 227 008a C046     		.align	2
 228              	.L15:
 229 008c 00000000 		.word	StripLights_fontOffset
 230 0090 00000000 		.word	StripLights_fontX
 231 0094 00000000 		.word	StripLights_fontY
 232 0098 00000000 		.word	StripLights_fontPtr
 233              		.cfi_endproc
 234              	.LFE34:
 235              		.size	StripLights_PutChar, .-StripLights_PutChar
 236              		.section	.text.StripLights_PrintString,"ax",%progbits
 237              		.align	2
 238              		.global	StripLights_PrintString
 239              		.code	16
ARM GAS  C:\Users\JAMESS~1\AppData\Local\Temp\ccs0turg.s 			page 10


 240              		.thumb_func
 241              		.type	StripLights_PrintString, %function
 242              	StripLights_PrintString:
 243              	.LFB33:
 179:Generated_Source\PSoC4/StripLights_fonts.c ****     uint32 strPos = 0;
 244              		.loc 1 179 0
 245              		.cfi_startproc
 246              		@ args = 4, pretend = 0, frame = 8
 247              		@ frame_needed = 0, uses_anonymous_args = 0
 248              	.LVL26:
 249 0000 F0B5     		push	{r4, r5, r6, r7, lr}
 250              		.cfi_def_cfa_offset 20
 251              		.cfi_offset 4, -20
 252              		.cfi_offset 5, -16
 253              		.cfi_offset 6, -12
 254              		.cfi_offset 7, -8
 255              		.cfi_offset 14, -4
 256 0002 5746     		mov	r7, r10
 257 0004 4646     		mov	r6, r8
 258 0006 C0B4     		push	{r6, r7}
 259              		.cfi_def_cfa_offset 28
 260              		.cfi_offset 8, -28
 261              		.cfi_offset 10, -24
 262 0008 85B0     		sub	sp, sp, #20
 263              		.cfi_def_cfa_offset 48
 264 000a 0400     		movs	r4, r0
 265 000c 0391     		str	r1, [sp, #12]
 266 000e 9046     		mov	r8, r2
 267 0010 9A46     		mov	r10, r3
 268 0012 0C9F     		ldr	r7, [sp, #48]
 269              	.LVL27:
 180:Generated_Source\PSoC4/StripLights_fonts.c ****     uint32 yStop;
 270              		.loc 1 180 0
 271 0014 0025     		movs	r5, #0
 272 0016 2CE0     		b	.L18
 273              	.LVL28:
 274              	.L22:
 189:Generated_Source\PSoC4/StripLights_fonts.c ****         {
 275              		.loc 1 189 0
 276 0018 8023     		movs	r3, #128
 277              	.LVL29:
 278 001a 1B06     		lsls	r3, r3, #24
 279 001c 9A45     		cmp	r10, r3
 280 001e 0AD1     		bne	.L19
 191:Generated_Source\PSoC4/StripLights_fonts.c ****         }
 281              		.loc 1 191 0
 282 0020 0120     		movs	r0, #1
 283 0022 FFF7FEFF 		bl	StripLights_ColorInc
 284              	.LVL30:
 285 0026 0300     		movs	r3, r0
 286 0028 0097     		str	r7, [sp]
 287 002a 3200     		movs	r2, r6
 288 002c 0399     		ldr	r1, [sp, #12]
 289 002e 2000     		movs	r0, r4
 290 0030 FFF7FEFF 		bl	StripLights_PutChar
 291              	.LVL31:
 292 0034 06E0     		b	.L20
ARM GAS  C:\Users\JAMESS~1\AppData\Local\Temp\ccs0turg.s 			page 11


 293              	.L19:
 195:Generated_Source\PSoC4/StripLights_fonts.c ****         }
 294              		.loc 1 195 0
 295 0036 0097     		str	r7, [sp]
 296 0038 5346     		mov	r3, r10
 297 003a 3200     		movs	r2, r6
 298 003c 0399     		ldr	r1, [sp, #12]
 299 003e 2000     		movs	r0, r4
 300 0040 FFF7FEFF 		bl	StripLights_PutChar
 301              	.LVL32:
 302              	.L20:
 197:Generated_Source\PSoC4/StripLights_fonts.c ****         xpos += StripLights_fontX;  // Advance to next x location for next character
 303              		.loc 1 197 0
 304 0044 0135     		adds	r5, r5, #1
 305              	.LVL33:
 198:Generated_Source\PSoC4/StripLights_fonts.c **** 		
 306              		.loc 1 198 0
 307 0046 164B     		ldr	r3, .L24
 308 0048 1868     		ldr	r0, [r3]
 309 004a 2418     		adds	r4, r4, r0
 310              	.LVL34:
 201:Generated_Source\PSoC4/StripLights_fonts.c ****         {
 311              		.loc 1 201 0
 312 004c 4346     		mov	r3, r8
 313 004e 5B5D     		ldrb	r3, [r3, r5]
 314 0050 002B     		cmp	r3, #0
 315 0052 0DD0     		beq	.L21
 203:Generated_Source\PSoC4/StripLights_fonts.c **** 			{
 316              		.loc 1 203 0
 317 0054 FF23     		movs	r3, #255
 318 0056 1B06     		lsls	r3, r3, #24
 319 0058 9F42     		cmp	r7, r3
 320 005a 09D0     		beq	.L21
 205:Generated_Source\PSoC4/StripLights_fonts.c **** 			}
 321              		.loc 1 205 0
 322 005c 114B     		ldr	r3, .L24+4
 323 005e 1B68     		ldr	r3, [r3]
 324 0060 0399     		ldr	r1, [sp, #12]
 325 0062 8C46     		mov	ip, r1
 326 0064 6344     		add	r3, r3, ip
 327 0066 0097     		str	r7, [sp]
 328 0068 2200     		movs	r2, r4
 329 006a 2000     		movs	r0, r4
 330 006c FFF7FEFF 		bl	StripLights_DrawLine
 331              	.LVL35:
 332              	.L21:
 208:Generated_Source\PSoC4/StripLights_fonts.c ****     }
 333              		.loc 1 208 0
 334 0070 0134     		adds	r4, r4, #1
 335              	.LVL36:
 336              	.L18:
 186:Generated_Source\PSoC4/StripLights_fonts.c ****     {
 337              		.loc 1 186 0
 338 0072 4346     		mov	r3, r8
 339 0074 5E5D     		ldrb	r6, [r3, r5]
 340 0076 002E     		cmp	r6, #0
 341 0078 CED1     		bne	.L22
ARM GAS  C:\Users\JAMESS~1\AppData\Local\Temp\ccs0turg.s 			page 12


 342              	.LVL37:
 210:Generated_Source\PSoC4/StripLights_fonts.c **** 	{
 343              		.loc 1 210 0
 344 007a FF23     		movs	r3, #255
 345              	.LVL38:
 346 007c 1B06     		lsls	r3, r3, #24
 347 007e 9F42     		cmp	r7, r3
 348 0080 09D0     		beq	.L17
 212:Generated_Source\PSoC4/StripLights_fonts.c **** 	}
 349              		.loc 1 212 0
 350 0082 601E     		subs	r0, r4, #1
 351 0084 074B     		ldr	r3, .L24+4
 352 0086 1B68     		ldr	r3, [r3]
 353 0088 0399     		ldr	r1, [sp, #12]
 354 008a 8C46     		mov	ip, r1
 355 008c 6344     		add	r3, r3, ip
 356 008e 0097     		str	r7, [sp]
 357 0090 0200     		movs	r2, r0
 358 0092 FFF7FEFF 		bl	StripLights_DrawLine
 359              	.LVL39:
 360              	.L17:
 214:Generated_Source\PSoC4/StripLights_fonts.c **** 
 361              		.loc 1 214 0
 362 0096 05B0     		add	sp, sp, #20
 363              		@ sp needed
 364              	.LVL40:
 365              	.LVL41:
 366              	.LVL42:
 367              	.LVL43:
 368 0098 0CBC     		pop	{r2, r3}
 369 009a 9046     		mov	r8, r2
 370 009c 9A46     		mov	r10, r3
 371 009e F0BD     		pop	{r4, r5, r6, r7, pc}
 372              	.L25:
 373              		.align	2
 374              	.L24:
 375 00a0 00000000 		.word	StripLights_fontX
 376 00a4 00000000 		.word	StripLights_fontY
 377              		.cfi_endproc
 378              	.LFE33:
 379              		.size	StripLights_PrintString, .-StripLights_PrintString
 380              		.global	StripLights_Font5x7
 381              		.comm	StripLights_fontOffset,4,4
 382              		.comm	StripLights_fontY,4,4
 383              		.comm	StripLights_fontX,4,4
 384              		.comm	StripLights_fontPtr,4,4
 385              		.section	.rodata
 386              		.align	2
 387              		.set	.LANCHOR0,. + 0
 388              		.type	StripLights_Font5x7, %object
 389              		.size	StripLights_Font5x7, 480
 390              	StripLights_Font5x7:
 391 0000 00       		.byte	0
 392 0001 00       		.byte	0
 393 0002 00       		.byte	0
 394 0003 00       		.byte	0
 395 0004 00       		.byte	0
ARM GAS  C:\Users\JAMESS~1\AppData\Local\Temp\ccs0turg.s 			page 13


 396 0005 00       		.byte	0
 397 0006 00       		.byte	0
 398 0007 5F       		.byte	95
 399 0008 00       		.byte	0
 400 0009 00       		.byte	0
 401 000a 00       		.byte	0
 402 000b 07       		.byte	7
 403 000c 00       		.byte	0
 404 000d 07       		.byte	7
 405 000e 00       		.byte	0
 406 000f 14       		.byte	20
 407 0010 7F       		.byte	127
 408 0011 14       		.byte	20
 409 0012 7F       		.byte	127
 410 0013 14       		.byte	20
 411 0014 24       		.byte	36
 412 0015 2A       		.byte	42
 413 0016 7F       		.byte	127
 414 0017 2A       		.byte	42
 415 0018 12       		.byte	18
 416 0019 23       		.byte	35
 417 001a 13       		.byte	19
 418 001b 08       		.byte	8
 419 001c 64       		.byte	100
 420 001d 62       		.byte	98
 421 001e 36       		.byte	54
 422 001f 49       		.byte	73
 423 0020 55       		.byte	85
 424 0021 22       		.byte	34
 425 0022 50       		.byte	80
 426 0023 00       		.byte	0
 427 0024 05       		.byte	5
 428 0025 03       		.byte	3
 429 0026 00       		.byte	0
 430 0027 00       		.byte	0
 431 0028 00       		.byte	0
 432 0029 1C       		.byte	28
 433 002a 22       		.byte	34
 434 002b 41       		.byte	65
 435 002c 00       		.byte	0
 436 002d 00       		.byte	0
 437 002e 41       		.byte	65
 438 002f 22       		.byte	34
 439 0030 1C       		.byte	28
 440 0031 00       		.byte	0
 441 0032 08       		.byte	8
 442 0033 2A       		.byte	42
 443 0034 1C       		.byte	28
 444 0035 2A       		.byte	42
 445 0036 08       		.byte	8
 446 0037 08       		.byte	8
 447 0038 08       		.byte	8
 448 0039 3E       		.byte	62
 449 003a 08       		.byte	8
 450 003b 08       		.byte	8
 451 003c 00       		.byte	0
 452 003d 50       		.byte	80
ARM GAS  C:\Users\JAMESS~1\AppData\Local\Temp\ccs0turg.s 			page 14


 453 003e 30       		.byte	48
 454 003f 00       		.byte	0
 455 0040 00       		.byte	0
 456 0041 08       		.byte	8
 457 0042 08       		.byte	8
 458 0043 08       		.byte	8
 459 0044 08       		.byte	8
 460 0045 08       		.byte	8
 461 0046 00       		.byte	0
 462 0047 60       		.byte	96
 463 0048 60       		.byte	96
 464 0049 00       		.byte	0
 465 004a 00       		.byte	0
 466 004b 20       		.byte	32
 467 004c 10       		.byte	16
 468 004d 08       		.byte	8
 469 004e 04       		.byte	4
 470 004f 02       		.byte	2
 471 0050 3E       		.byte	62
 472 0051 51       		.byte	81
 473 0052 49       		.byte	73
 474 0053 45       		.byte	69
 475 0054 3E       		.byte	62
 476 0055 00       		.byte	0
 477 0056 42       		.byte	66
 478 0057 7F       		.byte	127
 479 0058 40       		.byte	64
 480 0059 00       		.byte	0
 481 005a 42       		.byte	66
 482 005b 61       		.byte	97
 483 005c 51       		.byte	81
 484 005d 49       		.byte	73
 485 005e 46       		.byte	70
 486 005f 21       		.byte	33
 487 0060 41       		.byte	65
 488 0061 45       		.byte	69
 489 0062 4B       		.byte	75
 490 0063 31       		.byte	49
 491 0064 18       		.byte	24
 492 0065 14       		.byte	20
 493 0066 12       		.byte	18
 494 0067 7F       		.byte	127
 495 0068 10       		.byte	16
 496 0069 27       		.byte	39
 497 006a 45       		.byte	69
 498 006b 45       		.byte	69
 499 006c 45       		.byte	69
 500 006d 39       		.byte	57
 501 006e 3C       		.byte	60
 502 006f 4A       		.byte	74
 503 0070 49       		.byte	73
 504 0071 49       		.byte	73
 505 0072 30       		.byte	48
 506 0073 01       		.byte	1
 507 0074 71       		.byte	113
 508 0075 09       		.byte	9
 509 0076 05       		.byte	5
ARM GAS  C:\Users\JAMESS~1\AppData\Local\Temp\ccs0turg.s 			page 15


 510 0077 03       		.byte	3
 511 0078 36       		.byte	54
 512 0079 49       		.byte	73
 513 007a 49       		.byte	73
 514 007b 49       		.byte	73
 515 007c 36       		.byte	54
 516 007d 06       		.byte	6
 517 007e 49       		.byte	73
 518 007f 49       		.byte	73
 519 0080 29       		.byte	41
 520 0081 1E       		.byte	30
 521 0082 00       		.byte	0
 522 0083 36       		.byte	54
 523 0084 36       		.byte	54
 524 0085 00       		.byte	0
 525 0086 00       		.byte	0
 526 0087 00       		.byte	0
 527 0088 56       		.byte	86
 528 0089 36       		.byte	54
 529 008a 00       		.byte	0
 530 008b 00       		.byte	0
 531 008c 00       		.byte	0
 532 008d 08       		.byte	8
 533 008e 14       		.byte	20
 534 008f 22       		.byte	34
 535 0090 41       		.byte	65
 536 0091 14       		.byte	20
 537 0092 14       		.byte	20
 538 0093 14       		.byte	20
 539 0094 14       		.byte	20
 540 0095 14       		.byte	20
 541 0096 41       		.byte	65
 542 0097 22       		.byte	34
 543 0098 14       		.byte	20
 544 0099 08       		.byte	8
 545 009a 00       		.byte	0
 546 009b 02       		.byte	2
 547 009c 01       		.byte	1
 548 009d 51       		.byte	81
 549 009e 09       		.byte	9
 550 009f 06       		.byte	6
 551 00a0 32       		.byte	50
 552 00a1 49       		.byte	73
 553 00a2 79       		.byte	121
 554 00a3 41       		.byte	65
 555 00a4 3E       		.byte	62
 556 00a5 7E       		.byte	126
 557 00a6 11       		.byte	17
 558 00a7 11       		.byte	17
 559 00a8 11       		.byte	17
 560 00a9 7E       		.byte	126
 561 00aa 7F       		.byte	127
 562 00ab 49       		.byte	73
 563 00ac 49       		.byte	73
 564 00ad 49       		.byte	73
 565 00ae 36       		.byte	54
 566 00af 3E       		.byte	62
ARM GAS  C:\Users\JAMESS~1\AppData\Local\Temp\ccs0turg.s 			page 16


 567 00b0 41       		.byte	65
 568 00b1 41       		.byte	65
 569 00b2 41       		.byte	65
 570 00b3 22       		.byte	34
 571 00b4 7F       		.byte	127
 572 00b5 41       		.byte	65
 573 00b6 41       		.byte	65
 574 00b7 22       		.byte	34
 575 00b8 1C       		.byte	28
 576 00b9 7F       		.byte	127
 577 00ba 49       		.byte	73
 578 00bb 49       		.byte	73
 579 00bc 49       		.byte	73
 580 00bd 41       		.byte	65
 581 00be 7F       		.byte	127
 582 00bf 09       		.byte	9
 583 00c0 09       		.byte	9
 584 00c1 01       		.byte	1
 585 00c2 01       		.byte	1
 586 00c3 3E       		.byte	62
 587 00c4 41       		.byte	65
 588 00c5 41       		.byte	65
 589 00c6 51       		.byte	81
 590 00c7 32       		.byte	50
 591 00c8 7F       		.byte	127
 592 00c9 08       		.byte	8
 593 00ca 08       		.byte	8
 594 00cb 08       		.byte	8
 595 00cc 7F       		.byte	127
 596 00cd 00       		.byte	0
 597 00ce 41       		.byte	65
 598 00cf 7F       		.byte	127
 599 00d0 41       		.byte	65
 600 00d1 00       		.byte	0
 601 00d2 20       		.byte	32
 602 00d3 40       		.byte	64
 603 00d4 41       		.byte	65
 604 00d5 3F       		.byte	63
 605 00d6 01       		.byte	1
 606 00d7 7F       		.byte	127
 607 00d8 08       		.byte	8
 608 00d9 14       		.byte	20
 609 00da 22       		.byte	34
 610 00db 41       		.byte	65
 611 00dc 7F       		.byte	127
 612 00dd 40       		.byte	64
 613 00de 40       		.byte	64
 614 00df 40       		.byte	64
 615 00e0 40       		.byte	64
 616 00e1 7F       		.byte	127
 617 00e2 02       		.byte	2
 618 00e3 04       		.byte	4
 619 00e4 02       		.byte	2
 620 00e5 7F       		.byte	127
 621 00e6 7F       		.byte	127
 622 00e7 04       		.byte	4
 623 00e8 08       		.byte	8
ARM GAS  C:\Users\JAMESS~1\AppData\Local\Temp\ccs0turg.s 			page 17


 624 00e9 10       		.byte	16
 625 00ea 7F       		.byte	127
 626 00eb 3E       		.byte	62
 627 00ec 41       		.byte	65
 628 00ed 41       		.byte	65
 629 00ee 41       		.byte	65
 630 00ef 3E       		.byte	62
 631 00f0 7F       		.byte	127
 632 00f1 09       		.byte	9
 633 00f2 09       		.byte	9
 634 00f3 09       		.byte	9
 635 00f4 06       		.byte	6
 636 00f5 3E       		.byte	62
 637 00f6 41       		.byte	65
 638 00f7 51       		.byte	81
 639 00f8 21       		.byte	33
 640 00f9 5E       		.byte	94
 641 00fa 7F       		.byte	127
 642 00fb 09       		.byte	9
 643 00fc 19       		.byte	25
 644 00fd 29       		.byte	41
 645 00fe 46       		.byte	70
 646 00ff 46       		.byte	70
 647 0100 49       		.byte	73
 648 0101 49       		.byte	73
 649 0102 49       		.byte	73
 650 0103 31       		.byte	49
 651 0104 01       		.byte	1
 652 0105 01       		.byte	1
 653 0106 7F       		.byte	127
 654 0107 01       		.byte	1
 655 0108 01       		.byte	1
 656 0109 3F       		.byte	63
 657 010a 40       		.byte	64
 658 010b 40       		.byte	64
 659 010c 40       		.byte	64
 660 010d 3F       		.byte	63
 661 010e 1F       		.byte	31
 662 010f 20       		.byte	32
 663 0110 40       		.byte	64
 664 0111 20       		.byte	32
 665 0112 1F       		.byte	31
 666 0113 7F       		.byte	127
 667 0114 20       		.byte	32
 668 0115 18       		.byte	24
 669 0116 20       		.byte	32
 670 0117 7F       		.byte	127
 671 0118 63       		.byte	99
 672 0119 14       		.byte	20
 673 011a 08       		.byte	8
 674 011b 14       		.byte	20
 675 011c 63       		.byte	99
 676 011d 03       		.byte	3
 677 011e 04       		.byte	4
 678 011f 78       		.byte	120
 679 0120 04       		.byte	4
 680 0121 03       		.byte	3
ARM GAS  C:\Users\JAMESS~1\AppData\Local\Temp\ccs0turg.s 			page 18


 681 0122 61       		.byte	97
 682 0123 51       		.byte	81
 683 0124 49       		.byte	73
 684 0125 45       		.byte	69
 685 0126 43       		.byte	67
 686 0127 00       		.byte	0
 687 0128 00       		.byte	0
 688 0129 7F       		.byte	127
 689 012a 41       		.byte	65
 690 012b 41       		.byte	65
 691 012c 02       		.byte	2
 692 012d 04       		.byte	4
 693 012e 08       		.byte	8
 694 012f 10       		.byte	16
 695 0130 20       		.byte	32
 696 0131 41       		.byte	65
 697 0132 41       		.byte	65
 698 0133 7F       		.byte	127
 699 0134 00       		.byte	0
 700 0135 00       		.byte	0
 701 0136 04       		.byte	4
 702 0137 02       		.byte	2
 703 0138 01       		.byte	1
 704 0139 02       		.byte	2
 705 013a 04       		.byte	4
 706 013b 40       		.byte	64
 707 013c 40       		.byte	64
 708 013d 40       		.byte	64
 709 013e 40       		.byte	64
 710 013f 40       		.byte	64
 711 0140 00       		.byte	0
 712 0141 01       		.byte	1
 713 0142 02       		.byte	2
 714 0143 04       		.byte	4
 715 0144 00       		.byte	0
 716 0145 20       		.byte	32
 717 0146 54       		.byte	84
 718 0147 54       		.byte	84
 719 0148 54       		.byte	84
 720 0149 78       		.byte	120
 721 014a 7F       		.byte	127
 722 014b 48       		.byte	72
 723 014c 44       		.byte	68
 724 014d 44       		.byte	68
 725 014e 38       		.byte	56
 726 014f 38       		.byte	56
 727 0150 44       		.byte	68
 728 0151 44       		.byte	68
 729 0152 44       		.byte	68
 730 0153 20       		.byte	32
 731 0154 38       		.byte	56
 732 0155 44       		.byte	68
 733 0156 44       		.byte	68
 734 0157 48       		.byte	72
 735 0158 7F       		.byte	127
 736 0159 38       		.byte	56
 737 015a 54       		.byte	84
ARM GAS  C:\Users\JAMESS~1\AppData\Local\Temp\ccs0turg.s 			page 19


 738 015b 54       		.byte	84
 739 015c 54       		.byte	84
 740 015d 18       		.byte	24
 741 015e 08       		.byte	8
 742 015f 7E       		.byte	126
 743 0160 09       		.byte	9
 744 0161 01       		.byte	1
 745 0162 02       		.byte	2
 746 0163 08       		.byte	8
 747 0164 14       		.byte	20
 748 0165 54       		.byte	84
 749 0166 54       		.byte	84
 750 0167 3C       		.byte	60
 751 0168 7F       		.byte	127
 752 0169 08       		.byte	8
 753 016a 04       		.byte	4
 754 016b 04       		.byte	4
 755 016c 78       		.byte	120
 756 016d 00       		.byte	0
 757 016e 44       		.byte	68
 758 016f 7D       		.byte	125
 759 0170 40       		.byte	64
 760 0171 00       		.byte	0
 761 0172 20       		.byte	32
 762 0173 40       		.byte	64
 763 0174 44       		.byte	68
 764 0175 3D       		.byte	61
 765 0176 00       		.byte	0
 766 0177 00       		.byte	0
 767 0178 7F       		.byte	127
 768 0179 10       		.byte	16
 769 017a 28       		.byte	40
 770 017b 44       		.byte	68
 771 017c 00       		.byte	0
 772 017d 41       		.byte	65
 773 017e 7F       		.byte	127
 774 017f 40       		.byte	64
 775 0180 00       		.byte	0
 776 0181 7C       		.byte	124
 777 0182 04       		.byte	4
 778 0183 18       		.byte	24
 779 0184 04       		.byte	4
 780 0185 78       		.byte	120
 781 0186 7C       		.byte	124
 782 0187 08       		.byte	8
 783 0188 04       		.byte	4
 784 0189 04       		.byte	4
 785 018a 78       		.byte	120
 786 018b 38       		.byte	56
 787 018c 44       		.byte	68
 788 018d 44       		.byte	68
 789 018e 44       		.byte	68
 790 018f 38       		.byte	56
 791 0190 7C       		.byte	124
 792 0191 14       		.byte	20
 793 0192 14       		.byte	20
 794 0193 14       		.byte	20
ARM GAS  C:\Users\JAMESS~1\AppData\Local\Temp\ccs0turg.s 			page 20


 795 0194 08       		.byte	8
 796 0195 08       		.byte	8
 797 0196 14       		.byte	20
 798 0197 14       		.byte	20
 799 0198 18       		.byte	24
 800 0199 7C       		.byte	124
 801 019a 7C       		.byte	124
 802 019b 08       		.byte	8
 803 019c 04       		.byte	4
 804 019d 04       		.byte	4
 805 019e 08       		.byte	8
 806 019f 48       		.byte	72
 807 01a0 54       		.byte	84
 808 01a1 54       		.byte	84
 809 01a2 54       		.byte	84
 810 01a3 20       		.byte	32
 811 01a4 04       		.byte	4
 812 01a5 3F       		.byte	63
 813 01a6 44       		.byte	68
 814 01a7 40       		.byte	64
 815 01a8 20       		.byte	32
 816 01a9 3C       		.byte	60
 817 01aa 40       		.byte	64
 818 01ab 40       		.byte	64
 819 01ac 20       		.byte	32
 820 01ad 7C       		.byte	124
 821 01ae 1C       		.byte	28
 822 01af 20       		.byte	32
 823 01b0 40       		.byte	64
 824 01b1 20       		.byte	32
 825 01b2 1C       		.byte	28
 826 01b3 3C       		.byte	60
 827 01b4 40       		.byte	64
 828 01b5 30       		.byte	48
 829 01b6 40       		.byte	64
 830 01b7 3C       		.byte	60
 831 01b8 44       		.byte	68
 832 01b9 28       		.byte	40
 833 01ba 10       		.byte	16
 834 01bb 28       		.byte	40
 835 01bc 44       		.byte	68
 836 01bd 0C       		.byte	12
 837 01be 50       		.byte	80
 838 01bf 50       		.byte	80
 839 01c0 50       		.byte	80
 840 01c1 3C       		.byte	60
 841 01c2 44       		.byte	68
 842 01c3 64       		.byte	100
 843 01c4 54       		.byte	84
 844 01c5 4C       		.byte	76
 845 01c6 44       		.byte	68
 846 01c7 00       		.byte	0
 847 01c8 08       		.byte	8
 848 01c9 36       		.byte	54
 849 01ca 41       		.byte	65
 850 01cb 00       		.byte	0
 851 01cc 00       		.byte	0
ARM GAS  C:\Users\JAMESS~1\AppData\Local\Temp\ccs0turg.s 			page 21


 852 01cd 00       		.byte	0
 853 01ce 7F       		.byte	127
 854 01cf 00       		.byte	0
 855 01d0 00       		.byte	0
 856 01d1 00       		.byte	0
 857 01d2 41       		.byte	65
 858 01d3 36       		.byte	54
 859 01d4 08       		.byte	8
 860 01d5 00       		.byte	0
 861 01d6 08       		.byte	8
 862 01d7 08       		.byte	8
 863 01d8 2A       		.byte	42
 864 01d9 1C       		.byte	28
 865 01da 08       		.byte	8
 866 01db 08       		.byte	8
 867 01dc 1C       		.byte	28
 868 01dd 2A       		.byte	42
 869 01de 08       		.byte	8
 870 01df 08       		.byte	8
 871              		.text
 872              	.Letext0:
 873              		.file 2 "Generated_Source\\PSoC4/cytypes.h"
 874              		.file 3 "Generated_Source\\PSoC4/StripLights.h"