ARM GAS  C:\Users\JAMESS~1\AppData\Local\Temp\ccd7YNc7.s 			page 1


   1              		.syntax unified
   2              		.cpu cortex-m0
   3              		.fpu softvfp
   4              		.eabi_attribute 20, 1
   5              		.eabi_attribute 21, 1
   6              		.eabi_attribute 23, 3
   7              		.eabi_attribute 24, 1
   8              		.eabi_attribute 25, 1
   9              		.eabi_attribute 26, 1
  10              		.eabi_attribute 30, 1
  11              		.eabi_attribute 34, 0
  12              		.eabi_attribute 18, 4
  13              		.thumb
  14              		.syntax unified
  15              		.file	"StripLights.c"
  16              		.text
  17              	.Ltext0:
  18              		.cfi_sections	.debug_frame
  19              		.section	.text.StripLights_FISR,"ax",%progbits
  20              		.align	2
  21              		.global	StripLights_FISR
  22              		.code	16
  23              		.thumb_func
  24              		.type	StripLights_FISR, %function
  25              	StripLights_FISR:
  26              	.LFB41:
  27              		.file 1 "Generated_Source\\PSoC4\\StripLights.c"
   1:Generated_Source\PSoC4/StripLights.c **** /* =========================================================
   2:Generated_Source\PSoC4/StripLights.c ****  *
   3:Generated_Source\PSoC4/StripLights.c ****  * Strip Light Controller
   4:Generated_Source\PSoC4/StripLights.c ****  * By Mark Hastings
   5:Generated_Source\PSoC4/StripLights.c ****  *
   6:Generated_Source\PSoC4/StripLights.c ****  * 10/28/2015 MEH Added support for SF2812RGBW
   7:Generated_Source\PSoC4/StripLights.c ****  *                Allow for a more flexible bus clock selection
   8:Generated_Source\PSoC4/StripLights.c ****  * 12/12/2015 MEH Fixed a bug that may cause the interface
   9:Generated_Source\PSoC4/StripLights.c ****  *                to hang when many other ISRs are running.
  10:Generated_Source\PSoC4/StripLights.c ****  *
  11:Generated_Source\PSoC4/StripLights.c ****  * This file contains the functions required to control each
  12:Generated_Source\PSoC4/StripLights.c ****  * lighting control channel.
  13:Generated_Source\PSoC4/StripLights.c ****  *
  14:Generated_Source\PSoC4/StripLights.c ****  * =========================================================
  15:Generated_Source\PSoC4/StripLights.c **** */
  16:Generated_Source\PSoC4/StripLights.c **** 
  17:Generated_Source\PSoC4/StripLights.c **** #include <project.h>
  18:Generated_Source\PSoC4/StripLights.c **** #include "cytypes.h"
  19:Generated_Source\PSoC4/StripLights.c **** #include "stdlib.h"
  20:Generated_Source\PSoC4/StripLights.c **** #include "cyfitter.h"
  21:Generated_Source\PSoC4/StripLights.c **** #include "StripLights.h"
  22:Generated_Source\PSoC4/StripLights.c **** #include "StripLights_fonts.h"
  23:Generated_Source\PSoC4/StripLights.c **** 
  24:Generated_Source\PSoC4/StripLights.c **** 
  25:Generated_Source\PSoC4/StripLights.c **** void   (*StripLights_EnterCritical)() = (funcPtr)0;
  26:Generated_Source\PSoC4/StripLights.c **** void   (*StripLights_ExitCritical)() = (funcPtr)0;
  27:Generated_Source\PSoC4/StripLights.c **** 
  28:Generated_Source\PSoC4/StripLights.c **** 
  29:Generated_Source\PSoC4/StripLights.c **** uint8  StripLights_initvar = 0;
  30:Generated_Source\PSoC4/StripLights.c **** 
ARM GAS  C:\Users\JAMESS~1\AppData\Local\Temp\ccd7YNc7.s 			page 2


  31:Generated_Source\PSoC4/StripLights.c **** #if(StripLights_MEMORY_TYPE == StripLights_MEMORY_RGB)
  32:Generated_Source\PSoC4/StripLights.c **** uint32  StripLights_ledArray[StripLights_ARRAY_ROWS][StripLights_ARRAY_COLS];
  33:Generated_Source\PSoC4/StripLights.c **** #else
  34:Generated_Source\PSoC4/StripLights.c **** uint8   StripLights_ledArray[StripLights_ARRAY_ROWS][StripLights_ARRAY_COLS];
  35:Generated_Source\PSoC4/StripLights.c **** #endif
  36:Generated_Source\PSoC4/StripLights.c **** 
  37:Generated_Source\PSoC4/StripLights.c **** uint32  StripLights_ledIndex = 0;  
  38:Generated_Source\PSoC4/StripLights.c **** uint32  StripLights_row = 0;
  39:Generated_Source\PSoC4/StripLights.c **** uint32  StripLights_refreshComplete;
  40:Generated_Source\PSoC4/StripLights.c **** 
  41:Generated_Source\PSoC4/StripLights.c **** uint32  StripLights_DimMask;
  42:Generated_Source\PSoC4/StripLights.c **** uint32  StripLights_DimShift;
  43:Generated_Source\PSoC4/StripLights.c **** 
  44:Generated_Source\PSoC4/StripLights.c **** #if( StripLights_GAMMA_CORRECTION == StripLights_GAMMA_ON )
  45:Generated_Source\PSoC4/StripLights.c **** const uint8 StripLights_gamma[] = {
  46:Generated_Source\PSoC4/StripLights.c ****     0,  0,  0,  0,  0,  0,  0,  0,  0,  0,  0,  0,  0,  0,  0,  0,
  47:Generated_Source\PSoC4/StripLights.c ****     0,  0,  0,  0,  0,  0,  0,  0,  0,  0,  0,  0,  1,  1,  1,  1,
  48:Generated_Source\PSoC4/StripLights.c ****     1,  1,  1,  1,  1,  1,  1,  1,  1,  2,  2,  2,  2,  2,  2,  2,
  49:Generated_Source\PSoC4/StripLights.c ****     2,  3,  3,  3,  3,  3,  3,  3,  4,  4,  4,  4,  4,  5,  5,  5,
  50:Generated_Source\PSoC4/StripLights.c ****     5,  6,  6,  6,  6,  7,  7,  7,  7,  8,  8,  8,  9,  9,  9, 10,
  51:Generated_Source\PSoC4/StripLights.c ****    10, 10, 11, 11, 11, 12, 12, 13, 13, 13, 14, 14, 15, 15, 16, 16,
  52:Generated_Source\PSoC4/StripLights.c ****    17, 17, 18, 18, 19, 19, 20, 20, 21, 21, 22, 22, 23, 24, 24, 25,
  53:Generated_Source\PSoC4/StripLights.c ****    25, 26, 27, 27, 28, 29, 29, 30, 31, 32, 32, 33, 34, 35, 35, 36,
  54:Generated_Source\PSoC4/StripLights.c ****    37, 38, 39, 39, 40, 41, 42, 43, 44, 45, 46, 47, 48, 49, 50, 50,
  55:Generated_Source\PSoC4/StripLights.c ****    51, 52, 54, 55, 56, 57, 58, 59, 60, 61, 62, 63, 64, 66, 67, 68,
  56:Generated_Source\PSoC4/StripLights.c ****    69, 70, 72, 73, 74, 75, 77, 78, 79, 81, 82, 83, 85, 86, 87, 89,
  57:Generated_Source\PSoC4/StripLights.c ****    90, 92, 93, 95, 96, 98, 99,101,102,104,105,107,109,110,112,114,
  58:Generated_Source\PSoC4/StripLights.c ****   115,117,119,120,122,124,126,127,129,131,133,135,137,138,140,142,
  59:Generated_Source\PSoC4/StripLights.c ****   144,146,148,150,152,154,156,158,160,162,164,167,169,171,173,175,
  60:Generated_Source\PSoC4/StripLights.c ****   177,180,182,184,186,189,191,193,196,198,200,203,205,208,210,213,
  61:Generated_Source\PSoC4/StripLights.c ****   215,218,220,223,225,228,231,233,236,239,241,244,247,249,252,255 };
  62:Generated_Source\PSoC4/StripLights.c **** 
  63:Generated_Source\PSoC4/StripLights.c **** #endif
  64:Generated_Source\PSoC4/StripLights.c **** 
  65:Generated_Source\PSoC4/StripLights.c **** #if (StripLights_LED_LAYOUT == StripLights_LED_LAYOUT_GRID16X16)
  66:Generated_Source\PSoC4/StripLights.c ****  uint8 const StripLights_cTrans[16][16] =  {
  67:Generated_Source\PSoC4/StripLights.c **** 	/*  0  */  {  0,  1,  2,  3,  4,  5,  6,  7,  8,  9, 10, 11, 12, 13, 14, 15},
  68:Generated_Source\PSoC4/StripLights.c ****     /*  1  */  { 31, 30, 29, 28, 27, 26, 25, 24, 23, 22, 21, 20, 19, 18, 17, 16},
  69:Generated_Source\PSoC4/StripLights.c **** 	/*  2  */  { 32, 33, 34, 35, 36, 37, 38, 39, 40, 41, 42, 43, 44, 45, 46, 47},
  70:Generated_Source\PSoC4/StripLights.c **** 	/*  3  */  { 63, 62, 61, 60, 59, 58, 57, 56, 55, 54, 53, 52, 51, 50, 49, 48}, 
  71:Generated_Source\PSoC4/StripLights.c **** 	/*  4  */  { 64, 65, 66, 67, 68, 69, 70, 71, 72, 73, 74, 75, 76, 77, 78, 79},
  72:Generated_Source\PSoC4/StripLights.c **** 	/*  5  */  { 95, 94, 93, 92, 91, 90, 89, 88, 87, 86, 85, 84, 83, 82, 81, 80},
  73:Generated_Source\PSoC4/StripLights.c **** 	/*  6  */  { 96, 97, 98, 99,100,101,102,103,104,105,106,107,108,109,110,111},
  74:Generated_Source\PSoC4/StripLights.c **** 	/*  7  */  {127,126,125,124,123,122,121,120,119,118,117,116,115,114,113,112},
  75:Generated_Source\PSoC4/StripLights.c **** 	/*  8  */  {128,129,130,131,132,133,134,135,136,137,138,139,140,141,142,143},
  76:Generated_Source\PSoC4/StripLights.c **** 	/*  9  */  {159,158,157,156,155,154,153,152,151,150,149,148,147,146,145,144},
  77:Generated_Source\PSoC4/StripLights.c **** 	/* 10  */  {160,161,162,163,164,165,166,167,168,169,170,171,172,173,174,175},
  78:Generated_Source\PSoC4/StripLights.c **** 	/* 11  */  {191,190,189,188,187,186,185,184,183,182,181,180,179,178,177,176},
  79:Generated_Source\PSoC4/StripLights.c **** 	/* 12  */  {192,193,194,195,196,197,198,199,200,201,202,203,204,205,206,207},
  80:Generated_Source\PSoC4/StripLights.c **** 	/* 13  */  {223,222,221,220,219,218,217,216,215,214,213,212,211,210,209,208},
  81:Generated_Source\PSoC4/StripLights.c **** 	/* 14  */  {224,225,226,227,228,229,230,231,232,233,234,235,236,237,238,239},
  82:Generated_Source\PSoC4/StripLights.c **** 	/* 15  */  {255,254,253,252,251,250,249,248,247,246,245,244,243,242,241,240}};   
  83:Generated_Source\PSoC4/StripLights.c **** #endif
  84:Generated_Source\PSoC4/StripLights.c **** 
  85:Generated_Source\PSoC4/StripLights.c **** 
  86:Generated_Source\PSoC4/StripLights.c **** #if((StripLights_CHIP == StripLights_CHIP_WS2812) || (StripLights_CHIP == StripLights_CHIP_SF2812RG
  87:Generated_Source\PSoC4/StripLights.c **** const uint32 StripLights_CLUT[ ] = {
ARM GAS  C:\Users\JAMESS~1\AppData\Local\Temp\ccd7YNc7.s 			page 3


  88:Generated_Source\PSoC4/StripLights.c **** //xxBBRRGG (WS2812)
  89:Generated_Source\PSoC4/StripLights.c **** //     (24)   [ Index = 0 ]
  90:Generated_Source\PSoC4/StripLights.c **** 0x0000FFFF,  // 0 Yellow
  91:Generated_Source\PSoC4/StripLights.c **** 0x0000CCFF,
  92:Generated_Source\PSoC4/StripLights.c **** 0x000099FF,
  93:Generated_Source\PSoC4/StripLights.c **** 0x000033FF,
  94:Generated_Source\PSoC4/StripLights.c **** 0x000000FF,  // 5  Green
  95:Generated_Source\PSoC4/StripLights.c **** 0x006600B3,
  96:Generated_Source\PSoC4/StripLights.c **** 0x00990099, 
  97:Generated_Source\PSoC4/StripLights.c **** 0x00B30066, 
  98:Generated_Source\PSoC4/StripLights.c **** 0x00CC0033,  // 9 Blue
  99:Generated_Source\PSoC4/StripLights.c **** 0x00B31919, 
 100:Generated_Source\PSoC4/StripLights.c **** 0x00993300, 
 101:Generated_Source\PSoC4/StripLights.c **** 0x00994000, 
 102:Generated_Source\PSoC4/StripLights.c **** 0x00996600, 
 103:Generated_Source\PSoC4/StripLights.c **** 0x00999900, 
 104:Generated_Source\PSoC4/StripLights.c **** 0x0099CC00, 
 105:Generated_Source\PSoC4/StripLights.c **** 0x0066E600, 
 106:Generated_Source\PSoC4/StripLights.c **** 0x0000FF00, // Red
 107:Generated_Source\PSoC4/StripLights.c **** 0x0000FF33, 
 108:Generated_Source\PSoC4/StripLights.c **** 0x0000FF66, 
 109:Generated_Source\PSoC4/StripLights.c **** 0x0000FF80, 
 110:Generated_Source\PSoC4/StripLights.c **** 0x0000FF99,  // 20 Orange
 111:Generated_Source\PSoC4/StripLights.c **** 0x0000FFB2, 
 112:Generated_Source\PSoC4/StripLights.c **** 0x0000FFCC, 
 113:Generated_Source\PSoC4/StripLights.c **** 0x0000FFE5,
 114:Generated_Source\PSoC4/StripLights.c **** // #24
 115:Generated_Source\PSoC4/StripLights.c **** 
 116:Generated_Source\PSoC4/StripLights.c **** //xxBBRRGG  (64)  [ Index = 24 ]
 117:Generated_Source\PSoC4/StripLights.c **** 0x00000000, 0x00550000, 0x00AA0000, 0x00FF0000,  // 0, Black,  LtBlue, MBlue, Blue
 118:Generated_Source\PSoC4/StripLights.c **** 0x00000055, 0x00550055, 0x00AA0055, 0x00FF0055,  // 4, LtGreen
 119:Generated_Source\PSoC4/StripLights.c **** 0x000000AA, 0x005500AA, 0x00AA00AA, 0x00FF00AA,  // 8, MGreen
 120:Generated_Source\PSoC4/StripLights.c **** 0x000000FF, 0x005500FF, 0x00AA00FF, 0x00FF00FF,  // 12 Green
 121:Generated_Source\PSoC4/StripLights.c **** 
 122:Generated_Source\PSoC4/StripLights.c **** 0x00005500, 0x00555500, 0x00AA5500, 0x00FF5500,  // 16, LtRed
 123:Generated_Source\PSoC4/StripLights.c **** 0x00005555, 0x00555555, 0x00AA5555, 0x00FF5555,  // 20, LtYellow
 124:Generated_Source\PSoC4/StripLights.c **** 0x000055AA, 0x005555AA, 0x00AA55AA, 0x00FF55AA,  // 24, 
 125:Generated_Source\PSoC4/StripLights.c **** 0x000055FF, 0x005555FF, 0x00AA55FF, 0x00FF55FF,  // 28,
 126:Generated_Source\PSoC4/StripLights.c **** 
 127:Generated_Source\PSoC4/StripLights.c **** 0x0000AA00, 0x0055AA00, 0x00AAAA00, 0x00FFAA00,  // 32, MRed
 128:Generated_Source\PSoC4/StripLights.c **** 0x0000AA55, 0x0055AA55, 0x00AAAA55, 0x00FFAA55,  // 36, 
 129:Generated_Source\PSoC4/StripLights.c **** 0x0000AAAA, 0x0055AAAA, 0x00AAAAAA, 0x00FFAAAA,  // 55, 
 130:Generated_Source\PSoC4/StripLights.c **** 0x0000AAFF, 0x0055AAFF, 0x00AAAAFF, 0x00FFAAFF,  // 44, 
 131:Generated_Source\PSoC4/StripLights.c **** 
 132:Generated_Source\PSoC4/StripLights.c **** 0x0000FF00, 0x0055FF00, 0x00AAFF00, 0x00FFFF00,  // 48, Red, ??, ??, Magenta
 133:Generated_Source\PSoC4/StripLights.c **** 0x0000FF55, 0x0055FF55, 0x00AAFF55, 0x00FFFF55,  // 52,
 134:Generated_Source\PSoC4/StripLights.c **** 0x0000FFAA, 0x0055FFAA, 0x00AAFFAA, 0x00FFFFAA,  // 56,
 135:Generated_Source\PSoC4/StripLights.c **** 0x0000FFFF, 0x0055FFFF, 0x00AAFFFF, 0x00FFFFFF,  // 60, Yellow,??, ??, White
 136:Generated_Source\PSoC4/StripLights.c **** 
 137:Generated_Source\PSoC4/StripLights.c **** // Misc ( 16 )  [ Index = 88 ]
 138:Generated_Source\PSoC4/StripLights.c **** 0x000080FF,  // SPRING_GREEN
 139:Generated_Source\PSoC4/StripLights.c **** 0x008000FF,  // TURQUOSE
 140:Generated_Source\PSoC4/StripLights.c **** 0x00FF00FF,  // CYAN
 141:Generated_Source\PSoC4/StripLights.c **** 0x00FF0080,  // OCEAN
 142:Generated_Source\PSoC4/StripLights.c **** 0x00FF8000,  // VIOLET
 143:Generated_Source\PSoC4/StripLights.c **** 0x0080FF00,  // RASPBERRY
 144:Generated_Source\PSoC4/StripLights.c **** 0x000000FF,  // GREEN
ARM GAS  C:\Users\JAMESS~1\AppData\Local\Temp\ccd7YNc7.s 			page 4


 145:Generated_Source\PSoC4/StripLights.c **** 0x00202020,  // DIM WHITE
 146:Generated_Source\PSoC4/StripLights.c **** 0x00200000,  // DIM BLUE
 147:Generated_Source\PSoC4/StripLights.c **** 0x10000000,  // INVISIBLE
 148:Generated_Source\PSoC4/StripLights.c **** 0x0000FF00,  // Fire_Dark
 149:Generated_Source\PSoC4/StripLights.c **** 0x0000FF30,  // Fire_Light  // 00FF80
 150:Generated_Source\PSoC4/StripLights.c **** 0xFFFFFFFF,  // Full White
 151:Generated_Source\PSoC4/StripLights.c **** 0xFF000000,  // LED_WHITE
 152:Generated_Source\PSoC4/StripLights.c **** 0xFF808080,  // WHITE_RGB50
 153:Generated_Source\PSoC4/StripLights.c **** 0xFF404040,  // WHITE_RGB25
 154:Generated_Source\PSoC4/StripLights.c **** 
 155:Generated_Source\PSoC4/StripLights.c **** // Temperture Color Blue to Red (16) [ Index = 104 ]
 156:Generated_Source\PSoC4/StripLights.c **** 0x00FF0000, 0x00F01000, 0x00E02000, 0x00D03000,
 157:Generated_Source\PSoC4/StripLights.c **** 0x00C04000, 0x00B05000, 0x00A06000, 0x00907000,
 158:Generated_Source\PSoC4/StripLights.c **** 0x00808000, 0x00709000, 0x0060A000, 0x0050B000,
 159:Generated_Source\PSoC4/StripLights.c **** 0x0040C000, 0x0030D000, 0x0020E000, 0x0000FF00
 160:Generated_Source\PSoC4/StripLights.c **** };
 161:Generated_Source\PSoC4/StripLights.c **** #else  //xxBBGGRR (WS2811)
 162:Generated_Source\PSoC4/StripLights.c **** const uint32 StripLights_CLUT[ ] = {
 163:Generated_Source\PSoC4/StripLights.c **** //     (24)   [ Index = 0 ]
 164:Generated_Source\PSoC4/StripLights.c **** 0x0000FFFF,  // 0 Yellow
 165:Generated_Source\PSoC4/StripLights.c **** 0x0000FFCC,
 166:Generated_Source\PSoC4/StripLights.c **** 0x0000FF99,
 167:Generated_Source\PSoC4/StripLights.c **** 0x0000FF33,
 168:Generated_Source\PSoC4/StripLights.c **** 0x0000FF00,  // 5  Green
 169:Generated_Source\PSoC4/StripLights.c **** 0x0066B300,
 170:Generated_Source\PSoC4/StripLights.c **** 0x00999900, 
 171:Generated_Source\PSoC4/StripLights.c **** 0x00B36600, 
 172:Generated_Source\PSoC4/StripLights.c **** 0x00CC3300,  // 9 Blue
 173:Generated_Source\PSoC4/StripLights.c **** 0x00B31919, 
 174:Generated_Source\PSoC4/StripLights.c **** 0x00990033, 
 175:Generated_Source\PSoC4/StripLights.c **** 0x00990040, 
 176:Generated_Source\PSoC4/StripLights.c **** 0x00990066, 
 177:Generated_Source\PSoC4/StripLights.c **** 0x00990099, 
 178:Generated_Source\PSoC4/StripLights.c **** 0x009900CC, 
 179:Generated_Source\PSoC4/StripLights.c **** 0x006600E6, 
 180:Generated_Source\PSoC4/StripLights.c **** 0x000000FF, 
 181:Generated_Source\PSoC4/StripLights.c **** 0x000033FF, 
 182:Generated_Source\PSoC4/StripLights.c **** 0x000066FF, 
 183:Generated_Source\PSoC4/StripLights.c **** 0x000080FF, 
 184:Generated_Source\PSoC4/StripLights.c **** 0x000080FF,  // 20 Orange
 185:Generated_Source\PSoC4/StripLights.c **** 0x0000B2FF, 
 186:Generated_Source\PSoC4/StripLights.c **** 0x0000CCFF, 
 187:Generated_Source\PSoC4/StripLights.c **** 0x0000E5FF,
 188:Generated_Source\PSoC4/StripLights.c **** // #24
 189:Generated_Source\PSoC4/StripLights.c **** 
 190:Generated_Source\PSoC4/StripLights.c **** //xxBBGGRR  (64)  [ Index = 24 ]
 191:Generated_Source\PSoC4/StripLights.c **** 0x00000000, 0x00550000, 0x00AA0000, 0x00FF0000,  // 0, Black,  LtBlue, MBlue, Blue
 192:Generated_Source\PSoC4/StripLights.c **** 0x00005500, 0x00555500, 0x00AA5500, 0x00FF5500,  // 4, LtGreen
 193:Generated_Source\PSoC4/StripLights.c **** 0x0000AA00, 0x0055AA00, 0x00AAAA00, 0x00FFAA00,  // 8, MGreen
 194:Generated_Source\PSoC4/StripLights.c **** 0x0000FF00, 0x0055FF00, 0x00AAFF00, 0x00FFFF00,  // 12 Green
 195:Generated_Source\PSoC4/StripLights.c **** 
 196:Generated_Source\PSoC4/StripLights.c **** 0x00000055, 0x00550055, 0x00AA0055, 0x00FF0055,  // 16, LtRed
 197:Generated_Source\PSoC4/StripLights.c **** 0x00005555, 0x00555555, 0x00AA5555, 0x00FF5555,  // 20, LtYellow
 198:Generated_Source\PSoC4/StripLights.c **** 0x0000AA55, 0x0055AA55, 0x00AAAA55, 0x00FFAA55,  // 24, 
 199:Generated_Source\PSoC4/StripLights.c **** 0x0000FF55, 0x0055FF55, 0x00AAFF55, 0x00FFFF55,  // 28,
 200:Generated_Source\PSoC4/StripLights.c **** 
 201:Generated_Source\PSoC4/StripLights.c **** 0x000000AA, 0x005500AA, 0x00AA00AA, 0x00FF00AA,  // 32, MRed
ARM GAS  C:\Users\JAMESS~1\AppData\Local\Temp\ccd7YNc7.s 			page 5


 202:Generated_Source\PSoC4/StripLights.c **** 0x000055AA, 0x005555AA, 0x00AA55AA, 0x00FF55AA,  // 36, 
 203:Generated_Source\PSoC4/StripLights.c **** 0x0000AAAA, 0x0055AAAA, 0x00AAAAAA, 0x00FFAAAA,  // 55, 
 204:Generated_Source\PSoC4/StripLights.c **** 0x0000FFAA, 0x0055FFAA, 0x00AAFFAA, 0x00FFFFAA,  // 44, 
 205:Generated_Source\PSoC4/StripLights.c **** 
 206:Generated_Source\PSoC4/StripLights.c **** 0x000000FF, 0x005500FF, 0x00AA00FF, 0x00F00FFF,  // 48, Red, ??, ??, Magenta
 207:Generated_Source\PSoC4/StripLights.c **** 0x000055FF, 0x005555FF, 0x00AA55FF, 0x00FF55FF,  // 52,
 208:Generated_Source\PSoC4/StripLights.c **** 0x0000AAFF, 0x0055AAFF, 0x00AAAAFF, 0x00FFAAFF,  // 56,
 209:Generated_Source\PSoC4/StripLights.c **** 0x0000FFFF, 0x0055FFFF, 0x00AAFFFF, 0x00FFFFFF,  // 60, Yellow,??, ??, White
 210:Generated_Source\PSoC4/StripLights.c **** 
 211:Generated_Source\PSoC4/StripLights.c **** // Misc ( 16 )  [ Index = 88 ]   //xxBBGGRR
 212:Generated_Source\PSoC4/StripLights.c **** 0x0000FF80,  // SPRING_GREEN
 213:Generated_Source\PSoC4/StripLights.c **** 0x0080FF00,  // TURQUOSE
 214:Generated_Source\PSoC4/StripLights.c **** 0x00FFFF00,  // CYAN
 215:Generated_Source\PSoC4/StripLights.c **** 0x00FF8000,  // OCEAN
 216:Generated_Source\PSoC4/StripLights.c **** 0x00FF0080,  // VIOLET
 217:Generated_Source\PSoC4/StripLights.c **** 0x008000FF,  // RASPBERRY
 218:Generated_Source\PSoC4/StripLights.c **** 0x0000FF00,  // GREEN
 219:Generated_Source\PSoC4/StripLights.c **** 0x00202020,  // DIM WHITE
 220:Generated_Source\PSoC4/StripLights.c **** 0x00200000,  // DIM BLUE
 221:Generated_Source\PSoC4/StripLights.c **** 0x10000000,  // INVISIBLE
 222:Generated_Source\PSoC4/StripLights.c **** 0x000000FF,  // Fire_Dark
 223:Generated_Source\PSoC4/StripLights.c **** 0x000030FF,  // Fire_Light  // 0080FF
 224:Generated_Source\PSoC4/StripLights.c **** 0xFFFFFFFF,  // Full White
 225:Generated_Source\PSoC4/StripLights.c **** 0xFF000000,  // White_LED
 226:Generated_Source\PSoC4/StripLights.c **** 0xFF808080,  // WHITE_RGB50
 227:Generated_Source\PSoC4/StripLights.c **** 0xFF404040,  // WHITE_RGB25
 228:Generated_Source\PSoC4/StripLights.c **** 
 229:Generated_Source\PSoC4/StripLights.c **** // Temperture Color Blue to Red (16) [ Index = 104 ]
 230:Generated_Source\PSoC4/StripLights.c **** 0x00FF0000, 0x00F00010, 0x00E00020, 0x00D00030,
 231:Generated_Source\PSoC4/StripLights.c **** 0x00C00040, 0x00B00050, 0x00A00060, 0x00900070,
 232:Generated_Source\PSoC4/StripLights.c **** 0x00800080, 0x00700090, 0x006000A0, 0x005000B0,
 233:Generated_Source\PSoC4/StripLights.c **** 0x004000C0, 0x003000D0, 0x002000E0, 0x000000FF
 234:Generated_Source\PSoC4/StripLights.c **** };
 235:Generated_Source\PSoC4/StripLights.c **** #endif
 236:Generated_Source\PSoC4/StripLights.c **** 
 237:Generated_Source\PSoC4/StripLights.c **** 
 238:Generated_Source\PSoC4/StripLights.c **** 
 239:Generated_Source\PSoC4/StripLights.c **** /*******************************************************************************
 240:Generated_Source\PSoC4/StripLights.c **** * Function Name: StripLights_Start
 241:Generated_Source\PSoC4/StripLights.c **** ********************************************************************************
 242:Generated_Source\PSoC4/StripLights.c **** * Summary:
 243:Generated_Source\PSoC4/StripLights.c **** *  Initialize the hardware. 
 244:Generated_Source\PSoC4/StripLights.c **** *
 245:Generated_Source\PSoC4/StripLights.c **** * Parameters:  
 246:Generated_Source\PSoC4/StripLights.c **** *  void  
 247:Generated_Source\PSoC4/StripLights.c **** *
 248:Generated_Source\PSoC4/StripLights.c **** * Return: 
 249:Generated_Source\PSoC4/StripLights.c **** *  void
 250:Generated_Source\PSoC4/StripLights.c **** *
 251:Generated_Source\PSoC4/StripLights.c **** *******************************************************************************/
 252:Generated_Source\PSoC4/StripLights.c **** void StripLights_Start()
 253:Generated_Source\PSoC4/StripLights.c **** {
 254:Generated_Source\PSoC4/StripLights.c ****     extern uint8 StripLights_initvar;
 255:Generated_Source\PSoC4/StripLights.c ****     extern uint32 StripLights_refreshComplete;
 256:Generated_Source\PSoC4/StripLights.c **** 
 257:Generated_Source\PSoC4/StripLights.c ****     #if (CY_PSOC3 || CY_PSOC5LP)
 258:Generated_Source\PSoC4/StripLights.c ****         int32   StripLights_realClock; 
ARM GAS  C:\Users\JAMESS~1\AppData\Local\Temp\ccd7YNc7.s 			page 6


 259:Generated_Source\PSoC4/StripLights.c ****         int16   StripLights_period;
 260:Generated_Source\PSoC4/StripLights.c ****         int16   StripLights_dataZero;
 261:Generated_Source\PSoC4/StripLights.c ****         int16   StripLights_dataOne;
 262:Generated_Source\PSoC4/StripLights.c ****     #endif /* CY_PSOC5A */
 263:Generated_Source\PSoC4/StripLights.c **** 
 264:Generated_Source\PSoC4/StripLights.c ****     StripLights_ACTL0_REG = StripLights_DISABLE_FIFO;
 265:Generated_Source\PSoC4/StripLights.c **** 
 266:Generated_Source\PSoC4/StripLights.c ****     #if (CY_PSOC3 || CY_PSOC5LP)
 267:Generated_Source\PSoC4/StripLights.c ****         StripLights_realClock = (int32)StripLights_INPUT_CLOCK / (int32)(StripLights_Clock_DIV_LSB 
 268:Generated_Source\PSoC4/StripLights.c ****         StripLights_period    = (int16)(StripLights_realClock/StripLights_WS281X_CLOCK );
 269:Generated_Source\PSoC4/StripLights.c ****         
 270:Generated_Source\PSoC4/StripLights.c ****         StripLights_dataZero  = ((StripLights_period * StripLights_TIME_T0H)/StripLights_TIME_TL_TH
 271:Generated_Source\PSoC4/StripLights.c ****         StripLights_dataOne   = ((StripLights_period * StripLights_TIME_T1H)/StripLights_TIME_TL_TH
 272:Generated_Source\PSoC4/StripLights.c ****         
 273:Generated_Source\PSoC4/StripLights.c ****         StripLights_Period    = (uint8)(StripLights_period - 1);
 274:Generated_Source\PSoC4/StripLights.c ****         StripLights_Compare0  = (uint8)(StripLights_period - StripLights_dataZero);
 275:Generated_Source\PSoC4/StripLights.c ****         StripLights_Compare1  = (uint8)(StripLights_period - StripLights_dataOne);
 276:Generated_Source\PSoC4/StripLights.c **** 
 277:Generated_Source\PSoC4/StripLights.c ****     #elif (CY_PSOC4)
 278:Generated_Source\PSoC4/StripLights.c ****  
 279:Generated_Source\PSoC4/StripLights.c ****         StripLights_Period   = (uint8)StripLights_PERIOD-1;
 280:Generated_Source\PSoC4/StripLights.c ****         StripLights_Compare0 = (uint8)StripLights_COMPARE_ZERO;
 281:Generated_Source\PSoC4/StripLights.c ****         StripLights_Compare1 = (uint8)StripLights_COMPARE_ONE;        
 282:Generated_Source\PSoC4/StripLights.c ****     #endif /* CY_PSOC5A */
 283:Generated_Source\PSoC4/StripLights.c **** 
 284:Generated_Source\PSoC4/StripLights.c ****     
 285:Generated_Source\PSoC4/StripLights.c ****     StripLights_CONTROL = StripLights_ENABLE;
 286:Generated_Source\PSoC4/StripLights.c ****     StripLights_MemClear(StripLights_OFF);
 287:Generated_Source\PSoC4/StripLights.c ****     StripLights_CONTROL = StripLights_DISABLE;
 288:Generated_Source\PSoC4/StripLights.c ****     
 289:Generated_Source\PSoC4/StripLights.c ****     StripLights_SetFont( StripLights_FONT_5X7);
 290:Generated_Source\PSoC4/StripLights.c ****     
 291:Generated_Source\PSoC4/StripLights.c ****     /* Set no dimming, full brightness */
 292:Generated_Source\PSoC4/StripLights.c ****     StripLights_Dim(0); 
 293:Generated_Source\PSoC4/StripLights.c **** 
 294:Generated_Source\PSoC4/StripLights.c ****     if(StripLights_initvar == 0)
 295:Generated_Source\PSoC4/StripLights.c ****     {
 296:Generated_Source\PSoC4/StripLights.c **** 
 297:Generated_Source\PSoC4/StripLights.c ****         StripLights_initvar = 1;
 298:Generated_Source\PSoC4/StripLights.c ****  
 299:Generated_Source\PSoC4/StripLights.c ****          /* Start and set interrupt vector */
 300:Generated_Source\PSoC4/StripLights.c **** 
 301:Generated_Source\PSoC4/StripLights.c **** #if(StripLights_TRANSFER == StripLights_TRANSFER_ISR)
 302:Generated_Source\PSoC4/StripLights.c ****        {
 303:Generated_Source\PSoC4/StripLights.c ****            StripLights_cisr_StartEx(StripLights_CISR);
 304:Generated_Source\PSoC4/StripLights.c **** 		   StripLights_fisr_StartEx(StripLights_FISR);
 305:Generated_Source\PSoC4/StripLights.c ****         
 306:Generated_Source\PSoC4/StripLights.c ****            /* Set the ISRs to the highest priority */
 307:Generated_Source\PSoC4/StripLights.c ****            StripLights_cisr_SetPriority(1u);
 308:Generated_Source\PSoC4/StripLights.c ****            StripLights_fisr_SetPriority(0u);
 309:Generated_Source\PSoC4/StripLights.c ****        }
 310:Generated_Source\PSoC4/StripLights.c **** #endif       
 311:Generated_Source\PSoC4/StripLights.c ****        if(StripLights_TRANSFER == StripLights_TRANSFER_FIRMWARE)
 312:Generated_Source\PSoC4/StripLights.c ****        {
 313:Generated_Source\PSoC4/StripLights.c ****            StripLights_CONTROL = StripLights_ENABLE;    
 314:Generated_Source\PSoC4/StripLights.c ****        }
 315:Generated_Source\PSoC4/StripLights.c ****     }
ARM GAS  C:\Users\JAMESS~1\AppData\Local\Temp\ccd7YNc7.s 			page 7


 316:Generated_Source\PSoC4/StripLights.c ****     StripLights_refreshComplete = 1;
 317:Generated_Source\PSoC4/StripLights.c **** }
 318:Generated_Source\PSoC4/StripLights.c **** 
 319:Generated_Source\PSoC4/StripLights.c **** /*******************************************************************************
 320:Generated_Source\PSoC4/StripLights.c **** * Function Name: StripLights_SetCriticalFuncs
 321:Generated_Source\PSoC4/StripLights.c **** ********************************************************************************
 322:Generated_Source\PSoC4/StripLights.c **** * Summary:
 323:Generated_Source\PSoC4/StripLights.c **** *   Set the enter and exit critical functions
 324:Generated_Source\PSoC4/StripLights.c **** *
 325:Generated_Source\PSoC4/StripLights.c **** * Parameters:  
 326:Generated_Source\PSoC4/StripLights.c **** *  void  
 327:Generated_Source\PSoC4/StripLights.c **** *
 328:Generated_Source\PSoC4/StripLights.c **** * Return: 
 329:Generated_Source\PSoC4/StripLights.c **** *  void
 330:Generated_Source\PSoC4/StripLights.c **** *
 331:Generated_Source\PSoC4/StripLights.c **** *******************************************************************************/
 332:Generated_Source\PSoC4/StripLights.c **** void StripLights_SetCriticalFuncs(funcPtr EnCriticalFunc, funcPtr ExCriticalFunc)
 333:Generated_Source\PSoC4/StripLights.c **** {
 334:Generated_Source\PSoC4/StripLights.c ****     StripLights_EnterCritical = EnCriticalFunc;
 335:Generated_Source\PSoC4/StripLights.c ****     StripLights_ExitCritical  = ExCriticalFunc;   
 336:Generated_Source\PSoC4/StripLights.c **** }
 337:Generated_Source\PSoC4/StripLights.c **** 
 338:Generated_Source\PSoC4/StripLights.c **** /*******************************************************************************
 339:Generated_Source\PSoC4/StripLights.c **** * Function Name: StripLights_TriggerWaitDelay
 340:Generated_Source\PSoC4/StripLights.c **** ********************************************************************************
 341:Generated_Source\PSoC4/StripLights.c **** * Summary:
 342:Generated_Source\PSoC4/StripLights.c **** *   Update the LEDs then wait for completion.
 343:Generated_Source\PSoC4/StripLights.c **** *
 344:Generated_Source\PSoC4/StripLights.c **** * Parameters:  
 345:Generated_Source\PSoC4/StripLights.c **** *  void  
 346:Generated_Source\PSoC4/StripLights.c **** *
 347:Generated_Source\PSoC4/StripLights.c **** * Return: 
 348:Generated_Source\PSoC4/StripLights.c **** *  void
 349:Generated_Source\PSoC4/StripLights.c **** *
 350:Generated_Source\PSoC4/StripLights.c **** *******************************************************************************/
 351:Generated_Source\PSoC4/StripLights.c **** void StripLights_TriggerWaitDelay(uint32 delay)
 352:Generated_Source\PSoC4/StripLights.c **** {
 353:Generated_Source\PSoC4/StripLights.c **** 
 354:Generated_Source\PSoC4/StripLights.c ****     uint32 toCount = 0;
 355:Generated_Source\PSoC4/StripLights.c ****     
 356:Generated_Source\PSoC4/StripLights.c ****     // Call Critical section function here
 357:Generated_Source\PSoC4/StripLights.c ****     if(StripLights_EnterCritical != (funcPtr)0)
 358:Generated_Source\PSoC4/StripLights.c ****     {
 359:Generated_Source\PSoC4/StripLights.c ****         StripLights_EnterCritical();    
 360:Generated_Source\PSoC4/StripLights.c ****     }
 361:Generated_Source\PSoC4/StripLights.c ****     
 362:Generated_Source\PSoC4/StripLights.c ****     StripLights_Trigger(1);           // Trigger the LED update
 363:Generated_Source\PSoC4/StripLights.c ****     
 364:Generated_Source\PSoC4/StripLights.c ****     while( StripLights_Ready() == 0)
 365:Generated_Source\PSoC4/StripLights.c ****     {
 366:Generated_Source\PSoC4/StripLights.c ****         if(toCount > (StripLights_READY_TIMEOUT  * 10)) break; 
 367:Generated_Source\PSoC4/StripLights.c ****         CyDelayUs(100);  
 368:Generated_Source\PSoC4/StripLights.c ****         toCount++;
 369:Generated_Source\PSoC4/StripLights.c ****     }
 370:Generated_Source\PSoC4/StripLights.c ****     
 371:Generated_Source\PSoC4/StripLights.c ****     while(toCount < (delay*10)) 
 372:Generated_Source\PSoC4/StripLights.c ****     {
ARM GAS  C:\Users\JAMESS~1\AppData\Local\Temp\ccd7YNc7.s 			page 8


 373:Generated_Source\PSoC4/StripLights.c ****         toCount++;
 374:Generated_Source\PSoC4/StripLights.c ****         CyDelayUs(100); 
 375:Generated_Source\PSoC4/StripLights.c ****     }
 376:Generated_Source\PSoC4/StripLights.c ****     
 377:Generated_Source\PSoC4/StripLights.c ****     
 378:Generated_Source\PSoC4/StripLights.c ****     // Call undo critical function here
 379:Generated_Source\PSoC4/StripLights.c ****       if(StripLights_ExitCritical != (funcPtr)0)
 380:Generated_Source\PSoC4/StripLights.c ****     {
 381:Generated_Source\PSoC4/StripLights.c ****         StripLights_ExitCritical();    
 382:Generated_Source\PSoC4/StripLights.c ****     }
 383:Generated_Source\PSoC4/StripLights.c ****     
 384:Generated_Source\PSoC4/StripLights.c ****     
 385:Generated_Source\PSoC4/StripLights.c **** }
 386:Generated_Source\PSoC4/StripLights.c **** 
 387:Generated_Source\PSoC4/StripLights.c **** /*******************************************************************************
 388:Generated_Source\PSoC4/StripLights.c **** * Function Name: StripLights_TriggerWait
 389:Generated_Source\PSoC4/StripLights.c **** ********************************************************************************
 390:Generated_Source\PSoC4/StripLights.c **** * Summary:
 391:Generated_Source\PSoC4/StripLights.c **** *   Update the LEDs then waits for completion.
 392:Generated_Source\PSoC4/StripLights.c **** *
 393:Generated_Source\PSoC4/StripLights.c **** * Parameters:  
 394:Generated_Source\PSoC4/StripLights.c ****   rst: Resets the row and column parameters.    
 395:Generated_Source\PSoC4/StripLights.c **** *
 396:Generated_Source\PSoC4/StripLights.c **** * Return: 
 397:Generated_Source\PSoC4/StripLights.c **** *  void
 398:Generated_Source\PSoC4/StripLights.c **** *
 399:Generated_Source\PSoC4/StripLights.c **** *******************************************************************************/
 400:Generated_Source\PSoC4/StripLights.c **** void StripLights_TriggerWait(uint32 rst)
 401:Generated_Source\PSoC4/StripLights.c **** {
 402:Generated_Source\PSoC4/StripLights.c **** 
 403:Generated_Source\PSoC4/StripLights.c ****     
 404:Generated_Source\PSoC4/StripLights.c ****     // Call Critical section function here
 405:Generated_Source\PSoC4/StripLights.c ****     if(StripLights_EnterCritical != (funcPtr)0)
 406:Generated_Source\PSoC4/StripLights.c ****     {
 407:Generated_Source\PSoC4/StripLights.c ****         StripLights_EnterCritical();    
 408:Generated_Source\PSoC4/StripLights.c ****     }
 409:Generated_Source\PSoC4/StripLights.c ****     
 410:Generated_Source\PSoC4/StripLights.c ****     StripLights_Trigger(rst);
 411:Generated_Source\PSoC4/StripLights.c ****     
 412:Generated_Source\PSoC4/StripLights.c ****     while( StripLights_Ready() == 0);
 413:Generated_Source\PSoC4/StripLights.c ****     
 414:Generated_Source\PSoC4/StripLights.c ****     
 415:Generated_Source\PSoC4/StripLights.c ****     // Call undo critical function here
 416:Generated_Source\PSoC4/StripLights.c ****       if(StripLights_ExitCritical != (funcPtr)0)
 417:Generated_Source\PSoC4/StripLights.c ****     {
 418:Generated_Source\PSoC4/StripLights.c ****         StripLights_ExitCritical();    
 419:Generated_Source\PSoC4/StripLights.c ****     }
 420:Generated_Source\PSoC4/StripLights.c ****     
 421:Generated_Source\PSoC4/StripLights.c ****     
 422:Generated_Source\PSoC4/StripLights.c **** }
 423:Generated_Source\PSoC4/StripLights.c **** 
 424:Generated_Source\PSoC4/StripLights.c **** 
 425:Generated_Source\PSoC4/StripLights.c **** /*******************************************************************************
 426:Generated_Source\PSoC4/StripLights.c **** * Function Name: StripLights_Trigger
 427:Generated_Source\PSoC4/StripLights.c **** ********************************************************************************
 428:Generated_Source\PSoC4/StripLights.c **** * Summary:
 429:Generated_Source\PSoC4/StripLights.c **** *   Update the LEDs with graphics memory.
ARM GAS  C:\Users\JAMESS~1\AppData\Local\Temp\ccd7YNc7.s 			page 9


 430:Generated_Source\PSoC4/StripLights.c **** *
 431:Generated_Source\PSoC4/StripLights.c **** * Parameters:  
 432:Generated_Source\PSoC4/StripLights.c **** *  rst: Resets the row and column parameters.  
 433:Generated_Source\PSoC4/StripLights.c **** *
 434:Generated_Source\PSoC4/StripLights.c **** * Return: 
 435:Generated_Source\PSoC4/StripLights.c **** *  void
 436:Generated_Source\PSoC4/StripLights.c **** *
 437:Generated_Source\PSoC4/StripLights.c **** *******************************************************************************/
 438:Generated_Source\PSoC4/StripLights.c **** void StripLights_Trigger(uint32 rst)
 439:Generated_Source\PSoC4/StripLights.c **** {
 440:Generated_Source\PSoC4/StripLights.c ****     uint32 color;
 441:Generated_Source\PSoC4/StripLights.c ****     
 442:Generated_Source\PSoC4/StripLights.c ****     if(rst) 
 443:Generated_Source\PSoC4/StripLights.c ****     {
 444:Generated_Source\PSoC4/StripLights.c ****         StripLights_row = 0;  /* Reset the row */
 445:Generated_Source\PSoC4/StripLights.c ****         StripLights_Channel = 0;
 446:Generated_Source\PSoC4/StripLights.c ****     }
 447:Generated_Source\PSoC4/StripLights.c ****     
 448:Generated_Source\PSoC4/StripLights.c ****     #if(StripLights_MEMORY_TYPE == StripLights_MEMORY_RGB)
 449:Generated_Source\PSoC4/StripLights.c ****        color = StripLights_ledArray[StripLights_row][0];
 450:Generated_Source\PSoC4/StripLights.c ****     #else  /* Else use lookup table */
 451:Generated_Source\PSoC4/StripLights.c ****        color = StripLights_CLUT[ (StripLights_ledArray[StripLights_row][0]) ];
 452:Generated_Source\PSoC4/StripLights.c ****     #endif
 453:Generated_Source\PSoC4/StripLights.c ****     
 454:Generated_Source\PSoC4/StripLights.c ****      color = (color >> StripLights_DimShift) & StripLights_DimMask;
 455:Generated_Source\PSoC4/StripLights.c ****      
 456:Generated_Source\PSoC4/StripLights.c ****     #if(StripLights_GAMMA_CORRECTION == StripLights_GAMMA_ON)
 457:Generated_Source\PSoC4/StripLights.c ****         StripLights_DATA = StripLights_gamma[color & 0x000000FF];  // Write Green
 458:Generated_Source\PSoC4/StripLights.c ****         color = color >> 8;
 459:Generated_Source\PSoC4/StripLights.c ****         StripLights_DATA = StripLights_gamma[color & 0x000000FF];  // Write Red
 460:Generated_Source\PSoC4/StripLights.c ****         color = color >> 8;
 461:Generated_Source\PSoC4/StripLights.c ****         StripLights_DATA = StripLights_gamma[color & 0x000000FF];  // Write Blue
 462:Generated_Source\PSoC4/StripLights.c ****         #if(StripLights_CHIP == StripLights_CHIP_SF2812RGBW)
 463:Generated_Source\PSoC4/StripLights.c ****             color = color >> 8;
 464:Generated_Source\PSoC4/StripLights.c ****             StripLights_DATA = StripLights_gamma[color & 0x000000FF];  // Write White
 465:Generated_Source\PSoC4/StripLights.c ****         #endif
 466:Generated_Source\PSoC4/StripLights.c ****     #else
 467:Generated_Source\PSoC4/StripLights.c ****         StripLights_DATA = (uint8)(color & 0x000000FF);  // Write Green
 468:Generated_Source\PSoC4/StripLights.c ****         color = color >> 8;
 469:Generated_Source\PSoC4/StripLights.c ****         StripLights_DATA = (uint8)(color & 0x000000FF);  // Write Red
 470:Generated_Source\PSoC4/StripLights.c ****         color = color >> 8;
 471:Generated_Source\PSoC4/StripLights.c ****         StripLights_DATA = (uint8)(color & 0x000000FF);  // Write Blue  
 472:Generated_Source\PSoC4/StripLights.c ****         #if(StripLights_CHIP == StripLights_CHIP_SF2812RGBW)
 473:Generated_Source\PSoC4/StripLights.c ****             color = color >> 8;
 474:Generated_Source\PSoC4/StripLights.c ****         StripLights_DATA = (uint8)(color & 0x000000FF);  // Write White 
 475:Generated_Source\PSoC4/StripLights.c ****         #endif
 476:Generated_Source\PSoC4/StripLights.c ****     #endif
 477:Generated_Source\PSoC4/StripLights.c ****   
 478:Generated_Source\PSoC4/StripLights.c ****     StripLights_ledIndex = 1;
 479:Generated_Source\PSoC4/StripLights.c **** 	
 480:Generated_Source\PSoC4/StripLights.c **** 	StripLights_CONTROL = StripLights_ENABLE | StripLights_XFRCMPT_IRQ_EN | StripLights_FIFO_IRQ_EN; 
 481:Generated_Source\PSoC4/StripLights.c ****     StripLights_refreshComplete = 0;
 482:Generated_Source\PSoC4/StripLights.c **** }
 483:Generated_Source\PSoC4/StripLights.c **** 
 484:Generated_Source\PSoC4/StripLights.c **** /*******************************************************************************
 485:Generated_Source\PSoC4/StripLights.c **** * Function Name: StripLights_Ready
 486:Generated_Source\PSoC4/StripLights.c **** ********************************************************************************
ARM GAS  C:\Users\JAMESS~1\AppData\Local\Temp\ccd7YNc7.s 			page 10


 487:Generated_Source\PSoC4/StripLights.c **** * Summary:
 488:Generated_Source\PSoC4/StripLights.c **** *  Checks to see if transfer is complete.
 489:Generated_Source\PSoC4/StripLights.c **** *
 490:Generated_Source\PSoC4/StripLights.c **** * Parameters:  
 491:Generated_Source\PSoC4/StripLights.c **** *  none  
 492:Generated_Source\PSoC4/StripLights.c **** *
 493:Generated_Source\PSoC4/StripLights.c **** * Return: 
 494:Generated_Source\PSoC4/StripLights.c **** *  Zero if not complete, non-zero if transfer complete.
 495:Generated_Source\PSoC4/StripLights.c **** *
 496:Generated_Source\PSoC4/StripLights.c **** *******************************************************************************/
 497:Generated_Source\PSoC4/StripLights.c **** uint32 StripLights_Ready(void)
 498:Generated_Source\PSoC4/StripLights.c **** {
 499:Generated_Source\PSoC4/StripLights.c ****     if(StripLights_refreshComplete )
 500:Generated_Source\PSoC4/StripLights.c ****     {
 501:Generated_Source\PSoC4/StripLights.c ****         StripLights_CONTROL = StripLights_DISABLE;
 502:Generated_Source\PSoC4/StripLights.c ****         return((uint32)1);
 503:Generated_Source\PSoC4/StripLights.c ****     }
 504:Generated_Source\PSoC4/StripLights.c ****     else
 505:Generated_Source\PSoC4/StripLights.c ****     {
 506:Generated_Source\PSoC4/StripLights.c ****          return((uint32)0);
 507:Generated_Source\PSoC4/StripLights.c ****     }
 508:Generated_Source\PSoC4/StripLights.c **** }
 509:Generated_Source\PSoC4/StripLights.c **** 
 510:Generated_Source\PSoC4/StripLights.c **** 
 511:Generated_Source\PSoC4/StripLights.c **** /*******************************************************************************
 512:Generated_Source\PSoC4/StripLights.c **** * Function Name: StripLights_Stop
 513:Generated_Source\PSoC4/StripLights.c **** ********************************************************************************
 514:Generated_Source\PSoC4/StripLights.c **** * Summary:
 515:Generated_Source\PSoC4/StripLights.c **** *  Stop all transfers.
 516:Generated_Source\PSoC4/StripLights.c **** *
 517:Generated_Source\PSoC4/StripLights.c **** * Parameters:  
 518:Generated_Source\PSoC4/StripLights.c **** *  None 
 519:Generated_Source\PSoC4/StripLights.c **** *
 520:Generated_Source\PSoC4/StripLights.c **** * Return: 
 521:Generated_Source\PSoC4/StripLights.c **** *  void
 522:Generated_Source\PSoC4/StripLights.c **** *
 523:Generated_Source\PSoC4/StripLights.c **** *******************************************************************************/
 524:Generated_Source\PSoC4/StripLights.c **** void StripLights_Stop()
 525:Generated_Source\PSoC4/StripLights.c **** {
 526:Generated_Source\PSoC4/StripLights.c ****     StripLights_CONTROL = StripLights_DISABLE;
 527:Generated_Source\PSoC4/StripLights.c **** }
 528:Generated_Source\PSoC4/StripLights.c **** 
 529:Generated_Source\PSoC4/StripLights.c **** uint32 StripLights_getColor( uint32 color)
 530:Generated_Source\PSoC4/StripLights.c **** {
 531:Generated_Source\PSoC4/StripLights.c ****     #if(StripLights_MEMORY_TYPE == StripLights_MEMORY_RGB)
 532:Generated_Source\PSoC4/StripLights.c ****     color = StripLights_CLUT[color];
 533:Generated_Source\PSoC4/StripLights.c ****     #endif
 534:Generated_Source\PSoC4/StripLights.c **** 
 535:Generated_Source\PSoC4/StripLights.c ****     return(color);
 536:Generated_Source\PSoC4/StripLights.c **** }
 537:Generated_Source\PSoC4/StripLights.c **** 
 538:Generated_Source\PSoC4/StripLights.c **** /*******************************************************************************
 539:Generated_Source\PSoC4/StripLights.c **** * Function Name: StripLights_ColorInc
 540:Generated_Source\PSoC4/StripLights.c **** ********************************************************************************
 541:Generated_Source\PSoC4/StripLights.c **** * Summary:
 542:Generated_Source\PSoC4/StripLights.c **** *  Increment color throught the color lookup table.
 543:Generated_Source\PSoC4/StripLights.c **** *
ARM GAS  C:\Users\JAMESS~1\AppData\Local\Temp\ccd7YNc7.s 			page 11


 544:Generated_Source\PSoC4/StripLights.c **** * Parameters:  
 545:Generated_Source\PSoC4/StripLights.c **** *  uint32 incValue: Increment through color table by incValue. 
 546:Generated_Source\PSoC4/StripLights.c **** *
 547:Generated_Source\PSoC4/StripLights.c **** * Return: Color at next location.
 548:Generated_Source\PSoC4/StripLights.c **** *  
 549:Generated_Source\PSoC4/StripLights.c **** *
 550:Generated_Source\PSoC4/StripLights.c **** *******************************************************************************/
 551:Generated_Source\PSoC4/StripLights.c **** uint32 StripLights_ColorInc(uint32 incValue)
 552:Generated_Source\PSoC4/StripLights.c **** {
 553:Generated_Source\PSoC4/StripLights.c ****     uint32 color;
 554:Generated_Source\PSoC4/StripLights.c ****     extern const uint32 StripLights_CLUT[];
 555:Generated_Source\PSoC4/StripLights.c ****     static uint32 colorIndex = 0;
 556:Generated_Source\PSoC4/StripLights.c ****     
 557:Generated_Source\PSoC4/StripLights.c ****     colorIndex += incValue;
 558:Generated_Source\PSoC4/StripLights.c ****     colorIndex = colorIndex % StripLights_COLOR_WHEEL_SIZE;
 559:Generated_Source\PSoC4/StripLights.c **** 
 560:Generated_Source\PSoC4/StripLights.c ****     #if(StripLights_MEMORY_TYPE == StripLights_MEMORY_RGB)
 561:Generated_Source\PSoC4/StripLights.c ****        color = StripLights_CLUT[ colorIndex ];
 562:Generated_Source\PSoC4/StripLights.c ****     #else
 563:Generated_Source\PSoC4/StripLights.c ****         color = colorIndex;
 564:Generated_Source\PSoC4/StripLights.c ****     #endif
 565:Generated_Source\PSoC4/StripLights.c ****     return(color);
 566:Generated_Source\PSoC4/StripLights.c **** }
 567:Generated_Source\PSoC4/StripLights.c **** /*****************************************************************************
 568:Generated_Source\PSoC4/StripLights.c **** * Function Name: StripLights_FISR
 569:Generated_Source\PSoC4/StripLights.c **** ******************************************************************************
 570:Generated_Source\PSoC4/StripLights.c **** *
 571:Generated_Source\PSoC4/StripLights.c **** * Summary:
 572:Generated_Source\PSoC4/StripLights.c **** *  Interrupt service handler for data transfer for each LED 
 573:Generated_Source\PSoC4/StripLights.c **** *
 574:Generated_Source\PSoC4/StripLights.c **** * Parameters:  
 575:Generated_Source\PSoC4/StripLights.c **** *  void
 576:Generated_Source\PSoC4/StripLights.c **** *
 577:Generated_Source\PSoC4/StripLights.c **** * Return: 
 578:Generated_Source\PSoC4/StripLights.c **** *  void 
 579:Generated_Source\PSoC4/StripLights.c **** *
 580:Generated_Source\PSoC4/StripLights.c **** * Reentrant: 
 581:Generated_Source\PSoC4/StripLights.c **** *  No
 582:Generated_Source\PSoC4/StripLights.c **** *
 583:Generated_Source\PSoC4/StripLights.c **** *****************************************************************************/
 584:Generated_Source\PSoC4/StripLights.c **** CY_ISR( StripLights_FISR)
 585:Generated_Source\PSoC4/StripLights.c **** {
  28              		.loc 1 585 0
  29              		.cfi_startproc
  30              		@ args = 0, pretend = 0, frame = 0
  31              		@ frame_needed = 0, uses_anonymous_args = 0
  32 0000 70B5     		push	{r4, r5, r6, lr}
  33              		.cfi_def_cfa_offset 16
  34              		.cfi_offset 4, -16
  35              		.cfi_offset 5, -12
  36              		.cfi_offset 6, -8
  37              		.cfi_offset 14, -4
 586:Generated_Source\PSoC4/StripLights.c ****     extern uint32  StripLights_DimMask;
 587:Generated_Source\PSoC4/StripLights.c ****     extern uint32  StripLights_DimShift;
 588:Generated_Source\PSoC4/StripLights.c ****     uint32 static color;
 589:Generated_Source\PSoC4/StripLights.c ****    
 590:Generated_Source\PSoC4/StripLights.c ****     #if(StripLights_MEMORY_TYPE == StripLights_MEMORY_RGB)
ARM GAS  C:\Users\JAMESS~1\AppData\Local\Temp\ccd7YNc7.s 			page 12


 591:Generated_Source\PSoC4/StripLights.c ****         color = StripLights_ledArray[StripLights_row][StripLights_ledIndex];
  38              		.loc 1 591 0
  39 0002 1449     		ldr	r1, .L3
  40 0004 0A68     		ldr	r2, [r1]
  41 0006 9300     		lsls	r3, r2, #2
  42 0008 9B18     		adds	r3, r3, r2
  43 000a 1A01     		lsls	r2, r3, #4
  44 000c D31A     		subs	r3, r2, r3
  45 000e 4A68     		ldr	r2, [r1, #4]
  46 0010 9B18     		adds	r3, r3, r2
  47 0012 9B00     		lsls	r3, r3, #2
  48 0014 1048     		ldr	r0, .L3+4
  49 0016 1B58     		ldr	r3, [r3, r0]
 592:Generated_Source\PSoC4/StripLights.c ****     #else  /* Else use lookup table */
 593:Generated_Source\PSoC4/StripLights.c ****         color = StripLights_CLUT[ (StripLights_ledArray[StripLights_row][StripLights_ledIndex]) ];
 594:Generated_Source\PSoC4/StripLights.c ****     #endif
 595:Generated_Source\PSoC4/StripLights.c **** 
 596:Generated_Source\PSoC4/StripLights.c ****     color = (color >> StripLights_DimShift) & StripLights_DimMask;  
  50              		.loc 1 596 0
  51 0018 1048     		ldr	r0, .L3+8
  52 001a 0068     		ldr	r0, [r0]
  53 001c C340     		lsrs	r3, r3, r0
  54 001e 1048     		ldr	r0, .L3+12
  55 0020 0068     		ldr	r0, [r0]
  56 0022 0340     		ands	r3, r0
 597:Generated_Source\PSoC4/StripLights.c **** 
 598:Generated_Source\PSoC4/StripLights.c ****     #if(StripLights_GAMMA_CORRECTION == StripLights_GAMMA_ON)
 599:Generated_Source\PSoC4/StripLights.c **** 
 600:Generated_Source\PSoC4/StripLights.c ****         StripLights_DATA = StripLights_gamma[color & 0x000000FF];  // Write Green
  57              		.loc 1 600 0
  58 0024 FF25     		movs	r5, #255
  59 0026 2800     		movs	r0, r5
  60 0028 1840     		ands	r0, r3
  61 002a 0E4C     		ldr	r4, .L3+16
  62 002c 265C     		ldrb	r6, [r4, r0]
  63 002e 0E48     		ldr	r0, .L3+20
  64 0030 0670     		strb	r6, [r0]
 601:Generated_Source\PSoC4/StripLights.c ****         color = color >> 8;
  65              		.loc 1 601 0
  66 0032 1E0A     		lsrs	r6, r3, #8
 602:Generated_Source\PSoC4/StripLights.c ****         StripLights_DATA = StripLights_gamma[color & 0x000000FF];  // Write Red
  67              		.loc 1 602 0
  68 0034 2E40     		ands	r6, r5
  69 0036 A65D     		ldrb	r6, [r4, r6]
  70 0038 0670     		strb	r6, [r0]
 603:Generated_Source\PSoC4/StripLights.c ****         color = color >> 8;
  71              		.loc 1 603 0
  72 003a 1B0C     		lsrs	r3, r3, #16
  73 003c 8B60     		str	r3, [r1, #8]
 604:Generated_Source\PSoC4/StripLights.c ****         StripLights_DATA = StripLights_gamma[color & 0x000000FF];  // Write Blue
  74              		.loc 1 604 0
  75 003e 2B40     		ands	r3, r5
  76 0040 E35C     		ldrb	r3, [r4, r3]
  77 0042 0370     		strb	r3, [r0]
 605:Generated_Source\PSoC4/StripLights.c ****         #if(StripLights_CHIP == StripLights_CHIP_SF2812RGBW)
 606:Generated_Source\PSoC4/StripLights.c ****             color = color >> 8;
 607:Generated_Source\PSoC4/StripLights.c ****             StripLights_DATA = StripLights_gamma[color & 0x000000FF];  // Write White 
ARM GAS  C:\Users\JAMESS~1\AppData\Local\Temp\ccd7YNc7.s 			page 13


 608:Generated_Source\PSoC4/StripLights.c ****         #endif
 609:Generated_Source\PSoC4/StripLights.c ****     #else
 610:Generated_Source\PSoC4/StripLights.c **** 
 611:Generated_Source\PSoC4/StripLights.c ****         StripLights_DATA = (uint8)(color & 0x000000FF);  // Write Green
 612:Generated_Source\PSoC4/StripLights.c ****         color = color >> 8;
 613:Generated_Source\PSoC4/StripLights.c ****         StripLights_DATA = (uint8)(color & 0x000000FF);  // Write Red
 614:Generated_Source\PSoC4/StripLights.c ****         color = color >> 8;
 615:Generated_Source\PSoC4/StripLights.c ****         StripLights_DATA = (uint8)(color & 0x000000FF);  // Write Blue    
 616:Generated_Source\PSoC4/StripLights.c ****          #if(StripLights_CHIP == StripLights_CHIP_SF2812RGBW)
 617:Generated_Source\PSoC4/StripLights.c ****             color = color >> 8;
 618:Generated_Source\PSoC4/StripLights.c ****             StripLights_DATA = (uint8)(color & 0x000000FF);  // Write White 
 619:Generated_Source\PSoC4/StripLights.c ****         #endif 
 620:Generated_Source\PSoC4/StripLights.c ****     #endif
 621:Generated_Source\PSoC4/StripLights.c ****     
 622:Generated_Source\PSoC4/StripLights.c ****     StripLights_ledIndex++;
  78              		.loc 1 622 0
  79 0044 0132     		adds	r2, r2, #1
  80 0046 4A60     		str	r2, [r1, #4]
 623:Generated_Source\PSoC4/StripLights.c ****     if(StripLights_ledIndex >= StripLights_ARRAY_COLS)
  81              		.loc 1 623 0
  82 0048 4A2A     		cmp	r2, #74
  83 004a 02D9     		bls	.L1
 624:Generated_Source\PSoC4/StripLights.c ****     {
 625:Generated_Source\PSoC4/StripLights.c ****         StripLights_CONTROL = StripLights_ENABLE | StripLights_XFRCMPT_IRQ_EN; 
  84              		.loc 1 625 0
  85 004c 1122     		movs	r2, #17
  86 004e 074B     		ldr	r3, .L3+24
  87 0050 1A70     		strb	r2, [r3]
  88              	.L1:
 626:Generated_Source\PSoC4/StripLights.c ****     }
 627:Generated_Source\PSoC4/StripLights.c **** }
  89              		.loc 1 627 0
  90              		@ sp needed
  91 0052 70BD     		pop	{r4, r5, r6, pc}
  92              	.L4:
  93              		.align	2
  94              	.L3:
  95 0054 00000000 		.word	.LANCHOR0
  96 0058 00000000 		.word	StripLights_ledArray
  97 005c 00000000 		.word	StripLights_DimShift
  98 0060 00000000 		.word	StripLights_DimMask
  99 0064 00000000 		.word	.LANCHOR1
 100 0068 42000F40 		.word	1074724930
 101 006c 72000F40 		.word	1074724978
 102              		.cfi_endproc
 103              	.LFE41:
 104              		.size	StripLights_FISR, .-StripLights_FISR
 105              		.section	.text.StripLights_CISR,"ax",%progbits
 106              		.align	2
 107              		.global	StripLights_CISR
 108              		.code	16
 109              		.thumb_func
 110              		.type	StripLights_CISR, %function
 111              	StripLights_CISR:
 112              	.LFB42:
 628:Generated_Source\PSoC4/StripLights.c **** 
 629:Generated_Source\PSoC4/StripLights.c **** /*****************************************************************************
ARM GAS  C:\Users\JAMESS~1\AppData\Local\Temp\ccd7YNc7.s 			page 14


 630:Generated_Source\PSoC4/StripLights.c **** * Function Name: StripLights_CISR
 631:Generated_Source\PSoC4/StripLights.c **** ******************************************************************************
 632:Generated_Source\PSoC4/StripLights.c **** *
 633:Generated_Source\PSoC4/StripLights.c **** * Summary:
 634:Generated_Source\PSoC4/StripLights.c **** *  Interrupt service handler after each row is complete.
 635:Generated_Source\PSoC4/StripLights.c **** *
 636:Generated_Source\PSoC4/StripLights.c **** * Parameters:  
 637:Generated_Source\PSoC4/StripLights.c **** *  void
 638:Generated_Source\PSoC4/StripLights.c **** *
 639:Generated_Source\PSoC4/StripLights.c **** * Return: 
 640:Generated_Source\PSoC4/StripLights.c **** *  void 
 641:Generated_Source\PSoC4/StripLights.c **** *
 642:Generated_Source\PSoC4/StripLights.c **** * Reentrant: 
 643:Generated_Source\PSoC4/StripLights.c **** *  No
 644:Generated_Source\PSoC4/StripLights.c **** *
 645:Generated_Source\PSoC4/StripLights.c **** *****************************************************************************/
 646:Generated_Source\PSoC4/StripLights.c **** CY_ISR( StripLights_CISR)
 647:Generated_Source\PSoC4/StripLights.c **** {
 113              		.loc 1 647 0
 114              		.cfi_startproc
 115              		@ args = 0, pretend = 0, frame = 0
 116              		@ frame_needed = 0, uses_anonymous_args = 0
 117 0000 30B5     		push	{r4, r5, lr}
 118              		.cfi_def_cfa_offset 12
 119              		.cfi_offset 4, -12
 120              		.cfi_offset 5, -8
 121              		.cfi_offset 14, -4
 648:Generated_Source\PSoC4/StripLights.c ****     extern uint32  StripLights_DimMask;
 649:Generated_Source\PSoC4/StripLights.c ****     extern uint32  StripLights_DimShift;
 650:Generated_Source\PSoC4/StripLights.c ****     uint32 static color;
 651:Generated_Source\PSoC4/StripLights.c ****     extern uint32 StripLights_refreshComplete;
 652:Generated_Source\PSoC4/StripLights.c **** 
 653:Generated_Source\PSoC4/StripLights.c **** 	StripLights_CONTROL = StripLights_ENABLE |StripLights_NEXT_ROW;
 122              		.loc 1 653 0
 123 0002 2122     		movs	r2, #33
 124 0004 184B     		ldr	r3, .L8
 125 0006 1A70     		strb	r2, [r3]
 654:Generated_Source\PSoC4/StripLights.c ****     StripLights_row++;
 126              		.loc 1 654 0
 127 0008 184A     		ldr	r2, .L8+4
 128 000a 1368     		ldr	r3, [r2]
 129 000c 0133     		adds	r3, r3, #1
 130 000e 1360     		str	r3, [r2]
 655:Generated_Source\PSoC4/StripLights.c ****     if( StripLights_row < StripLights_ARRAY_ROWS)  /* More Rows to do  */
 131              		.loc 1 655 0
 132 0010 002B     		cmp	r3, #0
 133 0012 25D1     		bne	.L6
 656:Generated_Source\PSoC4/StripLights.c ****     {
 657:Generated_Source\PSoC4/StripLights.c ****         StripLights_Channel = StripLights_row;  
 134              		.loc 1 657 0
 135 0014 DBB2     		uxtb	r3, r3
 136 0016 164A     		ldr	r2, .L8+8
 137 0018 1370     		strb	r3, [r2]
 658:Generated_Source\PSoC4/StripLights.c **** 
 659:Generated_Source\PSoC4/StripLights.c **** 		#if(StripLights_MEMORY_TYPE == StripLights_MEMORY_RGB)
 660:Generated_Source\PSoC4/StripLights.c ****              color = StripLights_ledArray[StripLights_row][0];
 138              		.loc 1 660 0
ARM GAS  C:\Users\JAMESS~1\AppData\Local\Temp\ccd7YNc7.s 			page 15


 139 001a 144A     		ldr	r2, .L8+4
 140 001c 9623     		movs	r3, #150
 141 001e 5B00     		lsls	r3, r3, #1
 142 0020 1168     		ldr	r1, [r2]
 143 0022 4B43     		muls	r3, r1
 144 0024 1349     		ldr	r1, .L8+12
 145 0026 5B58     		ldr	r3, [r3, r1]
 661:Generated_Source\PSoC4/StripLights.c ****         #else  /* Else use lookup table */
 662:Generated_Source\PSoC4/StripLights.c ****              color = StripLights_CLUT[ (StripLights_ledArray[StripLights_row][0]) ];
 663:Generated_Source\PSoC4/StripLights.c ****         #endif
 664:Generated_Source\PSoC4/StripLights.c **** 
 665:Generated_Source\PSoC4/StripLights.c ****         color = (color >> StripLights_DimShift) & StripLights_DimMask;
 146              		.loc 1 665 0
 147 0028 1349     		ldr	r1, .L8+16
 148 002a 0968     		ldr	r1, [r1]
 149 002c CB40     		lsrs	r3, r3, r1
 150 002e 1349     		ldr	r1, .L8+20
 151 0030 0968     		ldr	r1, [r1]
 152 0032 0B40     		ands	r3, r1
 666:Generated_Source\PSoC4/StripLights.c ****  
 667:Generated_Source\PSoC4/StripLights.c ****         #if(StripLights_GAMMA_CORRECTION == StripLights_GAMMA_ON)
 668:Generated_Source\PSoC4/StripLights.c ****             StripLights_DATA = StripLights_gamma[color & 0x000000FF];  // Write Green
 153              		.loc 1 668 0
 154 0034 FF24     		movs	r4, #255
 155 0036 2100     		movs	r1, r4
 156 0038 1940     		ands	r1, r3
 157 003a 1148     		ldr	r0, .L8+24
 158 003c 455C     		ldrb	r5, [r0, r1]
 159 003e 1149     		ldr	r1, .L8+28
 160 0040 0D70     		strb	r5, [r1]
 669:Generated_Source\PSoC4/StripLights.c ****             color = color >> 8;
 161              		.loc 1 669 0
 162 0042 1D0A     		lsrs	r5, r3, #8
 670:Generated_Source\PSoC4/StripLights.c ****             StripLights_DATA = StripLights_gamma[color & 0x000000FF];  // Write Red
 163              		.loc 1 670 0
 164 0044 2540     		ands	r5, r4
 165 0046 455D     		ldrb	r5, [r0, r5]
 166 0048 0D70     		strb	r5, [r1]
 671:Generated_Source\PSoC4/StripLights.c ****             color = color >> 8;
 167              		.loc 1 671 0
 168 004a 1B0C     		lsrs	r3, r3, #16
 169 004c D360     		str	r3, [r2, #12]
 672:Generated_Source\PSoC4/StripLights.c ****             StripLights_DATA = StripLights_gamma[color & 0x000000FF];  // Write Blue
 170              		.loc 1 672 0
 171 004e 2340     		ands	r3, r4
 172 0050 C35C     		ldrb	r3, [r0, r3]
 173 0052 0B70     		strb	r3, [r1]
 673:Generated_Source\PSoC4/StripLights.c ****              #if(StripLights_CHIP == StripLights_CHIP_SF2812RGBW)
 674:Generated_Source\PSoC4/StripLights.c ****                 color = color >> 8;
 675:Generated_Source\PSoC4/StripLights.c ****                 StripLights_DATA = StripLights_gamma[color & 0x000000FF];  // Write White 
 676:Generated_Source\PSoC4/StripLights.c ****             #endif 
 677:Generated_Source\PSoC4/StripLights.c ****         #else
 678:Generated_Source\PSoC4/StripLights.c ****             StripLights_DATA = (uint8)(color & 0x000000FF);  // Write Green
 679:Generated_Source\PSoC4/StripLights.c ****             color = color >> 8;
 680:Generated_Source\PSoC4/StripLights.c ****             StripLights_DATA = (uint8)(color & 0x000000FF);  // Write Red
 681:Generated_Source\PSoC4/StripLights.c ****             color = color >> 8;
 682:Generated_Source\PSoC4/StripLights.c ****             StripLights_DATA = (uint8)(color & 0x000000FF);  // Write Blue  
ARM GAS  C:\Users\JAMESS~1\AppData\Local\Temp\ccd7YNc7.s 			page 16


 683:Generated_Source\PSoC4/StripLights.c ****             #if(StripLights_CHIP == StripLights_CHIP_SF2812RGBW)
 684:Generated_Source\PSoC4/StripLights.c ****                 color = color >> 8;
 685:Generated_Source\PSoC4/StripLights.c ****                 StripLights_DATA = (uint8)(color & 0x000000FF);  // Write White 
 686:Generated_Source\PSoC4/StripLights.c ****             #endif  
 687:Generated_Source\PSoC4/StripLights.c ****         #endif
 688:Generated_Source\PSoC4/StripLights.c ****        
 689:Generated_Source\PSoC4/StripLights.c ****         StripLights_ledIndex = 1;
 174              		.loc 1 689 0
 175 0054 0123     		movs	r3, #1
 176 0056 5360     		str	r3, [r2, #4]
 690:Generated_Source\PSoC4/StripLights.c **** 		StripLights_CONTROL = StripLights_ENABLE | StripLights_XFRCMPT_IRQ_EN | StripLights_FIFO_IRQ_EN; 
 177              		.loc 1 690 0
 178 0058 1922     		movs	r2, #25
 179 005a 034B     		ldr	r3, .L8
 180 005c 1A70     		strb	r2, [r3]
 181 005e 02E0     		b	.L5
 182              	.L6:
 691:Generated_Source\PSoC4/StripLights.c ****     }
 692:Generated_Source\PSoC4/StripLights.c ****     else
 693:Generated_Source\PSoC4/StripLights.c ****     {
 694:Generated_Source\PSoC4/StripLights.c ****         StripLights_refreshComplete = 1u;
 183              		.loc 1 694 0
 184 0060 0122     		movs	r2, #1
 185 0062 094B     		ldr	r3, .L8+32
 186 0064 1A60     		str	r2, [r3]
 187              	.L5:
 695:Generated_Source\PSoC4/StripLights.c ****     }
 696:Generated_Source\PSoC4/StripLights.c **** }
 188              		.loc 1 696 0
 189              		@ sp needed
 190 0066 30BD     		pop	{r4, r5, pc}
 191              	.L9:
 192              		.align	2
 193              	.L8:
 194 0068 72000F40 		.word	1074724978
 195 006c 00000000 		.word	.LANCHOR0
 196 0070 70000F40 		.word	1074724976
 197 0074 00000000 		.word	StripLights_ledArray
 198 0078 00000000 		.word	StripLights_DimShift
 199 007c 00000000 		.word	StripLights_DimMask
 200 0080 00000000 		.word	.LANCHOR1
 201 0084 42000F40 		.word	1074724930
 202 0088 00000000 		.word	StripLights_refreshComplete
 203              		.cfi_endproc
 204              	.LFE42:
 205              		.size	StripLights_CISR, .-StripLights_CISR
 206              		.section	.text.StripLights_SetCriticalFuncs,"ax",%progbits
 207              		.align	2
 208              		.global	StripLights_SetCriticalFuncs
 209              		.code	16
 210              		.thumb_func
 211              		.type	StripLights_SetCriticalFuncs, %function
 212              	StripLights_SetCriticalFuncs:
 213              	.LFB33:
 333:Generated_Source\PSoC4/StripLights.c ****     StripLights_EnterCritical = EnCriticalFunc;
 214              		.loc 1 333 0
 215              		.cfi_startproc
ARM GAS  C:\Users\JAMESS~1\AppData\Local\Temp\ccd7YNc7.s 			page 17


 216              		@ args = 0, pretend = 0, frame = 0
 217              		@ frame_needed = 0, uses_anonymous_args = 0
 218              		@ link register save eliminated.
 219              	.LVL0:
 334:Generated_Source\PSoC4/StripLights.c ****     StripLights_ExitCritical  = ExCriticalFunc;   
 220              		.loc 1 334 0
 221 0000 014B     		ldr	r3, .L11
 222 0002 1861     		str	r0, [r3, #16]
 335:Generated_Source\PSoC4/StripLights.c **** }
 223              		.loc 1 335 0
 224 0004 5961     		str	r1, [r3, #20]
 336:Generated_Source\PSoC4/StripLights.c **** 
 225              		.loc 1 336 0
 226              		@ sp needed
 227 0006 7047     		bx	lr
 228              	.L12:
 229              		.align	2
 230              	.L11:
 231 0008 00000000 		.word	.LANCHOR0
 232              		.cfi_endproc
 233              	.LFE33:
 234              		.size	StripLights_SetCriticalFuncs, .-StripLights_SetCriticalFuncs
 235              		.section	.text.StripLights_Trigger,"ax",%progbits
 236              		.align	2
 237              		.global	StripLights_Trigger
 238              		.code	16
 239              		.thumb_func
 240              		.type	StripLights_Trigger, %function
 241              	StripLights_Trigger:
 242              	.LFB36:
 439:Generated_Source\PSoC4/StripLights.c ****     uint32 color;
 243              		.loc 1 439 0
 244              		.cfi_startproc
 245              		@ args = 0, pretend = 0, frame = 0
 246              		@ frame_needed = 0, uses_anonymous_args = 0
 247              	.LVL1:
 248 0000 30B5     		push	{r4, r5, lr}
 249              		.cfi_def_cfa_offset 12
 250              		.cfi_offset 4, -12
 251              		.cfi_offset 5, -8
 252              		.cfi_offset 14, -4
 442:Generated_Source\PSoC4/StripLights.c ****     {
 253              		.loc 1 442 0
 254 0002 0028     		cmp	r0, #0
 255 0004 04D0     		beq	.L14
 444:Generated_Source\PSoC4/StripLights.c ****         StripLights_Channel = 0;
 256              		.loc 1 444 0
 257 0006 0023     		movs	r3, #0
 258 0008 144A     		ldr	r2, .L15
 259 000a 1360     		str	r3, [r2]
 445:Generated_Source\PSoC4/StripLights.c ****     }
 260              		.loc 1 445 0
 261 000c 144A     		ldr	r2, .L15+4
 262 000e 1370     		strb	r3, [r2]
 263              	.L14:
 449:Generated_Source\PSoC4/StripLights.c ****     #else  /* Else use lookup table */
 264              		.loc 1 449 0
ARM GAS  C:\Users\JAMESS~1\AppData\Local\Temp\ccd7YNc7.s 			page 18


 265 0010 124D     		ldr	r5, .L15
 266 0012 9623     		movs	r3, #150
 267 0014 5B00     		lsls	r3, r3, #1
 268 0016 2A68     		ldr	r2, [r5]
 269 0018 5343     		muls	r3, r2
 270 001a 124A     		ldr	r2, .L15+8
 271 001c 9B58     		ldr	r3, [r3, r2]
 272              	.LVL2:
 454:Generated_Source\PSoC4/StripLights.c ****      
 273              		.loc 1 454 0
 274 001e 124A     		ldr	r2, .L15+12
 275 0020 1268     		ldr	r2, [r2]
 276 0022 D340     		lsrs	r3, r3, r2
 277              	.LVL3:
 278 0024 114A     		ldr	r2, .L15+16
 279 0026 1268     		ldr	r2, [r2]
 280 0028 1340     		ands	r3, r2
 281              	.LVL4:
 457:Generated_Source\PSoC4/StripLights.c ****         color = color >> 8;
 282              		.loc 1 457 0
 283 002a FF20     		movs	r0, #255
 284              	.LVL5:
 285 002c 0200     		movs	r2, r0
 286 002e 1A40     		ands	r2, r3
 287 0030 0F49     		ldr	r1, .L15+20
 288 0032 8C5C     		ldrb	r4, [r1, r2]
 289 0034 0F4A     		ldr	r2, .L15+24
 290 0036 1470     		strb	r4, [r2]
 458:Generated_Source\PSoC4/StripLights.c ****         StripLights_DATA = StripLights_gamma[color & 0x000000FF];  // Write Red
 291              		.loc 1 458 0
 292 0038 1C0A     		lsrs	r4, r3, #8
 293              	.LVL6:
 459:Generated_Source\PSoC4/StripLights.c ****         color = color >> 8;
 294              		.loc 1 459 0
 295 003a 0440     		ands	r4, r0
 296              	.LVL7:
 297 003c 0C5D     		ldrb	r4, [r1, r4]
 298 003e 1470     		strb	r4, [r2]
 460:Generated_Source\PSoC4/StripLights.c ****         StripLights_DATA = StripLights_gamma[color & 0x000000FF];  // Write Blue
 299              		.loc 1 460 0
 300 0040 1B0C     		lsrs	r3, r3, #16
 301              	.LVL8:
 461:Generated_Source\PSoC4/StripLights.c ****         #if(StripLights_CHIP == StripLights_CHIP_SF2812RGBW)
 302              		.loc 1 461 0
 303 0042 0340     		ands	r3, r0
 304              	.LVL9:
 305 0044 CB5C     		ldrb	r3, [r1, r3]
 306 0046 1370     		strb	r3, [r2]
 478:Generated_Source\PSoC4/StripLights.c **** 	
 307              		.loc 1 478 0
 308 0048 0123     		movs	r3, #1
 309 004a 6B60     		str	r3, [r5, #4]
 480:Generated_Source\PSoC4/StripLights.c ****     StripLights_refreshComplete = 0;
 310              		.loc 1 480 0
 311 004c 1922     		movs	r2, #25
 312 004e 0A4B     		ldr	r3, .L15+28
 313 0050 1A70     		strb	r2, [r3]
ARM GAS  C:\Users\JAMESS~1\AppData\Local\Temp\ccd7YNc7.s 			page 19


 481:Generated_Source\PSoC4/StripLights.c **** }
 314              		.loc 1 481 0
 315 0052 0022     		movs	r2, #0
 316 0054 094B     		ldr	r3, .L15+32
 317 0056 1A60     		str	r2, [r3]
 482:Generated_Source\PSoC4/StripLights.c **** 
 318              		.loc 1 482 0
 319              		@ sp needed
 320 0058 30BD     		pop	{r4, r5, pc}
 321              	.L16:
 322 005a C046     		.align	2
 323              	.L15:
 324 005c 00000000 		.word	.LANCHOR0
 325 0060 70000F40 		.word	1074724976
 326 0064 00000000 		.word	StripLights_ledArray
 327 0068 00000000 		.word	StripLights_DimShift
 328 006c 00000000 		.word	StripLights_DimMask
 329 0070 00000000 		.word	.LANCHOR1
 330 0074 42000F40 		.word	1074724930
 331 0078 72000F40 		.word	1074724978
 332 007c 00000000 		.word	StripLights_refreshComplete
 333              		.cfi_endproc
 334              	.LFE36:
 335              		.size	StripLights_Trigger, .-StripLights_Trigger
 336              		.section	.text.StripLights_Ready,"ax",%progbits
 337              		.align	2
 338              		.global	StripLights_Ready
 339              		.code	16
 340              		.thumb_func
 341              		.type	StripLights_Ready, %function
 342              	StripLights_Ready:
 343              	.LFB37:
 498:Generated_Source\PSoC4/StripLights.c ****     if(StripLights_refreshComplete )
 344              		.loc 1 498 0
 345              		.cfi_startproc
 346              		@ args = 0, pretend = 0, frame = 0
 347              		@ frame_needed = 0, uses_anonymous_args = 0
 348              		@ link register save eliminated.
 499:Generated_Source\PSoC4/StripLights.c ****     {
 349              		.loc 1 499 0
 350 0000 044B     		ldr	r3, .L19
 351 0002 1868     		ldr	r0, [r3]
 352 0004 0028     		cmp	r0, #0
 353 0006 03D0     		beq	.L18
 501:Generated_Source\PSoC4/StripLights.c ****         return((uint32)1);
 354              		.loc 1 501 0
 355 0008 0022     		movs	r2, #0
 356 000a 034B     		ldr	r3, .L19+4
 357 000c 1A70     		strb	r2, [r3]
 502:Generated_Source\PSoC4/StripLights.c ****     }
 358              		.loc 1 502 0
 359 000e 0120     		movs	r0, #1
 360              	.L18:
 508:Generated_Source\PSoC4/StripLights.c **** 
 361              		.loc 1 508 0
 362              		@ sp needed
 363 0010 7047     		bx	lr
ARM GAS  C:\Users\JAMESS~1\AppData\Local\Temp\ccd7YNc7.s 			page 20


 364              	.L20:
 365 0012 C046     		.align	2
 366              	.L19:
 367 0014 00000000 		.word	StripLights_refreshComplete
 368 0018 72000F40 		.word	1074724978
 369              		.cfi_endproc
 370              	.LFE37:
 371              		.size	StripLights_Ready, .-StripLights_Ready
 372              		.section	.text.StripLights_TriggerWaitDelay,"ax",%progbits
 373              		.align	2
 374              		.global	StripLights_TriggerWaitDelay
 375              		.code	16
 376              		.thumb_func
 377              		.type	StripLights_TriggerWaitDelay, %function
 378              	StripLights_TriggerWaitDelay:
 379              	.LFB34:
 352:Generated_Source\PSoC4/StripLights.c **** 
 380              		.loc 1 352 0
 381              		.cfi_startproc
 382              		@ args = 0, pretend = 0, frame = 0
 383              		@ frame_needed = 0, uses_anonymous_args = 0
 384              	.LVL10:
 385 0000 70B5     		push	{r4, r5, r6, lr}
 386              		.cfi_def_cfa_offset 16
 387              		.cfi_offset 4, -16
 388              		.cfi_offset 5, -12
 389              		.cfi_offset 6, -8
 390              		.cfi_offset 14, -4
 391 0002 0500     		movs	r5, r0
 392              	.LVL11:
 357:Generated_Source\PSoC4/StripLights.c ****     {
 393              		.loc 1 357 0
 394 0004 124B     		ldr	r3, .L28
 395 0006 1B69     		ldr	r3, [r3, #16]
 396 0008 002B     		cmp	r3, #0
 397 000a 00D0     		beq	.L22
 359:Generated_Source\PSoC4/StripLights.c ****     }
 398              		.loc 1 359 0
 399 000c 9847     		blx	r3
 400              	.LVL12:
 401              	.L22:
 362:Generated_Source\PSoC4/StripLights.c ****     
 402              		.loc 1 362 0
 403 000e 0120     		movs	r0, #1
 404 0010 FFF7FEFF 		bl	StripLights_Trigger
 405              	.LVL13:
 354:Generated_Source\PSoC4/StripLights.c ****     
 406              		.loc 1 354 0
 407 0014 0024     		movs	r4, #0
 364:Generated_Source\PSoC4/StripLights.c ****     {
 408              		.loc 1 364 0
 409 0016 07E0     		b	.L23
 410              	.LVL14:
 411              	.L25:
 366:Generated_Source\PSoC4/StripLights.c ****         CyDelayUs(100);  
 412              		.loc 1 366 0
 413 0018 FA23     		movs	r3, #250
ARM GAS  C:\Users\JAMESS~1\AppData\Local\Temp\ccd7YNc7.s 			page 21


 414 001a DB00     		lsls	r3, r3, #3
 415 001c 9C42     		cmp	r4, r3
 416 001e 0CD8     		bhi	.L24
 367:Generated_Source\PSoC4/StripLights.c ****         toCount++;
 417              		.loc 1 367 0
 418 0020 6420     		movs	r0, #100
 419 0022 FFF7FEFF 		bl	CyDelayUs
 420              	.LVL15:
 368:Generated_Source\PSoC4/StripLights.c ****     }
 421              		.loc 1 368 0
 422 0026 0134     		adds	r4, r4, #1
 423              	.LVL16:
 424              	.L23:
 364:Generated_Source\PSoC4/StripLights.c ****     {
 425              		.loc 1 364 0
 426 0028 FFF7FEFF 		bl	StripLights_Ready
 427              	.LVL17:
 428 002c 0028     		cmp	r0, #0
 429 002e F3D0     		beq	.L25
 430 0030 03E0     		b	.L24
 431              	.L26:
 373:Generated_Source\PSoC4/StripLights.c ****         CyDelayUs(100); 
 432              		.loc 1 373 0
 433 0032 0134     		adds	r4, r4, #1
 434              	.LVL18:
 374:Generated_Source\PSoC4/StripLights.c ****     }
 435              		.loc 1 374 0
 436 0034 6420     		movs	r0, #100
 437 0036 FFF7FEFF 		bl	CyDelayUs
 438              	.LVL19:
 439              	.L24:
 371:Generated_Source\PSoC4/StripLights.c ****     {
 440              		.loc 1 371 0
 441 003a AB00     		lsls	r3, r5, #2
 442 003c 5B19     		adds	r3, r3, r5
 443 003e 5A00     		lsls	r2, r3, #1
 444 0040 9442     		cmp	r4, r2
 445 0042 F6D3     		bcc	.L26
 379:Generated_Source\PSoC4/StripLights.c ****     {
 446              		.loc 1 379 0
 447 0044 024B     		ldr	r3, .L28
 448 0046 5B69     		ldr	r3, [r3, #20]
 449 0048 002B     		cmp	r3, #0
 450 004a 00D0     		beq	.L21
 381:Generated_Source\PSoC4/StripLights.c ****     }
 451              		.loc 1 381 0
 452 004c 9847     		blx	r3
 453              	.LVL20:
 454              	.L21:
 385:Generated_Source\PSoC4/StripLights.c **** 
 455              		.loc 1 385 0
 456              		@ sp needed
 457              	.LVL21:
 458              	.LVL22:
 459 004e 70BD     		pop	{r4, r5, r6, pc}
 460              	.L29:
 461              		.align	2
ARM GAS  C:\Users\JAMESS~1\AppData\Local\Temp\ccd7YNc7.s 			page 22


 462              	.L28:
 463 0050 00000000 		.word	.LANCHOR0
 464              		.cfi_endproc
 465              	.LFE34:
 466              		.size	StripLights_TriggerWaitDelay, .-StripLights_TriggerWaitDelay
 467              		.section	.text.StripLights_TriggerWait,"ax",%progbits
 468              		.align	2
 469              		.global	StripLights_TriggerWait
 470              		.code	16
 471              		.thumb_func
 472              		.type	StripLights_TriggerWait, %function
 473              	StripLights_TriggerWait:
 474              	.LFB35:
 401:Generated_Source\PSoC4/StripLights.c **** 
 475              		.loc 1 401 0
 476              		.cfi_startproc
 477              		@ args = 0, pretend = 0, frame = 0
 478              		@ frame_needed = 0, uses_anonymous_args = 0
 479              	.LVL23:
 480 0000 10B5     		push	{r4, lr}
 481              		.cfi_def_cfa_offset 8
 482              		.cfi_offset 4, -8
 483              		.cfi_offset 14, -4
 484 0002 0400     		movs	r4, r0
 405:Generated_Source\PSoC4/StripLights.c ****     {
 485              		.loc 1 405 0
 486 0004 084B     		ldr	r3, .L34
 487 0006 1B69     		ldr	r3, [r3, #16]
 488 0008 002B     		cmp	r3, #0
 489 000a 00D0     		beq	.L31
 407:Generated_Source\PSoC4/StripLights.c ****     }
 490              		.loc 1 407 0
 491 000c 9847     		blx	r3
 492              	.LVL24:
 493              	.L31:
 410:Generated_Source\PSoC4/StripLights.c ****     
 494              		.loc 1 410 0
 495 000e 2000     		movs	r0, r4
 496 0010 FFF7FEFF 		bl	StripLights_Trigger
 497              	.LVL25:
 498              	.L32:
 412:Generated_Source\PSoC4/StripLights.c ****     
 499              		.loc 1 412 0 discriminator 1
 500 0014 FFF7FEFF 		bl	StripLights_Ready
 501              	.LVL26:
 502 0018 0028     		cmp	r0, #0
 503 001a FBD0     		beq	.L32
 416:Generated_Source\PSoC4/StripLights.c ****     {
 504              		.loc 1 416 0
 505 001c 024B     		ldr	r3, .L34
 506 001e 5B69     		ldr	r3, [r3, #20]
 507 0020 002B     		cmp	r3, #0
 508 0022 00D0     		beq	.L30
 418:Generated_Source\PSoC4/StripLights.c ****     }
 509              		.loc 1 418 0
 510 0024 9847     		blx	r3
 511              	.LVL27:
ARM GAS  C:\Users\JAMESS~1\AppData\Local\Temp\ccd7YNc7.s 			page 23


 512              	.L30:
 422:Generated_Source\PSoC4/StripLights.c **** 
 513              		.loc 1 422 0
 514              		@ sp needed
 515              	.LVL28:
 516 0026 10BD     		pop	{r4, pc}
 517              	.L35:
 518              		.align	2
 519              	.L34:
 520 0028 00000000 		.word	.LANCHOR0
 521              		.cfi_endproc
 522              	.LFE35:
 523              		.size	StripLights_TriggerWait, .-StripLights_TriggerWait
 524              		.section	.text.StripLights_Stop,"ax",%progbits
 525              		.align	2
 526              		.global	StripLights_Stop
 527              		.code	16
 528              		.thumb_func
 529              		.type	StripLights_Stop, %function
 530              	StripLights_Stop:
 531              	.LFB38:
 525:Generated_Source\PSoC4/StripLights.c ****     StripLights_CONTROL = StripLights_DISABLE;
 532              		.loc 1 525 0
 533              		.cfi_startproc
 534              		@ args = 0, pretend = 0, frame = 0
 535              		@ frame_needed = 0, uses_anonymous_args = 0
 536              		@ link register save eliminated.
 526:Generated_Source\PSoC4/StripLights.c **** }
 537              		.loc 1 526 0
 538 0000 0022     		movs	r2, #0
 539 0002 014B     		ldr	r3, .L37
 540 0004 1A70     		strb	r2, [r3]
 527:Generated_Source\PSoC4/StripLights.c **** 
 541              		.loc 1 527 0
 542              		@ sp needed
 543 0006 7047     		bx	lr
 544              	.L38:
 545              		.align	2
 546              	.L37:
 547 0008 72000F40 		.word	1074724978
 548              		.cfi_endproc
 549              	.LFE38:
 550              		.size	StripLights_Stop, .-StripLights_Stop
 551              		.section	.text.StripLights_getColor,"ax",%progbits
 552              		.align	2
 553              		.global	StripLights_getColor
 554              		.code	16
 555              		.thumb_func
 556              		.type	StripLights_getColor, %function
 557              	StripLights_getColor:
 558              	.LFB39:
 530:Generated_Source\PSoC4/StripLights.c ****     #if(StripLights_MEMORY_TYPE == StripLights_MEMORY_RGB)
 559              		.loc 1 530 0
 560              		.cfi_startproc
 561              		@ args = 0, pretend = 0, frame = 0
 562              		@ frame_needed = 0, uses_anonymous_args = 0
 563              		@ link register save eliminated.
ARM GAS  C:\Users\JAMESS~1\AppData\Local\Temp\ccd7YNc7.s 			page 24


 564              	.LVL29:
 532:Generated_Source\PSoC4/StripLights.c ****     #endif
 565              		.loc 1 532 0
 566 0000 8000     		lsls	r0, r0, #2
 567              	.LVL30:
 568 0002 014B     		ldr	r3, .L40
 569 0004 C058     		ldr	r0, [r0, r3]
 570              	.LVL31:
 536:Generated_Source\PSoC4/StripLights.c **** 
 571              		.loc 1 536 0
 572              		@ sp needed
 573 0006 7047     		bx	lr
 574              	.L41:
 575              		.align	2
 576              	.L40:
 577 0008 00010000 		.word	.LANCHOR2
 578              		.cfi_endproc
 579              	.LFE39:
 580              		.size	StripLights_getColor, .-StripLights_getColor
 581              		.global	__aeabi_uidivmod
 582              		.section	.text.StripLights_ColorInc,"ax",%progbits
 583              		.align	2
 584              		.global	StripLights_ColorInc
 585              		.code	16
 586              		.thumb_func
 587              		.type	StripLights_ColorInc, %function
 588              	StripLights_ColorInc:
 589              	.LFB40:
 552:Generated_Source\PSoC4/StripLights.c ****     uint32 color;
 590              		.loc 1 552 0
 591              		.cfi_startproc
 592              		@ args = 0, pretend = 0, frame = 0
 593              		@ frame_needed = 0, uses_anonymous_args = 0
 594              	.LVL32:
 595 0000 10B5     		push	{r4, lr}
 596              		.cfi_def_cfa_offset 8
 597              		.cfi_offset 4, -8
 598              		.cfi_offset 14, -4
 557:Generated_Source\PSoC4/StripLights.c ****     colorIndex = colorIndex % StripLights_COLOR_WHEEL_SIZE;
 599              		.loc 1 557 0
 600 0002 064C     		ldr	r4, .L43
 601 0004 A369     		ldr	r3, [r4, #24]
 602 0006 9C46     		mov	ip, r3
 603 0008 6044     		add	r0, r0, ip
 604              	.LVL33:
 558:Generated_Source\PSoC4/StripLights.c **** 
 605              		.loc 1 558 0
 606 000a 1821     		movs	r1, #24
 607 000c FFF7FEFF 		bl	__aeabi_uidivmod
 608              	.LVL34:
 609 0010 A161     		str	r1, [r4, #24]
 561:Generated_Source\PSoC4/StripLights.c ****     #else
 610              		.loc 1 561 0
 611 0012 8900     		lsls	r1, r1, #2
 612 0014 024B     		ldr	r3, .L43+4
 613 0016 C858     		ldr	r0, [r1, r3]
 614              	.LVL35:
ARM GAS  C:\Users\JAMESS~1\AppData\Local\Temp\ccd7YNc7.s 			page 25


 566:Generated_Source\PSoC4/StripLights.c **** /*****************************************************************************
 615              		.loc 1 566 0
 616              		@ sp needed
 617 0018 10BD     		pop	{r4, pc}
 618              	.L44:
 619 001a C046     		.align	2
 620              	.L43:
 621 001c 00000000 		.word	.LANCHOR0
 622 0020 00010000 		.word	.LANCHOR2
 623              		.cfi_endproc
 624              	.LFE40:
 625              		.size	StripLights_ColorInc, .-StripLights_ColorInc
 626              		.section	.text.StripLights_MemClear,"ax",%progbits
 627              		.align	2
 628              		.global	StripLights_MemClear
 629              		.code	16
 630              		.thumb_func
 631              		.type	StripLights_MemClear, %function
 632              	StripLights_MemClear:
 633              	.LFB44:
 697:Generated_Source\PSoC4/StripLights.c **** 
 698:Generated_Source\PSoC4/StripLights.c **** 
 699:Generated_Source\PSoC4/StripLights.c **** /*******************************************************************************
 700:Generated_Source\PSoC4/StripLights.c **** * Function Name: StripLights_DisplayClear
 701:Generated_Source\PSoC4/StripLights.c **** ********************************************************************************
 702:Generated_Source\PSoC4/StripLights.c **** * Summary:
 703:Generated_Source\PSoC4/StripLights.c **** *   Clear memory with a given value and update the display.
 704:Generated_Source\PSoC4/StripLights.c **** *
 705:Generated_Source\PSoC4/StripLights.c **** * Parameters:  
 706:Generated_Source\PSoC4/StripLights.c **** *  uint32 color: Color to clear display. 
 707:Generated_Source\PSoC4/StripLights.c **** *
 708:Generated_Source\PSoC4/StripLights.c **** * Return: 
 709:Generated_Source\PSoC4/StripLights.c **** *  void
 710:Generated_Source\PSoC4/StripLights.c **** *
 711:Generated_Source\PSoC4/StripLights.c **** *******************************************************************************/
 712:Generated_Source\PSoC4/StripLights.c **** void StripLights_DisplayClear(uint32 color)
 713:Generated_Source\PSoC4/StripLights.c **** {   
 714:Generated_Source\PSoC4/StripLights.c ****     StripLights_MemClear(color);
 715:Generated_Source\PSoC4/StripLights.c ****     StripLights_Trigger(1);
 716:Generated_Source\PSoC4/StripLights.c **** }
 717:Generated_Source\PSoC4/StripLights.c **** 
 718:Generated_Source\PSoC4/StripLights.c **** /*******************************************************************************
 719:Generated_Source\PSoC4/StripLights.c **** * Function Name: StripLights_MemClear
 720:Generated_Source\PSoC4/StripLights.c **** ********************************************************************************
 721:Generated_Source\PSoC4/StripLights.c **** * Summary:
 722:Generated_Source\PSoC4/StripLights.c **** *   Clear LED memory with given color, but do not update display.
 723:Generated_Source\PSoC4/StripLights.c **** *
 724:Generated_Source\PSoC4/StripLights.c **** * Parameters:  
 725:Generated_Source\PSoC4/StripLights.c **** *  uint32 color: Color to clear display.  
 726:Generated_Source\PSoC4/StripLights.c **** *
 727:Generated_Source\PSoC4/StripLights.c **** * Return: 
 728:Generated_Source\PSoC4/StripLights.c **** *  void
 729:Generated_Source\PSoC4/StripLights.c **** *
 730:Generated_Source\PSoC4/StripLights.c **** *******************************************************************************/
 731:Generated_Source\PSoC4/StripLights.c **** void StripLights_MemClear(uint32 color)
 732:Generated_Source\PSoC4/StripLights.c **** {
 634              		.loc 1 732 0
ARM GAS  C:\Users\JAMESS~1\AppData\Local\Temp\ccd7YNc7.s 			page 26


 635              		.cfi_startproc
 636              		@ args = 0, pretend = 0, frame = 0
 637              		@ frame_needed = 0, uses_anonymous_args = 0
 638              	.LVL36:
 639 0000 10B5     		push	{r4, lr}
 640              		.cfi_def_cfa_offset 8
 641              		.cfi_offset 4, -8
 642              		.cfi_offset 14, -4
 643              	.LVL37:
 733:Generated_Source\PSoC4/StripLights.c ****     uint32  row, col;
 734:Generated_Source\PSoC4/StripLights.c ****     
 735:Generated_Source\PSoC4/StripLights.c ****     for(row=0; row < StripLights_ARRAY_ROWS; row++)
 644              		.loc 1 735 0
 645 0002 0024     		movs	r4, #0
 646 0004 0DE0     		b	.L46
 647              	.LVL38:
 648              	.L47:
 736:Generated_Source\PSoC4/StripLights.c ****     {
 737:Generated_Source\PSoC4/StripLights.c ****         for(col=0; col < StripLights_ARRAY_COLS; col++)
 738:Generated_Source\PSoC4/StripLights.c ****         {
 739:Generated_Source\PSoC4/StripLights.c ****             #if(StripLights_MEMORY_TYPE == StripLights_MEMORY_RGB)
 740:Generated_Source\PSoC4/StripLights.c ****                 StripLights_ledArray[row][col] = color;
 649              		.loc 1 740 0 discriminator 3
 650 0006 A300     		lsls	r3, r4, #2
 651 0008 1B19     		adds	r3, r3, r4
 652 000a 1A01     		lsls	r2, r3, #4
 653 000c D31A     		subs	r3, r2, r3
 654 000e 5B18     		adds	r3, r3, r1
 655 0010 9B00     		lsls	r3, r3, #2
 656 0012 054A     		ldr	r2, .L50
 657 0014 9850     		str	r0, [r3, r2]
 737:Generated_Source\PSoC4/StripLights.c ****         {
 658              		.loc 1 737 0 discriminator 3
 659 0016 0131     		adds	r1, r1, #1
 660              	.LVL39:
 661 0018 00E0     		b	.L48
 662              	.LVL40:
 663              	.L49:
 664 001a 0021     		movs	r1, #0
 665              	.L48:
 666              	.LVL41:
 737:Generated_Source\PSoC4/StripLights.c ****         {
 667              		.loc 1 737 0 is_stmt 0 discriminator 1
 668 001c 4A29     		cmp	r1, #74
 669 001e F2D9     		bls	.L47
 735:Generated_Source\PSoC4/StripLights.c ****     {
 670              		.loc 1 735 0 is_stmt 1 discriminator 2
 671 0020 0134     		adds	r4, r4, #1
 672              	.LVL42:
 673              	.L46:
 735:Generated_Source\PSoC4/StripLights.c ****     {
 674              		.loc 1 735 0 is_stmt 0 discriminator 1
 675 0022 002C     		cmp	r4, #0
 676 0024 F9D0     		beq	.L49
 741:Generated_Source\PSoC4/StripLights.c ****             #else  /* Else use lookup table */
 742:Generated_Source\PSoC4/StripLights.c ****                  StripLights_ledArray[row][col] = (uint8)color;
 743:Generated_Source\PSoC4/StripLights.c ****             #endif
ARM GAS  C:\Users\JAMESS~1\AppData\Local\Temp\ccd7YNc7.s 			page 27


 744:Generated_Source\PSoC4/StripLights.c ****         }
 745:Generated_Source\PSoC4/StripLights.c ****     }
 746:Generated_Source\PSoC4/StripLights.c **** }
 677              		.loc 1 746 0 is_stmt 1
 678              		@ sp needed
 679              	.LVL43:
 680 0026 10BD     		pop	{r4, pc}
 681              	.L51:
 682              		.align	2
 683              	.L50:
 684 0028 00000000 		.word	StripLights_ledArray
 685              		.cfi_endproc
 686              	.LFE44:
 687              		.size	StripLights_MemClear, .-StripLights_MemClear
 688              		.section	.text.StripLights_DisplayClear,"ax",%progbits
 689              		.align	2
 690              		.global	StripLights_DisplayClear
 691              		.code	16
 692              		.thumb_func
 693              		.type	StripLights_DisplayClear, %function
 694              	StripLights_DisplayClear:
 695              	.LFB43:
 713:Generated_Source\PSoC4/StripLights.c ****     StripLights_MemClear(color);
 696              		.loc 1 713 0
 697              		.cfi_startproc
 698              		@ args = 0, pretend = 0, frame = 0
 699              		@ frame_needed = 0, uses_anonymous_args = 0
 700              	.LVL44:
 701 0000 10B5     		push	{r4, lr}
 702              		.cfi_def_cfa_offset 8
 703              		.cfi_offset 4, -8
 704              		.cfi_offset 14, -4
 714:Generated_Source\PSoC4/StripLights.c ****     StripLights_Trigger(1);
 705              		.loc 1 714 0
 706 0002 FFF7FEFF 		bl	StripLights_MemClear
 707              	.LVL45:
 715:Generated_Source\PSoC4/StripLights.c **** }
 708              		.loc 1 715 0
 709 0006 0120     		movs	r0, #1
 710 0008 FFF7FEFF 		bl	StripLights_Trigger
 711              	.LVL46:
 716:Generated_Source\PSoC4/StripLights.c **** 
 712              		.loc 1 716 0
 713              		@ sp needed
 714 000c 10BD     		pop	{r4, pc}
 715              		.cfi_endproc
 716              	.LFE43:
 717              		.size	StripLights_DisplayClear, .-StripLights_DisplayClear
 718 000e C046     		.section	.text.StripLights_WriteColor,"ax",%progbits
 719              		.align	2
 720              		.global	StripLights_WriteColor
 721              		.code	16
 722              		.thumb_func
 723              		.type	StripLights_WriteColor, %function
 724              	StripLights_WriteColor:
 725              	.LFB45:
 747:Generated_Source\PSoC4/StripLights.c **** 
ARM GAS  C:\Users\JAMESS~1\AppData\Local\Temp\ccd7YNc7.s 			page 28


 748:Generated_Source\PSoC4/StripLights.c **** 
 749:Generated_Source\PSoC4/StripLights.c **** 
 750:Generated_Source\PSoC4/StripLights.c **** /*******************************************************************************
 751:Generated_Source\PSoC4/StripLights.c **** * Function Name: StripLights_WriteColor
 752:Generated_Source\PSoC4/StripLights.c **** ********************************************************************************
 753:Generated_Source\PSoC4/StripLights.c **** * Summary:
 754:Generated_Source\PSoC4/StripLights.c **** *   Write given color directly to output register.
 755:Generated_Source\PSoC4/StripLights.c **** *
 756:Generated_Source\PSoC4/StripLights.c **** * Parameters:  
 757:Generated_Source\PSoC4/StripLights.c **** *  uint32 color: Color to write to display. 
 758:Generated_Source\PSoC4/StripLights.c **** *
 759:Generated_Source\PSoC4/StripLights.c **** * Return: 
 760:Generated_Source\PSoC4/StripLights.c **** *  void
 761:Generated_Source\PSoC4/StripLights.c **** *
 762:Generated_Source\PSoC4/StripLights.c **** *******************************************************************************/
 763:Generated_Source\PSoC4/StripLights.c **** void StripLights_WriteColor(uint32 color)
 764:Generated_Source\PSoC4/StripLights.c **** {
 726              		.loc 1 764 0
 727              		.cfi_startproc
 728              		@ args = 0, pretend = 0, frame = 0
 729              		@ frame_needed = 0, uses_anonymous_args = 0
 730              		@ link register save eliminated.
 731              	.LVL47:
 732              	.L54:
 765:Generated_Source\PSoC4/StripLights.c ****     while( (StripLights_STATUS & StripLights_FIFO_EMPTY) == 0); 
 733              		.loc 1 765 0 discriminator 1
 734 0000 064B     		ldr	r3, .L55
 735 0002 1B78     		ldrb	r3, [r3]
 736 0004 DB07     		lsls	r3, r3, #31
 737 0006 FBD5     		bpl	.L54
 766:Generated_Source\PSoC4/StripLights.c **** 
 767:Generated_Source\PSoC4/StripLights.c ****     StripLights_DATA = (uint8)(color & 0x000000FF);  // Write Green
 738              		.loc 1 767 0
 739 0008 C2B2     		uxtb	r2, r0
 740 000a 054B     		ldr	r3, .L55+4
 741 000c 1A70     		strb	r2, [r3]
 768:Generated_Source\PSoC4/StripLights.c ****     color = color >> 8;
 742              		.loc 1 768 0
 743 000e 020A     		lsrs	r2, r0, #8
 744              	.LVL48:
 769:Generated_Source\PSoC4/StripLights.c ****     StripLights_DATA = (uint8)(color & 0x000000FF);  // Write Red
 745              		.loc 1 769 0
 746 0010 D2B2     		uxtb	r2, r2
 747              	.LVL49:
 748 0012 1A70     		strb	r2, [r3]
 770:Generated_Source\PSoC4/StripLights.c ****     color = color >> 8;
 749              		.loc 1 770 0
 750 0014 000C     		lsrs	r0, r0, #16
 751              	.LVL50:
 771:Generated_Source\PSoC4/StripLights.c ****     StripLights_DATA = (uint8)(color & 0x000000FF);  // Write Blue
 752              		.loc 1 771 0
 753 0016 C0B2     		uxtb	r0, r0
 754              	.LVL51:
 755 0018 1870     		strb	r0, [r3]
 772:Generated_Source\PSoC4/StripLights.c ****     
 773:Generated_Source\PSoC4/StripLights.c ****     #if(StripLights_CHIP == StripLights_CHIP_SF2812RGBW)
 774:Generated_Source\PSoC4/StripLights.c ****         color = color >> 8;
ARM GAS  C:\Users\JAMESS~1\AppData\Local\Temp\ccd7YNc7.s 			page 29


 775:Generated_Source\PSoC4/StripLights.c ****         StripLights_DATA = (uint8)(color & 0x000000FF);  // Write White 
 776:Generated_Source\PSoC4/StripLights.c ****     #endif 
 777:Generated_Source\PSoC4/StripLights.c **** }
 756              		.loc 1 777 0
 757              		@ sp needed
 758 001a 7047     		bx	lr
 759              	.L56:
 760              		.align	2
 761              	.L55:
 762 001c 62000F40 		.word	1074724962
 763 0020 42000F40 		.word	1074724930
 764              		.cfi_endproc
 765              	.LFE45:
 766              		.size	StripLights_WriteColor, .-StripLights_WriteColor
 767              		.section	.text.StripLights_Pixel,"ax",%progbits
 768              		.align	2
 769              		.global	StripLights_Pixel
 770              		.code	16
 771              		.thumb_func
 772              		.type	StripLights_Pixel, %function
 773              	StripLights_Pixel:
 774              	.LFB46:
 778:Generated_Source\PSoC4/StripLights.c **** 
 779:Generated_Source\PSoC4/StripLights.c **** 
 780:Generated_Source\PSoC4/StripLights.c **** /*******************************************************************************
 781:Generated_Source\PSoC4/StripLights.c **** * Function Name: StripLights_Pixel
 782:Generated_Source\PSoC4/StripLights.c **** ********************************************************************************
 783:Generated_Source\PSoC4/StripLights.c **** *
 784:Generated_Source\PSoC4/StripLights.c **** * Summary:
 785:Generated_Source\PSoC4/StripLights.c **** *  Draw Pixel  
 786:Generated_Source\PSoC4/StripLights.c **** *
 787:Generated_Source\PSoC4/StripLights.c **** * Parameters:  
 788:Generated_Source\PSoC4/StripLights.c **** *  x,y:    Location to draw the pixel
 789:Generated_Source\PSoC4/StripLights.c **** *  color:  Color of the pixel
 790:Generated_Source\PSoC4/StripLights.c **** *
 791:Generated_Source\PSoC4/StripLights.c **** * Return: 
 792:Generated_Source\PSoC4/StripLights.c **** *  None 
 793:Generated_Source\PSoC4/StripLights.c **** *******************************************************************************/
 794:Generated_Source\PSoC4/StripLights.c **** void StripLights_Pixel(int32 x, int32 y, uint32 color)
 795:Generated_Source\PSoC4/StripLights.c **** {
 775              		.loc 1 795 0
 776              		.cfi_startproc
 777              		@ args = 0, pretend = 0, frame = 0
 778              		@ frame_needed = 0, uses_anonymous_args = 0
 779              		@ link register save eliminated.
 780              	.LVL52:
 796:Generated_Source\PSoC4/StripLights.c **** 
 797:Generated_Source\PSoC4/StripLights.c ****     // Swap X-Y Coordinates
 798:Generated_Source\PSoC4/StripLights.c ****     #if(StripLights_SWAP_XY_COORD == StripLights_XY_SWAPED)
 799:Generated_Source\PSoC4/StripLights.c ****         uint32 xyTmp;
 800:Generated_Source\PSoC4/StripLights.c ****         xyTmp = x;
 801:Generated_Source\PSoC4/StripLights.c ****         x = y;
 802:Generated_Source\PSoC4/StripLights.c ****         y = xyTmp;
 803:Generated_Source\PSoC4/StripLights.c ****     #endif
 804:Generated_Source\PSoC4/StripLights.c ****     
 805:Generated_Source\PSoC4/StripLights.c ****     // X-Wrap
 806:Generated_Source\PSoC4/StripLights.c ****     #if (StripLights_COORD_WRAP & StripLights_COORD_XAXIS )
ARM GAS  C:\Users\JAMESS~1\AppData\Local\Temp\ccd7YNc7.s 			page 30


 807:Generated_Source\PSoC4/StripLights.c ****         x = x % (StripLights_MAX_X+1);
 808:Generated_Source\PSoC4/StripLights.c ****     #endif
 809:Generated_Source\PSoC4/StripLights.c ****     
 810:Generated_Source\PSoC4/StripLights.c ****     // Y-Wrap
 811:Generated_Source\PSoC4/StripLights.c ****     #if (StripLights_COORD_WRAP & StripLights_COORD_YAXIS )
 812:Generated_Source\PSoC4/StripLights.c ****         y = y % (StripLights_MAX_Y+1);
 813:Generated_Source\PSoC4/StripLights.c ****     #endif
 814:Generated_Source\PSoC4/StripLights.c ****     
 815:Generated_Source\PSoC4/StripLights.c ****     // Flip X-Axis
 816:Generated_Source\PSoC4/StripLights.c ****     #if (StripLights_FLIP_X_COORD == StripLights_FLIP_COORD )
 817:Generated_Source\PSoC4/StripLights.c ****         x = StripLights_MAX_X - x;
 818:Generated_Source\PSoC4/StripLights.c ****     #endif
 819:Generated_Source\PSoC4/StripLights.c ****     
 820:Generated_Source\PSoC4/StripLights.c ****     // Flip Y-Axis
 821:Generated_Source\PSoC4/StripLights.c ****     #if (StripLights_FLIP_Y_COORD == StripLights_FLIP_COORD )
 822:Generated_Source\PSoC4/StripLights.c ****         y = StripLights_MAX_Y - y;
 823:Generated_Source\PSoC4/StripLights.c ****     #endif
 824:Generated_Source\PSoC4/StripLights.c ****     
 825:Generated_Source\PSoC4/StripLights.c ****     // Make sure X-Y values are in range
 826:Generated_Source\PSoC4/StripLights.c ****    	if((x >= StripLights_MIN_X) && (y >= StripLights_MIN_Y) && (x <= StripLights_MAX_X) && (y <= St
 781              		.loc 1 826 0
 782 0000 0028     		cmp	r0, #0
 783 0002 0BDB     		blt	.L57
 784              		.loc 1 826 0 is_stmt 0 discriminator 1
 785 0004 0029     		cmp	r1, #0
 786 0006 09DB     		blt	.L57
 787              		.loc 1 826 0 discriminator 2
 788 0008 0E28     		cmp	r0, #14
 789 000a 07DC     		bgt	.L57
 790              		.loc 1 826 0 discriminator 3
 791 000c 0329     		cmp	r1, #3
 792 000e 05DC     		bgt	.L57
 827:Generated_Source\PSoC4/StripLights.c ****     {
 828:Generated_Source\PSoC4/StripLights.c ****         
 829:Generated_Source\PSoC4/StripLights.c ****         #if (StripLights_LED_LAYOUT == StripLights_LED_LAYOUT_STANDARD)
 830:Generated_Source\PSoC4/StripLights.c ****              // Do nothing special   
 831:Generated_Source\PSoC4/StripLights.c ****         #elif (StripLights_LED_LAYOUT == StripLights_LED_LAYOUT_SPIRAL)
 832:Generated_Source\PSoC4/StripLights.c ****             x = x + (y * StripLights_COLUMNS);
 793              		.loc 1 832 0 is_stmt 1
 794 0010 0B01     		lsls	r3, r1, #4
 795 0012 591A     		subs	r1, r3, r1
 796              	.LVL53:
 797 0014 4018     		adds	r0, r0, r1
 798              	.LVL54:
 833:Generated_Source\PSoC4/StripLights.c ****             y = 0;
 834:Generated_Source\PSoC4/StripLights.c ****             
 835:Generated_Source\PSoC4/StripLights.c ****         #elif (StripLights_LED_LAYOUT == StripLights_LED_LAYOUT_GRID16X16)
 836:Generated_Source\PSoC4/StripLights.c ****             	x = (((x/(int32)16)*(int32)256) + (uint32)StripLights_cTrans[y % 16][x % 16]);
 837:Generated_Source\PSoC4/StripLights.c **** 		        y = (y/(int32)16);    
 838:Generated_Source\PSoC4/StripLights.c ****         #endif
 839:Generated_Source\PSoC4/StripLights.c ****          
 840:Generated_Source\PSoC4/StripLights.c ****         #if(StripLights_MEMORY_TYPE == StripLights_MEMORY_RGB)
 841:Generated_Source\PSoC4/StripLights.c ****             StripLights_ledArray[y][x] = color;
 799              		.loc 1 841 0
 800 0016 8000     		lsls	r0, r0, #2
 801              	.LVL55:
 802 0018 014B     		ldr	r3, .L59
ARM GAS  C:\Users\JAMESS~1\AppData\Local\Temp\ccd7YNc7.s 			page 31


 803 001a C250     		str	r2, [r0, r3]
 804              	.LVL56:
 805              	.L57:
 842:Generated_Source\PSoC4/StripLights.c ****         #else  /* Else use lookup table */
 843:Generated_Source\PSoC4/StripLights.c ****             StripLights_ledArray[y][x] = (uint8)color;
 844:Generated_Source\PSoC4/StripLights.c ****         #endif    
 845:Generated_Source\PSoC4/StripLights.c ****             
 846:Generated_Source\PSoC4/StripLights.c **** 
 847:Generated_Source\PSoC4/StripLights.c ****     }
 848:Generated_Source\PSoC4/StripLights.c **** }
 806              		.loc 1 848 0
 807              		@ sp needed
 808 001c 7047     		bx	lr
 809              	.L60:
 810 001e C046     		.align	2
 811              	.L59:
 812 0020 00000000 		.word	StripLights_ledArray
 813              		.cfi_endproc
 814              	.LFE46:
 815              		.size	StripLights_Pixel, .-StripLights_Pixel
 816              		.section	.text.StripLights_GetPixel,"ax",%progbits
 817              		.align	2
 818              		.global	StripLights_GetPixel
 819              		.code	16
 820              		.thumb_func
 821              		.type	StripLights_GetPixel, %function
 822              	StripLights_GetPixel:
 823              	.LFB47:
 849:Generated_Source\PSoC4/StripLights.c **** 
 850:Generated_Source\PSoC4/StripLights.c **** 
 851:Generated_Source\PSoC4/StripLights.c **** 
 852:Generated_Source\PSoC4/StripLights.c **** /*******************************************************************************
 853:Generated_Source\PSoC4/StripLights.c **** * Function Name: StripLights_GetPixel
 854:Generated_Source\PSoC4/StripLights.c **** ********************************************************************************
 855:Generated_Source\PSoC4/StripLights.c **** *
 856:Generated_Source\PSoC4/StripLights.c **** * Summary:
 857:Generated_Source\PSoC4/StripLights.c **** *  Get Pixel Color  
 858:Generated_Source\PSoC4/StripLights.c **** *
 859:Generated_Source\PSoC4/StripLights.c **** * Parameters:  
 860:Generated_Source\PSoC4/StripLights.c **** *  x,y:    Location to get pixel color
 861:Generated_Source\PSoC4/StripLights.c **** *
 862:Generated_Source\PSoC4/StripLights.c **** * Return: 
 863:Generated_Source\PSoC4/StripLights.c **** *  None 
 864:Generated_Source\PSoC4/StripLights.c **** *******************************************************************************/
 865:Generated_Source\PSoC4/StripLights.c **** uint32 StripLights_GetPixel(int32 x, int32 y)
 866:Generated_Source\PSoC4/StripLights.c **** {
 824              		.loc 1 866 0
 825              		.cfi_startproc
 826              		@ args = 0, pretend = 0, frame = 0
 827              		@ frame_needed = 0, uses_anonymous_args = 0
 828              		@ link register save eliminated.
 829              	.LVL57:
 867:Generated_Source\PSoC4/StripLights.c ****     uint32 color = 0;
 868:Generated_Source\PSoC4/StripLights.c ****     #if (StripLights_COORD_WRAP & StripLights_COORD_XAXIS )
 869:Generated_Source\PSoC4/StripLights.c ****         x = x % (StripLights_MAX_X+1);
 870:Generated_Source\PSoC4/StripLights.c ****     #endif
 871:Generated_Source\PSoC4/StripLights.c ****     #if (StripLights_COORD_WRAP & StripLights_COORD_YAXIS )
ARM GAS  C:\Users\JAMESS~1\AppData\Local\Temp\ccd7YNc7.s 			page 32


 872:Generated_Source\PSoC4/StripLights.c ****         y = y % (StripLights_MAX_Y+1);
 873:Generated_Source\PSoC4/StripLights.c ****     #endif
 874:Generated_Source\PSoC4/StripLights.c ****     
 875:Generated_Source\PSoC4/StripLights.c ****     if((x>=0) && (y>=0) && (x < StripLights_ARRAY_COLS) && (y < StripLights_ARRAY_ROWS))
 830              		.loc 1 875 0
 831 0000 0028     		cmp	r0, #0
 832 0002 0CDB     		blt	.L63
 833              		.loc 1 875 0 is_stmt 0 discriminator 1
 834 0004 0029     		cmp	r1, #0
 835 0006 0CDB     		blt	.L64
 836              		.loc 1 875 0 discriminator 2
 837 0008 4A28     		cmp	r0, #74
 838 000a 0CDC     		bgt	.L65
 839              		.loc 1 875 0 discriminator 3
 840 000c 0029     		cmp	r1, #0
 841 000e 0CDC     		bgt	.L66
 876:Generated_Source\PSoC4/StripLights.c ****     {
 877:Generated_Source\PSoC4/StripLights.c ****                 
 878:Generated_Source\PSoC4/StripLights.c ****         #if (StripLights_LED_LAYOUT == StripLights_LED_LAYOUT_STANDARD)
 879:Generated_Source\PSoC4/StripLights.c ****             
 880:Generated_Source\PSoC4/StripLights.c ****         #elif (StripLights_LED_LAYOUT == StripLights_LED_LAYOUT_SPIRAL)
 881:Generated_Source\PSoC4/StripLights.c ****             x = x + (y * StripLights_COLUMNS);
 842              		.loc 1 881 0 is_stmt 1
 843 0010 0B01     		lsls	r3, r1, #4
 844 0012 591A     		subs	r1, r3, r1
 845              	.LVL58:
 846 0014 4018     		adds	r0, r0, r1
 847              	.LVL59:
 882:Generated_Source\PSoC4/StripLights.c ****             y = 0;
 883:Generated_Source\PSoC4/StripLights.c ****             
 884:Generated_Source\PSoC4/StripLights.c ****         #elif (StripLights_LED_LAYOUT == StripLights_LED_LAYOUT_GRID16X16)
 885:Generated_Source\PSoC4/StripLights.c ****             	x = (((x/(int32)16)*(int32)256) + (uint32)StripLights_cTrans[y % 16][x % 16]);
 886:Generated_Source\PSoC4/StripLights.c **** 		        y = (y/(int32)16);    
 887:Generated_Source\PSoC4/StripLights.c ****         #endif
 888:Generated_Source\PSoC4/StripLights.c ****     
 889:Generated_Source\PSoC4/StripLights.c ****         #if(StripLights_MEMORY_TYPE == StripLights_MEMORY_RGB)
 890:Generated_Source\PSoC4/StripLights.c ****             color = StripLights_ledArray[y][x];
 848              		.loc 1 890 0
 849 0016 8000     		lsls	r0, r0, #2
 850              	.LVL60:
 851 0018 054B     		ldr	r3, .L67
 852 001a C058     		ldr	r0, [r0, r3]
 853              	.LVL61:
 854 001c 06E0     		b	.L62
 855              	.LVL62:
 856              	.L63:
 867:Generated_Source\PSoC4/StripLights.c ****     #if (StripLights_COORD_WRAP & StripLights_COORD_XAXIS )
 857              		.loc 1 867 0
 858 001e 0020     		movs	r0, #0
 859              	.LVL63:
 860 0020 04E0     		b	.L62
 861              	.LVL64:
 862              	.L64:
 863 0022 0020     		movs	r0, #0
 864              	.LVL65:
 865 0024 02E0     		b	.L62
 866              	.LVL66:
ARM GAS  C:\Users\JAMESS~1\AppData\Local\Temp\ccd7YNc7.s 			page 33


 867              	.L65:
 868 0026 0020     		movs	r0, #0
 869              	.LVL67:
 870 0028 00E0     		b	.L62
 871              	.LVL68:
 872              	.L66:
 873 002a 0020     		movs	r0, #0
 874              	.LVL69:
 875              	.L62:
 891:Generated_Source\PSoC4/StripLights.c ****         #else  /* Else use lookup table */
 892:Generated_Source\PSoC4/StripLights.c ****             color = (uint32)StripLights_ledArray[y][x];
 893:Generated_Source\PSoC4/StripLights.c ****         #endif
 894:Generated_Source\PSoC4/StripLights.c **** 
 895:Generated_Source\PSoC4/StripLights.c ****     }
 896:Generated_Source\PSoC4/StripLights.c ****     return(color);
 897:Generated_Source\PSoC4/StripLights.c **** }
 876              		.loc 1 897 0
 877              		@ sp needed
 878 002c 7047     		bx	lr
 879              	.L68:
 880 002e C046     		.align	2
 881              	.L67:
 882 0030 00000000 		.word	StripLights_ledArray
 883              		.cfi_endproc
 884              	.LFE47:
 885              		.size	StripLights_GetPixel, .-StripLights_GetPixel
 886              		.section	.text.StripLights_DrawCircle,"ax",%progbits
 887              		.align	2
 888              		.global	StripLights_DrawCircle
 889              		.code	16
 890              		.thumb_func
 891              		.type	StripLights_DrawCircle, %function
 892              	StripLights_DrawCircle:
 893              	.LFB48:
 898:Generated_Source\PSoC4/StripLights.c **** 
 899:Generated_Source\PSoC4/StripLights.c **** /*******************************************************************************
 900:Generated_Source\PSoC4/StripLights.c **** * Function Name: StripLights_DrawCircle
 901:Generated_Source\PSoC4/StripLights.c **** ********************************************************************************
 902:Generated_Source\PSoC4/StripLights.c **** *
 903:Generated_Source\PSoC4/StripLights.c **** * Summary:
 904:Generated_Source\PSoC4/StripLights.c **** *  Draw a circle on the display given a start point and radius.  
 905:Generated_Source\PSoC4/StripLights.c **** *
 906:Generated_Source\PSoC4/StripLights.c **** *  This code uses Bresenham's Circle Algorithm. 
 907:Generated_Source\PSoC4/StripLights.c **** *
 908:Generated_Source\PSoC4/StripLights.c **** * Parameters:  
 909:Generated_Source\PSoC4/StripLights.c **** *  x0, y0: Center of circle
 910:Generated_Source\PSoC4/StripLights.c **** *  radius: Radius of circle
 911:Generated_Source\PSoC4/StripLights.c **** *  color:  Color of circle
 912:Generated_Source\PSoC4/StripLights.c **** *
 913:Generated_Source\PSoC4/StripLights.c **** * Return: 
 914:Generated_Source\PSoC4/StripLights.c **** *  None 
 915:Generated_Source\PSoC4/StripLights.c **** *  
 916:Generated_Source\PSoC4/StripLights.c **** *******************************************************************************/
 917:Generated_Source\PSoC4/StripLights.c **** void StripLights_DrawCircle (int32 x0, int32 y0, int32 radius, uint32 color)
 918:Generated_Source\PSoC4/StripLights.c **** {
 894              		.loc 1 918 0
 895              		.cfi_startproc
ARM GAS  C:\Users\JAMESS~1\AppData\Local\Temp\ccd7YNc7.s 			page 34


 896              		@ args = 0, pretend = 0, frame = 16
 897              		@ frame_needed = 0, uses_anonymous_args = 0
 898              	.LVL70:
 899 0000 F0B5     		push	{r4, r5, r6, r7, lr}
 900              		.cfi_def_cfa_offset 20
 901              		.cfi_offset 4, -20
 902              		.cfi_offset 5, -16
 903              		.cfi_offset 6, -12
 904              		.cfi_offset 7, -8
 905              		.cfi_offset 14, -4
 906 0002 5F46     		mov	r7, fp
 907 0004 5646     		mov	r6, r10
 908 0006 4D46     		mov	r5, r9
 909 0008 4446     		mov	r4, r8
 910 000a F0B4     		push	{r4, r5, r6, r7}
 911              		.cfi_def_cfa_offset 36
 912              		.cfi_offset 8, -36
 913              		.cfi_offset 9, -32
 914              		.cfi_offset 10, -28
 915              		.cfi_offset 11, -24
 916 000c 85B0     		sub	sp, sp, #20
 917              		.cfi_def_cfa_offset 56
 918 000e 8346     		mov	fp, r0
 919 0010 8846     		mov	r8, r1
 920 0012 1400     		movs	r4, r2
 921 0014 1D00     		movs	r5, r3
 922 0016 0193     		str	r3, [sp, #4]
 919:Generated_Source\PSoC4/StripLights.c **** 	int32 f = 1 - radius;
 923              		.loc 1 919 0
 924 0018 0123     		movs	r3, #1
 925              	.LVL71:
 926 001a 9B1A     		subs	r3, r3, r2
 927 001c 9946     		mov	r9, r3
 928              	.LVL72:
 920:Generated_Source\PSoC4/StripLights.c **** 	int32 ddF_x = 0;
 921:Generated_Source\PSoC4/StripLights.c **** 	int32 ddF_y = -2 * radius;
 929              		.loc 1 921 0
 930 001e D307     		lsls	r3, r2, #31
 931              	.LVL73:
 932 0020 9B1A     		subs	r3, r3, r2
 933 0022 5A00     		lsls	r2, r3, #1
 934              	.LVL74:
 935 0024 9246     		mov	r10, r2
 936              	.LVL75:
 922:Generated_Source\PSoC4/StripLights.c **** 	int32 x = 0;
 923:Generated_Source\PSoC4/StripLights.c **** 	int32 y = radius;
 924:Generated_Source\PSoC4/StripLights.c **** 
 925:Generated_Source\PSoC4/StripLights.c **** 	StripLights_Pixel(x0, y0 + radius, color);
 937              		.loc 1 925 0
 938 0026 6118     		adds	r1, r4, r1
 939              	.LVL76:
 940 0028 2A00     		movs	r2, r5
 941              	.LVL77:
 942 002a FFF7FEFF 		bl	StripLights_Pixel
 943              	.LVL78:
 926:Generated_Source\PSoC4/StripLights.c **** 	StripLights_Pixel(x0, y0 - radius, color);
 944              		.loc 1 926 0
ARM GAS  C:\Users\JAMESS~1\AppData\Local\Temp\ccd7YNc7.s 			page 35


 945 002e 4346     		mov	r3, r8
 946 0030 191B     		subs	r1, r3, r4
 947 0032 2A00     		movs	r2, r5
 948 0034 5846     		mov	r0, fp
 949 0036 FFF7FEFF 		bl	StripLights_Pixel
 950              	.LVL79:
 927:Generated_Source\PSoC4/StripLights.c **** 	StripLights_Pixel( x0 + radius, y0, color);
 951              		.loc 1 927 0
 952 003a 5B46     		mov	r3, fp
 953 003c E018     		adds	r0, r4, r3
 954 003e 2A00     		movs	r2, r5
 955 0040 4146     		mov	r1, r8
 956 0042 FFF7FEFF 		bl	StripLights_Pixel
 957              	.LVL80:
 928:Generated_Source\PSoC4/StripLights.c **** 	StripLights_Pixel( x0 - radius, y0, color);
 958              		.loc 1 928 0
 959 0046 5B46     		mov	r3, fp
 960 0048 181B     		subs	r0, r3, r4
 961 004a 2A00     		movs	r2, r5
 962 004c 4146     		mov	r1, r8
 963 004e FFF7FEFF 		bl	StripLights_Pixel
 964              	.LVL81:
 922:Generated_Source\PSoC4/StripLights.c **** 	int32 y = radius;
 965              		.loc 1 922 0
 966 0052 0026     		movs	r6, #0
 920:Generated_Source\PSoC4/StripLights.c **** 	int32 ddF_y = -2 * radius;
 967              		.loc 1 920 0
 968 0054 0023     		movs	r3, #0
 929:Generated_Source\PSoC4/StripLights.c **** 
 930:Generated_Source\PSoC4/StripLights.c **** 	while(x < y)
 969              		.loc 1 930 0
 970 0056 48E0     		b	.L70
 971              	.LVL82:
 972              	.L72:
 931:Generated_Source\PSoC4/StripLights.c **** 	{
 932:Generated_Source\PSoC4/StripLights.c **** 		if(f >= 0)
 973              		.loc 1 932 0
 974 0058 4A46     		mov	r2, r9
 975 005a 002A     		cmp	r2, #0
 976 005c 04DB     		blt	.L71
 977              	.LVL83:
 933:Generated_Source\PSoC4/StripLights.c **** 		{
 934:Generated_Source\PSoC4/StripLights.c **** 			y--;
 978              		.loc 1 934 0
 979 005e 013C     		subs	r4, r4, #1
 980              	.LVL84:
 935:Generated_Source\PSoC4/StripLights.c **** 			ddF_y += 2;
 981              		.loc 1 935 0
 982 0060 0222     		movs	r2, #2
 983              	.LVL85:
 984 0062 9446     		mov	ip, r2
 985 0064 E244     		add	r10, r10, ip
 986              	.LVL86:
 936:Generated_Source\PSoC4/StripLights.c **** 			f += ddF_y;
 987              		.loc 1 936 0
 988 0066 D144     		add	r9, r9, r10
 989              	.LVL87:
ARM GAS  C:\Users\JAMESS~1\AppData\Local\Temp\ccd7YNc7.s 			page 36


 990              	.L71:
 937:Generated_Source\PSoC4/StripLights.c **** 		}
 938:Generated_Source\PSoC4/StripLights.c **** 		x++;
 991              		.loc 1 938 0
 992 0068 0136     		adds	r6, r6, #1
 993              	.LVL88:
 939:Generated_Source\PSoC4/StripLights.c **** 		ddF_x += 2;
 994              		.loc 1 939 0
 995 006a 9A1C     		adds	r2, r3, #2
 996 006c 0292     		str	r2, [sp, #8]
 997              	.LVL89:
 940:Generated_Source\PSoC4/StripLights.c **** 		f += ddF_x + 1;
 998              		.loc 1 940 0
 999 006e 0333     		adds	r3, r3, #3
 1000 0070 9944     		add	r9, r9, r3
 1001              	.LVL90:
 941:Generated_Source\PSoC4/StripLights.c **** 
 942:Generated_Source\PSoC4/StripLights.c **** 		StripLights_Pixel(x0 + x, y0 + y, color);
 1002              		.loc 1 942 0
 1003 0072 5946     		mov	r1, fp
 1004 0074 8F19     		adds	r7, r1, r6
 1005 0076 4146     		mov	r1, r8
 1006 0078 6318     		adds	r3, r4, r1
 1007 007a 019A     		ldr	r2, [sp, #4]
 1008              	.LVL91:
 1009 007c 0393     		str	r3, [sp, #12]
 1010 007e 1900     		movs	r1, r3
 1011 0080 3800     		movs	r0, r7
 1012 0082 FFF7FEFF 		bl	StripLights_Pixel
 1013              	.LVL92:
 943:Generated_Source\PSoC4/StripLights.c **** 		StripLights_Pixel(x0 - x, y0 + y, color);
 1014              		.loc 1 943 0
 1015 0086 5846     		mov	r0, fp
 1016 0088 851B     		subs	r5, r0, r6
 1017 008a 019A     		ldr	r2, [sp, #4]
 1018 008c 0399     		ldr	r1, [sp, #12]
 1019 008e 2800     		movs	r0, r5
 1020 0090 FFF7FEFF 		bl	StripLights_Pixel
 1021              	.LVL93:
 944:Generated_Source\PSoC4/StripLights.c **** 		StripLights_Pixel( x0 + x, y0 - y, color);
 1022              		.loc 1 944 0
 1023 0094 4146     		mov	r1, r8
 1024 0096 0B1B     		subs	r3, r1, r4
 1025 0098 019A     		ldr	r2, [sp, #4]
 1026 009a 0393     		str	r3, [sp, #12]
 1027 009c 1900     		movs	r1, r3
 1028 009e 3800     		movs	r0, r7
 1029 00a0 FFF7FEFF 		bl	StripLights_Pixel
 1030              	.LVL94:
 945:Generated_Source\PSoC4/StripLights.c **** 		StripLights_Pixel( x0 - x, y0 - y, color);
 1031              		.loc 1 945 0
 1032 00a4 019A     		ldr	r2, [sp, #4]
 1033 00a6 0399     		ldr	r1, [sp, #12]
 1034 00a8 2800     		movs	r0, r5
 1035 00aa FFF7FEFF 		bl	StripLights_Pixel
 1036              	.LVL95:
 946:Generated_Source\PSoC4/StripLights.c **** 		StripLights_Pixel( x0 + y, y0 + x, color);
ARM GAS  C:\Users\JAMESS~1\AppData\Local\Temp\ccd7YNc7.s 			page 37


 1037              		.loc 1 946 0
 1038 00ae 5946     		mov	r1, fp
 1039 00b0 6718     		adds	r7, r4, r1
 1040 00b2 4146     		mov	r1, r8
 1041 00b4 8D19     		adds	r5, r1, r6
 1042 00b6 019A     		ldr	r2, [sp, #4]
 1043 00b8 2900     		movs	r1, r5
 1044 00ba 3800     		movs	r0, r7
 1045 00bc FFF7FEFF 		bl	StripLights_Pixel
 1046              	.LVL96:
 947:Generated_Source\PSoC4/StripLights.c **** 		StripLights_Pixel( x0 - y, y0 + x, color);
 1047              		.loc 1 947 0
 1048 00c0 5946     		mov	r1, fp
 1049 00c2 0B1B     		subs	r3, r1, r4
 1050 00c4 019A     		ldr	r2, [sp, #4]
 1051 00c6 2900     		movs	r1, r5
 1052 00c8 0393     		str	r3, [sp, #12]
 1053 00ca 1800     		movs	r0, r3
 1054 00cc FFF7FEFF 		bl	StripLights_Pixel
 1055              	.LVL97:
 948:Generated_Source\PSoC4/StripLights.c **** 		StripLights_Pixel( x0 + y, y0 - x, color);
 1056              		.loc 1 948 0
 1057 00d0 4146     		mov	r1, r8
 1058 00d2 8D1B     		subs	r5, r1, r6
 1059 00d4 019A     		ldr	r2, [sp, #4]
 1060 00d6 2900     		movs	r1, r5
 1061 00d8 3800     		movs	r0, r7
 1062 00da FFF7FEFF 		bl	StripLights_Pixel
 1063              	.LVL98:
 949:Generated_Source\PSoC4/StripLights.c **** 		StripLights_Pixel( x0 - y, y0 - x, color);
 1064              		.loc 1 949 0
 1065 00de 019A     		ldr	r2, [sp, #4]
 1066 00e0 2900     		movs	r1, r5
 1067 00e2 0398     		ldr	r0, [sp, #12]
 1068 00e4 FFF7FEFF 		bl	StripLights_Pixel
 1069              	.LVL99:
 939:Generated_Source\PSoC4/StripLights.c **** 		f += ddF_x + 1;
 1070              		.loc 1 939 0
 1071 00e8 029B     		ldr	r3, [sp, #8]
 1072              	.LVL100:
 1073              	.L70:
 930:Generated_Source\PSoC4/StripLights.c **** 	{
 1074              		.loc 1 930 0
 1075 00ea A642     		cmp	r6, r4
 1076 00ec B4DB     		blt	.L72
 950:Generated_Source\PSoC4/StripLights.c **** 	}
 951:Generated_Source\PSoC4/StripLights.c **** }
 1077              		.loc 1 951 0
 1078 00ee 05B0     		add	sp, sp, #20
 1079              		@ sp needed
 1080              	.LVL101:
 1081              	.LVL102:
 1082              	.LVL103:
 1083              	.LVL104:
 1084              	.LVL105:
 1085              	.LVL106:
 1086 00f0 3CBC     		pop	{r2, r3, r4, r5}
ARM GAS  C:\Users\JAMESS~1\AppData\Local\Temp\ccd7YNc7.s 			page 38


 1087 00f2 9046     		mov	r8, r2
 1088 00f4 9946     		mov	r9, r3
 1089 00f6 A246     		mov	r10, r4
 1090 00f8 AB46     		mov	fp, r5
 1091 00fa F0BD     		pop	{r4, r5, r6, r7, pc}
 1092              		.cfi_endproc
 1093              	.LFE48:
 1094              		.size	StripLights_DrawCircle, .-StripLights_DrawCircle
 1095              		.section	.text.StripLights_DrawLine,"ax",%progbits
 1096              		.align	2
 1097              		.global	StripLights_DrawLine
 1098              		.code	16
 1099              		.thumb_func
 1100              		.type	StripLights_DrawLine, %function
 1101              	StripLights_DrawLine:
 1102              	.LFB49:
 952:Generated_Source\PSoC4/StripLights.c **** 
 953:Generated_Source\PSoC4/StripLights.c **** 
 954:Generated_Source\PSoC4/StripLights.c **** /*******************************************************************************
 955:Generated_Source\PSoC4/StripLights.c **** * Function Name: StripLights_DrawLine
 956:Generated_Source\PSoC4/StripLights.c **** ********************************************************************************
 957:Generated_Source\PSoC4/StripLights.c **** *
 958:Generated_Source\PSoC4/StripLights.c **** * Summary:
 959:Generated_Source\PSoC4/StripLights.c **** *  Draw a line on the display.  
 960:Generated_Source\PSoC4/StripLights.c **** *
 961:Generated_Source\PSoC4/StripLights.c **** * Parameters:  
 962:Generated_Source\PSoC4/StripLights.c **** *  x0, y0:  The beginning endpoint
 963:Generated_Source\PSoC4/StripLights.c **** *  x1, y1:  The end endpoint.
 964:Generated_Source\PSoC4/StripLights.c **** *  color:   Color of the line.
 965:Generated_Source\PSoC4/StripLights.c **** *
 966:Generated_Source\PSoC4/StripLights.c **** * Return: 
 967:Generated_Source\PSoC4/StripLights.c **** *  None 
 968:Generated_Source\PSoC4/StripLights.c **** *  
 969:Generated_Source\PSoC4/StripLights.c **** *******************************************************************************/
 970:Generated_Source\PSoC4/StripLights.c **** void StripLights_DrawLine(int32 x0, int32 y0, int32 x1, int32 y1, uint32 color)
 971:Generated_Source\PSoC4/StripLights.c **** {
 1103              		.loc 1 971 0
 1104              		.cfi_startproc
 1105              		@ args = 4, pretend = 0, frame = 8
 1106              		@ frame_needed = 0, uses_anonymous_args = 0
 1107              	.LVL107:
 1108 0000 F0B5     		push	{r4, r5, r6, r7, lr}
 1109              		.cfi_def_cfa_offset 20
 1110              		.cfi_offset 4, -20
 1111              		.cfi_offset 5, -16
 1112              		.cfi_offset 6, -12
 1113              		.cfi_offset 7, -8
 1114              		.cfi_offset 14, -4
 1115 0002 5F46     		mov	r7, fp
 1116 0004 5646     		mov	r6, r10
 1117 0006 4D46     		mov	r5, r9
 1118 0008 4446     		mov	r4, r8
 1119 000a F0B4     		push	{r4, r5, r6, r7}
 1120              		.cfi_def_cfa_offset 36
 1121              		.cfi_offset 8, -36
 1122              		.cfi_offset 9, -32
 1123              		.cfi_offset 10, -28
ARM GAS  C:\Users\JAMESS~1\AppData\Local\Temp\ccd7YNc7.s 			page 39


 1124              		.cfi_offset 11, -24
 1125 000c 83B0     		sub	sp, sp, #12
 1126              		.cfi_def_cfa_offset 48
 1127 000e 0400     		movs	r4, r0
 1128 0010 0D00     		movs	r5, r1
 1129 0012 0192     		str	r2, [sp, #4]
 1130 0014 9B46     		mov	fp, r3
 972:Generated_Source\PSoC4/StripLights.c **** 	int32 dy = y1 - y0; /* Difference between y0 and y1 */
 1131              		.loc 1 972 0
 1132 0016 5B1A     		subs	r3, r3, r1
 1133              	.LVL108:
 973:Generated_Source\PSoC4/StripLights.c **** 	int32 dx = x1 - x0; /* Difference between x0 and x1 */
 1134              		.loc 1 973 0
 1135 0018 171A     		subs	r7, r2, r0
 1136              	.LVL109:
 974:Generated_Source\PSoC4/StripLights.c **** 	int32 stepx, stepy;
 975:Generated_Source\PSoC4/StripLights.c **** 
 976:Generated_Source\PSoC4/StripLights.c **** 	if (dy < 0)
 1137              		.loc 1 976 0
 1138 001a 002B     		cmp	r3, #0
 1139 001c 04DA     		bge	.L84
 977:Generated_Source\PSoC4/StripLights.c **** 	{
 978:Generated_Source\PSoC4/StripLights.c **** 		dy = -dy;
 1140              		.loc 1 978 0
 1141 001e 5B42     		rsbs	r3, r3, #0
 1142              	.LVL110:
 979:Generated_Source\PSoC4/StripLights.c **** 		stepy = -1;
 1143              		.loc 1 979 0
 1144 0020 0122     		movs	r2, #1
 1145              	.LVL111:
 1146 0022 5242     		rsbs	r2, r2, #0
 1147 0024 9246     		mov	r10, r2
 1148 0026 01E0     		b	.L74
 1149              	.LVL112:
 1150              	.L84:
 980:Generated_Source\PSoC4/StripLights.c **** 	}
 981:Generated_Source\PSoC4/StripLights.c **** 	else
 982:Generated_Source\PSoC4/StripLights.c **** 	{
 983:Generated_Source\PSoC4/StripLights.c **** 		stepy = 1;
 1151              		.loc 1 983 0
 1152 0028 0122     		movs	r2, #1
 1153              	.LVL113:
 1154 002a 9246     		mov	r10, r2
 1155              	.L74:
 1156              	.LVL114:
 984:Generated_Source\PSoC4/StripLights.c **** 	}
 985:Generated_Source\PSoC4/StripLights.c **** 
 986:Generated_Source\PSoC4/StripLights.c **** 	if (dx < 0)
 1157              		.loc 1 986 0
 1158 002c 002F     		cmp	r7, #0
 1159 002e 04DA     		bge	.L85
 987:Generated_Source\PSoC4/StripLights.c **** 	{
 988:Generated_Source\PSoC4/StripLights.c **** 		dx = -dx;
 1160              		.loc 1 988 0
 1161 0030 7F42     		rsbs	r7, r7, #0
 1162              	.LVL115:
 989:Generated_Source\PSoC4/StripLights.c **** 		stepx = -1;
ARM GAS  C:\Users\JAMESS~1\AppData\Local\Temp\ccd7YNc7.s 			page 40


 1163              		.loc 1 989 0
 1164 0032 0122     		movs	r2, #1
 1165 0034 5242     		rsbs	r2, r2, #0
 1166 0036 9146     		mov	r9, r2
 1167 0038 01E0     		b	.L75
 1168              	.LVL116:
 1169              	.L85:
 990:Generated_Source\PSoC4/StripLights.c **** 	}
 991:Generated_Source\PSoC4/StripLights.c **** 	else
 992:Generated_Source\PSoC4/StripLights.c **** 	{
 993:Generated_Source\PSoC4/StripLights.c **** 		stepx = 1;
 1170              		.loc 1 993 0
 1171 003a 0122     		movs	r2, #1
 1172 003c 9146     		mov	r9, r2
 1173              	.L75:
 1174              	.LVL117:
 994:Generated_Source\PSoC4/StripLights.c **** 	}
 995:Generated_Source\PSoC4/StripLights.c **** 
 996:Generated_Source\PSoC4/StripLights.c **** 	dy <<= 1; /* dy is now 2*dy  */
 1175              		.loc 1 996 0
 1176 003e 5B00     		lsls	r3, r3, #1
 1177              	.LVL118:
 1178 0040 9846     		mov	r8, r3
 1179              	.LVL119:
 997:Generated_Source\PSoC4/StripLights.c **** 	dx <<= 1; /* dx is now 2*dx  */
 1180              		.loc 1 997 0
 1181 0042 7F00     		lsls	r7, r7, #1
 1182              	.LVL120:
 998:Generated_Source\PSoC4/StripLights.c **** 	StripLights_Pixel(x0, y0, color);
 1183              		.loc 1 998 0
 1184 0044 0C9A     		ldr	r2, [sp, #48]
 1185 0046 2900     		movs	r1, r5
 1186              	.LVL121:
 1187 0048 2000     		movs	r0, r4
 1188              	.LVL122:
 1189 004a FFF7FEFF 		bl	StripLights_Pixel
 1190              	.LVL123:
 999:Generated_Source\PSoC4/StripLights.c **** 
1000:Generated_Source\PSoC4/StripLights.c **** 	if (dx > dy) 
 1191              		.loc 1 1000 0
 1192 004e B845     		cmp	r8, r7
 1193 0050 12DA     		bge	.L76
 1194              	.LBB2:
1001:Generated_Source\PSoC4/StripLights.c **** 	{
1002:Generated_Source\PSoC4/StripLights.c **** 		int fraction = dy - (dx >> 1);
 1195              		.loc 1 1002 0
 1196 0052 7B10     		asrs	r3, r7, #1
 1197 0054 4246     		mov	r2, r8
 1198 0056 D61A     		subs	r6, r2, r3
 1199              	.LVL124:
1003:Generated_Source\PSoC4/StripLights.c **** 		while (x0 != x1)
 1200              		.loc 1 1003 0
 1201 0058 0AE0     		b	.L77
 1202              	.L79:
1004:Generated_Source\PSoC4/StripLights.c **** 		{
1005:Generated_Source\PSoC4/StripLights.c **** 			if (fraction >= 0)
 1203              		.loc 1 1005 0
ARM GAS  C:\Users\JAMESS~1\AppData\Local\Temp\ccd7YNc7.s 			page 41


 1204 005a 002E     		cmp	r6, #0
 1205 005c 01DB     		blt	.L78
1006:Generated_Source\PSoC4/StripLights.c **** 			{
1007:Generated_Source\PSoC4/StripLights.c **** 				y0 += stepy;
 1206              		.loc 1 1007 0
 1207 005e 5544     		add	r5, r5, r10
 1208              	.LVL125:
1008:Generated_Source\PSoC4/StripLights.c **** 				fraction -= dx;
 1209              		.loc 1 1008 0
 1210 0060 F61B     		subs	r6, r6, r7
 1211              	.LVL126:
 1212              	.L78:
1009:Generated_Source\PSoC4/StripLights.c **** 			}
1010:Generated_Source\PSoC4/StripLights.c **** 			x0 += stepx;
 1213              		.loc 1 1010 0
 1214 0062 4C44     		add	r4, r4, r9
 1215              	.LVL127:
1011:Generated_Source\PSoC4/StripLights.c **** 			fraction += dy;
 1216              		.loc 1 1011 0
 1217 0064 4644     		add	r6, r6, r8
 1218              	.LVL128:
1012:Generated_Source\PSoC4/StripLights.c **** 			StripLights_Pixel(x0, y0, color);
 1219              		.loc 1 1012 0
 1220 0066 0C9A     		ldr	r2, [sp, #48]
 1221 0068 2900     		movs	r1, r5
 1222 006a 2000     		movs	r0, r4
 1223 006c FFF7FEFF 		bl	StripLights_Pixel
 1224              	.LVL129:
 1225              	.L77:
1003:Generated_Source\PSoC4/StripLights.c **** 		{
 1226              		.loc 1 1003 0
 1227 0070 019B     		ldr	r3, [sp, #4]
 1228 0072 9C42     		cmp	r4, r3
 1229 0074 F1D1     		bne	.L79
 1230 0076 11E0     		b	.L73
 1231              	.LVL130:
 1232              	.L76:
 1233              	.LBE2:
 1234              	.LBB3:
1013:Generated_Source\PSoC4/StripLights.c **** 		}
1014:Generated_Source\PSoC4/StripLights.c **** 	}
1015:Generated_Source\PSoC4/StripLights.c **** 	else
1016:Generated_Source\PSoC4/StripLights.c **** 	{
1017:Generated_Source\PSoC4/StripLights.c **** 		int fraction = dx - (dy >> 1);
 1235              		.loc 1 1017 0
 1236 0078 4346     		mov	r3, r8
 1237 007a 5E10     		asrs	r6, r3, #1
 1238 007c BE1B     		subs	r6, r7, r6
 1239              	.LVL131:
1018:Generated_Source\PSoC4/StripLights.c **** 		while (y0 != y1)
 1240              		.loc 1 1018 0
 1241 007e 0BE0     		b	.L81
 1242              	.L83:
1019:Generated_Source\PSoC4/StripLights.c **** 		{
1020:Generated_Source\PSoC4/StripLights.c **** 			if (fraction >= 0)
 1243              		.loc 1 1020 0
 1244 0080 002E     		cmp	r6, #0
ARM GAS  C:\Users\JAMESS~1\AppData\Local\Temp\ccd7YNc7.s 			page 42


 1245 0082 02DB     		blt	.L82
1021:Generated_Source\PSoC4/StripLights.c **** 			{
1022:Generated_Source\PSoC4/StripLights.c **** 				x0 += stepx;
 1246              		.loc 1 1022 0
 1247 0084 4C44     		add	r4, r4, r9
 1248              	.LVL132:
1023:Generated_Source\PSoC4/StripLights.c **** 				fraction -= dy;
 1249              		.loc 1 1023 0
 1250 0086 4346     		mov	r3, r8
 1251 0088 F61A     		subs	r6, r6, r3
 1252              	.LVL133:
 1253              	.L82:
1024:Generated_Source\PSoC4/StripLights.c **** 			}
1025:Generated_Source\PSoC4/StripLights.c **** 			y0 += stepy;
 1254              		.loc 1 1025 0
 1255 008a 5544     		add	r5, r5, r10
 1256              	.LVL134:
1026:Generated_Source\PSoC4/StripLights.c **** 			fraction += dx;
 1257              		.loc 1 1026 0
 1258 008c F619     		adds	r6, r6, r7
 1259              	.LVL135:
1027:Generated_Source\PSoC4/StripLights.c **** 			StripLights_Pixel( x0, y0, color);
 1260              		.loc 1 1027 0
 1261 008e 0C9A     		ldr	r2, [sp, #48]
 1262 0090 2900     		movs	r1, r5
 1263 0092 2000     		movs	r0, r4
 1264 0094 FFF7FEFF 		bl	StripLights_Pixel
 1265              	.LVL136:
 1266              	.L81:
1018:Generated_Source\PSoC4/StripLights.c **** 		{
 1267              		.loc 1 1018 0
 1268 0098 5D45     		cmp	r5, fp
 1269 009a F1D1     		bne	.L83
 1270              	.LVL137:
 1271              	.L73:
 1272              	.LBE3:
1028:Generated_Source\PSoC4/StripLights.c **** 		}
1029:Generated_Source\PSoC4/StripLights.c **** 	}
1030:Generated_Source\PSoC4/StripLights.c **** }
 1273              		.loc 1 1030 0
 1274 009c 03B0     		add	sp, sp, #12
 1275              		@ sp needed
 1276              	.LVL138:
 1277              	.LVL139:
 1278              	.LVL140:
 1279              	.LVL141:
 1280              	.LVL142:
 1281              	.LVL143:
 1282              	.LVL144:
 1283 009e 3CBC     		pop	{r2, r3, r4, r5}
 1284 00a0 9046     		mov	r8, r2
 1285 00a2 9946     		mov	r9, r3
 1286 00a4 A246     		mov	r10, r4
 1287 00a6 AB46     		mov	fp, r5
 1288 00a8 F0BD     		pop	{r4, r5, r6, r7, pc}
 1289              		.cfi_endproc
 1290              	.LFE49:
ARM GAS  C:\Users\JAMESS~1\AppData\Local\Temp\ccd7YNc7.s 			page 43


 1291              		.size	StripLights_DrawLine, .-StripLights_DrawLine
 1292 00aa C046     		.section	.text.StripLights_DrawRect,"ax",%progbits
 1293              		.align	2
 1294              		.global	StripLights_DrawRect
 1295              		.code	16
 1296              		.thumb_func
 1297              		.type	StripLights_DrawRect, %function
 1298              	StripLights_DrawRect:
 1299              	.LFB50:
1031:Generated_Source\PSoC4/StripLights.c **** 
1032:Generated_Source\PSoC4/StripLights.c **** /*******************************************************************************
1033:Generated_Source\PSoC4/StripLights.c **** * Function Name: StripLights_DrawRect
1034:Generated_Source\PSoC4/StripLights.c **** ********************************************************************************
1035:Generated_Source\PSoC4/StripLights.c **** *
1036:Generated_Source\PSoC4/StripLights.c **** * Summary:
1037:Generated_Source\PSoC4/StripLights.c **** *  Draw a rectangle, filled or not.  
1038:Generated_Source\PSoC4/StripLights.c **** *
1039:Generated_Source\PSoC4/StripLights.c **** * Parameters:  
1040:Generated_Source\PSoC4/StripLights.c **** *  x0, y0:  The upper lefthand corner.
1041:Generated_Source\PSoC4/StripLights.c **** *  x1, y1:  The lower right corner.
1042:Generated_Source\PSoC4/StripLights.c **** *  fill:    Non-Zero if retangle is to be filled.
1043:Generated_Source\PSoC4/StripLights.c **** *  color:   Color for rectangle, border and fill.
1044:Generated_Source\PSoC4/StripLights.c **** *
1045:Generated_Source\PSoC4/StripLights.c **** * Return: 
1046:Generated_Source\PSoC4/StripLights.c **** *  None 
1047:Generated_Source\PSoC4/StripLights.c **** *  
1048:Generated_Source\PSoC4/StripLights.c **** *******************************************************************************/
1049:Generated_Source\PSoC4/StripLights.c **** void StripLights_DrawRect(int32 x0, int32 y0, int32 x1, int32 y1, int32 fill, uint32 color)
1050:Generated_Source\PSoC4/StripLights.c **** {	
 1300              		.loc 1 1050 0
 1301              		.cfi_startproc
 1302              		@ args = 8, pretend = 0, frame = 8
 1303              		@ frame_needed = 0, uses_anonymous_args = 0
 1304              	.LVL145:
 1305 0000 F0B5     		push	{r4, r5, r6, r7, lr}
 1306              		.cfi_def_cfa_offset 20
 1307              		.cfi_offset 4, -20
 1308              		.cfi_offset 5, -16
 1309              		.cfi_offset 6, -12
 1310              		.cfi_offset 7, -8
 1311              		.cfi_offset 14, -4
 1312 0002 85B0     		sub	sp, sp, #20
 1313              		.cfi_def_cfa_offset 40
 1314 0004 0400     		movs	r4, r0
 1315 0006 0391     		str	r1, [sp, #12]
 1316 0008 1600     		movs	r6, r2
 1317 000a 0293     		str	r3, [sp, #8]
 1318 000c 0B9F     		ldr	r7, [sp, #44]
1051:Generated_Source\PSoC4/StripLights.c ****      int xDiff;
1052:Generated_Source\PSoC4/StripLights.c **** 	/* Check if the rectangle is to be filled    */
1053:Generated_Source\PSoC4/StripLights.c **** 	if (fill != 0)
 1319              		.loc 1 1053 0
 1320 000e 0A9B     		ldr	r3, [sp, #40]
 1321              	.LVL146:
 1322 0010 002B     		cmp	r3, #0
 1323 0012 15D0     		beq	.L87
1054:Generated_Source\PSoC4/StripLights.c **** 	{	
ARM GAS  C:\Users\JAMESS~1\AppData\Local\Temp\ccd7YNc7.s 			page 44


1055:Generated_Source\PSoC4/StripLights.c ****         /* Find the difference between the x vars */
1056:Generated_Source\PSoC4/StripLights.c **** 		if(x0 > x1)
 1324              		.loc 1 1056 0
 1325 0014 9042     		cmp	r0, r2
 1326 0016 01DD     		ble	.L88
1057:Generated_Source\PSoC4/StripLights.c **** 		{
1058:Generated_Source\PSoC4/StripLights.c **** 			xDiff = x0 - x1; 
 1327              		.loc 1 1058 0
 1328 0018 851A     		subs	r5, r0, r2
 1329              	.LVL147:
 1330 001a 0EE0     		b	.L89
 1331              	.LVL148:
 1332              	.L88:
1059:Generated_Source\PSoC4/StripLights.c **** 		}
1060:Generated_Source\PSoC4/StripLights.c **** 		else
1061:Generated_Source\PSoC4/StripLights.c **** 		{
1062:Generated_Source\PSoC4/StripLights.c **** 			xDiff = x1 - x0;
 1333              		.loc 1 1062 0
 1334 001c 151A     		subs	r5, r2, r0
 1335              	.LVL149:
 1336 001e 0CE0     		b	.L89
 1337              	.LVL150:
 1338              	.L93:
1063:Generated_Source\PSoC4/StripLights.c **** 		}
1064:Generated_Source\PSoC4/StripLights.c **** 	
1065:Generated_Source\PSoC4/StripLights.c **** 	    /* Fill it with lines  */
1066:Generated_Source\PSoC4/StripLights.c **** 		while(xDiff >= 0)
1067:Generated_Source\PSoC4/StripLights.c **** 		{
1068:Generated_Source\PSoC4/StripLights.c **** 			StripLights_DrawLine(x0, y0, x0, y1, color);
 1339              		.loc 1 1068 0
 1340 0020 0097     		str	r7, [sp]
 1341 0022 029B     		ldr	r3, [sp, #8]
 1342 0024 2200     		movs	r2, r4
 1343 0026 0399     		ldr	r1, [sp, #12]
 1344 0028 2000     		movs	r0, r4
 1345 002a FFF7FEFF 		bl	StripLights_DrawLine
 1346              	.LVL151:
1069:Generated_Source\PSoC4/StripLights.c **** 		
1070:Generated_Source\PSoC4/StripLights.c **** 			if(x0 > x1)
 1347              		.loc 1 1070 0
 1348 002e B442     		cmp	r4, r6
 1349 0030 01DD     		ble	.L91
1071:Generated_Source\PSoC4/StripLights.c **** 				x0--;
 1350              		.loc 1 1071 0
 1351 0032 013C     		subs	r4, r4, #1
 1352              	.LVL152:
 1353 0034 00E0     		b	.L92
 1354              	.L91:
1072:Generated_Source\PSoC4/StripLights.c **** 			else
1073:Generated_Source\PSoC4/StripLights.c **** 				x0++;
 1355              		.loc 1 1073 0
 1356 0036 0134     		adds	r4, r4, #1
 1357              	.LVL153:
 1358              	.L92:
1074:Generated_Source\PSoC4/StripLights.c **** 		
1075:Generated_Source\PSoC4/StripLights.c **** 			xDiff--;
 1359              		.loc 1 1075 0
ARM GAS  C:\Users\JAMESS~1\AppData\Local\Temp\ccd7YNc7.s 			page 45


 1360 0038 013D     		subs	r5, r5, #1
 1361              	.LVL154:
 1362              	.L89:
1066:Generated_Source\PSoC4/StripLights.c **** 		{
 1363              		.loc 1 1066 0
 1364 003a 002D     		cmp	r5, #0
 1365 003c F0DA     		bge	.L93
 1366 003e 1AE0     		b	.L86
 1367              	.LVL155:
 1368              	.L87:
1076:Generated_Source\PSoC4/StripLights.c **** 		}
1077:Generated_Source\PSoC4/StripLights.c **** 	}
1078:Generated_Source\PSoC4/StripLights.c **** 	else 
1079:Generated_Source\PSoC4/StripLights.c **** 	{
1080:Generated_Source\PSoC4/StripLights.c **** 		/* Draw the four sides of the rectangle */
1081:Generated_Source\PSoC4/StripLights.c **** 		StripLights_DrawLine(x0, y0, x1, y0, color);
 1369              		.loc 1 1081 0
 1370 0040 0097     		str	r7, [sp]
 1371 0042 039D     		ldr	r5, [sp, #12]
 1372 0044 2B00     		movs	r3, r5
 1373 0046 2900     		movs	r1, r5
 1374              	.LVL156:
 1375 0048 FFF7FEFF 		bl	StripLights_DrawLine
 1376              	.LVL157:
1082:Generated_Source\PSoC4/StripLights.c **** 		StripLights_DrawLine(x0, y1, x1, y1, color);
 1377              		.loc 1 1082 0
 1378 004c 0097     		str	r7, [sp]
 1379 004e 0299     		ldr	r1, [sp, #8]
 1380 0050 0B00     		movs	r3, r1
 1381 0052 3200     		movs	r2, r6
 1382 0054 2000     		movs	r0, r4
 1383 0056 FFF7FEFF 		bl	StripLights_DrawLine
 1384              	.LVL158:
1083:Generated_Source\PSoC4/StripLights.c **** 		StripLights_DrawLine(x0, y0, x0, y1, color);
 1385              		.loc 1 1083 0
 1386 005a 0097     		str	r7, [sp]
 1387 005c 029B     		ldr	r3, [sp, #8]
 1388 005e 2200     		movs	r2, r4
 1389 0060 2900     		movs	r1, r5
 1390 0062 2000     		movs	r0, r4
 1391 0064 FFF7FEFF 		bl	StripLights_DrawLine
 1392              	.LVL159:
1084:Generated_Source\PSoC4/StripLights.c **** 		StripLights_DrawLine(x1, y0, x1, y1, color);
 1393              		.loc 1 1084 0
 1394 0068 0097     		str	r7, [sp]
 1395 006a 029B     		ldr	r3, [sp, #8]
 1396 006c 3200     		movs	r2, r6
 1397 006e 2900     		movs	r1, r5
 1398 0070 3000     		movs	r0, r6
 1399 0072 FFF7FEFF 		bl	StripLights_DrawLine
 1400              	.LVL160:
 1401              	.L86:
1085:Generated_Source\PSoC4/StripLights.c **** 	}
1086:Generated_Source\PSoC4/StripLights.c **** }
 1402              		.loc 1 1086 0
 1403 0076 05B0     		add	sp, sp, #20
 1404              		@ sp needed
ARM GAS  C:\Users\JAMESS~1\AppData\Local\Temp\ccd7YNc7.s 			page 46


 1405              	.LVL161:
 1406              	.LVL162:
 1407 0078 F0BD     		pop	{r4, r5, r6, r7, pc}
 1408              		.cfi_endproc
 1409              	.LFE50:
 1410              		.size	StripLights_DrawRect, .-StripLights_DrawRect
 1411 007a C046     		.section	.text.StripLights_Dim,"ax",%progbits
 1412              		.align	2
 1413              		.global	StripLights_Dim
 1414              		.code	16
 1415              		.thumb_func
 1416              		.type	StripLights_Dim, %function
 1417              	StripLights_Dim:
 1418              	.LFB51:
1087:Generated_Source\PSoC4/StripLights.c **** 
1088:Generated_Source\PSoC4/StripLights.c **** /*******************************************************************************
1089:Generated_Source\PSoC4/StripLights.c **** * Function Name: StripLights_Dim
1090:Generated_Source\PSoC4/StripLights.c **** ********************************************************************************
1091:Generated_Source\PSoC4/StripLights.c **** *
1092:Generated_Source\PSoC4/StripLights.c **** * Summary:
1093:Generated_Source\PSoC4/StripLights.c **** *  Dim all output by a specific level (0,1,2,3,4)  
1094:Generated_Source\PSoC4/StripLights.c **** *
1095:Generated_Source\PSoC4/StripLights.c **** * Parameters:  
1096:Generated_Source\PSoC4/StripLights.c **** *  dimLevel:  Dim level 1 to 4, 0 => No dimming.
1097:Generated_Source\PSoC4/StripLights.c **** *
1098:Generated_Source\PSoC4/StripLights.c **** * Return: 
1099:Generated_Source\PSoC4/StripLights.c **** *  None 
1100:Generated_Source\PSoC4/StripLights.c **** *  
1101:Generated_Source\PSoC4/StripLights.c **** *******************************************************************************/
1102:Generated_Source\PSoC4/StripLights.c **** void StripLights_Dim(uint32 dimLevel) 
1103:Generated_Source\PSoC4/StripLights.c **** {
 1419              		.loc 1 1103 0
 1420              		.cfi_startproc
 1421              		@ args = 0, pretend = 0, frame = 0
 1422              		@ frame_needed = 0, uses_anonymous_args = 0
 1423              		@ link register save eliminated.
 1424              	.LVL163:
1104:Generated_Source\PSoC4/StripLights.c **** extern uint32  StripLights_DimMask;
1105:Generated_Source\PSoC4/StripLights.c **** extern uint32  StripLights_DimShift;
1106:Generated_Source\PSoC4/StripLights.c **** 
1107:Generated_Source\PSoC4/StripLights.c ****     switch(dimLevel)
 1425              		.loc 1 1107 0
 1426 0000 0228     		cmp	r0, #2
 1427 0002 0FD0     		beq	.L97
 1428 0004 02D8     		bhi	.L98
 1429 0006 0128     		cmp	r0, #1
 1430 0008 05D0     		beq	.L99
 1431 000a 20E0     		b	.L96
 1432              	.L98:
 1433 000c 0328     		cmp	r0, #3
 1434 000e 10D0     		beq	.L100
 1435 0010 0428     		cmp	r0, #4
 1436 0012 15D0     		beq	.L101
 1437 0014 1BE0     		b	.L96
 1438              	.L99:
1108:Generated_Source\PSoC4/StripLights.c ****     {
1109:Generated_Source\PSoC4/StripLights.c ****        case 1:  // 1/2 bright
ARM GAS  C:\Users\JAMESS~1\AppData\Local\Temp\ccd7YNc7.s 			page 47


1110:Generated_Source\PSoC4/StripLights.c ****            StripLights_DimMask = 0x7F7F7F7F;
 1439              		.loc 1 1110 0
 1440 0016 124A     		ldr	r2, .L103
 1441 0018 124B     		ldr	r3, .L103+4
 1442 001a 1A60     		str	r2, [r3]
1111:Generated_Source\PSoC4/StripLights.c ****            StripLights_DimShift = 1;
 1443              		.loc 1 1111 0
 1444 001c 0122     		movs	r2, #1
 1445 001e 124B     		ldr	r3, .L103+8
 1446 0020 1A60     		str	r2, [r3]
1112:Generated_Source\PSoC4/StripLights.c ****            break;
 1447              		.loc 1 1112 0
 1448 0022 1BE0     		b	.L95
 1449              	.L97:
1113:Generated_Source\PSoC4/StripLights.c ****            
1114:Generated_Source\PSoC4/StripLights.c ****        case 2:
1115:Generated_Source\PSoC4/StripLights.c ****            StripLights_DimMask = 0x3F3F3F3F;
 1450              		.loc 1 1115 0
 1451 0024 114A     		ldr	r2, .L103+12
 1452 0026 0F4B     		ldr	r3, .L103+4
 1453 0028 1A60     		str	r2, [r3]
1116:Generated_Source\PSoC4/StripLights.c ****            StripLights_DimShift = 2;
 1454              		.loc 1 1116 0
 1455 002a 0222     		movs	r2, #2
 1456 002c 0E4B     		ldr	r3, .L103+8
 1457 002e 1A60     		str	r2, [r3]
1117:Generated_Source\PSoC4/StripLights.c ****            break;
 1458              		.loc 1 1117 0
 1459 0030 14E0     		b	.L95
 1460              	.L100:
1118:Generated_Source\PSoC4/StripLights.c ****            
1119:Generated_Source\PSoC4/StripLights.c ****        case 3:
1120:Generated_Source\PSoC4/StripLights.c ****            StripLights_DimMask = 0x1F1F1F1F;
 1461              		.loc 1 1120 0
 1462 0032 0F4A     		ldr	r2, .L103+16
 1463 0034 0B4B     		ldr	r3, .L103+4
 1464 0036 1A60     		str	r2, [r3]
1121:Generated_Source\PSoC4/StripLights.c ****            StripLights_DimShift = 3;
 1465              		.loc 1 1121 0
 1466 0038 0322     		movs	r2, #3
 1467 003a 0B4B     		ldr	r3, .L103+8
 1468 003c 1A60     		str	r2, [r3]
1122:Generated_Source\PSoC4/StripLights.c ****            break;
 1469              		.loc 1 1122 0
 1470 003e 0DE0     		b	.L95
 1471              	.L101:
1123:Generated_Source\PSoC4/StripLights.c ****            
1124:Generated_Source\PSoC4/StripLights.c ****        case 4:
1125:Generated_Source\PSoC4/StripLights.c ****            StripLights_DimMask = 0x0F0F0F0F;
 1472              		.loc 1 1125 0
 1473 0040 0C4A     		ldr	r2, .L103+20
 1474 0042 084B     		ldr	r3, .L103+4
 1475 0044 1A60     		str	r2, [r3]
1126:Generated_Source\PSoC4/StripLights.c ****            StripLights_DimShift = 4;
 1476              		.loc 1 1126 0
 1477 0046 0422     		movs	r2, #4
 1478 0048 074B     		ldr	r3, .L103+8
ARM GAS  C:\Users\JAMESS~1\AppData\Local\Temp\ccd7YNc7.s 			page 48


 1479 004a 1A60     		str	r2, [r3]
1127:Generated_Source\PSoC4/StripLights.c ****            break;
 1480              		.loc 1 1127 0
 1481 004c 06E0     		b	.L95
 1482              	.L96:
1128:Generated_Source\PSoC4/StripLights.c ****            
1129:Generated_Source\PSoC4/StripLights.c ****        default:
1130:Generated_Source\PSoC4/StripLights.c ****            StripLights_DimMask = 0xFFFFFFFF;
 1483              		.loc 1 1130 0
 1484 004e 0122     		movs	r2, #1
 1485 0050 5242     		rsbs	r2, r2, #0
 1486 0052 044B     		ldr	r3, .L103+4
 1487 0054 1A60     		str	r2, [r3]
1131:Generated_Source\PSoC4/StripLights.c ****            StripLights_DimShift = 0;
 1488              		.loc 1 1131 0
 1489 0056 0022     		movs	r2, #0
 1490 0058 034B     		ldr	r3, .L103+8
 1491 005a 1A60     		str	r2, [r3]
 1492              	.L95:
1132:Generated_Source\PSoC4/StripLights.c ****            break; 
1133:Generated_Source\PSoC4/StripLights.c ****     }
1134:Generated_Source\PSoC4/StripLights.c **** }
 1493              		.loc 1 1134 0
 1494              		@ sp needed
 1495 005c 7047     		bx	lr
 1496              	.L104:
 1497 005e C046     		.align	2
 1498              	.L103:
 1499 0060 7F7F7F7F 		.word	2139062143
 1500 0064 00000000 		.word	StripLights_DimMask
 1501 0068 00000000 		.word	StripLights_DimShift
 1502 006c 3F3F3F3F 		.word	1061109567
 1503 0070 1F1F1F1F 		.word	522133279
 1504 0074 0F0F0F0F 		.word	252645135
 1505              		.cfi_endproc
 1506              	.LFE51:
 1507              		.size	StripLights_Dim, .-StripLights_Dim
 1508              		.section	.text.StripLights_Start,"ax",%progbits
 1509              		.align	2
 1510              		.global	StripLights_Start
 1511              		.code	16
 1512              		.thumb_func
 1513              		.type	StripLights_Start, %function
 1514              	StripLights_Start:
 1515              	.LFB32:
 253:Generated_Source\PSoC4/StripLights.c ****     extern uint8 StripLights_initvar;
 1516              		.loc 1 253 0
 1517              		.cfi_startproc
 1518              		@ args = 0, pretend = 0, frame = 0
 1519              		@ frame_needed = 0, uses_anonymous_args = 0
 1520 0000 10B5     		push	{r4, lr}
 1521              		.cfi_def_cfa_offset 8
 1522              		.cfi_offset 4, -8
 1523              		.cfi_offset 14, -4
 264:Generated_Source\PSoC4/StripLights.c **** 
 1524              		.loc 1 264 0
 1525 0002 0322     		movs	r2, #3
ARM GAS  C:\Users\JAMESS~1\AppData\Local\Temp\ccd7YNc7.s 			page 49


 1526 0004 184B     		ldr	r3, .L107
 1527 0006 1A70     		strb	r2, [r3]
 279:Generated_Source\PSoC4/StripLights.c ****         StripLights_Compare0 = (uint8)StripLights_COMPARE_ZERO;
 1528              		.loc 1 279 0
 1529 0008 0B32     		adds	r2, r2, #11
 1530 000a 184B     		ldr	r3, .L107+4
 1531 000c 1A70     		strb	r2, [r3]
 280:Generated_Source\PSoC4/StripLights.c ****         StripLights_Compare1 = (uint8)StripLights_COMPARE_ONE;        
 1532              		.loc 1 280 0
 1533 000e 023A     		subs	r2, r2, #2
 1534 0010 174B     		ldr	r3, .L107+8
 1535 0012 1A70     		strb	r2, [r3]
 281:Generated_Source\PSoC4/StripLights.c ****     #endif /* CY_PSOC5A */
 1536              		.loc 1 281 0
 1537 0014 053A     		subs	r2, r2, #5
 1538 0016 174B     		ldr	r3, .L107+12
 1539 0018 1A70     		strb	r2, [r3]
 285:Generated_Source\PSoC4/StripLights.c ****     StripLights_MemClear(StripLights_OFF);
 1540              		.loc 1 285 0
 1541 001a 174C     		ldr	r4, .L107+16
 1542 001c 0123     		movs	r3, #1
 1543 001e 2370     		strb	r3, [r4]
 286:Generated_Source\PSoC4/StripLights.c ****     StripLights_CONTROL = StripLights_DISABLE;
 1544              		.loc 1 286 0
 1545 0020 1820     		movs	r0, #24
 1546 0022 FFF7FEFF 		bl	StripLights_getColor
 1547              	.LVL164:
 1548 0026 FFF7FEFF 		bl	StripLights_MemClear
 1549              	.LVL165:
 287:Generated_Source\PSoC4/StripLights.c ****     
 1550              		.loc 1 287 0
 1551 002a 0023     		movs	r3, #0
 1552 002c 2370     		strb	r3, [r4]
 289:Generated_Source\PSoC4/StripLights.c ****     
 1553              		.loc 1 289 0
 1554 002e 0020     		movs	r0, #0
 1555 0030 FFF7FEFF 		bl	StripLights_SetFont
 1556              	.LVL166:
 292:Generated_Source\PSoC4/StripLights.c **** 
 1557              		.loc 1 292 0
 1558 0034 0020     		movs	r0, #0
 1559 0036 FFF7FEFF 		bl	StripLights_Dim
 1560              	.LVL167:
 294:Generated_Source\PSoC4/StripLights.c ****     {
 1561              		.loc 1 294 0
 1562 003a 104B     		ldr	r3, .L107+20
 1563 003c 1B7F     		ldrb	r3, [r3, #28]
 1564 003e 002B     		cmp	r3, #0
 1565 0040 0ED1     		bne	.L106
 297:Generated_Source\PSoC4/StripLights.c ****  
 1566              		.loc 1 297 0
 1567 0042 0122     		movs	r2, #1
 1568 0044 0D4B     		ldr	r3, .L107+20
 1569 0046 1A77     		strb	r2, [r3, #28]
 303:Generated_Source\PSoC4/StripLights.c **** 		   StripLights_fisr_StartEx(StripLights_FISR);
 1570              		.loc 1 303 0
 1571 0048 0D48     		ldr	r0, .L107+24
ARM GAS  C:\Users\JAMESS~1\AppData\Local\Temp\ccd7YNc7.s 			page 50


 1572 004a FFF7FEFF 		bl	StripLights_cisr_StartEx
 1573              	.LVL168:
 304:Generated_Source\PSoC4/StripLights.c ****         
 1574              		.loc 1 304 0
 1575 004e 0D48     		ldr	r0, .L107+28
 1576 0050 FFF7FEFF 		bl	StripLights_fisr_StartEx
 1577              	.LVL169:
 307:Generated_Source\PSoC4/StripLights.c ****            StripLights_fisr_SetPriority(0u);
 1578              		.loc 1 307 0
 1579 0054 0120     		movs	r0, #1
 1580 0056 FFF7FEFF 		bl	StripLights_cisr_SetPriority
 1581              	.LVL170:
 308:Generated_Source\PSoC4/StripLights.c ****        }
 1582              		.loc 1 308 0
 1583 005a 0020     		movs	r0, #0
 1584 005c FFF7FEFF 		bl	StripLights_fisr_SetPriority
 1585              	.LVL171:
 1586              	.L106:
 316:Generated_Source\PSoC4/StripLights.c **** }
 1587              		.loc 1 316 0
 1588 0060 0122     		movs	r2, #1
 1589 0062 094B     		ldr	r3, .L107+32
 1590 0064 1A60     		str	r2, [r3]
 317:Generated_Source\PSoC4/StripLights.c **** 
 1591              		.loc 1 317 0
 1592              		@ sp needed
 1593 0066 10BD     		pop	{r4, pc}
 1594              	.L108:
 1595              		.align	2
 1596              	.L107:
 1597 0068 91000F40 		.word	1074725009
 1598 006c 41000F40 		.word	1074724929
 1599 0070 21000F40 		.word	1074724897
 1600 0074 31000F40 		.word	1074724913
 1601 0078 72000F40 		.word	1074724978
 1602 007c 00000000 		.word	.LANCHOR0
 1603 0080 00000000 		.word	StripLights_CISR
 1604 0084 00000000 		.word	StripLights_FISR
 1605 0088 00000000 		.word	StripLights_refreshComplete
 1606              		.cfi_endproc
 1607              	.LFE32:
 1608              		.size	StripLights_Start, .-StripLights_Start
 1609              		.section	.text.StripLights_Bplot8,"ax",%progbits
 1610              		.align	2
 1611              		.global	StripLights_Bplot8
 1612              		.code	16
 1613              		.thumb_func
 1614              		.type	StripLights_Bplot8, %function
 1615              	StripLights_Bplot8:
 1616              	.LFB52:
1135:Generated_Source\PSoC4/StripLights.c **** 
1136:Generated_Source\PSoC4/StripLights.c **** /*******************************************************************************
1137:Generated_Source\PSoC4/StripLights.c **** * Function Name: StripLights_Bplot8
1138:Generated_Source\PSoC4/StripLights.c **** ********************************************************************************
1139:Generated_Source\PSoC4/StripLights.c **** *
1140:Generated_Source\PSoC4/StripLights.c **** * Summary:
1141:Generated_Source\PSoC4/StripLights.c **** *  Draw a bitmap image on the display using 8-bit color. 
ARM GAS  C:\Users\JAMESS~1\AppData\Local\Temp\ccd7YNc7.s 			page 51


1142:Generated_Source\PSoC4/StripLights.c **** *
1143:Generated_Source\PSoC4/StripLights.c **** * Parameters:  
1144:Generated_Source\PSoC4/StripLights.c **** *    x, y:  The upper left corner of the image location
1145:Generated_Source\PSoC4/StripLights.c **** *  bitMap:  A pointer to an image array.  The first two values is the X and Y
1146:Generated_Source\PSoC4/StripLights.c **** *           size of the bitmap.
1147:Generated_Source\PSoC4/StripLights.c **** *  update:  If not 0 update the display after drawing image.
1148:Generated_Source\PSoC4/StripLights.c **** *
1149:Generated_Source\PSoC4/StripLights.c **** * Return: 
1150:Generated_Source\PSoC4/StripLights.c **** *  None 
1151:Generated_Source\PSoC4/StripLights.c **** *  
1152:Generated_Source\PSoC4/StripLights.c **** *******************************************************************************/
1153:Generated_Source\PSoC4/StripLights.c **** void StripLights_Bplot8( int32 x, int32 y, uint8 * bitMap, int32 update)
1154:Generated_Source\PSoC4/StripLights.c **** {
 1617              		.loc 1 1154 0
 1618              		.cfi_startproc
 1619              		@ args = 0, pretend = 0, frame = 8
 1620              		@ frame_needed = 0, uses_anonymous_args = 0
 1621              	.LVL172:
 1622 0000 F0B5     		push	{r4, r5, r6, r7, lr}
 1623              		.cfi_def_cfa_offset 20
 1624              		.cfi_offset 4, -20
 1625              		.cfi_offset 5, -16
 1626              		.cfi_offset 6, -12
 1627              		.cfi_offset 7, -8
 1628              		.cfi_offset 14, -4
 1629 0002 5F46     		mov	r7, fp
 1630 0004 4646     		mov	r6, r8
 1631 0006 C0B4     		push	{r6, r7}
 1632              		.cfi_def_cfa_offset 28
 1633              		.cfi_offset 8, -28
 1634              		.cfi_offset 11, -24
 1635 0008 83B0     		sub	sp, sp, #12
 1636              		.cfi_def_cfa_offset 40
 1637 000a 0190     		str	r0, [sp, #4]
 1638 000c 0091     		str	r1, [sp]
 1639 000e 1700     		movs	r7, r2
 1640 0010 9B46     		mov	fp, r3
 1641              	.LVL173:
1155:Generated_Source\PSoC4/StripLights.c ****     int32 dx, dy;
1156:Generated_Source\PSoC4/StripLights.c ****     int32 aindex = 0;
1157:Generated_Source\PSoC4/StripLights.c ****     int32 maxX, maxY;
1158:Generated_Source\PSoC4/StripLights.c **** 
1159:Generated_Source\PSoC4/StripLights.c ****     maxX = x + (int32)bitMap[aindex++];
 1642              		.loc 1 1159 0
 1643 0012 1378     		ldrb	r3, [r2]
 1644              	.LVL174:
 1645 0014 1E18     		adds	r6, r3, r0
 1646              	.LVL175:
1160:Generated_Source\PSoC4/StripLights.c ****     maxY = y  + (int32)bitMap[aindex++];
 1647              		.loc 1 1160 0
 1648 0016 7B78     		ldrb	r3, [r7, #1]
 1649 0018 8846     		mov	r8, r1
 1650 001a 9844     		add	r8, r8, r3
 1651              	.LVL176:
 1652 001c 0223     		movs	r3, #2
1161:Generated_Source\PSoC4/StripLights.c **** 
1162:Generated_Source\PSoC4/StripLights.c **** 	for(dy = y; dy < maxY; dy++)
ARM GAS  C:\Users\JAMESS~1\AppData\Local\Temp\ccd7YNc7.s 			page 52


 1653              		.loc 1 1162 0
 1654 001e 0EE0     		b	.L110
 1655              	.LVL177:
 1656              	.L111:
1163:Generated_Source\PSoC4/StripLights.c ****     {
1164:Generated_Source\PSoC4/StripLights.c **** 		for(dx = x; dx < maxX; dx++)
1165:Generated_Source\PSoC4/StripLights.c ****         {
1166:Generated_Source\PSoC4/StripLights.c ****             StripLights_Pixel(dx, dy, bitMap[aindex++]);
 1657              		.loc 1 1166 0 discriminator 3
 1658 0020 5D1C     		adds	r5, r3, #1
 1659              	.LVL178:
 1660 0022 FA5C     		ldrb	r2, [r7, r3]
 1661 0024 0099     		ldr	r1, [sp]
 1662 0026 2000     		movs	r0, r4
 1663 0028 FFF7FEFF 		bl	StripLights_Pixel
 1664              	.LVL179:
1164:Generated_Source\PSoC4/StripLights.c ****         {
 1665              		.loc 1 1164 0 discriminator 3
 1666 002c 0134     		adds	r4, r4, #1
 1667              	.LVL180:
 1668              		.loc 1 1166 0 discriminator 3
 1669 002e 2B00     		movs	r3, r5
 1670 0030 00E0     		b	.L112
 1671              	.LVL181:
 1672              	.L114:
 1673 0032 019C     		ldr	r4, [sp, #4]
 1674              	.LVL182:
 1675              	.L112:
1164:Generated_Source\PSoC4/StripLights.c ****         {
 1676              		.loc 1 1164 0 discriminator 1
 1677 0034 B442     		cmp	r4, r6
 1678 0036 F3DB     		blt	.L111
1162:Generated_Source\PSoC4/StripLights.c ****     {
 1679              		.loc 1 1162 0 discriminator 2
 1680 0038 009A     		ldr	r2, [sp]
 1681 003a 0132     		adds	r2, r2, #1
 1682 003c 0092     		str	r2, [sp]
 1683              	.LVL183:
 1684              	.L110:
1162:Generated_Source\PSoC4/StripLights.c ****     {
 1685              		.loc 1 1162 0 is_stmt 0 discriminator 1
 1686 003e 009A     		ldr	r2, [sp]
 1687 0040 4245     		cmp	r2, r8
 1688 0042 F6DB     		blt	.L114
1167:Generated_Source\PSoC4/StripLights.c ****         }
1168:Generated_Source\PSoC4/StripLights.c ****     }
1169:Generated_Source\PSoC4/StripLights.c **** 	if(update) StripLights_Trigger(1);
 1689              		.loc 1 1169 0 is_stmt 1
 1690 0044 5B46     		mov	r3, fp
 1691              	.LVL184:
 1692 0046 002B     		cmp	r3, #0
 1693 0048 02D0     		beq	.L109
 1694              	.LVL185:
 1695              		.loc 1 1169 0 is_stmt 0 discriminator 1
 1696 004a 0120     		movs	r0, #1
 1697 004c FFF7FEFF 		bl	StripLights_Trigger
 1698              	.LVL186:
ARM GAS  C:\Users\JAMESS~1\AppData\Local\Temp\ccd7YNc7.s 			page 53


 1699              	.L109:
1170:Generated_Source\PSoC4/StripLights.c **** }
 1700              		.loc 1 1170 0 is_stmt 1
 1701 0050 03B0     		add	sp, sp, #12
 1702              	.LVL187:
 1703              		@ sp needed
 1704              	.LVL188:
 1705              	.LVL189:
 1706              	.LVL190:
 1707              	.LVL191:
 1708 0052 0CBC     		pop	{r2, r3}
 1709 0054 9046     		mov	r8, r2
 1710 0056 9B46     		mov	fp, r3
 1711 0058 F0BD     		pop	{r4, r5, r6, r7, pc}
 1712              		.cfi_endproc
 1713              	.LFE52:
 1714              		.size	StripLights_Bplot8, .-StripLights_Bplot8
 1715 005a C046     		.section	.text.StripLights_Bplot32,"ax",%progbits
 1716              		.align	2
 1717              		.global	StripLights_Bplot32
 1718              		.code	16
 1719              		.thumb_func
 1720              		.type	StripLights_Bplot32, %function
 1721              	StripLights_Bplot32:
 1722              	.LFB53:
1171:Generated_Source\PSoC4/StripLights.c **** 
1172:Generated_Source\PSoC4/StripLights.c **** /*******************************************************************************
1173:Generated_Source\PSoC4/StripLights.c **** * Function Name: StripLights_Bplot32
1174:Generated_Source\PSoC4/StripLights.c **** ********************************************************************************
1175:Generated_Source\PSoC4/StripLights.c **** *
1176:Generated_Source\PSoC4/StripLights.c **** * Summary:
1177:Generated_Source\PSoC4/StripLights.c **** *  Draw a bitmap image on the display using 32-bit color. 
1178:Generated_Source\PSoC4/StripLights.c **** *
1179:Generated_Source\PSoC4/StripLights.c **** * Parameters:  
1180:Generated_Source\PSoC4/StripLights.c **** *    x, y:  The upper left corner of the image location
1181:Generated_Source\PSoC4/StripLights.c **** *  bitMap:  A pointer to an image array.  The first two values is the X and Y
1182:Generated_Source\PSoC4/StripLights.c **** *           size of the bitmap.
1183:Generated_Source\PSoC4/StripLights.c **** *  update:  If not 0 update the display after drawing image.
1184:Generated_Source\PSoC4/StripLights.c **** *
1185:Generated_Source\PSoC4/StripLights.c **** * Return: 
1186:Generated_Source\PSoC4/StripLights.c **** *  None 
1187:Generated_Source\PSoC4/StripLights.c **** *  
1188:Generated_Source\PSoC4/StripLights.c **** *******************************************************************************/
1189:Generated_Source\PSoC4/StripLights.c **** void StripLights_Bplot32( int32 x, int32 y, uint32 * bitMap, int32 update)
1190:Generated_Source\PSoC4/StripLights.c **** {
 1723              		.loc 1 1190 0
 1724              		.cfi_startproc
 1725              		@ args = 0, pretend = 0, frame = 8
 1726              		@ frame_needed = 0, uses_anonymous_args = 0
 1727              	.LVL192:
 1728 0000 F0B5     		push	{r4, r5, r6, r7, lr}
 1729              		.cfi_def_cfa_offset 20
 1730              		.cfi_offset 4, -20
 1731              		.cfi_offset 5, -16
 1732              		.cfi_offset 6, -12
 1733              		.cfi_offset 7, -8
 1734              		.cfi_offset 14, -4
ARM GAS  C:\Users\JAMESS~1\AppData\Local\Temp\ccd7YNc7.s 			page 54


 1735 0002 5F46     		mov	r7, fp
 1736 0004 4646     		mov	r6, r8
 1737 0006 C0B4     		push	{r6, r7}
 1738              		.cfi_def_cfa_offset 28
 1739              		.cfi_offset 8, -28
 1740              		.cfi_offset 11, -24
 1741 0008 83B0     		sub	sp, sp, #12
 1742              		.cfi_def_cfa_offset 40
 1743 000a 0190     		str	r0, [sp, #4]
 1744 000c 0091     		str	r1, [sp]
 1745 000e 1700     		movs	r7, r2
 1746 0010 9B46     		mov	fp, r3
 1747              	.LVL193:
1191:Generated_Source\PSoC4/StripLights.c ****     int32 dx, dy;
1192:Generated_Source\PSoC4/StripLights.c ****     int32 aindex = 0;
1193:Generated_Source\PSoC4/StripLights.c ****     int32 maxX, maxY;
1194:Generated_Source\PSoC4/StripLights.c **** 
1195:Generated_Source\PSoC4/StripLights.c ****     maxX = x + (int32)bitMap[aindex++];
 1748              		.loc 1 1195 0
 1749 0012 1368     		ldr	r3, [r2]
 1750              	.LVL194:
 1751 0014 1E00     		movs	r6, r3
 1752 0016 8446     		mov	ip, r0
 1753 0018 6644     		add	r6, r6, ip
 1754              	.LVL195:
1196:Generated_Source\PSoC4/StripLights.c ****     maxY = y  + (int32)bitMap[aindex++];
 1755              		.loc 1 1196 0
 1756 001a 5368     		ldr	r3, [r2, #4]
 1757 001c 9846     		mov	r8, r3
 1758 001e 8C46     		mov	ip, r1
 1759 0020 E044     		add	r8, r8, ip
 1760              	.LVL196:
 1761 0022 0223     		movs	r3, #2
1197:Generated_Source\PSoC4/StripLights.c **** 
1198:Generated_Source\PSoC4/StripLights.c **** 	for(dy = y; dy < maxY; dy++)
 1762              		.loc 1 1198 0
 1763 0024 0FE0     		b	.L116
 1764              	.LVL197:
 1765              	.L117:
1199:Generated_Source\PSoC4/StripLights.c ****     {
1200:Generated_Source\PSoC4/StripLights.c **** 		for(dx = x; dx < maxX; dx++)
1201:Generated_Source\PSoC4/StripLights.c ****         {
1202:Generated_Source\PSoC4/StripLights.c ****             StripLights_Pixel(dx, dy, bitMap[aindex++]);
 1766              		.loc 1 1202 0 discriminator 3
 1767 0026 5D1C     		adds	r5, r3, #1
 1768              	.LVL198:
 1769 0028 9B00     		lsls	r3, r3, #2
 1770 002a FA58     		ldr	r2, [r7, r3]
 1771 002c 0099     		ldr	r1, [sp]
 1772 002e 2000     		movs	r0, r4
 1773 0030 FFF7FEFF 		bl	StripLights_Pixel
 1774              	.LVL199:
1200:Generated_Source\PSoC4/StripLights.c ****         {
 1775              		.loc 1 1200 0 discriminator 3
 1776 0034 0134     		adds	r4, r4, #1
 1777              	.LVL200:
 1778              		.loc 1 1202 0 discriminator 3
ARM GAS  C:\Users\JAMESS~1\AppData\Local\Temp\ccd7YNc7.s 			page 55


 1779 0036 2B00     		movs	r3, r5
 1780 0038 00E0     		b	.L118
 1781              	.LVL201:
 1782              	.L120:
 1783 003a 019C     		ldr	r4, [sp, #4]
 1784              	.LVL202:
 1785              	.L118:
1200:Generated_Source\PSoC4/StripLights.c ****         {
 1786              		.loc 1 1200 0 discriminator 1
 1787 003c B442     		cmp	r4, r6
 1788 003e F2DB     		blt	.L117
1198:Generated_Source\PSoC4/StripLights.c ****     {
 1789              		.loc 1 1198 0 discriminator 2
 1790 0040 009A     		ldr	r2, [sp]
 1791 0042 0132     		adds	r2, r2, #1
 1792 0044 0092     		str	r2, [sp]
 1793              	.LVL203:
 1794              	.L116:
1198:Generated_Source\PSoC4/StripLights.c ****     {
 1795              		.loc 1 1198 0 is_stmt 0 discriminator 1
 1796 0046 009A     		ldr	r2, [sp]
 1797 0048 4245     		cmp	r2, r8
 1798 004a F6DB     		blt	.L120
1203:Generated_Source\PSoC4/StripLights.c ****         }
1204:Generated_Source\PSoC4/StripLights.c ****     }
1205:Generated_Source\PSoC4/StripLights.c **** 	if(update) StripLights_Trigger(1);
 1799              		.loc 1 1205 0 is_stmt 1
 1800 004c 5B46     		mov	r3, fp
 1801              	.LVL204:
 1802 004e 002B     		cmp	r3, #0
 1803 0050 02D0     		beq	.L115
 1804              	.LVL205:
 1805              		.loc 1 1205 0 is_stmt 0 discriminator 1
 1806 0052 0120     		movs	r0, #1
 1807 0054 FFF7FEFF 		bl	StripLights_Trigger
 1808              	.LVL206:
 1809              	.L115:
1206:Generated_Source\PSoC4/StripLights.c **** }
 1810              		.loc 1 1206 0 is_stmt 1
 1811 0058 03B0     		add	sp, sp, #12
 1812              	.LVL207:
 1813              		@ sp needed
 1814              	.LVL208:
 1815              	.LVL209:
 1816              	.LVL210:
 1817              	.LVL211:
 1818 005a 0CBC     		pop	{r2, r3}
 1819 005c 9046     		mov	r8, r2
 1820 005e 9B46     		mov	fp, r3
 1821 0060 F0BD     		pop	{r4, r5, r6, r7, pc}
 1822              		.cfi_endproc
 1823              	.LFE53:
 1824              		.size	StripLights_Bplot32, .-StripLights_Bplot32
 1825              		.global	__aeabi_uidiv
 1826 0062 C046     		.section	.text.StripLights_RgbBlend,"ax",%progbits
 1827              		.align	2
 1828              		.global	StripLights_RgbBlend
ARM GAS  C:\Users\JAMESS~1\AppData\Local\Temp\ccd7YNc7.s 			page 56


 1829              		.code	16
 1830              		.thumb_func
 1831              		.type	StripLights_RgbBlend, %function
 1832              	StripLights_RgbBlend:
 1833              	.LFB54:
1207:Generated_Source\PSoC4/StripLights.c **** 
1208:Generated_Source\PSoC4/StripLights.c **** /*******************************************************************************
1209:Generated_Source\PSoC4/StripLights.c **** * Function Name: StripLights_RgbBlend()
1210:Generated_Source\PSoC4/StripLights.c **** ********************************************************************************
1211:Generated_Source\PSoC4/StripLights.c **** * Summary:  Blend two colors into one.
1212:Generated_Source\PSoC4/StripLights.c **** *    
1213:Generated_Source\PSoC4/StripLights.c **** *    newColor = (pct * toColor)  + ((100-pct) * fromColor)
1214:Generated_Source\PSoC4/StripLights.c **** *
1215:Generated_Source\PSoC4/StripLights.c **** * Parameters:  
1216:Generated_Source\PSoC4/StripLights.c **** *  void  
1217:Generated_Source\PSoC4/StripLights.c **** *
1218:Generated_Source\PSoC4/StripLights.c **** * Return: 
1219:Generated_Source\PSoC4/StripLights.c **** *  void
1220:Generated_Source\PSoC4/StripLights.c **** *
1221:Generated_Source\PSoC4/StripLights.c **** *******************************************************************************/
1222:Generated_Source\PSoC4/StripLights.c **** uint32 StripLights_RgbBlend(uint32 fromColor, uint32 toColor, uint32 pct)
1223:Generated_Source\PSoC4/StripLights.c **** {
 1834              		.loc 1 1223 0
 1835              		.cfi_startproc
 1836              		@ args = 0, pretend = 0, frame = 0
 1837              		@ frame_needed = 0, uses_anonymous_args = 0
 1838              	.LVL212:
 1839 0000 F8B5     		push	{r3, r4, r5, r6, r7, lr}
 1840              		.cfi_def_cfa_offset 24
 1841              		.cfi_offset 3, -24
 1842              		.cfi_offset 4, -20
 1843              		.cfi_offset 5, -16
 1844              		.cfi_offset 6, -12
 1845              		.cfi_offset 7, -8
 1846              		.cfi_offset 14, -4
 1847 0002 4F46     		mov	r7, r9
 1848 0004 4646     		mov	r6, r8
 1849 0006 C0B4     		push	{r6, r7}
 1850              		.cfi_def_cfa_offset 32
 1851              		.cfi_offset 8, -32
 1852              		.cfi_offset 9, -28
 1853 0008 0400     		movs	r4, r0
 1854 000a 0E00     		movs	r6, r1
 1855 000c 9146     		mov	r9, r2
 1856              	.LVL213:
1224:Generated_Source\PSoC4/StripLights.c ****     uint32 newColor = 0;
1225:Generated_Source\PSoC4/StripLights.c ****  
1226:Generated_Source\PSoC4/StripLights.c ****     #if(StripLights_CHIP == StripLights_CHIP_SF2812RGBW)
1227:Generated_Source\PSoC4/StripLights.c ****         uint32 tc, fc;
1228:Generated_Source\PSoC4/StripLights.c ****         
1229:Generated_Source\PSoC4/StripLights.c ****         tc = toColor >> 8;
1230:Generated_Source\PSoC4/StripLights.c ****         fc = fromColor >> 8;
1231:Generated_Source\PSoC4/StripLights.c ****         newColor = ((((pct * (tc & 0x00FF0000)) + ((100-pct) * (fc & 0x00FF0000)))/100) & 0x00FF000
1232:Generated_Source\PSoC4/StripLights.c ****     #endif
1233:Generated_Source\PSoC4/StripLights.c ****     newColor |= (((pct * (toColor & 0x00FF0000)) + ((100-pct) * (fromColor & 0x00FF0000)))/100) & 0
 1857              		.loc 1 1233 0
 1858 000e FF25     		movs	r5, #255
ARM GAS  C:\Users\JAMESS~1\AppData\Local\Temp\ccd7YNc7.s 			page 57


 1859 0010 2D04     		lsls	r5, r5, #16
 1860 0012 0800     		movs	r0, r1
 1861              	.LVL214:
 1862 0014 2840     		ands	r0, r5
 1863 0016 5043     		muls	r0, r2
 1864 0018 6423     		movs	r3, #100
 1865 001a 9B1A     		subs	r3, r3, r2
 1866 001c 9846     		mov	r8, r3
 1867 001e 2300     		movs	r3, r4
 1868 0020 2B40     		ands	r3, r5
 1869 0022 4246     		mov	r2, r8
 1870              	.LVL215:
 1871 0024 5343     		muls	r3, r2
 1872 0026 C018     		adds	r0, r0, r3
 1873 0028 6421     		movs	r1, #100
 1874              	.LVL216:
 1875 002a FFF7FEFF 		bl	__aeabi_uidiv
 1876              	.LVL217:
 1877 002e 0540     		ands	r5, r0
 1878              	.LVL218:
1234:Generated_Source\PSoC4/StripLights.c ****     newColor |= (((pct * (toColor & 0x0000FF00)) + ((100-pct) * (fromColor & 0x0000FF00)))/100) & 0
 1879              		.loc 1 1234 0
 1880 0030 FF27     		movs	r7, #255
 1881 0032 3F02     		lsls	r7, r7, #8
 1882 0034 3000     		movs	r0, r6
 1883 0036 3840     		ands	r0, r7
 1884 0038 4B46     		mov	r3, r9
 1885 003a 5843     		muls	r0, r3
 1886 003c 2300     		movs	r3, r4
 1887 003e 3B40     		ands	r3, r7
 1888 0040 4246     		mov	r2, r8
 1889 0042 5343     		muls	r3, r2
 1890 0044 C018     		adds	r0, r0, r3
 1891 0046 6421     		movs	r1, #100
 1892 0048 FFF7FEFF 		bl	__aeabi_uidiv
 1893              	.LVL219:
 1894 004c 0740     		ands	r7, r0
 1895 004e 3D43     		orrs	r5, r7
 1896              	.LVL220:
1235:Generated_Source\PSoC4/StripLights.c ****     newColor |= (((pct * (toColor & 0x000000FF)) + ((100-pct) * (fromColor & 0x000000FF)))/100) & 0
 1897              		.loc 1 1235 0
 1898 0050 FF27     		movs	r7, #255
 1899 0052 3000     		movs	r0, r6
 1900 0054 3840     		ands	r0, r7
 1901 0056 4B46     		mov	r3, r9
 1902 0058 5843     		muls	r0, r3
 1903 005a 3C40     		ands	r4, r7
 1904              	.LVL221:
 1905 005c 4346     		mov	r3, r8
 1906 005e 5C43     		muls	r4, r3
 1907 0060 0019     		adds	r0, r0, r4
 1908 0062 6421     		movs	r1, #100
 1909 0064 FFF7FEFF 		bl	__aeabi_uidiv
 1910              	.LVL222:
 1911 0068 3840     		ands	r0, r7
 1912 006a 2843     		orrs	r0, r5
 1913              	.LVL223:
ARM GAS  C:\Users\JAMESS~1\AppData\Local\Temp\ccd7YNc7.s 			page 58


1236:Generated_Source\PSoC4/StripLights.c ****  
1237:Generated_Source\PSoC4/StripLights.c ****    return(newColor);
1238:Generated_Source\PSoC4/StripLights.c **** }
 1914              		.loc 1 1238 0
 1915              		@ sp needed
 1916              	.LVL224:
 1917              	.LVL225:
 1918 006c 0CBC     		pop	{r2, r3}
 1919 006e 9046     		mov	r8, r2
 1920 0070 9946     		mov	r9, r3
 1921 0072 F8BD     		pop	{r3, r4, r5, r6, r7, pc}
 1922              		.cfi_endproc
 1923              	.LFE54:
 1924              		.size	StripLights_RgbBlend, .-StripLights_RgbBlend
 1925              		.global	StripLights_CLUT
 1926              		.global	StripLights_gamma
 1927              		.comm	StripLights_DimShift,4,4
 1928              		.comm	StripLights_DimMask,4,4
 1929              		.comm	StripLights_refreshComplete,4,4
 1930              		.global	StripLights_row
 1931              		.global	StripLights_ledIndex
 1932              		.comm	StripLights_ledArray,300,4
 1933              		.global	StripLights_initvar
 1934              		.global	StripLights_ExitCritical
 1935              		.global	StripLights_EnterCritical
 1936              		.section	.rodata
 1937              		.align	2
 1938              		.set	.LANCHOR1,. + 0
 1939              		.set	.LANCHOR2,. + 256
 1940              		.type	StripLights_gamma, %object
 1941              		.size	StripLights_gamma, 256
 1942              	StripLights_gamma:
 1943 0000 00       		.byte	0
 1944 0001 00       		.byte	0
 1945 0002 00       		.byte	0
 1946 0003 00       		.byte	0
 1947 0004 00       		.byte	0
 1948 0005 00       		.byte	0
 1949 0006 00       		.byte	0
 1950 0007 00       		.byte	0
 1951 0008 00       		.byte	0
 1952 0009 00       		.byte	0
 1953 000a 00       		.byte	0
 1954 000b 00       		.byte	0
 1955 000c 00       		.byte	0
 1956 000d 00       		.byte	0
 1957 000e 00       		.byte	0
 1958 000f 00       		.byte	0
 1959 0010 00       		.byte	0
 1960 0011 00       		.byte	0
 1961 0012 00       		.byte	0
 1962 0013 00       		.byte	0
 1963 0014 00       		.byte	0
 1964 0015 00       		.byte	0
 1965 0016 00       		.byte	0
 1966 0017 00       		.byte	0
 1967 0018 00       		.byte	0
ARM GAS  C:\Users\JAMESS~1\AppData\Local\Temp\ccd7YNc7.s 			page 59


 1968 0019 00       		.byte	0
 1969 001a 00       		.byte	0
 1970 001b 00       		.byte	0
 1971 001c 01       		.byte	1
 1972 001d 01       		.byte	1
 1973 001e 01       		.byte	1
 1974 001f 01       		.byte	1
 1975 0020 01       		.byte	1
 1976 0021 01       		.byte	1
 1977 0022 01       		.byte	1
 1978 0023 01       		.byte	1
 1979 0024 01       		.byte	1
 1980 0025 01       		.byte	1
 1981 0026 01       		.byte	1
 1982 0027 01       		.byte	1
 1983 0028 01       		.byte	1
 1984 0029 02       		.byte	2
 1985 002a 02       		.byte	2
 1986 002b 02       		.byte	2
 1987 002c 02       		.byte	2
 1988 002d 02       		.byte	2
 1989 002e 02       		.byte	2
 1990 002f 02       		.byte	2
 1991 0030 02       		.byte	2
 1992 0031 03       		.byte	3
 1993 0032 03       		.byte	3
 1994 0033 03       		.byte	3
 1995 0034 03       		.byte	3
 1996 0035 03       		.byte	3
 1997 0036 03       		.byte	3
 1998 0037 03       		.byte	3
 1999 0038 04       		.byte	4
 2000 0039 04       		.byte	4
 2001 003a 04       		.byte	4
 2002 003b 04       		.byte	4
 2003 003c 04       		.byte	4
 2004 003d 05       		.byte	5
 2005 003e 05       		.byte	5
 2006 003f 05       		.byte	5
 2007 0040 05       		.byte	5
 2008 0041 06       		.byte	6
 2009 0042 06       		.byte	6
 2010 0043 06       		.byte	6
 2011 0044 06       		.byte	6
 2012 0045 07       		.byte	7
 2013 0046 07       		.byte	7
 2014 0047 07       		.byte	7
 2015 0048 07       		.byte	7
 2016 0049 08       		.byte	8
 2017 004a 08       		.byte	8
 2018 004b 08       		.byte	8
 2019 004c 09       		.byte	9
 2020 004d 09       		.byte	9
 2021 004e 09       		.byte	9
 2022 004f 0A       		.byte	10
 2023 0050 0A       		.byte	10
 2024 0051 0A       		.byte	10
ARM GAS  C:\Users\JAMESS~1\AppData\Local\Temp\ccd7YNc7.s 			page 60


 2025 0052 0B       		.byte	11
 2026 0053 0B       		.byte	11
 2027 0054 0B       		.byte	11
 2028 0055 0C       		.byte	12
 2029 0056 0C       		.byte	12
 2030 0057 0D       		.byte	13
 2031 0058 0D       		.byte	13
 2032 0059 0D       		.byte	13
 2033 005a 0E       		.byte	14
 2034 005b 0E       		.byte	14
 2035 005c 0F       		.byte	15
 2036 005d 0F       		.byte	15
 2037 005e 10       		.byte	16
 2038 005f 10       		.byte	16
 2039 0060 11       		.byte	17
 2040 0061 11       		.byte	17
 2041 0062 12       		.byte	18
 2042 0063 12       		.byte	18
 2043 0064 13       		.byte	19
 2044 0065 13       		.byte	19
 2045 0066 14       		.byte	20
 2046 0067 14       		.byte	20
 2047 0068 15       		.byte	21
 2048 0069 15       		.byte	21
 2049 006a 16       		.byte	22
 2050 006b 16       		.byte	22
 2051 006c 17       		.byte	23
 2052 006d 18       		.byte	24
 2053 006e 18       		.byte	24
 2054 006f 19       		.byte	25
 2055 0070 19       		.byte	25
 2056 0071 1A       		.byte	26
 2057 0072 1B       		.byte	27
 2058 0073 1B       		.byte	27
 2059 0074 1C       		.byte	28
 2060 0075 1D       		.byte	29
 2061 0076 1D       		.byte	29
 2062 0077 1E       		.byte	30
 2063 0078 1F       		.byte	31
 2064 0079 20       		.byte	32
 2065 007a 20       		.byte	32
 2066 007b 21       		.byte	33
 2067 007c 22       		.byte	34
 2068 007d 23       		.byte	35
 2069 007e 23       		.byte	35
 2070 007f 24       		.byte	36
 2071 0080 25       		.byte	37
 2072 0081 26       		.byte	38
 2073 0082 27       		.byte	39
 2074 0083 27       		.byte	39
 2075 0084 28       		.byte	40
 2076 0085 29       		.byte	41
 2077 0086 2A       		.byte	42
 2078 0087 2B       		.byte	43
 2079 0088 2C       		.byte	44
 2080 0089 2D       		.byte	45
 2081 008a 2E       		.byte	46
ARM GAS  C:\Users\JAMESS~1\AppData\Local\Temp\ccd7YNc7.s 			page 61


 2082 008b 2F       		.byte	47
 2083 008c 30       		.byte	48
 2084 008d 31       		.byte	49
 2085 008e 32       		.byte	50
 2086 008f 32       		.byte	50
 2087 0090 33       		.byte	51
 2088 0091 34       		.byte	52
 2089 0092 36       		.byte	54
 2090 0093 37       		.byte	55
 2091 0094 38       		.byte	56
 2092 0095 39       		.byte	57
 2093 0096 3A       		.byte	58
 2094 0097 3B       		.byte	59
 2095 0098 3C       		.byte	60
 2096 0099 3D       		.byte	61
 2097 009a 3E       		.byte	62
 2098 009b 3F       		.byte	63
 2099 009c 40       		.byte	64
 2100 009d 42       		.byte	66
 2101 009e 43       		.byte	67
 2102 009f 44       		.byte	68
 2103 00a0 45       		.byte	69
 2104 00a1 46       		.byte	70
 2105 00a2 48       		.byte	72
 2106 00a3 49       		.byte	73
 2107 00a4 4A       		.byte	74
 2108 00a5 4B       		.byte	75
 2109 00a6 4D       		.byte	77
 2110 00a7 4E       		.byte	78
 2111 00a8 4F       		.byte	79
 2112 00a9 51       		.byte	81
 2113 00aa 52       		.byte	82
 2114 00ab 53       		.byte	83
 2115 00ac 55       		.byte	85
 2116 00ad 56       		.byte	86
 2117 00ae 57       		.byte	87
 2118 00af 59       		.byte	89
 2119 00b0 5A       		.byte	90
 2120 00b1 5C       		.byte	92
 2121 00b2 5D       		.byte	93
 2122 00b3 5F       		.byte	95
 2123 00b4 60       		.byte	96
 2124 00b5 62       		.byte	98
 2125 00b6 63       		.byte	99
 2126 00b7 65       		.byte	101
 2127 00b8 66       		.byte	102
 2128 00b9 68       		.byte	104
 2129 00ba 69       		.byte	105
 2130 00bb 6B       		.byte	107
 2131 00bc 6D       		.byte	109
 2132 00bd 6E       		.byte	110
 2133 00be 70       		.byte	112
 2134 00bf 72       		.byte	114
 2135 00c0 73       		.byte	115
 2136 00c1 75       		.byte	117
 2137 00c2 77       		.byte	119
 2138 00c3 78       		.byte	120
ARM GAS  C:\Users\JAMESS~1\AppData\Local\Temp\ccd7YNc7.s 			page 62


 2139 00c4 7A       		.byte	122
 2140 00c5 7C       		.byte	124
 2141 00c6 7E       		.byte	126
 2142 00c7 7F       		.byte	127
 2143 00c8 81       		.byte	-127
 2144 00c9 83       		.byte	-125
 2145 00ca 85       		.byte	-123
 2146 00cb 87       		.byte	-121
 2147 00cc 89       		.byte	-119
 2148 00cd 8A       		.byte	-118
 2149 00ce 8C       		.byte	-116
 2150 00cf 8E       		.byte	-114
 2151 00d0 90       		.byte	-112
 2152 00d1 92       		.byte	-110
 2153 00d2 94       		.byte	-108
 2154 00d3 96       		.byte	-106
 2155 00d4 98       		.byte	-104
 2156 00d5 9A       		.byte	-102
 2157 00d6 9C       		.byte	-100
 2158 00d7 9E       		.byte	-98
 2159 00d8 A0       		.byte	-96
 2160 00d9 A2       		.byte	-94
 2161 00da A4       		.byte	-92
 2162 00db A7       		.byte	-89
 2163 00dc A9       		.byte	-87
 2164 00dd AB       		.byte	-85
 2165 00de AD       		.byte	-83
 2166 00df AF       		.byte	-81
 2167 00e0 B1       		.byte	-79
 2168 00e1 B4       		.byte	-76
 2169 00e2 B6       		.byte	-74
 2170 00e3 B8       		.byte	-72
 2171 00e4 BA       		.byte	-70
 2172 00e5 BD       		.byte	-67
 2173 00e6 BF       		.byte	-65
 2174 00e7 C1       		.byte	-63
 2175 00e8 C4       		.byte	-60
 2176 00e9 C6       		.byte	-58
 2177 00ea C8       		.byte	-56
 2178 00eb CB       		.byte	-53
 2179 00ec CD       		.byte	-51
 2180 00ed D0       		.byte	-48
 2181 00ee D2       		.byte	-46
 2182 00ef D5       		.byte	-43
 2183 00f0 D7       		.byte	-41
 2184 00f1 DA       		.byte	-38
 2185 00f2 DC       		.byte	-36
 2186 00f3 DF       		.byte	-33
 2187 00f4 E1       		.byte	-31
 2188 00f5 E4       		.byte	-28
 2189 00f6 E7       		.byte	-25
 2190 00f7 E9       		.byte	-23
 2191 00f8 EC       		.byte	-20
 2192 00f9 EF       		.byte	-17
 2193 00fa F1       		.byte	-15
 2194 00fb F4       		.byte	-12
 2195 00fc F7       		.byte	-9
ARM GAS  C:\Users\JAMESS~1\AppData\Local\Temp\ccd7YNc7.s 			page 63


 2196 00fd F9       		.byte	-7
 2197 00fe FC       		.byte	-4
 2198 00ff FF       		.byte	-1
 2199              		.type	StripLights_CLUT, %object
 2200              		.size	StripLights_CLUT, 480
 2201              	StripLights_CLUT:
 2202 0100 FFFF0000 		.word	65535
 2203 0104 FFCC0000 		.word	52479
 2204 0108 FF990000 		.word	39423
 2205 010c FF330000 		.word	13311
 2206 0110 FF000000 		.word	255
 2207 0114 B3006600 		.word	6684851
 2208 0118 99009900 		.word	10027161
 2209 011c 6600B300 		.word	11731046
 2210 0120 3300CC00 		.word	13369395
 2211 0124 1919B300 		.word	11737369
 2212 0128 00339900 		.word	10040064
 2213 012c 00409900 		.word	10043392
 2214 0130 00669900 		.word	10053120
 2215 0134 00999900 		.word	10066176
 2216 0138 00CC9900 		.word	10079232
 2217 013c 00E66600 		.word	6743552
 2218 0140 00FF0000 		.word	65280
 2219 0144 33FF0000 		.word	65331
 2220 0148 66FF0000 		.word	65382
 2221 014c 80FF0000 		.word	65408
 2222 0150 99FF0000 		.word	65433
 2223 0154 B2FF0000 		.word	65458
 2224 0158 CCFF0000 		.word	65484
 2225 015c E5FF0000 		.word	65509
 2226 0160 00000000 		.word	0
 2227 0164 00005500 		.word	5570560
 2228 0168 0000AA00 		.word	11141120
 2229 016c 0000FF00 		.word	16711680
 2230 0170 55000000 		.word	85
 2231 0174 55005500 		.word	5570645
 2232 0178 5500AA00 		.word	11141205
 2233 017c 5500FF00 		.word	16711765
 2234 0180 AA000000 		.word	170
 2235 0184 AA005500 		.word	5570730
 2236 0188 AA00AA00 		.word	11141290
 2237 018c AA00FF00 		.word	16711850
 2238 0190 FF000000 		.word	255
 2239 0194 FF005500 		.word	5570815
 2240 0198 FF00AA00 		.word	11141375
 2241 019c FF00FF00 		.word	16711935
 2242 01a0 00550000 		.word	21760
 2243 01a4 00555500 		.word	5592320
 2244 01a8 0055AA00 		.word	11162880
 2245 01ac 0055FF00 		.word	16733440
 2246 01b0 55550000 		.word	21845
 2247 01b4 55555500 		.word	5592405
 2248 01b8 5555AA00 		.word	11162965
 2249 01bc 5555FF00 		.word	16733525
 2250 01c0 AA550000 		.word	21930
 2251 01c4 AA555500 		.word	5592490
 2252 01c8 AA55AA00 		.word	11163050
ARM GAS  C:\Users\JAMESS~1\AppData\Local\Temp\ccd7YNc7.s 			page 64


 2253 01cc AA55FF00 		.word	16733610
 2254 01d0 FF550000 		.word	22015
 2255 01d4 FF555500 		.word	5592575
 2256 01d8 FF55AA00 		.word	11163135
 2257 01dc FF55FF00 		.word	16733695
 2258 01e0 00AA0000 		.word	43520
 2259 01e4 00AA5500 		.word	5614080
 2260 01e8 00AAAA00 		.word	11184640
 2261 01ec 00AAFF00 		.word	16755200
 2262 01f0 55AA0000 		.word	43605
 2263 01f4 55AA5500 		.word	5614165
 2264 01f8 55AAAA00 		.word	11184725
 2265 01fc 55AAFF00 		.word	16755285
 2266 0200 AAAA0000 		.word	43690
 2267 0204 AAAA5500 		.word	5614250
 2268 0208 AAAAAA00 		.word	11184810
 2269 020c AAAAFF00 		.word	16755370
 2270 0210 FFAA0000 		.word	43775
 2271 0214 FFAA5500 		.word	5614335
 2272 0218 FFAAAA00 		.word	11184895
 2273 021c FFAAFF00 		.word	16755455
 2274 0220 00FF0000 		.word	65280
 2275 0224 00FF5500 		.word	5635840
 2276 0228 00FFAA00 		.word	11206400
 2277 022c 00FFFF00 		.word	16776960
 2278 0230 55FF0000 		.word	65365
 2279 0234 55FF5500 		.word	5635925
 2280 0238 55FFAA00 		.word	11206485
 2281 023c 55FFFF00 		.word	16777045
 2282 0240 AAFF0000 		.word	65450
 2283 0244 AAFF5500 		.word	5636010
 2284 0248 AAFFAA00 		.word	11206570
 2285 024c AAFFFF00 		.word	16777130
 2286 0250 FFFF0000 		.word	65535
 2287 0254 FFFF5500 		.word	5636095
 2288 0258 FFFFAA00 		.word	11206655
 2289 025c FFFFFF00 		.word	16777215
 2290 0260 FF800000 		.word	33023
 2291 0264 FF008000 		.word	8388863
 2292 0268 FF00FF00 		.word	16711935
 2293 026c 8000FF00 		.word	16711808
 2294 0270 0080FF00 		.word	16744448
 2295 0274 00FF8000 		.word	8453888
 2296 0278 FF000000 		.word	255
 2297 027c 20202000 		.word	2105376
 2298 0280 00002000 		.word	2097152
 2299 0284 00000010 		.word	268435456
 2300 0288 00FF0000 		.word	65280
 2301 028c 30FF0000 		.word	65328
 2302 0290 FFFFFFFF 		.word	-1
 2303 0294 000000FF 		.word	-16777216
 2304 0298 808080FF 		.word	-8355712
 2305 029c 404040FF 		.word	-12566464
 2306 02a0 0000FF00 		.word	16711680
 2307 02a4 0010F000 		.word	15732736
 2308 02a8 0020E000 		.word	14688256
 2309 02ac 0030D000 		.word	13643776
ARM GAS  C:\Users\JAMESS~1\AppData\Local\Temp\ccd7YNc7.s 			page 65


 2310 02b0 0040C000 		.word	12599296
 2311 02b4 0050B000 		.word	11554816
 2312 02b8 0060A000 		.word	10510336
 2313 02bc 00709000 		.word	9465856
 2314 02c0 00808000 		.word	8421376
 2315 02c4 00907000 		.word	7376896
 2316 02c8 00A06000 		.word	6332416
 2317 02cc 00B05000 		.word	5287936
 2318 02d0 00C04000 		.word	4243456
 2319 02d4 00D03000 		.word	3198976
 2320 02d8 00E02000 		.word	2154496
 2321 02dc 00FF0000 		.word	65280
 2322              		.bss
 2323              		.align	2
 2324              		.set	.LANCHOR0,. + 0
 2325              		.type	StripLights_row, %object
 2326              		.size	StripLights_row, 4
 2327              	StripLights_row:
 2328 0000 00000000 		.space	4
 2329              		.type	StripLights_ledIndex, %object
 2330              		.size	StripLights_ledIndex, 4
 2331              	StripLights_ledIndex:
 2332 0004 00000000 		.space	4
 2333              		.type	color.5824, %object
 2334              		.size	color.5824, 4
 2335              	color.5824:
 2336 0008 00000000 		.space	4
 2337              		.type	color.5832, %object
 2338              		.size	color.5832, 4
 2339              	color.5832:
 2340 000c 00000000 		.space	4
 2341              		.type	StripLights_EnterCritical, %object
 2342              		.size	StripLights_EnterCritical, 4
 2343              	StripLights_EnterCritical:
 2344 0010 00000000 		.space	4
 2345              		.type	StripLights_ExitCritical, %object
 2346              		.size	StripLights_ExitCritical, 4
 2347              	StripLights_ExitCritical:
 2348 0014 00000000 		.space	4
 2349              		.type	colorIndex.5817, %object
 2350              		.size	colorIndex.5817, 4
 2351              	colorIndex.5817:
 2352 0018 00000000 		.space	4
 2353              		.type	StripLights_initvar, %object
 2354              		.size	StripLights_initvar, 1
 2355              	StripLights_initvar:
 2356 001c 00       		.space	1
 2357              		.text
 2358              	.Letext0:
 2359              		.file 2 "Generated_Source\\PSoC4/cytypes.h"
 2360              		.file 3 "Generated_Source\\PSoC4/StripLights.h"
 2361              		.file 4 "Generated_Source\\PSoC4/CyLib.h"
 2362              		.file 5 "Generated_Source\\PSoC4\\StripLights_fonts.h"
 2363              		.file 6 "Generated_Source\\PSoC4/StripLights_cisr.h"
 2364              		.file 7 "Generated_Source\\PSoC4/StripLights_fisr.h"