ARM GAS  C:\Users\JAMESS~1\AppData\Local\Temp\ccsKCujc.s 			page 1


   1              		.syntax unified
   2              		.cpu cortex-m0
   3              		.fpu softvfp
   4              		.eabi_attribute 20, 1
   5              		.eabi_attribute 21, 1
   6              		.eabi_attribute 23, 3
   7              		.eabi_attribute 24, 1
   8              		.eabi_attribute 25, 1
   9              		.eabi_attribute 26, 1
  10              		.eabi_attribute 30, 1
  11              		.eabi_attribute 34, 0
  12              		.eabi_attribute 18, 4
  13              		.thumb
  14              		.syntax unified
  15              		.file	"whackamole.c"
  16              		.text
  17              	.Ltext0:
  18              		.cfi_sections	.debug_frame
  19              		.section	.text.SetTileColor,"ax",%progbits
  20              		.align	2
  21              		.global	SetTileColor
  22              		.code	16
  23              		.thumb_func
  24              		.type	SetTileColor, %function
  25              	SetTileColor:
  26              	.LFB34:
  27              		.file 1 "whackamole.c"
   1:whackamole.c  **** /* ========================================
   2:whackamole.c  **** Code for Whackamole game
   3:whackamole.c  ****  * ========================================
   4:whackamole.c  **** */
   5:whackamole.c  **** 
   6:whackamole.c  **** #include "whackamole.h"
   7:whackamole.c  **** 
   8:whackamole.c  **** /**
   9:whackamole.c  **** Play a testing game of whackamole on 2x2 block
  10:whackamole.c  **** 
  11:whackamole.c  **** */
  12:whackamole.c  **** void Whackamole(){
  13:whackamole.c  ****     srand(time(NULL)); // seed the randomness with time
  14:whackamole.c  ****     int random;
  15:whackamole.c  ****     ResetBlock();
  16:whackamole.c  ****     
  17:whackamole.c  ****     
  18:whackamole.c  ****     for(;;){
  19:whackamole.c  ****         flex0 = flex0_Read();
  20:whackamole.c  ****         flex1 = flex1_Read();
  21:whackamole.c  ****         flex2 = flex2_Read();
  22:whackamole.c  ****         flex3 = flex3_Read();
  23:whackamole.c  ****         random = rand() % 4;
  24:whackamole.c  ****         
  25:whackamole.c  ****         
  26:whackamole.c  ****         
  27:whackamole.c  ****     }
  28:whackamole.c  **** }
  29:whackamole.c  **** 
  30:whackamole.c  **** 
ARM GAS  C:\Users\JAMESS~1\AppData\Local\Temp\ccsKCujc.s 			page 2


  31:whackamole.c  **** 
  32:whackamole.c  **** /**
  33:whackamole.c  **** Runs the LED pattern where light moves along the line
  34:whackamole.c  **** And then goes back, changes colors every time it gets to an edge
  35:whackamole.c  **** */
  36:whackamole.c  **** void RunPattern(){
  37:whackamole.c  ****     //start the pattern at red
  38:whackamole.c  ****     uint32 current_color = StripLights_RED;
  39:whackamole.c  ****     for(;;){
  40:whackamole.c  ****         //going forward
  41:whackamole.c  ****         for(int i = 0; i < 15; i++){
  42:whackamole.c  ****             //reset the colors for both strips
  43:whackamole.c  ****         	SetTileColor(0, 0);
  44:whackamole.c  ****         	SetTileColor(1, 0);
  45:whackamole.c  ****             CyDelay(10);
  46:whackamole.c  ****         	StripLights_Pixel(i, 0, current_color);
  47:whackamole.c  ****         	StripLights_Pixel(i, 1, current_color);
  48:whackamole.c  ****         	while (StripLights_Ready() == 0);
  49:whackamole.c  ****         	StripLights_Trigger(1);
  50:whackamole.c  ****         }
  51:whackamole.c  ****         current_color = IncrementColor(current_color);
  52:whackamole.c  ****         //coming back
  53:whackamole.c  ****         for(int i = 13; i >= 1; i--){
  54:whackamole.c  ****             SetTileColor(0, 0);
  55:whackamole.c  ****         	SetTileColor(1, 0);
  56:whackamole.c  ****             CyDelay(10);
  57:whackamole.c  ****         	StripLights_Pixel(i, 0, current_color);
  58:whackamole.c  ****         	StripLights_Pixel(i, 1, current_color);
  59:whackamole.c  ****         	while (StripLights_Ready() == 0);
  60:whackamole.c  ****         	StripLights_Trigger(1);
  61:whackamole.c  ****         }
  62:whackamole.c  ****         current_color = IncrementColor(current_color);
  63:whackamole.c  ****     }
  64:whackamole.c  **** }
  65:whackamole.c  **** 
  66:whackamole.c  **** /**
  67:whackamole.c  **** This function will set the lights inside the block number to be a certain color.
  68:whackamole.c  **** Changes are assumemd to be the first 60 LEDs, 
  69:whackamole.c  **** The block number is set to be the "y" coordinate in the top down design
  70:whackamole.c  **** Remember to put a CyDelay after setting colors
  71:whackamole.c  **** */
  72:whackamole.c  **** void SetTileColor(int tile_number, uint32 color) {
  28              		.loc 1 72 0
  29              		.cfi_startproc
  30              		@ args = 0, pretend = 0, frame = 0
  31              		@ frame_needed = 0, uses_anonymous_args = 0
  32              	.LVL0:
  33 0000 70B5     		push	{r4, r5, r6, lr}
  34              		.cfi_def_cfa_offset 16
  35              		.cfi_offset 4, -16
  36              		.cfi_offset 5, -12
  37              		.cfi_offset 6, -8
  38              		.cfi_offset 14, -4
  39 0002 0600     		movs	r6, r0
  40 0004 0D00     		movs	r5, r1
  41              	.LVL1:
  42              	.LBB2:
ARM GAS  C:\Users\JAMESS~1\AppData\Local\Temp\ccsKCujc.s 			page 3


  73:whackamole.c  **** 	for (uint32 led = 0; led < LEDS_PER_TILE; led++) {
  43              		.loc 1 73 0
  44 0006 0024     		movs	r4, #0
  45 0008 0CE0     		b	.L2
  46              	.LVL2:
  47              	.L4:
  74:whackamole.c  **** 		StripLights_Pixel(led, tile_number, color);
  48              		.loc 1 74 0
  49 000a 2A00     		movs	r2, r5
  50 000c 3100     		movs	r1, r6
  51 000e 2000     		movs	r0, r4
  52 0010 FFF7FEFF 		bl	StripLights_Pixel
  53              	.LVL3:
  54              	.L3:
  75:whackamole.c  ****         while (StripLights_Ready() == 0);
  55              		.loc 1 75 0 discriminator 1
  56 0014 FFF7FEFF 		bl	StripLights_Ready
  57              	.LVL4:
  58 0018 0028     		cmp	r0, #0
  59 001a FBD0     		beq	.L3
  76:whackamole.c  **** 	    StripLights_Trigger(1);
  60              		.loc 1 76 0 discriminator 2
  61 001c 0120     		movs	r0, #1
  62 001e FFF7FEFF 		bl	StripLights_Trigger
  63              	.LVL5:
  73:whackamole.c  **** 		StripLights_Pixel(led, tile_number, color);
  64              		.loc 1 73 0 discriminator 2
  65 0022 0134     		adds	r4, r4, #1
  66              	.LVL6:
  67              	.L2:
  73:whackamole.c  **** 		StripLights_Pixel(led, tile_number, color);
  68              		.loc 1 73 0 is_stmt 0 discriminator 1
  69 0024 3B2C     		cmp	r4, #59
  70 0026 F0D9     		bls	.L4
  71              	.LBE2:
  77:whackamole.c  **** 	}
  78:whackamole.c  **** 	CyDelay(10);
  72              		.loc 1 78 0 is_stmt 1
  73 0028 0A20     		movs	r0, #10
  74 002a FFF7FEFF 		bl	CyDelay
  75              	.LVL7:
  79:whackamole.c  **** }
  76              		.loc 1 79 0
  77              		@ sp needed
  78              	.LVL8:
  79              	.LVL9:
  80              	.LVL10:
  81 002e 70BD     		pop	{r4, r5, r6, pc}
  82              		.cfi_endproc
  83              	.LFE34:
  84              		.size	SetTileColor, .-SetTileColor
  85              		.section	.text.IncrementColor,"ax",%progbits
  86              		.align	2
  87              		.global	IncrementColor
  88              		.code	16
  89              		.thumb_func
  90              		.type	IncrementColor, %function
ARM GAS  C:\Users\JAMESS~1\AppData\Local\Temp\ccsKCujc.s 			page 4


  91              	IncrementColor:
  92              	.LFB35:
  80:whackamole.c  **** 
  81:whackamole.c  **** /**
  82:whackamole.c  **** This function will "increment" the color such that it goes through the rainbow
  83:whackamole.c  **** Then it will return the color as a uint32
  84:whackamole.c  **** */
  85:whackamole.c  **** uint32 IncrementColor(uint32 color){
  93              		.loc 1 85 0
  94              		.cfi_startproc
  95              		@ args = 0, pretend = 0, frame = 8
  96              		@ frame_needed = 0, uses_anonymous_args = 0
  97              	.LVL11:
  98 0000 F0B5     		push	{r4, r5, r6, r7, lr}
  99              		.cfi_def_cfa_offset 20
 100              		.cfi_offset 4, -20
 101              		.cfi_offset 5, -16
 102              		.cfi_offset 6, -12
 103              		.cfi_offset 7, -8
 104              		.cfi_offset 14, -4
 105 0002 83B0     		sub	sp, sp, #12
 106              		.cfi_def_cfa_offset 32
 107 0004 0600     		movs	r6, r0
  86:whackamole.c  ****     //the colors of the rainbow
  87:whackamole.c  **** 	uint32 color1 = StripLights_RED;
 108              		.loc 1 87 0
 109 0006 4820     		movs	r0, #72
 110              	.LVL12:
 111 0008 FFF7FEFF 		bl	StripLights_getColor
 112              	.LVL13:
 113 000c 0700     		movs	r7, r0
 114              	.LVL14:
  88:whackamole.c  **** 	uint32 color2 = StripLights_ORANGE;
 115              		.loc 1 88 0
 116 000e 1420     		movs	r0, #20
 117              	.LVL15:
 118 0010 FFF7FEFF 		bl	StripLights_getColor
 119              	.LVL16:
 120 0014 0400     		movs	r4, r0
 121              	.LVL17:
  89:whackamole.c  ****     uint32 color3 = StripLights_YELLOW;
 122              		.loc 1 89 0
 123 0016 0120     		movs	r0, #1
 124              	.LVL18:
 125 0018 FFF7FEFF 		bl	StripLights_getColor
 126              	.LVL19:
 127 001c 0500     		movs	r5, r0
 128              	.LVL20:
  90:whackamole.c  ****     uint32 color4 = StripLights_GREEN;
 129              		.loc 1 90 0
 130 001e 5E20     		movs	r0, #94
 131              	.LVL21:
 132 0020 FFF7FEFF 		bl	StripLights_getColor
 133              	.LVL22:
 134 0024 0090     		str	r0, [sp]
 135              	.LVL23:
  91:whackamole.c  ****     uint32 color5 = StripLights_BLUE;
ARM GAS  C:\Users\JAMESS~1\AppData\Local\Temp\ccsKCujc.s 			page 5


 136              		.loc 1 91 0
 137 0026 1B20     		movs	r0, #27
 138              	.LVL24:
 139 0028 FFF7FEFF 		bl	StripLights_getColor
 140              	.LVL25:
 141 002c 0190     		str	r0, [sp, #4]
 142              	.LVL26:
  92:whackamole.c  ****     uint32 color6 = StripLights_VIOLET;
 143              		.loc 1 92 0
 144 002e 5C20     		movs	r0, #92
 145              	.LVL27:
 146 0030 FFF7FEFF 		bl	StripLights_getColor
 147              	.LVL28:
  93:whackamole.c  ****     
  94:whackamole.c  ****     if(color == color1)return color2;
 148              		.loc 1 94 0
 149 0034 B742     		cmp	r7, r6
 150 0036 0AD0     		beq	.L7
  95:whackamole.c  ****     else if(color == color2)return color3;
 151              		.loc 1 95 0
 152 0038 B442     		cmp	r4, r6
 153 003a 0AD0     		beq	.L8
  96:whackamole.c  ****     else if(color == color3)return color4;
 154              		.loc 1 96 0
 155 003c B542     		cmp	r5, r6
 156 003e 0AD0     		beq	.L9
  97:whackamole.c  ****     else if(color == color4)return color5;
 157              		.loc 1 97 0
 158 0040 009B     		ldr	r3, [sp]
 159 0042 B342     		cmp	r3, r6
 160 0044 09D0     		beq	.L10
  98:whackamole.c  ****     else if(color == color5)return color6;
 161              		.loc 1 98 0
 162 0046 019B     		ldr	r3, [sp, #4]
 163 0048 B342     		cmp	r3, r6
 164 004a 08D1     		bne	.L11
 165 004c 08E0     		b	.L6
 166              	.L7:
  94:whackamole.c  ****     else if(color == color2)return color3;
 167              		.loc 1 94 0
 168 004e 2000     		movs	r0, r4
 169              	.LVL29:
 170 0050 06E0     		b	.L6
 171              	.LVL30:
 172              	.L8:
  95:whackamole.c  ****     else if(color == color3)return color4;
 173              		.loc 1 95 0
 174 0052 2800     		movs	r0, r5
 175              	.LVL31:
 176 0054 04E0     		b	.L6
 177              	.LVL32:
 178              	.L9:
  96:whackamole.c  ****     else if(color == color4)return color5;
 179              		.loc 1 96 0
 180 0056 0098     		ldr	r0, [sp]
 181              	.LVL33:
 182 0058 02E0     		b	.L6
ARM GAS  C:\Users\JAMESS~1\AppData\Local\Temp\ccsKCujc.s 			page 6


 183              	.LVL34:
 184              	.L10:
  97:whackamole.c  ****     else if(color == color5)return color6;
 185              		.loc 1 97 0
 186 005a 0198     		ldr	r0, [sp, #4]
 187              	.LVL35:
 188 005c 00E0     		b	.L6
 189              	.LVL36:
 190              	.L11:
  99:whackamole.c  ****     else return color1;
 191              		.loc 1 99 0
 192 005e 3800     		movs	r0, r7
 193              	.LVL37:
 194              	.L6:
 100:whackamole.c  **** }
 195              		.loc 1 100 0
 196 0060 03B0     		add	sp, sp, #12
 197              	.LVL38:
 198              		@ sp needed
 199              	.LVL39:
 200              	.LVL40:
 201              	.LVL41:
 202              	.LVL42:
 203 0062 F0BD     		pop	{r4, r5, r6, r7, pc}
 204              		.cfi_endproc
 205              	.LFE35:
 206              		.size	IncrementColor, .-IncrementColor
 207              		.section	.text.RunPattern,"ax",%progbits
 208              		.align	2
 209              		.global	RunPattern
 210              		.code	16
 211              		.thumb_func
 212              		.type	RunPattern, %function
 213              	RunPattern:
 214              	.LFB33:
  36:whackamole.c  ****     //start the pattern at red
 215              		.loc 1 36 0
 216              		.cfi_startproc
 217              		@ args = 0, pretend = 0, frame = 0
 218              		@ frame_needed = 0, uses_anonymous_args = 0
 219 0000 70B5     		push	{r4, r5, r6, lr}
 220              		.cfi_def_cfa_offset 16
 221              		.cfi_offset 4, -16
 222              		.cfi_offset 5, -12
 223              		.cfi_offset 6, -8
 224              		.cfi_offset 14, -4
  38:whackamole.c  ****     for(;;){
 225              		.loc 1 38 0
 226 0002 4820     		movs	r0, #72
 227 0004 FFF7FEFF 		bl	StripLights_getColor
 228              	.LVL43:
 229 0008 0500     		movs	r5, r0
 230              	.LVL44:
 231              	.L19:
 232              	.LBB3:
  41:whackamole.c  ****             //reset the colors for both strips
 233              		.loc 1 41 0
ARM GAS  C:\Users\JAMESS~1\AppData\Local\Temp\ccsKCujc.s 			page 7


 234 000a 0024     		movs	r4, #0
 235 000c 1CE0     		b	.L13
 236              	.LVL45:
 237              	.L15:
  43:whackamole.c  ****         	SetTileColor(1, 0);
 238              		.loc 1 43 0
 239 000e 0021     		movs	r1, #0
 240 0010 0020     		movs	r0, #0
 241 0012 FFF7FEFF 		bl	SetTileColor
 242              	.LVL46:
  44:whackamole.c  ****             CyDelay(10);
 243              		.loc 1 44 0
 244 0016 0021     		movs	r1, #0
 245 0018 0120     		movs	r0, #1
 246 001a FFF7FEFF 		bl	SetTileColor
 247              	.LVL47:
  45:whackamole.c  ****         	StripLights_Pixel(i, 0, current_color);
 248              		.loc 1 45 0
 249 001e 0A20     		movs	r0, #10
 250 0020 FFF7FEFF 		bl	CyDelay
 251              	.LVL48:
  46:whackamole.c  ****         	StripLights_Pixel(i, 1, current_color);
 252              		.loc 1 46 0
 253 0024 2A00     		movs	r2, r5
 254 0026 0021     		movs	r1, #0
 255 0028 2000     		movs	r0, r4
 256 002a FFF7FEFF 		bl	StripLights_Pixel
 257              	.LVL49:
  47:whackamole.c  ****         	while (StripLights_Ready() == 0);
 258              		.loc 1 47 0
 259 002e 2A00     		movs	r2, r5
 260 0030 0121     		movs	r1, #1
 261 0032 2000     		movs	r0, r4
 262 0034 FFF7FEFF 		bl	StripLights_Pixel
 263              	.LVL50:
 264              	.L14:
  48:whackamole.c  ****         	StripLights_Trigger(1);
 265              		.loc 1 48 0 discriminator 1
 266 0038 FFF7FEFF 		bl	StripLights_Ready
 267              	.LVL51:
 268 003c 0028     		cmp	r0, #0
 269 003e FBD0     		beq	.L14
  49:whackamole.c  ****         }
 270              		.loc 1 49 0 discriminator 2
 271 0040 0120     		movs	r0, #1
 272 0042 FFF7FEFF 		bl	StripLights_Trigger
 273              	.LVL52:
  41:whackamole.c  ****             //reset the colors for both strips
 274              		.loc 1 41 0 discriminator 2
 275 0046 0134     		adds	r4, r4, #1
 276              	.LVL53:
 277              	.L13:
  41:whackamole.c  ****             //reset the colors for both strips
 278              		.loc 1 41 0 is_stmt 0 discriminator 1
 279 0048 0E2C     		cmp	r4, #14
 280 004a E0DD     		ble	.L15
 281              	.LBE3:
ARM GAS  C:\Users\JAMESS~1\AppData\Local\Temp\ccsKCujc.s 			page 8


  51:whackamole.c  ****         //coming back
 282              		.loc 1 51 0 is_stmt 1
 283 004c 2800     		movs	r0, r5
 284 004e FFF7FEFF 		bl	IncrementColor
 285              	.LVL54:
 286 0052 0500     		movs	r5, r0
 287              	.LVL55:
 288              	.LBB4:
  53:whackamole.c  ****             SetTileColor(0, 0);
 289              		.loc 1 53 0
 290 0054 0D24     		movs	r4, #13
 291              	.LVL56:
 292 0056 1CE0     		b	.L16
 293              	.LVL57:
 294              	.L18:
  54:whackamole.c  ****         	SetTileColor(1, 0);
 295              		.loc 1 54 0
 296 0058 0021     		movs	r1, #0
 297 005a 0020     		movs	r0, #0
 298 005c FFF7FEFF 		bl	SetTileColor
 299              	.LVL58:
  55:whackamole.c  ****             CyDelay(10);
 300              		.loc 1 55 0
 301 0060 0021     		movs	r1, #0
 302 0062 0120     		movs	r0, #1
 303 0064 FFF7FEFF 		bl	SetTileColor
 304              	.LVL59:
  56:whackamole.c  ****         	StripLights_Pixel(i, 0, current_color);
 305              		.loc 1 56 0
 306 0068 0A20     		movs	r0, #10
 307 006a FFF7FEFF 		bl	CyDelay
 308              	.LVL60:
  57:whackamole.c  ****         	StripLights_Pixel(i, 1, current_color);
 309              		.loc 1 57 0
 310 006e 2A00     		movs	r2, r5
 311 0070 0021     		movs	r1, #0
 312 0072 2000     		movs	r0, r4
 313 0074 FFF7FEFF 		bl	StripLights_Pixel
 314              	.LVL61:
  58:whackamole.c  ****         	while (StripLights_Ready() == 0);
 315              		.loc 1 58 0
 316 0078 2A00     		movs	r2, r5
 317 007a 0121     		movs	r1, #1
 318 007c 2000     		movs	r0, r4
 319 007e FFF7FEFF 		bl	StripLights_Pixel
 320              	.LVL62:
 321              	.L17:
  59:whackamole.c  ****         	StripLights_Trigger(1);
 322              		.loc 1 59 0 discriminator 1
 323 0082 FFF7FEFF 		bl	StripLights_Ready
 324              	.LVL63:
 325 0086 0028     		cmp	r0, #0
 326 0088 FBD0     		beq	.L17
  60:whackamole.c  ****         }
 327              		.loc 1 60 0 discriminator 2
 328 008a 0120     		movs	r0, #1
 329 008c FFF7FEFF 		bl	StripLights_Trigger
ARM GAS  C:\Users\JAMESS~1\AppData\Local\Temp\ccsKCujc.s 			page 9


 330              	.LVL64:
  53:whackamole.c  ****             SetTileColor(0, 0);
 331              		.loc 1 53 0 discriminator 2
 332 0090 013C     		subs	r4, r4, #1
 333              	.LVL65:
 334              	.L16:
  53:whackamole.c  ****             SetTileColor(0, 0);
 335              		.loc 1 53 0 is_stmt 0 discriminator 1
 336 0092 002C     		cmp	r4, #0
 337 0094 E0DC     		bgt	.L18
 338              	.LBE4:
  62:whackamole.c  ****     }
 339              		.loc 1 62 0 is_stmt 1
 340 0096 2800     		movs	r0, r5
 341 0098 FFF7FEFF 		bl	IncrementColor
 342              	.LVL66:
 343 009c 0500     		movs	r5, r0
 344              	.LVL67:
  63:whackamole.c  **** }
 345              		.loc 1 63 0
 346 009e B4E7     		b	.L19
 347              		.cfi_endproc
 348              	.LFE33:
 349              		.size	RunPattern, .-RunPattern
 350              		.section	.text.ResetBlock,"ax",%progbits
 351              		.align	2
 352              		.global	ResetBlock
 353              		.code	16
 354              		.thumb_func
 355              		.type	ResetBlock, %function
 356              	ResetBlock:
 357              	.LFB36:
 101:whackamole.c  **** 
 102:whackamole.c  **** //Resets all the tile colors to blank
 103:whackamole.c  **** void ResetBlock(){
 358              		.loc 1 103 0
 359              		.cfi_startproc
 360              		@ args = 0, pretend = 0, frame = 0
 361              		@ frame_needed = 0, uses_anonymous_args = 0
 362 0000 10B5     		push	{r4, lr}
 363              		.cfi_def_cfa_offset 8
 364              		.cfi_offset 4, -8
 365              		.cfi_offset 14, -4
 104:whackamole.c  ****     SetTileColor(0, 0);
 366              		.loc 1 104 0
 367 0002 0021     		movs	r1, #0
 368 0004 0020     		movs	r0, #0
 369 0006 FFF7FEFF 		bl	SetTileColor
 370              	.LVL68:
 105:whackamole.c  ****     SetTileColor(1, 0);
 371              		.loc 1 105 0
 372 000a 0021     		movs	r1, #0
 373 000c 0120     		movs	r0, #1
 374 000e FFF7FEFF 		bl	SetTileColor
 375              	.LVL69:
 106:whackamole.c  ****     SetTileColor(2, 0);
 376              		.loc 1 106 0
ARM GAS  C:\Users\JAMESS~1\AppData\Local\Temp\ccsKCujc.s 			page 10


 377 0012 0021     		movs	r1, #0
 378 0014 0220     		movs	r0, #2
 379 0016 FFF7FEFF 		bl	SetTileColor
 380              	.LVL70:
 107:whackamole.c  ****     SetTileColor(3, 0);
 381              		.loc 1 107 0
 382 001a 0021     		movs	r1, #0
 383 001c 0320     		movs	r0, #3
 384 001e FFF7FEFF 		bl	SetTileColor
 385              	.LVL71:
 108:whackamole.c  **** }
 386              		.loc 1 108 0
 387              		@ sp needed
 388 0022 10BD     		pop	{r4, pc}
 389              		.cfi_endproc
 390              	.LFE36:
 391              		.size	ResetBlock, .-ResetBlock
 392              		.section	.text.Whackamole,"ax",%progbits
 393              		.align	2
 394              		.global	Whackamole
 395              		.code	16
 396              		.thumb_func
 397              		.type	Whackamole, %function
 398              	Whackamole:
 399              	.LFB32:
  12:whackamole.c  ****     srand(time(NULL)); // seed the randomness with time
 400              		.loc 1 12 0
 401              		.cfi_startproc
 402              		@ args = 0, pretend = 0, frame = 0
 403              		@ frame_needed = 0, uses_anonymous_args = 0
 404 0000 10B5     		push	{r4, lr}
 405              		.cfi_def_cfa_offset 8
 406              		.cfi_offset 4, -8
 407              		.cfi_offset 14, -4
  13:whackamole.c  ****     int random;
 408              		.loc 1 13 0
 409 0002 0020     		movs	r0, #0
 410 0004 FFF7FEFF 		bl	time
 411              	.LVL72:
 412 0008 FFF7FEFF 		bl	srand
 413              	.LVL73:
  15:whackamole.c  ****     
 414              		.loc 1 15 0
 415 000c FFF7FEFF 		bl	ResetBlock
 416              	.LVL74:
 417              	.L22:
  19:whackamole.c  ****         flex1 = flex1_Read();
 418              		.loc 1 19 0 discriminator 1
 419 0010 FFF7FEFF 		bl	flex0_Read
 420              	.LVL75:
 421 0014 084B     		ldr	r3, .L23
 422 0016 1870     		strb	r0, [r3]
  20:whackamole.c  ****         flex2 = flex2_Read();
 423              		.loc 1 20 0 discriminator 1
 424 0018 FFF7FEFF 		bl	flex1_Read
 425              	.LVL76:
 426 001c 074B     		ldr	r3, .L23+4
ARM GAS  C:\Users\JAMESS~1\AppData\Local\Temp\ccsKCujc.s 			page 11


 427 001e 1870     		strb	r0, [r3]
  21:whackamole.c  ****         flex3 = flex3_Read();
 428              		.loc 1 21 0 discriminator 1
 429 0020 FFF7FEFF 		bl	flex2_Read
 430              	.LVL77:
 431 0024 064B     		ldr	r3, .L23+8
 432 0026 1870     		strb	r0, [r3]
  22:whackamole.c  ****         random = rand() % 4;
 433              		.loc 1 22 0 discriminator 1
 434 0028 FFF7FEFF 		bl	flex3_Read
 435              	.LVL78:
 436 002c 054B     		ldr	r3, .L23+12
 437 002e 1870     		strb	r0, [r3]
  23:whackamole.c  ****         
 438              		.loc 1 23 0 discriminator 1
 439 0030 FFF7FEFF 		bl	rand
 440              	.LVL79:
 441 0034 ECE7     		b	.L22
 442              	.L24:
 443 0036 C046     		.align	2
 444              	.L23:
 445 0038 00000000 		.word	flex0
 446 003c 00000000 		.word	flex1
 447 0040 00000000 		.word	flex2
 448 0044 00000000 		.word	flex3
 449              		.cfi_endproc
 450              	.LFE32:
 451              		.size	Whackamole, .-Whackamole
 452              		.comm	flex3,1,1
 453              		.comm	flex2,1,1
 454              		.comm	flex1,1,1
 455              		.comm	flex0,1,1
 456              		.global	LEDS_PER_TILE
 457              		.section	.rodata
 458              		.align	2
 459              		.type	LEDS_PER_TILE, %object
 460              		.size	LEDS_PER_TILE, 4
 461              	LEDS_PER_TILE:
 462 0000 3C000000 		.word	60
 463              		.text
 464              	.Letext0:
 465              		.file 2 "Generated_Source\\PSoC4/cytypes.h"
 466              		.file 3 "whackamole.h"
 467              		.file 4 "Generated_Source\\PSoC4/StripLights.h"
 468              		.file 5 "Generated_Source\\PSoC4/CyLib.h"
 469              		.file 6 "c:\\program files (x86)\\cypress\\psoc creator\\4.1\\psoc creator\\import\\gnu\\arm\\5.4.
 470              		.file 7 "c:\\program files (x86)\\cypress\\psoc creator\\4.1\\psoc creator\\import\\gnu\\arm\\5.4.
 471              		.file 8 "Generated_Source\\PSoC4/flex0.h"
 472              		.file 9 "Generated_Source\\PSoC4/flex1.h"
 473              		.file 10 "Generated_Source\\PSoC4/flex2.h"
 474              		.file 11 "Generated_Source\\PSoC4/flex3.h"