ARM GAS  C:\Users\JAMESS~1\AppData\Local\Temp\cctQTlZU.s 			page 1


   1              		.syntax unified
   2              		.cpu cortex-m0
   3              		.fpu softvfp
   4              		.eabi_attribute 20, 1
   5              		.eabi_attribute 21, 1
   6              		.eabi_attribute 23, 3
   7              		.eabi_attribute 24, 1
   8              		.eabi_attribute 25, 1
   9              		.eabi_attribute 26, 1
  10              		.eabi_attribute 30, 6
  11              		.eabi_attribute 34, 0
  12              		.eabi_attribute 18, 4
  13              		.thumb
  14              		.syntax unified
  15              		.file	"I2CM.c"
  16              		.text
  17              	.Ltext0:
  18              		.cfi_sections	.debug_frame
  19              		.global	I2CM_initVar
  20              		.bss
  21              		.type	I2CM_initVar, %object
  22              		.size	I2CM_initVar, 1
  23              	I2CM_initVar:
  24 0000 00       		.space	1
  25              		.global	I2CM_customIntrHandler
  26 0001 000000   		.align	2
  27              		.type	I2CM_customIntrHandler, %object
  28              		.size	I2CM_customIntrHandler, 4
  29              	I2CM_customIntrHandler:
  30 0004 00000000 		.space	4
  31              		.section	.text.I2CM_Init,"ax",%progbits
  32              		.align	2
  33              		.global	I2CM_Init
  34              		.code	16
  35              		.thumb_func
  36              		.type	I2CM_Init, %function
  37              	I2CM_Init:
  38              	.LFB0:
  39              		.file 1 "Generated_Source\\PSoC4\\I2CM.c"
   1:Generated_Source\PSoC4/I2CM.c **** /***************************************************************************//**
   2:Generated_Source\PSoC4/I2CM.c **** * \file I2CM.c
   3:Generated_Source\PSoC4/I2CM.c **** * \version 3.20
   4:Generated_Source\PSoC4/I2CM.c **** *
   5:Generated_Source\PSoC4/I2CM.c **** * \brief
   6:Generated_Source\PSoC4/I2CM.c **** *  This file provides the source code to the API for the SCB Component.
   7:Generated_Source\PSoC4/I2CM.c **** *
   8:Generated_Source\PSoC4/I2CM.c **** * Note:
   9:Generated_Source\PSoC4/I2CM.c **** *
  10:Generated_Source\PSoC4/I2CM.c **** *******************************************************************************
  11:Generated_Source\PSoC4/I2CM.c **** * \copyright
  12:Generated_Source\PSoC4/I2CM.c **** * Copyright 2013-2016, Cypress Semiconductor Corporation.  All rights reserved.
  13:Generated_Source\PSoC4/I2CM.c **** * You may use this file only in accordance with the license, terms, conditions,
  14:Generated_Source\PSoC4/I2CM.c **** * disclaimers, and limitations in the end user license agreement accompanying
  15:Generated_Source\PSoC4/I2CM.c **** * the software package with which this file was provided.
  16:Generated_Source\PSoC4/I2CM.c **** *******************************************************************************/
  17:Generated_Source\PSoC4/I2CM.c **** 
  18:Generated_Source\PSoC4/I2CM.c **** #include "I2CM_PVT.h"
ARM GAS  C:\Users\JAMESS~1\AppData\Local\Temp\cctQTlZU.s 			page 2


  19:Generated_Source\PSoC4/I2CM.c **** 
  20:Generated_Source\PSoC4/I2CM.c **** #if (I2CM_SCB_MODE_I2C_INC)
  21:Generated_Source\PSoC4/I2CM.c ****     #include "I2CM_I2C_PVT.h"
  22:Generated_Source\PSoC4/I2CM.c **** #endif /* (I2CM_SCB_MODE_I2C_INC) */
  23:Generated_Source\PSoC4/I2CM.c **** 
  24:Generated_Source\PSoC4/I2CM.c **** #if (I2CM_SCB_MODE_EZI2C_INC)
  25:Generated_Source\PSoC4/I2CM.c ****     #include "I2CM_EZI2C_PVT.h"
  26:Generated_Source\PSoC4/I2CM.c **** #endif /* (I2CM_SCB_MODE_EZI2C_INC) */
  27:Generated_Source\PSoC4/I2CM.c **** 
  28:Generated_Source\PSoC4/I2CM.c **** #if (I2CM_SCB_MODE_SPI_INC || I2CM_SCB_MODE_UART_INC)
  29:Generated_Source\PSoC4/I2CM.c ****     #include "I2CM_SPI_UART_PVT.h"
  30:Generated_Source\PSoC4/I2CM.c **** #endif /* (I2CM_SCB_MODE_SPI_INC || I2CM_SCB_MODE_UART_INC) */
  31:Generated_Source\PSoC4/I2CM.c **** 
  32:Generated_Source\PSoC4/I2CM.c **** 
  33:Generated_Source\PSoC4/I2CM.c **** /***************************************
  34:Generated_Source\PSoC4/I2CM.c **** *    Run Time Configuration Vars
  35:Generated_Source\PSoC4/I2CM.c **** ***************************************/
  36:Generated_Source\PSoC4/I2CM.c **** 
  37:Generated_Source\PSoC4/I2CM.c **** /* Stores internal component configuration for Unconfigured mode */
  38:Generated_Source\PSoC4/I2CM.c **** #if (I2CM_SCB_MODE_UNCONFIG_CONST_CFG)
  39:Generated_Source\PSoC4/I2CM.c ****     /* Common configuration variables */
  40:Generated_Source\PSoC4/I2CM.c ****     uint8 I2CM_scbMode = I2CM_SCB_MODE_UNCONFIG;
  41:Generated_Source\PSoC4/I2CM.c ****     uint8 I2CM_scbEnableWake;
  42:Generated_Source\PSoC4/I2CM.c ****     uint8 I2CM_scbEnableIntr;
  43:Generated_Source\PSoC4/I2CM.c **** 
  44:Generated_Source\PSoC4/I2CM.c ****     /* I2C configuration variables */
  45:Generated_Source\PSoC4/I2CM.c ****     uint8 I2CM_mode;
  46:Generated_Source\PSoC4/I2CM.c ****     uint8 I2CM_acceptAddr;
  47:Generated_Source\PSoC4/I2CM.c **** 
  48:Generated_Source\PSoC4/I2CM.c ****     /* SPI/UART configuration variables */
  49:Generated_Source\PSoC4/I2CM.c ****     volatile uint8 * I2CM_rxBuffer;
  50:Generated_Source\PSoC4/I2CM.c ****     uint8  I2CM_rxDataBits;
  51:Generated_Source\PSoC4/I2CM.c ****     uint32 I2CM_rxBufferSize;
  52:Generated_Source\PSoC4/I2CM.c **** 
  53:Generated_Source\PSoC4/I2CM.c ****     volatile uint8 * I2CM_txBuffer;
  54:Generated_Source\PSoC4/I2CM.c ****     uint8  I2CM_txDataBits;
  55:Generated_Source\PSoC4/I2CM.c ****     uint32 I2CM_txBufferSize;
  56:Generated_Source\PSoC4/I2CM.c **** 
  57:Generated_Source\PSoC4/I2CM.c ****     /* EZI2C configuration variables */
  58:Generated_Source\PSoC4/I2CM.c ****     uint8 I2CM_numberOfAddr;
  59:Generated_Source\PSoC4/I2CM.c ****     uint8 I2CM_subAddrSize;
  60:Generated_Source\PSoC4/I2CM.c **** #endif /* (I2CM_SCB_MODE_UNCONFIG_CONST_CFG) */
  61:Generated_Source\PSoC4/I2CM.c **** 
  62:Generated_Source\PSoC4/I2CM.c **** 
  63:Generated_Source\PSoC4/I2CM.c **** /***************************************
  64:Generated_Source\PSoC4/I2CM.c **** *     Common SCB Vars
  65:Generated_Source\PSoC4/I2CM.c **** ***************************************/
  66:Generated_Source\PSoC4/I2CM.c **** /**
  67:Generated_Source\PSoC4/I2CM.c **** * \addtogroup group_general
  68:Generated_Source\PSoC4/I2CM.c **** * \{
  69:Generated_Source\PSoC4/I2CM.c **** */
  70:Generated_Source\PSoC4/I2CM.c **** 
  71:Generated_Source\PSoC4/I2CM.c **** /** I2CM_initVar indicates whether the I2CM 
  72:Generated_Source\PSoC4/I2CM.c **** *  component has been initialized. The variable is initialized to 0 
  73:Generated_Source\PSoC4/I2CM.c **** *  and set to 1 the first time SCB_Start() is called. This allows 
  74:Generated_Source\PSoC4/I2CM.c **** *  the component to restart without reinitialization after the first 
  75:Generated_Source\PSoC4/I2CM.c **** *  call to the I2CM_Start() routine.
ARM GAS  C:\Users\JAMESS~1\AppData\Local\Temp\cctQTlZU.s 			page 3


  76:Generated_Source\PSoC4/I2CM.c **** *
  77:Generated_Source\PSoC4/I2CM.c **** *  If re-initialization of the component is required, then the 
  78:Generated_Source\PSoC4/I2CM.c **** *  I2CM_Init() function can be called before the 
  79:Generated_Source\PSoC4/I2CM.c **** *  I2CM_Start() or I2CM_Enable() function.
  80:Generated_Source\PSoC4/I2CM.c **** */
  81:Generated_Source\PSoC4/I2CM.c **** uint8 I2CM_initVar = 0u;
  82:Generated_Source\PSoC4/I2CM.c **** 
  83:Generated_Source\PSoC4/I2CM.c **** 
  84:Generated_Source\PSoC4/I2CM.c **** #if (! (I2CM_SCB_MODE_I2C_CONST_CFG || \
  85:Generated_Source\PSoC4/I2CM.c ****         I2CM_SCB_MODE_EZI2C_CONST_CFG))
  86:Generated_Source\PSoC4/I2CM.c ****     /** This global variable stores TX interrupt sources after 
  87:Generated_Source\PSoC4/I2CM.c ****     * I2CM_Stop() is called. Only these TX interrupt sources 
  88:Generated_Source\PSoC4/I2CM.c ****     * will be restored on a subsequent I2CM_Enable() call.
  89:Generated_Source\PSoC4/I2CM.c ****     */
  90:Generated_Source\PSoC4/I2CM.c ****     uint16 I2CM_IntrTxMask = 0u;
  91:Generated_Source\PSoC4/I2CM.c **** #endif /* (! (I2CM_SCB_MODE_I2C_CONST_CFG || \
  92:Generated_Source\PSoC4/I2CM.c ****               I2CM_SCB_MODE_EZI2C_CONST_CFG)) */
  93:Generated_Source\PSoC4/I2CM.c **** /** \} globals */
  94:Generated_Source\PSoC4/I2CM.c **** 
  95:Generated_Source\PSoC4/I2CM.c **** #if (I2CM_SCB_IRQ_INTERNAL)
  96:Generated_Source\PSoC4/I2CM.c **** #if !defined (CY_REMOVE_I2CM_CUSTOM_INTR_HANDLER)
  97:Generated_Source\PSoC4/I2CM.c ****     void (*I2CM_customIntrHandler)(void) = NULL;
  98:Generated_Source\PSoC4/I2CM.c **** #endif /* !defined (CY_REMOVE_I2CM_CUSTOM_INTR_HANDLER) */
  99:Generated_Source\PSoC4/I2CM.c **** #endif /* (I2CM_SCB_IRQ_INTERNAL) */
 100:Generated_Source\PSoC4/I2CM.c **** 
 101:Generated_Source\PSoC4/I2CM.c **** 
 102:Generated_Source\PSoC4/I2CM.c **** /***************************************
 103:Generated_Source\PSoC4/I2CM.c **** *    Private Function Prototypes
 104:Generated_Source\PSoC4/I2CM.c **** ***************************************/
 105:Generated_Source\PSoC4/I2CM.c **** 
 106:Generated_Source\PSoC4/I2CM.c **** static void I2CM_ScbEnableIntr(void);
 107:Generated_Source\PSoC4/I2CM.c **** static void I2CM_ScbModeStop(void);
 108:Generated_Source\PSoC4/I2CM.c **** static void I2CM_ScbModePostEnable(void);
 109:Generated_Source\PSoC4/I2CM.c **** 
 110:Generated_Source\PSoC4/I2CM.c **** 
 111:Generated_Source\PSoC4/I2CM.c **** /*******************************************************************************
 112:Generated_Source\PSoC4/I2CM.c **** * Function Name: I2CM_Init
 113:Generated_Source\PSoC4/I2CM.c **** ****************************************************************************//**
 114:Generated_Source\PSoC4/I2CM.c **** *
 115:Generated_Source\PSoC4/I2CM.c **** *  Initializes the I2CM component to operate in one of the selected
 116:Generated_Source\PSoC4/I2CM.c **** *  configurations: I2C, SPI, UART or EZI2C.
 117:Generated_Source\PSoC4/I2CM.c **** *  When the configuration is set to "Unconfigured SCB", this function does
 118:Generated_Source\PSoC4/I2CM.c **** *  not do any initialization. Use mode-specific initialization APIs instead:
 119:Generated_Source\PSoC4/I2CM.c **** *  I2CM_I2CInit, I2CM_SpiInit, 
 120:Generated_Source\PSoC4/I2CM.c **** *  I2CM_UartInit or I2CM_EzI2CInit.
 121:Generated_Source\PSoC4/I2CM.c **** *
 122:Generated_Source\PSoC4/I2CM.c **** *******************************************************************************/
 123:Generated_Source\PSoC4/I2CM.c **** void I2CM_Init(void)
 124:Generated_Source\PSoC4/I2CM.c **** {
  40              		.loc 1 124 0
  41              		.cfi_startproc
  42              		@ args = 0, pretend = 0, frame = 0
  43              		@ frame_needed = 1, uses_anonymous_args = 0
  44 0000 80B5     		push	{r7, lr}
  45              		.cfi_def_cfa_offset 8
  46              		.cfi_offset 7, -8
  47              		.cfi_offset 14, -4
ARM GAS  C:\Users\JAMESS~1\AppData\Local\Temp\cctQTlZU.s 			page 4


  48 0002 00AF     		add	r7, sp, #0
  49              		.cfi_def_cfa_register 7
 125:Generated_Source\PSoC4/I2CM.c **** #if (I2CM_SCB_MODE_UNCONFIG_CONST_CFG)
 126:Generated_Source\PSoC4/I2CM.c ****     if (I2CM_SCB_MODE_UNCONFIG_RUNTM_CFG)
 127:Generated_Source\PSoC4/I2CM.c ****     {
 128:Generated_Source\PSoC4/I2CM.c ****         I2CM_initVar = 0u;
 129:Generated_Source\PSoC4/I2CM.c ****     }
 130:Generated_Source\PSoC4/I2CM.c ****     else
 131:Generated_Source\PSoC4/I2CM.c ****     {
 132:Generated_Source\PSoC4/I2CM.c ****         /* Initialization was done before this function call */
 133:Generated_Source\PSoC4/I2CM.c ****     }
 134:Generated_Source\PSoC4/I2CM.c **** 
 135:Generated_Source\PSoC4/I2CM.c **** #elif (I2CM_SCB_MODE_I2C_CONST_CFG)
 136:Generated_Source\PSoC4/I2CM.c ****     I2CM_I2CInit();
  50              		.loc 1 136 0
  51 0004 FFF7FEFF 		bl	I2CM_I2CInit
 137:Generated_Source\PSoC4/I2CM.c **** 
 138:Generated_Source\PSoC4/I2CM.c **** #elif (I2CM_SCB_MODE_SPI_CONST_CFG)
 139:Generated_Source\PSoC4/I2CM.c ****     I2CM_SpiInit();
 140:Generated_Source\PSoC4/I2CM.c **** 
 141:Generated_Source\PSoC4/I2CM.c **** #elif (I2CM_SCB_MODE_UART_CONST_CFG)
 142:Generated_Source\PSoC4/I2CM.c ****     I2CM_UartInit();
 143:Generated_Source\PSoC4/I2CM.c **** 
 144:Generated_Source\PSoC4/I2CM.c **** #elif (I2CM_SCB_MODE_EZI2C_CONST_CFG)
 145:Generated_Source\PSoC4/I2CM.c ****     I2CM_EzI2CInit();
 146:Generated_Source\PSoC4/I2CM.c **** 
 147:Generated_Source\PSoC4/I2CM.c **** #endif /* (I2CM_SCB_MODE_UNCONFIG_CONST_CFG) */
 148:Generated_Source\PSoC4/I2CM.c **** }
  52              		.loc 1 148 0
  53 0008 C046     		nop
  54 000a BD46     		mov	sp, r7
  55              		@ sp needed
  56 000c 80BD     		pop	{r7, pc}
  57              		.cfi_endproc
  58              	.LFE0:
  59              		.size	I2CM_Init, .-I2CM_Init
  60 000e C046     		.section	.text.I2CM_Enable,"ax",%progbits
  61              		.align	2
  62              		.global	I2CM_Enable
  63              		.code	16
  64              		.thumb_func
  65              		.type	I2CM_Enable, %function
  66              	I2CM_Enable:
  67              	.LFB1:
 149:Generated_Source\PSoC4/I2CM.c **** 
 150:Generated_Source\PSoC4/I2CM.c **** 
 151:Generated_Source\PSoC4/I2CM.c **** /*******************************************************************************
 152:Generated_Source\PSoC4/I2CM.c **** * Function Name: I2CM_Enable
 153:Generated_Source\PSoC4/I2CM.c **** ****************************************************************************//**
 154:Generated_Source\PSoC4/I2CM.c **** *
 155:Generated_Source\PSoC4/I2CM.c **** *  Enables I2CM component operation: activates the hardware and 
 156:Generated_Source\PSoC4/I2CM.c **** *  internal interrupt. It also restores TX interrupt sources disabled after the 
 157:Generated_Source\PSoC4/I2CM.c **** *  I2CM_Stop() function was called (note that level-triggered TX 
 158:Generated_Source\PSoC4/I2CM.c **** *  interrupt sources remain disabled to not cause code lock-up).
 159:Generated_Source\PSoC4/I2CM.c **** *  For I2C and EZI2C modes the interrupt is internal and mandatory for 
 160:Generated_Source\PSoC4/I2CM.c **** *  operation. For SPI and UART modes the interrupt can be configured as none, 
 161:Generated_Source\PSoC4/I2CM.c **** *  internal or external.
ARM GAS  C:\Users\JAMESS~1\AppData\Local\Temp\cctQTlZU.s 			page 5


 162:Generated_Source\PSoC4/I2CM.c **** *  The I2CM configuration should be not changed when the component
 163:Generated_Source\PSoC4/I2CM.c **** *  is enabled. Any configuration changes should be made after disabling the 
 164:Generated_Source\PSoC4/I2CM.c **** *  component.
 165:Generated_Source\PSoC4/I2CM.c **** *  When configuration is set to “Unconfigured I2CM”, the component 
 166:Generated_Source\PSoC4/I2CM.c **** *  must first be initialized to operate in one of the following configurations: 
 167:Generated_Source\PSoC4/I2CM.c **** *  I2C, SPI, UART or EZ I2C, using the mode-specific initialization API. 
 168:Generated_Source\PSoC4/I2CM.c **** *  Otherwise this function does not enable the component.
 169:Generated_Source\PSoC4/I2CM.c **** *
 170:Generated_Source\PSoC4/I2CM.c **** *******************************************************************************/
 171:Generated_Source\PSoC4/I2CM.c **** void I2CM_Enable(void)
 172:Generated_Source\PSoC4/I2CM.c **** {
  68              		.loc 1 172 0
  69              		.cfi_startproc
  70              		@ args = 0, pretend = 0, frame = 0
  71              		@ frame_needed = 1, uses_anonymous_args = 0
  72 0000 80B5     		push	{r7, lr}
  73              		.cfi_def_cfa_offset 8
  74              		.cfi_offset 7, -8
  75              		.cfi_offset 14, -4
  76 0002 00AF     		add	r7, sp, #0
  77              		.cfi_def_cfa_register 7
 173:Generated_Source\PSoC4/I2CM.c **** #if (I2CM_SCB_MODE_UNCONFIG_CONST_CFG)
 174:Generated_Source\PSoC4/I2CM.c ****     /* Enable SCB block, only if it is already configured */
 175:Generated_Source\PSoC4/I2CM.c ****     if (!I2CM_SCB_MODE_UNCONFIG_RUNTM_CFG)
 176:Generated_Source\PSoC4/I2CM.c ****     {
 177:Generated_Source\PSoC4/I2CM.c ****         I2CM_CTRL_REG |= I2CM_CTRL_ENABLED;
 178:Generated_Source\PSoC4/I2CM.c **** 
 179:Generated_Source\PSoC4/I2CM.c ****         I2CM_ScbEnableIntr();
 180:Generated_Source\PSoC4/I2CM.c **** 
 181:Generated_Source\PSoC4/I2CM.c ****         /* Call PostEnable function specific to current operation mode */
 182:Generated_Source\PSoC4/I2CM.c ****         I2CM_ScbModePostEnable();
 183:Generated_Source\PSoC4/I2CM.c ****     }
 184:Generated_Source\PSoC4/I2CM.c **** #else
 185:Generated_Source\PSoC4/I2CM.c ****     I2CM_CTRL_REG |= I2CM_CTRL_ENABLED;
  78              		.loc 1 185 0
  79 0004 064B     		ldr	r3, .L3
  80 0006 064A     		ldr	r2, .L3
  81 0008 1268     		ldr	r2, [r2]
  82 000a 8021     		movs	r1, #128
  83 000c 0906     		lsls	r1, r1, #24
  84 000e 0A43     		orrs	r2, r1
  85 0010 1A60     		str	r2, [r3]
 186:Generated_Source\PSoC4/I2CM.c **** 
 187:Generated_Source\PSoC4/I2CM.c ****     I2CM_ScbEnableIntr();
  86              		.loc 1 187 0
  87 0012 FFF7FEFF 		bl	I2CM_ScbEnableIntr
 188:Generated_Source\PSoC4/I2CM.c **** 
 189:Generated_Source\PSoC4/I2CM.c ****     /* Call PostEnable function specific to current operation mode */
 190:Generated_Source\PSoC4/I2CM.c ****     I2CM_ScbModePostEnable();
  88              		.loc 1 190 0
  89 0016 FFF7FEFF 		bl	I2CM_ScbModePostEnable
 191:Generated_Source\PSoC4/I2CM.c **** #endif /* (I2CM_SCB_MODE_UNCONFIG_CONST_CFG) */
 192:Generated_Source\PSoC4/I2CM.c **** }
  90              		.loc 1 192 0
  91 001a C046     		nop
  92 001c BD46     		mov	sp, r7
  93              		@ sp needed
ARM GAS  C:\Users\JAMESS~1\AppData\Local\Temp\cctQTlZU.s 			page 6


  94 001e 80BD     		pop	{r7, pc}
  95              	.L4:
  96              		.align	2
  97              	.L3:
  98 0020 00000640 		.word	1074135040
  99              		.cfi_endproc
 100              	.LFE1:
 101              		.size	I2CM_Enable, .-I2CM_Enable
 102              		.section	.text.I2CM_Start,"ax",%progbits
 103              		.align	2
 104              		.global	I2CM_Start
 105              		.code	16
 106              		.thumb_func
 107              		.type	I2CM_Start, %function
 108              	I2CM_Start:
 109              	.LFB2:
 193:Generated_Source\PSoC4/I2CM.c **** 
 194:Generated_Source\PSoC4/I2CM.c **** 
 195:Generated_Source\PSoC4/I2CM.c **** /*******************************************************************************
 196:Generated_Source\PSoC4/I2CM.c **** * Function Name: I2CM_Start
 197:Generated_Source\PSoC4/I2CM.c **** ****************************************************************************//**
 198:Generated_Source\PSoC4/I2CM.c **** *
 199:Generated_Source\PSoC4/I2CM.c **** *  Invokes I2CM_Init() and I2CM_Enable().
 200:Generated_Source\PSoC4/I2CM.c **** *  After this function call, the component is enabled and ready for operation.
 201:Generated_Source\PSoC4/I2CM.c **** *  When configuration is set to "Unconfigured SCB", the component must first be
 202:Generated_Source\PSoC4/I2CM.c **** *  initialized to operate in one of the following configurations: I2C, SPI, UART
 203:Generated_Source\PSoC4/I2CM.c **** *  or EZI2C. Otherwise this function does not enable the component.
 204:Generated_Source\PSoC4/I2CM.c **** *
 205:Generated_Source\PSoC4/I2CM.c **** * \globalvars
 206:Generated_Source\PSoC4/I2CM.c **** *  I2CM_initVar - used to check initial configuration, modified
 207:Generated_Source\PSoC4/I2CM.c **** *  on first function call.
 208:Generated_Source\PSoC4/I2CM.c **** *
 209:Generated_Source\PSoC4/I2CM.c **** *******************************************************************************/
 210:Generated_Source\PSoC4/I2CM.c **** void I2CM_Start(void)
 211:Generated_Source\PSoC4/I2CM.c **** {
 110              		.loc 1 211 0
 111              		.cfi_startproc
 112              		@ args = 0, pretend = 0, frame = 0
 113              		@ frame_needed = 1, uses_anonymous_args = 0
 114 0000 80B5     		push	{r7, lr}
 115              		.cfi_def_cfa_offset 8
 116              		.cfi_offset 7, -8
 117              		.cfi_offset 14, -4
 118 0002 00AF     		add	r7, sp, #0
 119              		.cfi_def_cfa_register 7
 212:Generated_Source\PSoC4/I2CM.c ****     if (0u == I2CM_initVar)
 120              		.loc 1 212 0
 121 0004 064B     		ldr	r3, .L7
 122 0006 1B78     		ldrb	r3, [r3]
 123 0008 002B     		cmp	r3, #0
 124 000a 04D1     		bne	.L6
 213:Generated_Source\PSoC4/I2CM.c ****     {
 214:Generated_Source\PSoC4/I2CM.c ****         I2CM_Init();
 125              		.loc 1 214 0
 126 000c FFF7FEFF 		bl	I2CM_Init
 215:Generated_Source\PSoC4/I2CM.c ****         I2CM_initVar = 1u; /* Component was initialized */
 127              		.loc 1 215 0
ARM GAS  C:\Users\JAMESS~1\AppData\Local\Temp\cctQTlZU.s 			page 7


 128 0010 034B     		ldr	r3, .L7
 129 0012 0122     		movs	r2, #1
 130 0014 1A70     		strb	r2, [r3]
 131              	.L6:
 216:Generated_Source\PSoC4/I2CM.c ****     }
 217:Generated_Source\PSoC4/I2CM.c **** 
 218:Generated_Source\PSoC4/I2CM.c ****     I2CM_Enable();
 132              		.loc 1 218 0
 133 0016 FFF7FEFF 		bl	I2CM_Enable
 219:Generated_Source\PSoC4/I2CM.c **** }
 134              		.loc 1 219 0
 135 001a C046     		nop
 136 001c BD46     		mov	sp, r7
 137              		@ sp needed
 138 001e 80BD     		pop	{r7, pc}
 139              	.L8:
 140              		.align	2
 141              	.L7:
 142 0020 00000000 		.word	I2CM_initVar
 143              		.cfi_endproc
 144              	.LFE2:
 145              		.size	I2CM_Start, .-I2CM_Start
 146              		.section	.text.I2CM_Stop,"ax",%progbits
 147              		.align	2
 148              		.global	I2CM_Stop
 149              		.code	16
 150              		.thumb_func
 151              		.type	I2CM_Stop, %function
 152              	I2CM_Stop:
 153              	.LFB3:
 220:Generated_Source\PSoC4/I2CM.c **** 
 221:Generated_Source\PSoC4/I2CM.c **** 
 222:Generated_Source\PSoC4/I2CM.c **** /*******************************************************************************
 223:Generated_Source\PSoC4/I2CM.c **** * Function Name: I2CM_Stop
 224:Generated_Source\PSoC4/I2CM.c **** ****************************************************************************//**
 225:Generated_Source\PSoC4/I2CM.c **** *
 226:Generated_Source\PSoC4/I2CM.c **** *  Disables the I2CM component: disable the hardware and internal 
 227:Generated_Source\PSoC4/I2CM.c **** *  interrupt. It also disables all TX interrupt sources so as not to cause an 
 228:Generated_Source\PSoC4/I2CM.c **** *  unexpected interrupt trigger because after the component is enabled, the 
 229:Generated_Source\PSoC4/I2CM.c **** *  TX FIFO is empty.
 230:Generated_Source\PSoC4/I2CM.c **** *  Refer to the function I2CM_Enable() for the interrupt 
 231:Generated_Source\PSoC4/I2CM.c **** *  configuration details.
 232:Generated_Source\PSoC4/I2CM.c **** *  This function disables the SCB component without checking to see if 
 233:Generated_Source\PSoC4/I2CM.c **** *  communication is in progress. Before calling this function it may be 
 234:Generated_Source\PSoC4/I2CM.c **** *  necessary to check the status of communication to make sure communication 
 235:Generated_Source\PSoC4/I2CM.c **** *  is complete. If this is not done then communication could be stopped mid 
 236:Generated_Source\PSoC4/I2CM.c **** *  byte and corrupted data could result.
 237:Generated_Source\PSoC4/I2CM.c **** *
 238:Generated_Source\PSoC4/I2CM.c **** *******************************************************************************/
 239:Generated_Source\PSoC4/I2CM.c **** void I2CM_Stop(void)
 240:Generated_Source\PSoC4/I2CM.c **** {
 154              		.loc 1 240 0
 155              		.cfi_startproc
 156              		@ args = 0, pretend = 0, frame = 0
 157              		@ frame_needed = 1, uses_anonymous_args = 0
 158 0000 80B5     		push	{r7, lr}
 159              		.cfi_def_cfa_offset 8
ARM GAS  C:\Users\JAMESS~1\AppData\Local\Temp\cctQTlZU.s 			page 8


 160              		.cfi_offset 7, -8
 161              		.cfi_offset 14, -4
 162 0002 00AF     		add	r7, sp, #0
 163              		.cfi_def_cfa_register 7
 241:Generated_Source\PSoC4/I2CM.c **** #if (I2CM_SCB_IRQ_INTERNAL)
 242:Generated_Source\PSoC4/I2CM.c ****     I2CM_DisableInt();
 164              		.loc 1 242 0
 165 0004 0A20     		movs	r0, #10
 166 0006 FFF7FEFF 		bl	CyIntDisable
 243:Generated_Source\PSoC4/I2CM.c **** #endif /* (I2CM_SCB_IRQ_INTERNAL) */
 244:Generated_Source\PSoC4/I2CM.c **** 
 245:Generated_Source\PSoC4/I2CM.c ****     /* Call Stop function specific to current operation mode */
 246:Generated_Source\PSoC4/I2CM.c ****     I2CM_ScbModeStop();
 167              		.loc 1 246 0
 168 000a FFF7FEFF 		bl	I2CM_ScbModeStop
 247:Generated_Source\PSoC4/I2CM.c **** 
 248:Generated_Source\PSoC4/I2CM.c ****     /* Disable SCB IP */
 249:Generated_Source\PSoC4/I2CM.c ****     I2CM_CTRL_REG &= (uint32) ~I2CM_CTRL_ENABLED;
 169              		.loc 1 249 0
 170 000e 074B     		ldr	r3, .L10
 171 0010 064A     		ldr	r2, .L10
 172 0012 1268     		ldr	r2, [r2]
 173 0014 5200     		lsls	r2, r2, #1
 174 0016 5208     		lsrs	r2, r2, #1
 175 0018 1A60     		str	r2, [r3]
 250:Generated_Source\PSoC4/I2CM.c **** 
 251:Generated_Source\PSoC4/I2CM.c ****     /* Disable all TX interrupt sources so as not to cause an unexpected
 252:Generated_Source\PSoC4/I2CM.c ****     * interrupt trigger after the component will be enabled because the 
 253:Generated_Source\PSoC4/I2CM.c ****     * TX FIFO is empty.
 254:Generated_Source\PSoC4/I2CM.c ****     * For SCB IP v0, it is critical as it does not mask-out interrupt
 255:Generated_Source\PSoC4/I2CM.c ****     * sources when it is disabled. This can cause a code lock-up in the
 256:Generated_Source\PSoC4/I2CM.c ****     * interrupt handler because TX FIFO cannot be loaded after the block
 257:Generated_Source\PSoC4/I2CM.c ****     * is disabled.
 258:Generated_Source\PSoC4/I2CM.c ****     */
 259:Generated_Source\PSoC4/I2CM.c ****     I2CM_SetTxInterruptMode(I2CM_NO_INTR_SOURCES);
 176              		.loc 1 259 0
 177 001a 054B     		ldr	r3, .L10+4
 178 001c 0022     		movs	r2, #0
 179 001e 1A60     		str	r2, [r3]
 260:Generated_Source\PSoC4/I2CM.c **** 
 261:Generated_Source\PSoC4/I2CM.c **** #if (I2CM_SCB_IRQ_INTERNAL)
 262:Generated_Source\PSoC4/I2CM.c ****     I2CM_ClearPendingInt();
 180              		.loc 1 262 0
 181 0020 0A20     		movs	r0, #10
 182 0022 FFF7FEFF 		bl	CyIntClearPending
 263:Generated_Source\PSoC4/I2CM.c **** #endif /* (I2CM_SCB_IRQ_INTERNAL) */
 264:Generated_Source\PSoC4/I2CM.c **** }
 183              		.loc 1 264 0
 184 0026 C046     		nop
 185 0028 BD46     		mov	sp, r7
 186              		@ sp needed
 187 002a 80BD     		pop	{r7, pc}
 188              	.L11:
 189              		.align	2
 190              	.L10:
 191 002c 00000640 		.word	1074135040
 192 0030 880F0640 		.word	1074139016
ARM GAS  C:\Users\JAMESS~1\AppData\Local\Temp\cctQTlZU.s 			page 9


 193              		.cfi_endproc
 194              	.LFE3:
 195              		.size	I2CM_Stop, .-I2CM_Stop
 196              		.section	.text.I2CM_SetRxFifoLevel,"ax",%progbits
 197              		.align	2
 198              		.global	I2CM_SetRxFifoLevel
 199              		.code	16
 200              		.thumb_func
 201              		.type	I2CM_SetRxFifoLevel, %function
 202              	I2CM_SetRxFifoLevel:
 203              	.LFB4:
 265:Generated_Source\PSoC4/I2CM.c **** 
 266:Generated_Source\PSoC4/I2CM.c **** 
 267:Generated_Source\PSoC4/I2CM.c **** /*******************************************************************************
 268:Generated_Source\PSoC4/I2CM.c **** * Function Name: I2CM_SetRxFifoLevel
 269:Generated_Source\PSoC4/I2CM.c **** ****************************************************************************//**
 270:Generated_Source\PSoC4/I2CM.c **** *
 271:Generated_Source\PSoC4/I2CM.c **** *  Sets level in the RX FIFO to generate a RX level interrupt.
 272:Generated_Source\PSoC4/I2CM.c **** *  When the RX FIFO has more entries than the RX FIFO level an RX level
 273:Generated_Source\PSoC4/I2CM.c **** *  interrupt request is generated.
 274:Generated_Source\PSoC4/I2CM.c **** *
 275:Generated_Source\PSoC4/I2CM.c **** *  \param level: Level in the RX FIFO to generate RX level interrupt.
 276:Generated_Source\PSoC4/I2CM.c **** *   The range of valid level values is between 0 and RX FIFO depth - 1.
 277:Generated_Source\PSoC4/I2CM.c **** *
 278:Generated_Source\PSoC4/I2CM.c **** *******************************************************************************/
 279:Generated_Source\PSoC4/I2CM.c **** void I2CM_SetRxFifoLevel(uint32 level)
 280:Generated_Source\PSoC4/I2CM.c **** {
 204              		.loc 1 280 0
 205              		.cfi_startproc
 206              		@ args = 0, pretend = 0, frame = 16
 207              		@ frame_needed = 1, uses_anonymous_args = 0
 208 0000 80B5     		push	{r7, lr}
 209              		.cfi_def_cfa_offset 8
 210              		.cfi_offset 7, -8
 211              		.cfi_offset 14, -4
 212 0002 84B0     		sub	sp, sp, #16
 213              		.cfi_def_cfa_offset 24
 214 0004 00AF     		add	r7, sp, #0
 215              		.cfi_def_cfa_register 7
 216 0006 7860     		str	r0, [r7, #4]
 281:Generated_Source\PSoC4/I2CM.c ****     uint32 rxFifoCtrl;
 282:Generated_Source\PSoC4/I2CM.c **** 
 283:Generated_Source\PSoC4/I2CM.c ****     rxFifoCtrl = I2CM_RX_FIFO_CTRL_REG;
 217              		.loc 1 283 0
 218 0008 094B     		ldr	r3, .L13
 219 000a 1B68     		ldr	r3, [r3]
 220 000c FB60     		str	r3, [r7, #12]
 284:Generated_Source\PSoC4/I2CM.c **** 
 285:Generated_Source\PSoC4/I2CM.c ****     rxFifoCtrl &= ((uint32) ~I2CM_RX_FIFO_CTRL_TRIGGER_LEVEL_MASK); /* Clear level mask bits */
 221              		.loc 1 285 0
 222 000e FB68     		ldr	r3, [r7, #12]
 223 0010 0722     		movs	r2, #7
 224 0012 9343     		bics	r3, r2
 225 0014 FB60     		str	r3, [r7, #12]
 286:Generated_Source\PSoC4/I2CM.c ****     rxFifoCtrl |= ((uint32) (I2CM_RX_FIFO_CTRL_TRIGGER_LEVEL_MASK & level));
 226              		.loc 1 286 0
 227 0016 7B68     		ldr	r3, [r7, #4]
ARM GAS  C:\Users\JAMESS~1\AppData\Local\Temp\cctQTlZU.s 			page 10


 228 0018 0722     		movs	r2, #7
 229 001a 1340     		ands	r3, r2
 230 001c FA68     		ldr	r2, [r7, #12]
 231 001e 1343     		orrs	r3, r2
 232 0020 FB60     		str	r3, [r7, #12]
 287:Generated_Source\PSoC4/I2CM.c **** 
 288:Generated_Source\PSoC4/I2CM.c ****     I2CM_RX_FIFO_CTRL_REG = rxFifoCtrl;
 233              		.loc 1 288 0
 234 0022 034B     		ldr	r3, .L13
 235 0024 FA68     		ldr	r2, [r7, #12]
 236 0026 1A60     		str	r2, [r3]
 289:Generated_Source\PSoC4/I2CM.c **** }
 237              		.loc 1 289 0
 238 0028 C046     		nop
 239 002a BD46     		mov	sp, r7
 240 002c 04B0     		add	sp, sp, #16
 241              		@ sp needed
 242 002e 80BD     		pop	{r7, pc}
 243              	.L14:
 244              		.align	2
 245              	.L13:
 246 0030 04030640 		.word	1074135812
 247              		.cfi_endproc
 248              	.LFE4:
 249              		.size	I2CM_SetRxFifoLevel, .-I2CM_SetRxFifoLevel
 250              		.section	.text.I2CM_SetTxFifoLevel,"ax",%progbits
 251              		.align	2
 252              		.global	I2CM_SetTxFifoLevel
 253              		.code	16
 254              		.thumb_func
 255              		.type	I2CM_SetTxFifoLevel, %function
 256              	I2CM_SetTxFifoLevel:
 257              	.LFB5:
 290:Generated_Source\PSoC4/I2CM.c **** 
 291:Generated_Source\PSoC4/I2CM.c **** 
 292:Generated_Source\PSoC4/I2CM.c **** /*******************************************************************************
 293:Generated_Source\PSoC4/I2CM.c **** * Function Name: I2CM_SetTxFifoLevel
 294:Generated_Source\PSoC4/I2CM.c **** ****************************************************************************//**
 295:Generated_Source\PSoC4/I2CM.c **** *
 296:Generated_Source\PSoC4/I2CM.c **** *  Sets level in the TX FIFO to generate a TX level interrupt.
 297:Generated_Source\PSoC4/I2CM.c **** *  When the TX FIFO has less entries than the TX FIFO level an TX level
 298:Generated_Source\PSoC4/I2CM.c **** *  interrupt request is generated.
 299:Generated_Source\PSoC4/I2CM.c **** *
 300:Generated_Source\PSoC4/I2CM.c **** *  \param level: Level in the TX FIFO to generate TX level interrupt.
 301:Generated_Source\PSoC4/I2CM.c **** *   The range of valid level values is between 0 and TX FIFO depth - 1.
 302:Generated_Source\PSoC4/I2CM.c **** *
 303:Generated_Source\PSoC4/I2CM.c **** *******************************************************************************/
 304:Generated_Source\PSoC4/I2CM.c **** void I2CM_SetTxFifoLevel(uint32 level)
 305:Generated_Source\PSoC4/I2CM.c **** {
 258              		.loc 1 305 0
 259              		.cfi_startproc
 260              		@ args = 0, pretend = 0, frame = 16
 261              		@ frame_needed = 1, uses_anonymous_args = 0
 262 0000 80B5     		push	{r7, lr}
 263              		.cfi_def_cfa_offset 8
 264              		.cfi_offset 7, -8
 265              		.cfi_offset 14, -4
ARM GAS  C:\Users\JAMESS~1\AppData\Local\Temp\cctQTlZU.s 			page 11


 266 0002 84B0     		sub	sp, sp, #16
 267              		.cfi_def_cfa_offset 24
 268 0004 00AF     		add	r7, sp, #0
 269              		.cfi_def_cfa_register 7
 270 0006 7860     		str	r0, [r7, #4]
 306:Generated_Source\PSoC4/I2CM.c ****     uint32 txFifoCtrl;
 307:Generated_Source\PSoC4/I2CM.c **** 
 308:Generated_Source\PSoC4/I2CM.c ****     txFifoCtrl = I2CM_TX_FIFO_CTRL_REG;
 271              		.loc 1 308 0
 272 0008 094B     		ldr	r3, .L16
 273 000a 1B68     		ldr	r3, [r3]
 274 000c FB60     		str	r3, [r7, #12]
 309:Generated_Source\PSoC4/I2CM.c **** 
 310:Generated_Source\PSoC4/I2CM.c ****     txFifoCtrl &= ((uint32) ~I2CM_TX_FIFO_CTRL_TRIGGER_LEVEL_MASK); /* Clear level mask bits */
 275              		.loc 1 310 0
 276 000e FB68     		ldr	r3, [r7, #12]
 277 0010 0722     		movs	r2, #7
 278 0012 9343     		bics	r3, r2
 279 0014 FB60     		str	r3, [r7, #12]
 311:Generated_Source\PSoC4/I2CM.c ****     txFifoCtrl |= ((uint32) (I2CM_TX_FIFO_CTRL_TRIGGER_LEVEL_MASK & level));
 280              		.loc 1 311 0
 281 0016 7B68     		ldr	r3, [r7, #4]
 282 0018 0722     		movs	r2, #7
 283 001a 1340     		ands	r3, r2
 284 001c FA68     		ldr	r2, [r7, #12]
 285 001e 1343     		orrs	r3, r2
 286 0020 FB60     		str	r3, [r7, #12]
 312:Generated_Source\PSoC4/I2CM.c **** 
 313:Generated_Source\PSoC4/I2CM.c ****     I2CM_TX_FIFO_CTRL_REG = txFifoCtrl;
 287              		.loc 1 313 0
 288 0022 034B     		ldr	r3, .L16
 289 0024 FA68     		ldr	r2, [r7, #12]
 290 0026 1A60     		str	r2, [r3]
 314:Generated_Source\PSoC4/I2CM.c **** }
 291              		.loc 1 314 0
 292 0028 C046     		nop
 293 002a BD46     		mov	sp, r7
 294 002c 04B0     		add	sp, sp, #16
 295              		@ sp needed
 296 002e 80BD     		pop	{r7, pc}
 297              	.L17:
 298              		.align	2
 299              	.L16:
 300 0030 04020640 		.word	1074135556
 301              		.cfi_endproc
 302              	.LFE5:
 303              		.size	I2CM_SetTxFifoLevel, .-I2CM_SetTxFifoLevel
 304              		.section	.text.I2CM_SetCustomInterruptHandler,"ax",%progbits
 305              		.align	2
 306              		.global	I2CM_SetCustomInterruptHandler
 307              		.code	16
 308              		.thumb_func
 309              		.type	I2CM_SetCustomInterruptHandler, %function
 310              	I2CM_SetCustomInterruptHandler:
 311              	.LFB6:
 315:Generated_Source\PSoC4/I2CM.c **** 
 316:Generated_Source\PSoC4/I2CM.c **** 
ARM GAS  C:\Users\JAMESS~1\AppData\Local\Temp\cctQTlZU.s 			page 12


 317:Generated_Source\PSoC4/I2CM.c **** #if (I2CM_SCB_IRQ_INTERNAL)
 318:Generated_Source\PSoC4/I2CM.c ****     /*******************************************************************************
 319:Generated_Source\PSoC4/I2CM.c ****     * Function Name: I2CM_SetCustomInterruptHandler
 320:Generated_Source\PSoC4/I2CM.c ****     ****************************************************************************//**
 321:Generated_Source\PSoC4/I2CM.c ****     *
 322:Generated_Source\PSoC4/I2CM.c ****     *  Registers a function to be called by the internal interrupt handler.
 323:Generated_Source\PSoC4/I2CM.c ****     *  First the function that is registered is called, then the internal interrupt
 324:Generated_Source\PSoC4/I2CM.c ****     *  handler performs any operation such as software buffer management functions
 325:Generated_Source\PSoC4/I2CM.c ****     *  before the interrupt returns.  It is the user's responsibility not to break
 326:Generated_Source\PSoC4/I2CM.c ****     *  the software buffer operations. Only one custom handler is supported, which
 327:Generated_Source\PSoC4/I2CM.c ****     *  is the function provided by the most recent call.
 328:Generated_Source\PSoC4/I2CM.c ****     *  At the initialization time no custom handler is registered.
 329:Generated_Source\PSoC4/I2CM.c ****     *
 330:Generated_Source\PSoC4/I2CM.c ****     *  \param func: Pointer to the function to register.
 331:Generated_Source\PSoC4/I2CM.c ****     *        The value NULL indicates to remove the current custom interrupt
 332:Generated_Source\PSoC4/I2CM.c ****     *        handler.
 333:Generated_Source\PSoC4/I2CM.c ****     *
 334:Generated_Source\PSoC4/I2CM.c ****     *******************************************************************************/
 335:Generated_Source\PSoC4/I2CM.c ****     void I2CM_SetCustomInterruptHandler(void (*func)(void))
 336:Generated_Source\PSoC4/I2CM.c ****     {
 312              		.loc 1 336 0
 313              		.cfi_startproc
 314              		@ args = 0, pretend = 0, frame = 8
 315              		@ frame_needed = 1, uses_anonymous_args = 0
 316 0000 80B5     		push	{r7, lr}
 317              		.cfi_def_cfa_offset 8
 318              		.cfi_offset 7, -8
 319              		.cfi_offset 14, -4
 320 0002 82B0     		sub	sp, sp, #8
 321              		.cfi_def_cfa_offset 16
 322 0004 00AF     		add	r7, sp, #0
 323              		.cfi_def_cfa_register 7
 324 0006 7860     		str	r0, [r7, #4]
 337:Generated_Source\PSoC4/I2CM.c ****     #if !defined (CY_REMOVE_I2CM_CUSTOM_INTR_HANDLER)
 338:Generated_Source\PSoC4/I2CM.c ****         I2CM_customIntrHandler = func; /* Register interrupt handler */
 325              		.loc 1 338 0
 326 0008 034B     		ldr	r3, .L19
 327 000a 7A68     		ldr	r2, [r7, #4]
 328 000c 1A60     		str	r2, [r3]
 339:Generated_Source\PSoC4/I2CM.c ****     #else
 340:Generated_Source\PSoC4/I2CM.c ****         if (NULL != func)
 341:Generated_Source\PSoC4/I2CM.c ****         {
 342:Generated_Source\PSoC4/I2CM.c ****             /* Suppress compiler warning */
 343:Generated_Source\PSoC4/I2CM.c ****         }
 344:Generated_Source\PSoC4/I2CM.c ****     #endif /* !defined (CY_REMOVE_I2CM_CUSTOM_INTR_HANDLER) */
 345:Generated_Source\PSoC4/I2CM.c ****     }
 329              		.loc 1 345 0
 330 000e C046     		nop
 331 0010 BD46     		mov	sp, r7
 332 0012 02B0     		add	sp, sp, #8
 333              		@ sp needed
 334 0014 80BD     		pop	{r7, pc}
 335              	.L20:
 336 0016 C046     		.align	2
 337              	.L19:
 338 0018 00000000 		.word	I2CM_customIntrHandler
 339              		.cfi_endproc
ARM GAS  C:\Users\JAMESS~1\AppData\Local\Temp\cctQTlZU.s 			page 13


 340              	.LFE6:
 341              		.size	I2CM_SetCustomInterruptHandler, .-I2CM_SetCustomInterruptHandler
 342              		.section	.text.I2CM_ScbEnableIntr,"ax",%progbits
 343              		.align	2
 344              		.code	16
 345              		.thumb_func
 346              		.type	I2CM_ScbEnableIntr, %function
 347              	I2CM_ScbEnableIntr:
 348              	.LFB7:
 346:Generated_Source\PSoC4/I2CM.c **** #endif /* (I2CM_SCB_IRQ_INTERNAL) */
 347:Generated_Source\PSoC4/I2CM.c **** 
 348:Generated_Source\PSoC4/I2CM.c **** 
 349:Generated_Source\PSoC4/I2CM.c **** /*******************************************************************************
 350:Generated_Source\PSoC4/I2CM.c **** * Function Name: I2CM_ScbModeEnableIntr
 351:Generated_Source\PSoC4/I2CM.c **** ****************************************************************************//**
 352:Generated_Source\PSoC4/I2CM.c **** *
 353:Generated_Source\PSoC4/I2CM.c **** *  Enables an interrupt for a specific mode.
 354:Generated_Source\PSoC4/I2CM.c **** *
 355:Generated_Source\PSoC4/I2CM.c **** *******************************************************************************/
 356:Generated_Source\PSoC4/I2CM.c **** static void I2CM_ScbEnableIntr(void)
 357:Generated_Source\PSoC4/I2CM.c **** {
 349              		.loc 1 357 0
 350              		.cfi_startproc
 351              		@ args = 0, pretend = 0, frame = 0
 352              		@ frame_needed = 1, uses_anonymous_args = 0
 353 0000 80B5     		push	{r7, lr}
 354              		.cfi_def_cfa_offset 8
 355              		.cfi_offset 7, -8
 356              		.cfi_offset 14, -4
 357 0002 00AF     		add	r7, sp, #0
 358              		.cfi_def_cfa_register 7
 358:Generated_Source\PSoC4/I2CM.c **** #if (I2CM_SCB_IRQ_INTERNAL)
 359:Generated_Source\PSoC4/I2CM.c ****     /* Enable interrupt in NVIC */
 360:Generated_Source\PSoC4/I2CM.c ****     #if (I2CM_SCB_MODE_UNCONFIG_CONST_CFG)
 361:Generated_Source\PSoC4/I2CM.c ****         if (0u != I2CM_scbEnableIntr)
 362:Generated_Source\PSoC4/I2CM.c ****         {
 363:Generated_Source\PSoC4/I2CM.c ****             I2CM_EnableInt();
 364:Generated_Source\PSoC4/I2CM.c ****         }
 365:Generated_Source\PSoC4/I2CM.c **** 
 366:Generated_Source\PSoC4/I2CM.c ****     #else
 367:Generated_Source\PSoC4/I2CM.c ****         I2CM_EnableInt();
 359              		.loc 1 367 0
 360 0004 0A20     		movs	r0, #10
 361 0006 FFF7FEFF 		bl	CyIntEnable
 368:Generated_Source\PSoC4/I2CM.c **** 
 369:Generated_Source\PSoC4/I2CM.c ****     #endif /* (I2CM_SCB_MODE_UNCONFIG_CONST_CFG) */
 370:Generated_Source\PSoC4/I2CM.c **** #endif /* (I2CM_SCB_IRQ_INTERNAL) */
 371:Generated_Source\PSoC4/I2CM.c **** }
 362              		.loc 1 371 0
 363 000a C046     		nop
 364 000c BD46     		mov	sp, r7
 365              		@ sp needed
 366 000e 80BD     		pop	{r7, pc}
 367              		.cfi_endproc
 368              	.LFE7:
 369              		.size	I2CM_ScbEnableIntr, .-I2CM_ScbEnableIntr
 370              		.section	.text.I2CM_ScbModePostEnable,"ax",%progbits
ARM GAS  C:\Users\JAMESS~1\AppData\Local\Temp\cctQTlZU.s 			page 14


 371              		.align	2
 372              		.code	16
 373              		.thumb_func
 374              		.type	I2CM_ScbModePostEnable, %function
 375              	I2CM_ScbModePostEnable:
 376              	.LFB8:
 372:Generated_Source\PSoC4/I2CM.c **** 
 373:Generated_Source\PSoC4/I2CM.c **** 
 374:Generated_Source\PSoC4/I2CM.c **** /*******************************************************************************
 375:Generated_Source\PSoC4/I2CM.c **** * Function Name: I2CM_ScbModePostEnable
 376:Generated_Source\PSoC4/I2CM.c **** ****************************************************************************//**
 377:Generated_Source\PSoC4/I2CM.c **** *
 378:Generated_Source\PSoC4/I2CM.c **** *  Calls the PostEnable function for a specific operation mode.
 379:Generated_Source\PSoC4/I2CM.c **** *
 380:Generated_Source\PSoC4/I2CM.c **** *******************************************************************************/
 381:Generated_Source\PSoC4/I2CM.c **** static void I2CM_ScbModePostEnable(void)
 382:Generated_Source\PSoC4/I2CM.c **** {
 377              		.loc 1 382 0
 378              		.cfi_startproc
 379              		@ args = 0, pretend = 0, frame = 0
 380              		@ frame_needed = 1, uses_anonymous_args = 0
 381 0000 80B5     		push	{r7, lr}
 382              		.cfi_def_cfa_offset 8
 383              		.cfi_offset 7, -8
 384              		.cfi_offset 14, -4
 385 0002 00AF     		add	r7, sp, #0
 386              		.cfi_def_cfa_register 7
 383:Generated_Source\PSoC4/I2CM.c **** #if (I2CM_SCB_MODE_UNCONFIG_CONST_CFG)
 384:Generated_Source\PSoC4/I2CM.c **** #if (!I2CM_CY_SCBIP_V1)
 385:Generated_Source\PSoC4/I2CM.c ****     if (I2CM_SCB_MODE_SPI_RUNTM_CFG)
 386:Generated_Source\PSoC4/I2CM.c ****     {
 387:Generated_Source\PSoC4/I2CM.c ****         I2CM_SpiPostEnable();
 388:Generated_Source\PSoC4/I2CM.c ****     }
 389:Generated_Source\PSoC4/I2CM.c ****     else if (I2CM_SCB_MODE_UART_RUNTM_CFG)
 390:Generated_Source\PSoC4/I2CM.c ****     {
 391:Generated_Source\PSoC4/I2CM.c ****         I2CM_UartPostEnable();
 392:Generated_Source\PSoC4/I2CM.c ****     }
 393:Generated_Source\PSoC4/I2CM.c ****     else
 394:Generated_Source\PSoC4/I2CM.c ****     {
 395:Generated_Source\PSoC4/I2CM.c ****         /* Unknown mode: do nothing */
 396:Generated_Source\PSoC4/I2CM.c ****     }
 397:Generated_Source\PSoC4/I2CM.c **** #endif /* (!I2CM_CY_SCBIP_V1) */
 398:Generated_Source\PSoC4/I2CM.c **** 
 399:Generated_Source\PSoC4/I2CM.c **** #elif (I2CM_SCB_MODE_SPI_CONST_CFG)
 400:Generated_Source\PSoC4/I2CM.c ****     I2CM_SpiPostEnable();
 401:Generated_Source\PSoC4/I2CM.c **** 
 402:Generated_Source\PSoC4/I2CM.c **** #elif (I2CM_SCB_MODE_UART_CONST_CFG)
 403:Generated_Source\PSoC4/I2CM.c ****     I2CM_UartPostEnable();
 404:Generated_Source\PSoC4/I2CM.c **** 
 405:Generated_Source\PSoC4/I2CM.c **** #else
 406:Generated_Source\PSoC4/I2CM.c ****     /* Unknown mode: do nothing */
 407:Generated_Source\PSoC4/I2CM.c **** #endif /* (I2CM_SCB_MODE_UNCONFIG_CONST_CFG) */
 408:Generated_Source\PSoC4/I2CM.c **** }
 387              		.loc 1 408 0
 388 0004 C046     		nop
 389 0006 BD46     		mov	sp, r7
 390              		@ sp needed
ARM GAS  C:\Users\JAMESS~1\AppData\Local\Temp\cctQTlZU.s 			page 15


 391 0008 80BD     		pop	{r7, pc}
 392              		.cfi_endproc
 393              	.LFE8:
 394              		.size	I2CM_ScbModePostEnable, .-I2CM_ScbModePostEnable
 395 000a C046     		.section	.text.I2CM_ScbModeStop,"ax",%progbits
 396              		.align	2
 397              		.code	16
 398              		.thumb_func
 399              		.type	I2CM_ScbModeStop, %function
 400              	I2CM_ScbModeStop:
 401              	.LFB9:
 409:Generated_Source\PSoC4/I2CM.c **** 
 410:Generated_Source\PSoC4/I2CM.c **** 
 411:Generated_Source\PSoC4/I2CM.c **** /*******************************************************************************
 412:Generated_Source\PSoC4/I2CM.c **** * Function Name: I2CM_ScbModeStop
 413:Generated_Source\PSoC4/I2CM.c **** ****************************************************************************//**
 414:Generated_Source\PSoC4/I2CM.c **** *
 415:Generated_Source\PSoC4/I2CM.c **** *  Calls the Stop function for a specific operation mode.
 416:Generated_Source\PSoC4/I2CM.c **** *
 417:Generated_Source\PSoC4/I2CM.c **** *******************************************************************************/
 418:Generated_Source\PSoC4/I2CM.c **** static void I2CM_ScbModeStop(void)
 419:Generated_Source\PSoC4/I2CM.c **** {
 402              		.loc 1 419 0
 403              		.cfi_startproc
 404              		@ args = 0, pretend = 0, frame = 0
 405              		@ frame_needed = 1, uses_anonymous_args = 0
 406 0000 80B5     		push	{r7, lr}
 407              		.cfi_def_cfa_offset 8
 408              		.cfi_offset 7, -8
 409              		.cfi_offset 14, -4
 410 0002 00AF     		add	r7, sp, #0
 411              		.cfi_def_cfa_register 7
 420:Generated_Source\PSoC4/I2CM.c **** #if (I2CM_SCB_MODE_UNCONFIG_CONST_CFG)
 421:Generated_Source\PSoC4/I2CM.c ****     if (I2CM_SCB_MODE_I2C_RUNTM_CFG)
 422:Generated_Source\PSoC4/I2CM.c ****     {
 423:Generated_Source\PSoC4/I2CM.c ****         I2CM_I2CStop();
 424:Generated_Source\PSoC4/I2CM.c ****     }
 425:Generated_Source\PSoC4/I2CM.c ****     else if (I2CM_SCB_MODE_EZI2C_RUNTM_CFG)
 426:Generated_Source\PSoC4/I2CM.c ****     {
 427:Generated_Source\PSoC4/I2CM.c ****         I2CM_EzI2CStop();
 428:Generated_Source\PSoC4/I2CM.c ****     }
 429:Generated_Source\PSoC4/I2CM.c **** #if (!I2CM_CY_SCBIP_V1)
 430:Generated_Source\PSoC4/I2CM.c ****     else if (I2CM_SCB_MODE_SPI_RUNTM_CFG)
 431:Generated_Source\PSoC4/I2CM.c ****     {
 432:Generated_Source\PSoC4/I2CM.c ****         I2CM_SpiStop();
 433:Generated_Source\PSoC4/I2CM.c ****     }
 434:Generated_Source\PSoC4/I2CM.c ****     else if (I2CM_SCB_MODE_UART_RUNTM_CFG)
 435:Generated_Source\PSoC4/I2CM.c ****     {
 436:Generated_Source\PSoC4/I2CM.c ****         I2CM_UartStop();
 437:Generated_Source\PSoC4/I2CM.c ****     }
 438:Generated_Source\PSoC4/I2CM.c **** #endif /* (!I2CM_CY_SCBIP_V1) */
 439:Generated_Source\PSoC4/I2CM.c ****     else
 440:Generated_Source\PSoC4/I2CM.c ****     {
 441:Generated_Source\PSoC4/I2CM.c ****         /* Unknown mode: do nothing */
 442:Generated_Source\PSoC4/I2CM.c ****     }
 443:Generated_Source\PSoC4/I2CM.c **** #elif (I2CM_SCB_MODE_I2C_CONST_CFG)
 444:Generated_Source\PSoC4/I2CM.c ****     I2CM_I2CStop();
ARM GAS  C:\Users\JAMESS~1\AppData\Local\Temp\cctQTlZU.s 			page 16


 412              		.loc 1 444 0
 413 0004 FFF7FEFF 		bl	I2CM_I2CStop
 445:Generated_Source\PSoC4/I2CM.c **** 
 446:Generated_Source\PSoC4/I2CM.c **** #elif (I2CM_SCB_MODE_EZI2C_CONST_CFG)
 447:Generated_Source\PSoC4/I2CM.c ****     I2CM_EzI2CStop();
 448:Generated_Source\PSoC4/I2CM.c **** 
 449:Generated_Source\PSoC4/I2CM.c **** #elif (I2CM_SCB_MODE_SPI_CONST_CFG)
 450:Generated_Source\PSoC4/I2CM.c ****     I2CM_SpiStop();
 451:Generated_Source\PSoC4/I2CM.c **** 
 452:Generated_Source\PSoC4/I2CM.c **** #elif (I2CM_SCB_MODE_UART_CONST_CFG)
 453:Generated_Source\PSoC4/I2CM.c ****     I2CM_UartStop();
 454:Generated_Source\PSoC4/I2CM.c **** 
 455:Generated_Source\PSoC4/I2CM.c **** #else
 456:Generated_Source\PSoC4/I2CM.c ****     /* Unknown mode: do nothing */
 457:Generated_Source\PSoC4/I2CM.c **** #endif /* (I2CM_SCB_MODE_UNCONFIG_CONST_CFG) */
 458:Generated_Source\PSoC4/I2CM.c **** }
 414              		.loc 1 458 0
 415 0008 C046     		nop
 416 000a BD46     		mov	sp, r7
 417              		@ sp needed
 418 000c 80BD     		pop	{r7, pc}
 419              		.cfi_endproc
 420              	.LFE9:
 421              		.size	I2CM_ScbModeStop, .-I2CM_ScbModeStop
 422 000e C046     		.section	.text.I2CM_I2CSlaveNackGeneration,"ax",%progbits
 423              		.align	2
 424              		.global	I2CM_I2CSlaveNackGeneration
 425              		.code	16
 426              		.thumb_func
 427              		.type	I2CM_I2CSlaveNackGeneration, %function
 428              	I2CM_I2CSlaveNackGeneration:
 429              	.LFB10:
 459:Generated_Source\PSoC4/I2CM.c **** 
 460:Generated_Source\PSoC4/I2CM.c **** 
 461:Generated_Source\PSoC4/I2CM.c **** #if (I2CM_SCB_MODE_UNCONFIG_CONST_CFG)
 462:Generated_Source\PSoC4/I2CM.c ****     /*******************************************************************************
 463:Generated_Source\PSoC4/I2CM.c ****     * Function Name: I2CM_SetPins
 464:Generated_Source\PSoC4/I2CM.c ****     ****************************************************************************//**
 465:Generated_Source\PSoC4/I2CM.c ****     *
 466:Generated_Source\PSoC4/I2CM.c ****     *  Sets the pins settings accordingly to the selected operation mode.
 467:Generated_Source\PSoC4/I2CM.c ****     *  Only available in the Unconfigured operation mode. The mode specific
 468:Generated_Source\PSoC4/I2CM.c ****     *  initialization function calls it.
 469:Generated_Source\PSoC4/I2CM.c ****     *  Pins configuration is set by PSoC Creator when a specific mode of operation
 470:Generated_Source\PSoC4/I2CM.c ****     *  is selected in design time.
 471:Generated_Source\PSoC4/I2CM.c ****     *
 472:Generated_Source\PSoC4/I2CM.c ****     *  \param mode:      Mode of SCB operation.
 473:Generated_Source\PSoC4/I2CM.c ****     *  \param subMode:   Sub-mode of SCB operation. It is only required for SPI and UART
 474:Generated_Source\PSoC4/I2CM.c ****     *             modes.
 475:Generated_Source\PSoC4/I2CM.c ****     *  \param uartEnableMask: enables TX or RX direction and RTS and CTS signals.
 476:Generated_Source\PSoC4/I2CM.c ****     *
 477:Generated_Source\PSoC4/I2CM.c ****     *******************************************************************************/
 478:Generated_Source\PSoC4/I2CM.c ****     void I2CM_SetPins(uint32 mode, uint32 subMode, uint32 uartEnableMask)
 479:Generated_Source\PSoC4/I2CM.c ****     {
 480:Generated_Source\PSoC4/I2CM.c ****         uint32 pinsDm[I2CM_SCB_PINS_NUMBER];
 481:Generated_Source\PSoC4/I2CM.c ****         uint32 i;
 482:Generated_Source\PSoC4/I2CM.c ****         
 483:Generated_Source\PSoC4/I2CM.c ****     #if (!I2CM_CY_SCBIP_V1)
ARM GAS  C:\Users\JAMESS~1\AppData\Local\Temp\cctQTlZU.s 			page 17


 484:Generated_Source\PSoC4/I2CM.c ****         uint32 pinsInBuf = 0u;
 485:Generated_Source\PSoC4/I2CM.c ****     #endif /* (!I2CM_CY_SCBIP_V1) */
 486:Generated_Source\PSoC4/I2CM.c ****         
 487:Generated_Source\PSoC4/I2CM.c ****         uint32 hsiomSel[I2CM_SCB_PINS_NUMBER] = 
 488:Generated_Source\PSoC4/I2CM.c ****         {
 489:Generated_Source\PSoC4/I2CM.c ****             I2CM_RX_SCL_MOSI_HSIOM_SEL_GPIO,
 490:Generated_Source\PSoC4/I2CM.c ****             I2CM_TX_SDA_MISO_HSIOM_SEL_GPIO,
 491:Generated_Source\PSoC4/I2CM.c ****             0u,
 492:Generated_Source\PSoC4/I2CM.c ****             0u,
 493:Generated_Source\PSoC4/I2CM.c ****             0u,
 494:Generated_Source\PSoC4/I2CM.c ****             0u,
 495:Generated_Source\PSoC4/I2CM.c ****             0u,
 496:Generated_Source\PSoC4/I2CM.c ****         };
 497:Generated_Source\PSoC4/I2CM.c **** 
 498:Generated_Source\PSoC4/I2CM.c ****     #if (I2CM_CY_SCBIP_V1)
 499:Generated_Source\PSoC4/I2CM.c ****         /* Supress compiler warning. */
 500:Generated_Source\PSoC4/I2CM.c ****         if ((0u == subMode) || (0u == uartEnableMask))
 501:Generated_Source\PSoC4/I2CM.c ****         {
 502:Generated_Source\PSoC4/I2CM.c ****         }
 503:Generated_Source\PSoC4/I2CM.c ****     #endif /* (I2CM_CY_SCBIP_V1) */
 504:Generated_Source\PSoC4/I2CM.c **** 
 505:Generated_Source\PSoC4/I2CM.c ****         /* Set default HSIOM to GPIO and Drive Mode to Analog Hi-Z */
 506:Generated_Source\PSoC4/I2CM.c ****         for (i = 0u; i < I2CM_SCB_PINS_NUMBER; i++)
 507:Generated_Source\PSoC4/I2CM.c ****         {
 508:Generated_Source\PSoC4/I2CM.c ****             pinsDm[i] = I2CM_PIN_DM_ALG_HIZ;
 509:Generated_Source\PSoC4/I2CM.c ****         }
 510:Generated_Source\PSoC4/I2CM.c **** 
 511:Generated_Source\PSoC4/I2CM.c ****         if ((I2CM_SCB_MODE_I2C   == mode) ||
 512:Generated_Source\PSoC4/I2CM.c ****             (I2CM_SCB_MODE_EZI2C == mode))
 513:Generated_Source\PSoC4/I2CM.c ****         {
 514:Generated_Source\PSoC4/I2CM.c ****         #if (I2CM_RX_SCL_MOSI_PIN)
 515:Generated_Source\PSoC4/I2CM.c ****             hsiomSel[I2CM_RX_SCL_MOSI_PIN_INDEX] = I2CM_RX_SCL_MOSI_HSIOM_SEL_I2C;
 516:Generated_Source\PSoC4/I2CM.c ****             pinsDm  [I2CM_RX_SCL_MOSI_PIN_INDEX] = I2CM_PIN_DM_OD_LO;
 517:Generated_Source\PSoC4/I2CM.c ****         #elif (I2CM_RX_WAKE_SCL_MOSI_PIN)
 518:Generated_Source\PSoC4/I2CM.c ****             hsiomSel[I2CM_RX_WAKE_SCL_MOSI_PIN_INDEX] = I2CM_RX_WAKE_SCL_MOSI_HSIOM_SEL_I2C;
 519:Generated_Source\PSoC4/I2CM.c ****             pinsDm  [I2CM_RX_WAKE_SCL_MOSI_PIN_INDEX] = I2CM_PIN_DM_OD_LO;
 520:Generated_Source\PSoC4/I2CM.c ****         #else
 521:Generated_Source\PSoC4/I2CM.c ****         #endif /* (I2CM_RX_SCL_MOSI_PIN) */
 522:Generated_Source\PSoC4/I2CM.c ****         
 523:Generated_Source\PSoC4/I2CM.c ****         #if (I2CM_TX_SDA_MISO_PIN)
 524:Generated_Source\PSoC4/I2CM.c ****             hsiomSel[I2CM_TX_SDA_MISO_PIN_INDEX] = I2CM_TX_SDA_MISO_HSIOM_SEL_I2C;
 525:Generated_Source\PSoC4/I2CM.c ****             pinsDm  [I2CM_TX_SDA_MISO_PIN_INDEX] = I2CM_PIN_DM_OD_LO;
 526:Generated_Source\PSoC4/I2CM.c ****         #endif /* (I2CM_TX_SDA_MISO_PIN) */
 527:Generated_Source\PSoC4/I2CM.c ****         }
 528:Generated_Source\PSoC4/I2CM.c ****     #if (!I2CM_CY_SCBIP_V1)
 529:Generated_Source\PSoC4/I2CM.c ****         else if (I2CM_SCB_MODE_SPI == mode)
 530:Generated_Source\PSoC4/I2CM.c ****         {
 531:Generated_Source\PSoC4/I2CM.c ****         #if (I2CM_RX_SCL_MOSI_PIN)
 532:Generated_Source\PSoC4/I2CM.c ****             hsiomSel[I2CM_RX_SCL_MOSI_PIN_INDEX] = I2CM_RX_SCL_MOSI_HSIOM_SEL_SPI;
 533:Generated_Source\PSoC4/I2CM.c ****         #elif (I2CM_RX_WAKE_SCL_MOSI_PIN)
 534:Generated_Source\PSoC4/I2CM.c ****             hsiomSel[I2CM_RX_WAKE_SCL_MOSI_PIN_INDEX] = I2CM_RX_WAKE_SCL_MOSI_HSIOM_SEL_SPI;
 535:Generated_Source\PSoC4/I2CM.c ****         #else
 536:Generated_Source\PSoC4/I2CM.c ****         #endif /* (I2CM_RX_SCL_MOSI_PIN) */
 537:Generated_Source\PSoC4/I2CM.c ****         
 538:Generated_Source\PSoC4/I2CM.c ****         #if (I2CM_TX_SDA_MISO_PIN)
 539:Generated_Source\PSoC4/I2CM.c ****             hsiomSel[I2CM_TX_SDA_MISO_PIN_INDEX] = I2CM_TX_SDA_MISO_HSIOM_SEL_SPI;
 540:Generated_Source\PSoC4/I2CM.c ****         #endif /* (I2CM_TX_SDA_MISO_PIN) */
ARM GAS  C:\Users\JAMESS~1\AppData\Local\Temp\cctQTlZU.s 			page 18


 541:Generated_Source\PSoC4/I2CM.c ****         
 542:Generated_Source\PSoC4/I2CM.c ****         #if (I2CM_SCLK_PIN)
 543:Generated_Source\PSoC4/I2CM.c ****             hsiomSel[I2CM_SCLK_PIN_INDEX] = I2CM_SCLK_HSIOM_SEL_SPI;
 544:Generated_Source\PSoC4/I2CM.c ****         #endif /* (I2CM_SCLK_PIN) */
 545:Generated_Source\PSoC4/I2CM.c **** 
 546:Generated_Source\PSoC4/I2CM.c ****             if (I2CM_SPI_SLAVE == subMode)
 547:Generated_Source\PSoC4/I2CM.c ****             {
 548:Generated_Source\PSoC4/I2CM.c ****                 /* Slave */
 549:Generated_Source\PSoC4/I2CM.c ****                 pinsDm[I2CM_RX_SCL_MOSI_PIN_INDEX] = I2CM_PIN_DM_DIG_HIZ;
 550:Generated_Source\PSoC4/I2CM.c ****                 pinsDm[I2CM_TX_SDA_MISO_PIN_INDEX] = I2CM_PIN_DM_STRONG;
 551:Generated_Source\PSoC4/I2CM.c ****                 pinsDm[I2CM_SCLK_PIN_INDEX] = I2CM_PIN_DM_DIG_HIZ;
 552:Generated_Source\PSoC4/I2CM.c **** 
 553:Generated_Source\PSoC4/I2CM.c ****             #if (I2CM_SS0_PIN)
 554:Generated_Source\PSoC4/I2CM.c ****                 /* Only SS0 is valid choice for Slave */
 555:Generated_Source\PSoC4/I2CM.c ****                 hsiomSel[I2CM_SS0_PIN_INDEX] = I2CM_SS0_HSIOM_SEL_SPI;
 556:Generated_Source\PSoC4/I2CM.c ****                 pinsDm  [I2CM_SS0_PIN_INDEX] = I2CM_PIN_DM_DIG_HIZ;
 557:Generated_Source\PSoC4/I2CM.c ****             #endif /* (I2CM_SS0_PIN) */
 558:Generated_Source\PSoC4/I2CM.c **** 
 559:Generated_Source\PSoC4/I2CM.c ****             #if (I2CM_TX_SDA_MISO_PIN)
 560:Generated_Source\PSoC4/I2CM.c ****                 /* Disable input buffer */
 561:Generated_Source\PSoC4/I2CM.c ****                  pinsInBuf |= I2CM_TX_SDA_MISO_PIN_MASK;
 562:Generated_Source\PSoC4/I2CM.c ****             #endif /* (I2CM_TX_SDA_MISO_PIN) */
 563:Generated_Source\PSoC4/I2CM.c ****             }
 564:Generated_Source\PSoC4/I2CM.c ****             else 
 565:Generated_Source\PSoC4/I2CM.c ****             {
 566:Generated_Source\PSoC4/I2CM.c ****                 /* (Master) */
 567:Generated_Source\PSoC4/I2CM.c ****                 pinsDm[I2CM_RX_SCL_MOSI_PIN_INDEX] = I2CM_PIN_DM_STRONG;
 568:Generated_Source\PSoC4/I2CM.c ****                 pinsDm[I2CM_TX_SDA_MISO_PIN_INDEX] = I2CM_PIN_DM_DIG_HIZ;
 569:Generated_Source\PSoC4/I2CM.c ****                 pinsDm[I2CM_SCLK_PIN_INDEX] = I2CM_PIN_DM_STRONG;
 570:Generated_Source\PSoC4/I2CM.c **** 
 571:Generated_Source\PSoC4/I2CM.c ****             #if (I2CM_SS0_PIN)
 572:Generated_Source\PSoC4/I2CM.c ****                 hsiomSel [I2CM_SS0_PIN_INDEX] = I2CM_SS0_HSIOM_SEL_SPI;
 573:Generated_Source\PSoC4/I2CM.c ****                 pinsDm   [I2CM_SS0_PIN_INDEX] = I2CM_PIN_DM_STRONG;
 574:Generated_Source\PSoC4/I2CM.c ****                 pinsInBuf |= I2CM_SS0_PIN_MASK;
 575:Generated_Source\PSoC4/I2CM.c ****             #endif /* (I2CM_SS0_PIN) */
 576:Generated_Source\PSoC4/I2CM.c **** 
 577:Generated_Source\PSoC4/I2CM.c ****             #if (I2CM_SS1_PIN)
 578:Generated_Source\PSoC4/I2CM.c ****                 hsiomSel [I2CM_SS1_PIN_INDEX] = I2CM_SS1_HSIOM_SEL_SPI;
 579:Generated_Source\PSoC4/I2CM.c ****                 pinsDm   [I2CM_SS1_PIN_INDEX] = I2CM_PIN_DM_STRONG;
 580:Generated_Source\PSoC4/I2CM.c ****                 pinsInBuf |= I2CM_SS1_PIN_MASK;
 581:Generated_Source\PSoC4/I2CM.c ****             #endif /* (I2CM_SS1_PIN) */
 582:Generated_Source\PSoC4/I2CM.c **** 
 583:Generated_Source\PSoC4/I2CM.c ****             #if (I2CM_SS2_PIN)
 584:Generated_Source\PSoC4/I2CM.c ****                 hsiomSel [I2CM_SS2_PIN_INDEX] = I2CM_SS2_HSIOM_SEL_SPI;
 585:Generated_Source\PSoC4/I2CM.c ****                 pinsDm   [I2CM_SS2_PIN_INDEX] = I2CM_PIN_DM_STRONG;
 586:Generated_Source\PSoC4/I2CM.c ****                 pinsInBuf |= I2CM_SS2_PIN_MASK;
 587:Generated_Source\PSoC4/I2CM.c ****             #endif /* (I2CM_SS2_PIN) */
 588:Generated_Source\PSoC4/I2CM.c **** 
 589:Generated_Source\PSoC4/I2CM.c ****             #if (I2CM_SS3_PIN)
 590:Generated_Source\PSoC4/I2CM.c ****                 hsiomSel [I2CM_SS3_PIN_INDEX] = I2CM_SS3_HSIOM_SEL_SPI;
 591:Generated_Source\PSoC4/I2CM.c ****                 pinsDm   [I2CM_SS3_PIN_INDEX] = I2CM_PIN_DM_STRONG;
 592:Generated_Source\PSoC4/I2CM.c ****                 pinsInBuf |= I2CM_SS3_PIN_MASK;
 593:Generated_Source\PSoC4/I2CM.c ****             #endif /* (I2CM_SS3_PIN) */
 594:Generated_Source\PSoC4/I2CM.c **** 
 595:Generated_Source\PSoC4/I2CM.c ****                 /* Disable input buffers */
 596:Generated_Source\PSoC4/I2CM.c ****             #if (I2CM_RX_SCL_MOSI_PIN)
 597:Generated_Source\PSoC4/I2CM.c ****                 pinsInBuf |= I2CM_RX_SCL_MOSI_PIN_MASK;
ARM GAS  C:\Users\JAMESS~1\AppData\Local\Temp\cctQTlZU.s 			page 19


 598:Generated_Source\PSoC4/I2CM.c ****             #elif (I2CM_RX_WAKE_SCL_MOSI_PIN)
 599:Generated_Source\PSoC4/I2CM.c ****                 pinsInBuf |= I2CM_RX_WAKE_SCL_MOSI_PIN_MASK;
 600:Generated_Source\PSoC4/I2CM.c ****             #else
 601:Generated_Source\PSoC4/I2CM.c ****             #endif /* (I2CM_RX_SCL_MOSI_PIN) */
 602:Generated_Source\PSoC4/I2CM.c **** 
 603:Generated_Source\PSoC4/I2CM.c ****             #if (I2CM_SCLK_PIN)
 604:Generated_Source\PSoC4/I2CM.c ****                 pinsInBuf |= I2CM_SCLK_PIN_MASK;
 605:Generated_Source\PSoC4/I2CM.c ****             #endif /* (I2CM_SCLK_PIN) */
 606:Generated_Source\PSoC4/I2CM.c ****             }
 607:Generated_Source\PSoC4/I2CM.c ****         }
 608:Generated_Source\PSoC4/I2CM.c ****         else /* UART */
 609:Generated_Source\PSoC4/I2CM.c ****         {
 610:Generated_Source\PSoC4/I2CM.c ****             if (I2CM_UART_MODE_SMARTCARD == subMode)
 611:Generated_Source\PSoC4/I2CM.c ****             {
 612:Generated_Source\PSoC4/I2CM.c ****                 /* SmartCard */
 613:Generated_Source\PSoC4/I2CM.c ****             #if (I2CM_TX_SDA_MISO_PIN)
 614:Generated_Source\PSoC4/I2CM.c ****                 hsiomSel[I2CM_TX_SDA_MISO_PIN_INDEX] = I2CM_TX_SDA_MISO_HSIOM_SEL_UART;
 615:Generated_Source\PSoC4/I2CM.c ****                 pinsDm  [I2CM_TX_SDA_MISO_PIN_INDEX] = I2CM_PIN_DM_OD_LO;
 616:Generated_Source\PSoC4/I2CM.c ****             #endif /* (I2CM_TX_SDA_MISO_PIN) */
 617:Generated_Source\PSoC4/I2CM.c ****             }
 618:Generated_Source\PSoC4/I2CM.c ****             else /* Standard or IrDA */
 619:Generated_Source\PSoC4/I2CM.c ****             {
 620:Generated_Source\PSoC4/I2CM.c ****                 if (0u != (I2CM_UART_RX_PIN_ENABLE & uartEnableMask))
 621:Generated_Source\PSoC4/I2CM.c ****                 {
 622:Generated_Source\PSoC4/I2CM.c ****                 #if (I2CM_RX_SCL_MOSI_PIN)
 623:Generated_Source\PSoC4/I2CM.c ****                     hsiomSel[I2CM_RX_SCL_MOSI_PIN_INDEX] = I2CM_RX_SCL_MOSI_HSIOM_SEL_UART;
 624:Generated_Source\PSoC4/I2CM.c ****                     pinsDm  [I2CM_RX_SCL_MOSI_PIN_INDEX] = I2CM_PIN_DM_DIG_HIZ;
 625:Generated_Source\PSoC4/I2CM.c ****                 #elif (I2CM_RX_WAKE_SCL_MOSI_PIN)
 626:Generated_Source\PSoC4/I2CM.c ****                     hsiomSel[I2CM_RX_WAKE_SCL_MOSI_PIN_INDEX] = I2CM_RX_WAKE_SCL_MOSI_HSIOM_SEL_UAR
 627:Generated_Source\PSoC4/I2CM.c ****                     pinsDm  [I2CM_RX_WAKE_SCL_MOSI_PIN_INDEX] = I2CM_PIN_DM_DIG_HIZ;
 628:Generated_Source\PSoC4/I2CM.c ****                 #else
 629:Generated_Source\PSoC4/I2CM.c ****                 #endif /* (I2CM_RX_SCL_MOSI_PIN) */
 630:Generated_Source\PSoC4/I2CM.c ****                 }
 631:Generated_Source\PSoC4/I2CM.c **** 
 632:Generated_Source\PSoC4/I2CM.c ****                 if (0u != (I2CM_UART_TX_PIN_ENABLE & uartEnableMask))
 633:Generated_Source\PSoC4/I2CM.c ****                 {
 634:Generated_Source\PSoC4/I2CM.c ****                 #if (I2CM_TX_SDA_MISO_PIN)
 635:Generated_Source\PSoC4/I2CM.c ****                     hsiomSel[I2CM_TX_SDA_MISO_PIN_INDEX] = I2CM_TX_SDA_MISO_HSIOM_SEL_UART;
 636:Generated_Source\PSoC4/I2CM.c ****                     pinsDm  [I2CM_TX_SDA_MISO_PIN_INDEX] = I2CM_PIN_DM_STRONG;
 637:Generated_Source\PSoC4/I2CM.c ****                     
 638:Generated_Source\PSoC4/I2CM.c ****                     /* Disable input buffer */
 639:Generated_Source\PSoC4/I2CM.c ****                     pinsInBuf |= I2CM_TX_SDA_MISO_PIN_MASK;
 640:Generated_Source\PSoC4/I2CM.c ****                 #endif /* (I2CM_TX_SDA_MISO_PIN) */
 641:Generated_Source\PSoC4/I2CM.c ****                 }
 642:Generated_Source\PSoC4/I2CM.c **** 
 643:Generated_Source\PSoC4/I2CM.c ****             #if !(I2CM_CY_SCBIP_V0 || I2CM_CY_SCBIP_V1)
 644:Generated_Source\PSoC4/I2CM.c ****                 if (I2CM_UART_MODE_STD == subMode)
 645:Generated_Source\PSoC4/I2CM.c ****                 {
 646:Generated_Source\PSoC4/I2CM.c ****                     if (0u != (I2CM_UART_CTS_PIN_ENABLE & uartEnableMask))
 647:Generated_Source\PSoC4/I2CM.c ****                     {
 648:Generated_Source\PSoC4/I2CM.c ****                         /* CTS input is multiplexed with SCLK */
 649:Generated_Source\PSoC4/I2CM.c ****                     #if (I2CM_SCLK_PIN)
 650:Generated_Source\PSoC4/I2CM.c ****                         hsiomSel[I2CM_SCLK_PIN_INDEX] = I2CM_SCLK_HSIOM_SEL_UART;
 651:Generated_Source\PSoC4/I2CM.c ****                         pinsDm  [I2CM_SCLK_PIN_INDEX] = I2CM_PIN_DM_DIG_HIZ;
 652:Generated_Source\PSoC4/I2CM.c ****                     #endif /* (I2CM_SCLK_PIN) */
 653:Generated_Source\PSoC4/I2CM.c ****                     }
 654:Generated_Source\PSoC4/I2CM.c **** 
ARM GAS  C:\Users\JAMESS~1\AppData\Local\Temp\cctQTlZU.s 			page 20


 655:Generated_Source\PSoC4/I2CM.c ****                     if (0u != (I2CM_UART_RTS_PIN_ENABLE & uartEnableMask))
 656:Generated_Source\PSoC4/I2CM.c ****                     {
 657:Generated_Source\PSoC4/I2CM.c ****                         /* RTS output is multiplexed with SS0 */
 658:Generated_Source\PSoC4/I2CM.c ****                     #if (I2CM_SS0_PIN)
 659:Generated_Source\PSoC4/I2CM.c ****                         hsiomSel[I2CM_SS0_PIN_INDEX] = I2CM_SS0_HSIOM_SEL_UART;
 660:Generated_Source\PSoC4/I2CM.c ****                         pinsDm  [I2CM_SS0_PIN_INDEX] = I2CM_PIN_DM_STRONG;
 661:Generated_Source\PSoC4/I2CM.c ****                         
 662:Generated_Source\PSoC4/I2CM.c ****                         /* Disable input buffer */
 663:Generated_Source\PSoC4/I2CM.c ****                         pinsInBuf |= I2CM_SS0_PIN_MASK;
 664:Generated_Source\PSoC4/I2CM.c ****                     #endif /* (I2CM_SS0_PIN) */
 665:Generated_Source\PSoC4/I2CM.c ****                     }
 666:Generated_Source\PSoC4/I2CM.c ****                 }
 667:Generated_Source\PSoC4/I2CM.c ****             #endif /* !(I2CM_CY_SCBIP_V0 || I2CM_CY_SCBIP_V1) */
 668:Generated_Source\PSoC4/I2CM.c ****             }
 669:Generated_Source\PSoC4/I2CM.c ****         }
 670:Generated_Source\PSoC4/I2CM.c ****     #endif /* (!I2CM_CY_SCBIP_V1) */
 671:Generated_Source\PSoC4/I2CM.c **** 
 672:Generated_Source\PSoC4/I2CM.c ****     /* Configure pins: set HSIOM, DM and InputBufEnable */
 673:Generated_Source\PSoC4/I2CM.c ****     /* Note: the DR register settings do not effect the pin output if HSIOM is other than GPIO */
 674:Generated_Source\PSoC4/I2CM.c **** 
 675:Generated_Source\PSoC4/I2CM.c ****     #if (I2CM_RX_SCL_MOSI_PIN)
 676:Generated_Source\PSoC4/I2CM.c ****         I2CM_SET_HSIOM_SEL(I2CM_RX_SCL_MOSI_HSIOM_REG,
 677:Generated_Source\PSoC4/I2CM.c ****                                        I2CM_RX_SCL_MOSI_HSIOM_MASK,
 678:Generated_Source\PSoC4/I2CM.c ****                                        I2CM_RX_SCL_MOSI_HSIOM_POS,
 679:Generated_Source\PSoC4/I2CM.c ****                                         hsiomSel[I2CM_RX_SCL_MOSI_PIN_INDEX]);
 680:Generated_Source\PSoC4/I2CM.c **** 
 681:Generated_Source\PSoC4/I2CM.c ****         I2CM_uart_rx_i2c_scl_spi_mosi_SetDriveMode((uint8) pinsDm[I2CM_RX_SCL_MOSI_PIN_INDEX]);
 682:Generated_Source\PSoC4/I2CM.c **** 
 683:Generated_Source\PSoC4/I2CM.c ****         #if (!I2CM_CY_SCBIP_V1)
 684:Generated_Source\PSoC4/I2CM.c ****             I2CM_SET_INP_DIS(I2CM_uart_rx_i2c_scl_spi_mosi_INP_DIS,
 685:Generated_Source\PSoC4/I2CM.c ****                                          I2CM_uart_rx_i2c_scl_spi_mosi_MASK,
 686:Generated_Source\PSoC4/I2CM.c ****                                          (0u != (pinsInBuf & I2CM_RX_SCL_MOSI_PIN_MASK)));
 687:Generated_Source\PSoC4/I2CM.c ****         #endif /* (!I2CM_CY_SCBIP_V1) */
 688:Generated_Source\PSoC4/I2CM.c ****     
 689:Generated_Source\PSoC4/I2CM.c ****     #elif (I2CM_RX_WAKE_SCL_MOSI_PIN)
 690:Generated_Source\PSoC4/I2CM.c ****         I2CM_SET_HSIOM_SEL(I2CM_RX_WAKE_SCL_MOSI_HSIOM_REG,
 691:Generated_Source\PSoC4/I2CM.c ****                                        I2CM_RX_WAKE_SCL_MOSI_HSIOM_MASK,
 692:Generated_Source\PSoC4/I2CM.c ****                                        I2CM_RX_WAKE_SCL_MOSI_HSIOM_POS,
 693:Generated_Source\PSoC4/I2CM.c ****                                        hsiomSel[I2CM_RX_WAKE_SCL_MOSI_PIN_INDEX]);
 694:Generated_Source\PSoC4/I2CM.c **** 
 695:Generated_Source\PSoC4/I2CM.c ****         I2CM_uart_rx_wake_i2c_scl_spi_mosi_SetDriveMode((uint8)
 696:Generated_Source\PSoC4/I2CM.c ****                                                                pinsDm[I2CM_RX_WAKE_SCL_MOSI_PIN_IND
 697:Generated_Source\PSoC4/I2CM.c **** 
 698:Generated_Source\PSoC4/I2CM.c ****         I2CM_SET_INP_DIS(I2CM_uart_rx_wake_i2c_scl_spi_mosi_INP_DIS,
 699:Generated_Source\PSoC4/I2CM.c ****                                      I2CM_uart_rx_wake_i2c_scl_spi_mosi_MASK,
 700:Generated_Source\PSoC4/I2CM.c ****                                      (0u != (pinsInBuf & I2CM_RX_WAKE_SCL_MOSI_PIN_MASK)));
 701:Generated_Source\PSoC4/I2CM.c **** 
 702:Generated_Source\PSoC4/I2CM.c ****          /* Set interrupt on falling edge */
 703:Generated_Source\PSoC4/I2CM.c ****         I2CM_SET_INCFG_TYPE(I2CM_RX_WAKE_SCL_MOSI_INTCFG_REG,
 704:Generated_Source\PSoC4/I2CM.c ****                                         I2CM_RX_WAKE_SCL_MOSI_INTCFG_TYPE_MASK,
 705:Generated_Source\PSoC4/I2CM.c ****                                         I2CM_RX_WAKE_SCL_MOSI_INTCFG_TYPE_POS,
 706:Generated_Source\PSoC4/I2CM.c ****                                         I2CM_INTCFG_TYPE_FALLING_EDGE);
 707:Generated_Source\PSoC4/I2CM.c ****     #else
 708:Generated_Source\PSoC4/I2CM.c ****     #endif /* (I2CM_RX_WAKE_SCL_MOSI_PIN) */
 709:Generated_Source\PSoC4/I2CM.c **** 
 710:Generated_Source\PSoC4/I2CM.c ****     #if (I2CM_TX_SDA_MISO_PIN)
 711:Generated_Source\PSoC4/I2CM.c ****         I2CM_SET_HSIOM_SEL(I2CM_TX_SDA_MISO_HSIOM_REG,
ARM GAS  C:\Users\JAMESS~1\AppData\Local\Temp\cctQTlZU.s 			page 21


 712:Generated_Source\PSoC4/I2CM.c ****                                        I2CM_TX_SDA_MISO_HSIOM_MASK,
 713:Generated_Source\PSoC4/I2CM.c ****                                        I2CM_TX_SDA_MISO_HSIOM_POS,
 714:Generated_Source\PSoC4/I2CM.c ****                                         hsiomSel[I2CM_TX_SDA_MISO_PIN_INDEX]);
 715:Generated_Source\PSoC4/I2CM.c **** 
 716:Generated_Source\PSoC4/I2CM.c ****         I2CM_uart_tx_i2c_sda_spi_miso_SetDriveMode((uint8) pinsDm[I2CM_TX_SDA_MISO_PIN_INDEX]);
 717:Generated_Source\PSoC4/I2CM.c **** 
 718:Generated_Source\PSoC4/I2CM.c ****     #if (!I2CM_CY_SCBIP_V1)
 719:Generated_Source\PSoC4/I2CM.c ****         I2CM_SET_INP_DIS(I2CM_uart_tx_i2c_sda_spi_miso_INP_DIS,
 720:Generated_Source\PSoC4/I2CM.c ****                                      I2CM_uart_tx_i2c_sda_spi_miso_MASK,
 721:Generated_Source\PSoC4/I2CM.c ****                                     (0u != (pinsInBuf & I2CM_TX_SDA_MISO_PIN_MASK)));
 722:Generated_Source\PSoC4/I2CM.c ****     #endif /* (!I2CM_CY_SCBIP_V1) */
 723:Generated_Source\PSoC4/I2CM.c ****     #endif /* (I2CM_RX_SCL_MOSI_PIN) */
 724:Generated_Source\PSoC4/I2CM.c **** 
 725:Generated_Source\PSoC4/I2CM.c ****     #if (I2CM_SCLK_PIN)
 726:Generated_Source\PSoC4/I2CM.c ****         I2CM_SET_HSIOM_SEL(I2CM_SCLK_HSIOM_REG,
 727:Generated_Source\PSoC4/I2CM.c ****                                        I2CM_SCLK_HSIOM_MASK,
 728:Generated_Source\PSoC4/I2CM.c ****                                        I2CM_SCLK_HSIOM_POS,
 729:Generated_Source\PSoC4/I2CM.c ****                                        hsiomSel[I2CM_SCLK_PIN_INDEX]);
 730:Generated_Source\PSoC4/I2CM.c **** 
 731:Generated_Source\PSoC4/I2CM.c ****         I2CM_spi_sclk_SetDriveMode((uint8) pinsDm[I2CM_SCLK_PIN_INDEX]);
 732:Generated_Source\PSoC4/I2CM.c **** 
 733:Generated_Source\PSoC4/I2CM.c ****         I2CM_SET_INP_DIS(I2CM_spi_sclk_INP_DIS,
 734:Generated_Source\PSoC4/I2CM.c ****                                      I2CM_spi_sclk_MASK,
 735:Generated_Source\PSoC4/I2CM.c ****                                      (0u != (pinsInBuf & I2CM_SCLK_PIN_MASK)));
 736:Generated_Source\PSoC4/I2CM.c ****     #endif /* (I2CM_SCLK_PIN) */
 737:Generated_Source\PSoC4/I2CM.c **** 
 738:Generated_Source\PSoC4/I2CM.c ****     #if (I2CM_SS0_PIN)
 739:Generated_Source\PSoC4/I2CM.c ****         I2CM_SET_HSIOM_SEL(I2CM_SS0_HSIOM_REG,
 740:Generated_Source\PSoC4/I2CM.c ****                                        I2CM_SS0_HSIOM_MASK,
 741:Generated_Source\PSoC4/I2CM.c ****                                        I2CM_SS0_HSIOM_POS,
 742:Generated_Source\PSoC4/I2CM.c ****                                        hsiomSel[I2CM_SS0_PIN_INDEX]);
 743:Generated_Source\PSoC4/I2CM.c **** 
 744:Generated_Source\PSoC4/I2CM.c ****         I2CM_spi_ss0_SetDriveMode((uint8) pinsDm[I2CM_SS0_PIN_INDEX]);
 745:Generated_Source\PSoC4/I2CM.c **** 
 746:Generated_Source\PSoC4/I2CM.c ****         I2CM_SET_INP_DIS(I2CM_spi_ss0_INP_DIS,
 747:Generated_Source\PSoC4/I2CM.c ****                                      I2CM_spi_ss0_MASK,
 748:Generated_Source\PSoC4/I2CM.c ****                                      (0u != (pinsInBuf & I2CM_SS0_PIN_MASK)));
 749:Generated_Source\PSoC4/I2CM.c ****     #endif /* (I2CM_SS0_PIN) */
 750:Generated_Source\PSoC4/I2CM.c **** 
 751:Generated_Source\PSoC4/I2CM.c ****     #if (I2CM_SS1_PIN)
 752:Generated_Source\PSoC4/I2CM.c ****         I2CM_SET_HSIOM_SEL(I2CM_SS1_HSIOM_REG,
 753:Generated_Source\PSoC4/I2CM.c ****                                        I2CM_SS1_HSIOM_MASK,
 754:Generated_Source\PSoC4/I2CM.c ****                                        I2CM_SS1_HSIOM_POS,
 755:Generated_Source\PSoC4/I2CM.c ****                                        hsiomSel[I2CM_SS1_PIN_INDEX]);
 756:Generated_Source\PSoC4/I2CM.c **** 
 757:Generated_Source\PSoC4/I2CM.c ****         I2CM_spi_ss1_SetDriveMode((uint8) pinsDm[I2CM_SS1_PIN_INDEX]);
 758:Generated_Source\PSoC4/I2CM.c **** 
 759:Generated_Source\PSoC4/I2CM.c ****         I2CM_SET_INP_DIS(I2CM_spi_ss1_INP_DIS,
 760:Generated_Source\PSoC4/I2CM.c ****                                      I2CM_spi_ss1_MASK,
 761:Generated_Source\PSoC4/I2CM.c ****                                      (0u != (pinsInBuf & I2CM_SS1_PIN_MASK)));
 762:Generated_Source\PSoC4/I2CM.c ****     #endif /* (I2CM_SS1_PIN) */
 763:Generated_Source\PSoC4/I2CM.c **** 
 764:Generated_Source\PSoC4/I2CM.c ****     #if (I2CM_SS2_PIN)
 765:Generated_Source\PSoC4/I2CM.c ****         I2CM_SET_HSIOM_SEL(I2CM_SS2_HSIOM_REG,
 766:Generated_Source\PSoC4/I2CM.c ****                                        I2CM_SS2_HSIOM_MASK,
 767:Generated_Source\PSoC4/I2CM.c ****                                        I2CM_SS2_HSIOM_POS,
 768:Generated_Source\PSoC4/I2CM.c ****                                        hsiomSel[I2CM_SS2_PIN_INDEX]);
ARM GAS  C:\Users\JAMESS~1\AppData\Local\Temp\cctQTlZU.s 			page 22


 769:Generated_Source\PSoC4/I2CM.c **** 
 770:Generated_Source\PSoC4/I2CM.c ****         I2CM_spi_ss2_SetDriveMode((uint8) pinsDm[I2CM_SS2_PIN_INDEX]);
 771:Generated_Source\PSoC4/I2CM.c **** 
 772:Generated_Source\PSoC4/I2CM.c ****         I2CM_SET_INP_DIS(I2CM_spi_ss2_INP_DIS,
 773:Generated_Source\PSoC4/I2CM.c ****                                      I2CM_spi_ss2_MASK,
 774:Generated_Source\PSoC4/I2CM.c ****                                      (0u != (pinsInBuf & I2CM_SS2_PIN_MASK)));
 775:Generated_Source\PSoC4/I2CM.c ****     #endif /* (I2CM_SS2_PIN) */
 776:Generated_Source\PSoC4/I2CM.c **** 
 777:Generated_Source\PSoC4/I2CM.c ****     #if (I2CM_SS3_PIN)
 778:Generated_Source\PSoC4/I2CM.c ****         I2CM_SET_HSIOM_SEL(I2CM_SS3_HSIOM_REG,
 779:Generated_Source\PSoC4/I2CM.c ****                                        I2CM_SS3_HSIOM_MASK,
 780:Generated_Source\PSoC4/I2CM.c ****                                        I2CM_SS3_HSIOM_POS,
 781:Generated_Source\PSoC4/I2CM.c ****                                        hsiomSel[I2CM_SS3_PIN_INDEX]);
 782:Generated_Source\PSoC4/I2CM.c **** 
 783:Generated_Source\PSoC4/I2CM.c ****         I2CM_spi_ss3_SetDriveMode((uint8) pinsDm[I2CM_SS3_PIN_INDEX]);
 784:Generated_Source\PSoC4/I2CM.c **** 
 785:Generated_Source\PSoC4/I2CM.c ****         I2CM_SET_INP_DIS(I2CM_spi_ss3_INP_DIS,
 786:Generated_Source\PSoC4/I2CM.c ****                                      I2CM_spi_ss3_MASK,
 787:Generated_Source\PSoC4/I2CM.c ****                                      (0u != (pinsInBuf & I2CM_SS3_PIN_MASK)));
 788:Generated_Source\PSoC4/I2CM.c ****     #endif /* (I2CM_SS3_PIN) */
 789:Generated_Source\PSoC4/I2CM.c ****     }
 790:Generated_Source\PSoC4/I2CM.c **** 
 791:Generated_Source\PSoC4/I2CM.c **** #endif /* (I2CM_SCB_MODE_UNCONFIG_CONST_CFG) */
 792:Generated_Source\PSoC4/I2CM.c **** 
 793:Generated_Source\PSoC4/I2CM.c **** 
 794:Generated_Source\PSoC4/I2CM.c **** #if (I2CM_CY_SCBIP_V0 || I2CM_CY_SCBIP_V1)
 795:Generated_Source\PSoC4/I2CM.c ****     /*******************************************************************************
 796:Generated_Source\PSoC4/I2CM.c ****     * Function Name: I2CM_I2CSlaveNackGeneration
 797:Generated_Source\PSoC4/I2CM.c ****     ****************************************************************************//**
 798:Generated_Source\PSoC4/I2CM.c ****     *
 799:Generated_Source\PSoC4/I2CM.c ****     *  Sets command to generate NACK to the address or data.
 800:Generated_Source\PSoC4/I2CM.c ****     *
 801:Generated_Source\PSoC4/I2CM.c ****     *******************************************************************************/
 802:Generated_Source\PSoC4/I2CM.c ****     void I2CM_I2CSlaveNackGeneration(void)
 803:Generated_Source\PSoC4/I2CM.c ****     {
 430              		.loc 1 803 0
 431              		.cfi_startproc
 432              		@ args = 0, pretend = 0, frame = 0
 433              		@ frame_needed = 1, uses_anonymous_args = 0
 434 0000 80B5     		push	{r7, lr}
 435              		.cfi_def_cfa_offset 8
 436              		.cfi_offset 7, -8
 437              		.cfi_offset 14, -4
 438 0002 00AF     		add	r7, sp, #0
 439              		.cfi_def_cfa_register 7
 804:Generated_Source\PSoC4/I2CM.c ****         /* Check for EC_AM toggle condition: EC_AM and clock stretching for address are enabled */
 805:Generated_Source\PSoC4/I2CM.c ****         if ((0u != (I2CM_CTRL_REG & I2CM_CTRL_EC_AM_MODE)) &&
 440              		.loc 1 805 0
 441 0004 0F4B     		ldr	r3, .L26
 442 0006 1A68     		ldr	r2, [r3]
 443 0008 8023     		movs	r3, #128
 444 000a 5B00     		lsls	r3, r3, #1
 445 000c 1340     		ands	r3, r2
 446 000e 12D0     		beq	.L25
 806:Generated_Source\PSoC4/I2CM.c ****             (0u == (I2CM_I2C_CTRL_REG & I2CM_I2C_CTRL_S_NOT_READY_ADDR_NACK)))
 447              		.loc 1 806 0 discriminator 1
 448 0010 0D4B     		ldr	r3, .L26+4
ARM GAS  C:\Users\JAMESS~1\AppData\Local\Temp\cctQTlZU.s 			page 23


 449 0012 1A68     		ldr	r2, [r3]
 450 0014 8023     		movs	r3, #128
 451 0016 DB01     		lsls	r3, r3, #7
 452 0018 1340     		ands	r3, r2
 805:Generated_Source\PSoC4/I2CM.c ****             (0u == (I2CM_I2C_CTRL_REG & I2CM_I2C_CTRL_S_NOT_READY_ADDR_NACK)))
 453              		.loc 1 805 0 discriminator 1
 454 001a 0CD1     		bne	.L25
 807:Generated_Source\PSoC4/I2CM.c ****         {
 808:Generated_Source\PSoC4/I2CM.c ****             /* Toggle EC_AM before NACK generation */
 809:Generated_Source\PSoC4/I2CM.c ****             I2CM_CTRL_REG &= ~I2CM_CTRL_EC_AM_MODE;
 455              		.loc 1 809 0
 456 001c 094B     		ldr	r3, .L26
 457 001e 094A     		ldr	r2, .L26
 458 0020 1268     		ldr	r2, [r2]
 459 0022 0A49     		ldr	r1, .L26+8
 460 0024 0A40     		ands	r2, r1
 461 0026 1A60     		str	r2, [r3]
 810:Generated_Source\PSoC4/I2CM.c ****             I2CM_CTRL_REG |=  I2CM_CTRL_EC_AM_MODE;
 462              		.loc 1 810 0
 463 0028 064B     		ldr	r3, .L26
 464 002a 064A     		ldr	r2, .L26
 465 002c 1268     		ldr	r2, [r2]
 466 002e 8021     		movs	r1, #128
 467 0030 4900     		lsls	r1, r1, #1
 468 0032 0A43     		orrs	r2, r1
 469 0034 1A60     		str	r2, [r3]
 470              	.L25:
 811:Generated_Source\PSoC4/I2CM.c ****         }
 812:Generated_Source\PSoC4/I2CM.c **** 
 813:Generated_Source\PSoC4/I2CM.c ****         I2CM_I2C_SLAVE_CMD_REG = I2CM_I2C_SLAVE_CMD_S_NACK;
 471              		.loc 1 813 0
 472 0036 064B     		ldr	r3, .L26+12
 473 0038 0222     		movs	r2, #2
 474 003a 1A60     		str	r2, [r3]
 814:Generated_Source\PSoC4/I2CM.c ****     }
 475              		.loc 1 814 0
 476 003c C046     		nop
 477 003e BD46     		mov	sp, r7
 478              		@ sp needed
 479 0040 80BD     		pop	{r7, pc}
 480              	.L27:
 481 0042 C046     		.align	2
 482              	.L26:
 483 0044 00000640 		.word	1074135040
 484 0048 60000640 		.word	1074135136
 485 004c FFFEFFFF 		.word	-257
 486 0050 6C000640 		.word	1074135148
 487              		.cfi_endproc
 488              	.LFE10:
 489              		.size	I2CM_I2CSlaveNackGeneration, .-I2CM_I2CSlaveNackGeneration
 490              		.text
 491              	.Letext0:
 492              		.file 2 "Generated_Source\\PSoC4/cytypes.h"