ARM GAS  C:\Users\JAMESS~1\AppData\Local\Temp\cc9shGxJ.s 			page 1


   1              		.syntax unified
   2              		.cpu cortex-m0
   3              		.fpu softvfp
   4              		.eabi_attribute 20, 1
   5              		.eabi_attribute 21, 1
   6              		.eabi_attribute 23, 3
   7              		.eabi_attribute 24, 1
   8              		.eabi_attribute 25, 1
   9              		.eabi_attribute 26, 1
  10              		.eabi_attribute 30, 6
  11              		.eabi_attribute 34, 0
  12              		.eabi_attribute 18, 4
  13              		.thumb
  14              		.syntax unified
  15              		.file	"I2CM_I2C.c"
  16              		.text
  17              	.Ltext0:
  18              		.cfi_sections	.debug_frame
  19              		.comm	I2CM_state,1,1
  20              		.section	.text.I2CM_I2CInit,"ax",%progbits
  21              		.align	2
  22              		.global	I2CM_I2CInit
  23              		.code	16
  24              		.thumb_func
  25              		.type	I2CM_I2CInit, %function
  26              	I2CM_I2CInit:
  27              	.LFB0:
  28              		.file 1 "Generated_Source\\PSoC4\\I2CM_I2C.c"
   1:Generated_Source\PSoC4/I2CM_I2C.c **** /***************************************************************************//**
   2:Generated_Source\PSoC4/I2CM_I2C.c **** * \file I2CM_I2C.c
   3:Generated_Source\PSoC4/I2CM_I2C.c **** * \version 3.20
   4:Generated_Source\PSoC4/I2CM_I2C.c **** *
   5:Generated_Source\PSoC4/I2CM_I2C.c **** * \brief
   6:Generated_Source\PSoC4/I2CM_I2C.c **** *  This file provides the source code to the API for the SCB Component in
   7:Generated_Source\PSoC4/I2CM_I2C.c **** *  I2C mode.
   8:Generated_Source\PSoC4/I2CM_I2C.c **** *
   9:Generated_Source\PSoC4/I2CM_I2C.c **** * Note:
  10:Generated_Source\PSoC4/I2CM_I2C.c **** *
  11:Generated_Source\PSoC4/I2CM_I2C.c **** *******************************************************************************
  12:Generated_Source\PSoC4/I2CM_I2C.c **** * \copyright
  13:Generated_Source\PSoC4/I2CM_I2C.c **** * Copyright 2013-2016, Cypress Semiconductor Corporation.  All rights reserved.
  14:Generated_Source\PSoC4/I2CM_I2C.c **** * You may use this file only in accordance with the license, terms, conditions,
  15:Generated_Source\PSoC4/I2CM_I2C.c **** * disclaimers, and limitations in the end user license agreement accompanying
  16:Generated_Source\PSoC4/I2CM_I2C.c **** * the software package with which this file was provided.
  17:Generated_Source\PSoC4/I2CM_I2C.c **** *******************************************************************************/
  18:Generated_Source\PSoC4/I2CM_I2C.c **** 
  19:Generated_Source\PSoC4/I2CM_I2C.c **** #include "I2CM_PVT.h"
  20:Generated_Source\PSoC4/I2CM_I2C.c **** #include "I2CM_I2C_PVT.h"
  21:Generated_Source\PSoC4/I2CM_I2C.c **** 
  22:Generated_Source\PSoC4/I2CM_I2C.c **** 
  23:Generated_Source\PSoC4/I2CM_I2C.c **** /***************************************
  24:Generated_Source\PSoC4/I2CM_I2C.c **** *      I2C Private Vars
  25:Generated_Source\PSoC4/I2CM_I2C.c **** ***************************************/
  26:Generated_Source\PSoC4/I2CM_I2C.c **** 
  27:Generated_Source\PSoC4/I2CM_I2C.c **** volatile uint8 I2CM_state;  /* Current state of I2C FSM */
  28:Generated_Source\PSoC4/I2CM_I2C.c **** 
  29:Generated_Source\PSoC4/I2CM_I2C.c **** #if(I2CM_SCB_MODE_UNCONFIG_CONST_CFG)
ARM GAS  C:\Users\JAMESS~1\AppData\Local\Temp\cc9shGxJ.s 			page 2


  30:Generated_Source\PSoC4/I2CM_I2C.c **** 
  31:Generated_Source\PSoC4/I2CM_I2C.c ****     /***************************************
  32:Generated_Source\PSoC4/I2CM_I2C.c ****     *  Configuration Structure Initialization
  33:Generated_Source\PSoC4/I2CM_I2C.c ****     ***************************************/
  34:Generated_Source\PSoC4/I2CM_I2C.c **** 
  35:Generated_Source\PSoC4/I2CM_I2C.c ****     /* Constant configuration of I2C */
  36:Generated_Source\PSoC4/I2CM_I2C.c ****     const I2CM_I2C_INIT_STRUCT I2CM_configI2C =
  37:Generated_Source\PSoC4/I2CM_I2C.c ****     {
  38:Generated_Source\PSoC4/I2CM_I2C.c ****         I2CM_I2C_MODE,
  39:Generated_Source\PSoC4/I2CM_I2C.c ****         I2CM_I2C_OVS_FACTOR_LOW,
  40:Generated_Source\PSoC4/I2CM_I2C.c ****         I2CM_I2C_OVS_FACTOR_HIGH,
  41:Generated_Source\PSoC4/I2CM_I2C.c ****         I2CM_I2C_MEDIAN_FILTER_ENABLE,
  42:Generated_Source\PSoC4/I2CM_I2C.c ****         I2CM_I2C_SLAVE_ADDRESS,
  43:Generated_Source\PSoC4/I2CM_I2C.c ****         I2CM_I2C_SLAVE_ADDRESS_MASK,
  44:Generated_Source\PSoC4/I2CM_I2C.c ****         I2CM_I2C_ACCEPT_ADDRESS,
  45:Generated_Source\PSoC4/I2CM_I2C.c ****         I2CM_I2C_WAKE_ENABLE,
  46:Generated_Source\PSoC4/I2CM_I2C.c ****         I2CM_I2C_BYTE_MODE_ENABLE,
  47:Generated_Source\PSoC4/I2CM_I2C.c ****         I2CM_I2C_DATA_RATE,
  48:Generated_Source\PSoC4/I2CM_I2C.c ****         I2CM_I2C_ACCEPT_GENERAL_CALL,
  49:Generated_Source\PSoC4/I2CM_I2C.c ****     };
  50:Generated_Source\PSoC4/I2CM_I2C.c **** 
  51:Generated_Source\PSoC4/I2CM_I2C.c ****     /*******************************************************************************
  52:Generated_Source\PSoC4/I2CM_I2C.c ****     * Function Name: I2CM_I2CInit
  53:Generated_Source\PSoC4/I2CM_I2C.c ****     ****************************************************************************//**
  54:Generated_Source\PSoC4/I2CM_I2C.c ****     *
  55:Generated_Source\PSoC4/I2CM_I2C.c ****     *
  56:Generated_Source\PSoC4/I2CM_I2C.c ****     *  Configures the I2CM for I2C operation.
  57:Generated_Source\PSoC4/I2CM_I2C.c ****     *
  58:Generated_Source\PSoC4/I2CM_I2C.c ****     *  This function is intended specifically to be used when the I2CM 
  59:Generated_Source\PSoC4/I2CM_I2C.c ****     *  configuration is set to “Unconfigured I2CM” in the customizer. 
  60:Generated_Source\PSoC4/I2CM_I2C.c ****     *  After initializing the I2CM in I2C mode using this function, 
  61:Generated_Source\PSoC4/I2CM_I2C.c ****     *  the component can be enabled using the I2CM_Start() or 
  62:Generated_Source\PSoC4/I2CM_I2C.c ****     * I2CM_Enable() function.
  63:Generated_Source\PSoC4/I2CM_I2C.c ****     *  This function uses a pointer to a structure that provides the configuration 
  64:Generated_Source\PSoC4/I2CM_I2C.c ****     *  settings. This structure contains the same information that would otherwise 
  65:Generated_Source\PSoC4/I2CM_I2C.c ****     *  be provided by the customizer settings.
  66:Generated_Source\PSoC4/I2CM_I2C.c ****     *
  67:Generated_Source\PSoC4/I2CM_I2C.c ****     *  \param config: pointer to a structure that contains the following list of 
  68:Generated_Source\PSoC4/I2CM_I2C.c ****     *   fields. These fields match the selections available in the customizer. 
  69:Generated_Source\PSoC4/I2CM_I2C.c ****     *   Refer to the customizer for further description of the settings.
  70:Generated_Source\PSoC4/I2CM_I2C.c ****     *
  71:Generated_Source\PSoC4/I2CM_I2C.c ****     *******************************************************************************/
  72:Generated_Source\PSoC4/I2CM_I2C.c ****     void I2CM_I2CInit(const I2CM_I2C_INIT_STRUCT *config)
  73:Generated_Source\PSoC4/I2CM_I2C.c ****     {
  74:Generated_Source\PSoC4/I2CM_I2C.c ****         uint32 medianFilter;
  75:Generated_Source\PSoC4/I2CM_I2C.c ****         uint32 locEnableWake;
  76:Generated_Source\PSoC4/I2CM_I2C.c **** 
  77:Generated_Source\PSoC4/I2CM_I2C.c ****         if(NULL == config)
  78:Generated_Source\PSoC4/I2CM_I2C.c ****         {
  79:Generated_Source\PSoC4/I2CM_I2C.c ****             CYASSERT(0u != 0u); /* Halt execution due to bad function parameter */
  80:Generated_Source\PSoC4/I2CM_I2C.c ****         }
  81:Generated_Source\PSoC4/I2CM_I2C.c ****         else
  82:Generated_Source\PSoC4/I2CM_I2C.c ****         {
  83:Generated_Source\PSoC4/I2CM_I2C.c ****             /* Configure pins */
  84:Generated_Source\PSoC4/I2CM_I2C.c ****             I2CM_SetPins(I2CM_SCB_MODE_I2C, I2CM_DUMMY_PARAM,
  85:Generated_Source\PSoC4/I2CM_I2C.c ****                                      I2CM_DUMMY_PARAM);
  86:Generated_Source\PSoC4/I2CM_I2C.c **** 
ARM GAS  C:\Users\JAMESS~1\AppData\Local\Temp\cc9shGxJ.s 			page 3


  87:Generated_Source\PSoC4/I2CM_I2C.c ****             /* Store internal configuration */
  88:Generated_Source\PSoC4/I2CM_I2C.c ****             I2CM_scbMode       = (uint8) I2CM_SCB_MODE_I2C;
  89:Generated_Source\PSoC4/I2CM_I2C.c ****             I2CM_scbEnableWake = (uint8) config->enableWake;
  90:Generated_Source\PSoC4/I2CM_I2C.c ****             I2CM_scbEnableIntr = (uint8) I2CM_SCB_IRQ_INTERNAL;
  91:Generated_Source\PSoC4/I2CM_I2C.c **** 
  92:Generated_Source\PSoC4/I2CM_I2C.c ****             I2CM_mode          = (uint8) config->mode;
  93:Generated_Source\PSoC4/I2CM_I2C.c ****             I2CM_acceptAddr    = (uint8) config->acceptAddr;
  94:Generated_Source\PSoC4/I2CM_I2C.c **** 
  95:Generated_Source\PSoC4/I2CM_I2C.c ****         #if (I2CM_CY_SCBIP_V0)
  96:Generated_Source\PSoC4/I2CM_I2C.c ****             /* Adjust SDA filter settings. Ticket ID#150521 */
  97:Generated_Source\PSoC4/I2CM_I2C.c ****             I2CM_SET_I2C_CFG_SDA_FILT_TRIM(I2CM_EC_AM_I2C_CFG_SDA_FILT_TRIM);
  98:Generated_Source\PSoC4/I2CM_I2C.c ****         #endif /* (I2CM_CY_SCBIP_V0) */
  99:Generated_Source\PSoC4/I2CM_I2C.c **** 
 100:Generated_Source\PSoC4/I2CM_I2C.c ****             /* Adjust AF and DF filter settings. Ticket ID#176179 */
 101:Generated_Source\PSoC4/I2CM_I2C.c ****             if (((I2CM_I2C_MODE_SLAVE != config->mode) &&
 102:Generated_Source\PSoC4/I2CM_I2C.c ****                  (config->dataRate <= I2CM_I2C_DATA_RATE_FS_MODE_MAX)) ||
 103:Generated_Source\PSoC4/I2CM_I2C.c ****                  (I2CM_I2C_MODE_SLAVE == config->mode))
 104:Generated_Source\PSoC4/I2CM_I2C.c ****             {
 105:Generated_Source\PSoC4/I2CM_I2C.c ****                 /* AF = 1, DF = 0 */
 106:Generated_Source\PSoC4/I2CM_I2C.c ****                 I2CM_I2C_CFG_ANALOG_FITER_ENABLE;
 107:Generated_Source\PSoC4/I2CM_I2C.c ****                 medianFilter = I2CM_DIGITAL_FILTER_DISABLE;
 108:Generated_Source\PSoC4/I2CM_I2C.c ****             }
 109:Generated_Source\PSoC4/I2CM_I2C.c ****             else
 110:Generated_Source\PSoC4/I2CM_I2C.c ****             {
 111:Generated_Source\PSoC4/I2CM_I2C.c ****                 /* AF = 0, DF = 1 */
 112:Generated_Source\PSoC4/I2CM_I2C.c ****                 I2CM_I2C_CFG_ANALOG_FITER_DISABLE;
 113:Generated_Source\PSoC4/I2CM_I2C.c ****                 medianFilter = I2CM_DIGITAL_FILTER_ENABLE;
 114:Generated_Source\PSoC4/I2CM_I2C.c ****             }
 115:Generated_Source\PSoC4/I2CM_I2C.c **** 
 116:Generated_Source\PSoC4/I2CM_I2C.c ****         #if (!I2CM_CY_SCBIP_V0)
 117:Generated_Source\PSoC4/I2CM_I2C.c ****             locEnableWake = (I2CM_I2C_MULTI_MASTER_SLAVE) ? (0u) : (config->enableWake);
 118:Generated_Source\PSoC4/I2CM_I2C.c ****         #else
 119:Generated_Source\PSoC4/I2CM_I2C.c ****             locEnableWake = config->enableWake;
 120:Generated_Source\PSoC4/I2CM_I2C.c ****         #endif /* (!I2CM_CY_SCBIP_V0) */
 121:Generated_Source\PSoC4/I2CM_I2C.c **** 
 122:Generated_Source\PSoC4/I2CM_I2C.c ****             /* Configure I2C interface */
 123:Generated_Source\PSoC4/I2CM_I2C.c ****             I2CM_CTRL_REG     = I2CM_GET_CTRL_BYTE_MODE  (config->enableByteMode) |
 124:Generated_Source\PSoC4/I2CM_I2C.c ****                                             I2CM_GET_CTRL_ADDR_ACCEPT(config->acceptAddr)     |
 125:Generated_Source\PSoC4/I2CM_I2C.c ****                                             I2CM_GET_CTRL_EC_AM_MODE (locEnableWake);
 126:Generated_Source\PSoC4/I2CM_I2C.c **** 
 127:Generated_Source\PSoC4/I2CM_I2C.c ****             I2CM_I2C_CTRL_REG = I2CM_GET_I2C_CTRL_HIGH_PHASE_OVS(config->oversampleHigh) |
 128:Generated_Source\PSoC4/I2CM_I2C.c ****                     I2CM_GET_I2C_CTRL_LOW_PHASE_OVS (config->oversampleLow)                        
 129:Generated_Source\PSoC4/I2CM_I2C.c ****                     I2CM_GET_I2C_CTRL_S_GENERAL_IGNORE((uint32)(0u == config->acceptGeneralAddr))  
 130:Generated_Source\PSoC4/I2CM_I2C.c ****                     I2CM_GET_I2C_CTRL_SL_MSTR_MODE  (config->mode);
 131:Generated_Source\PSoC4/I2CM_I2C.c **** 
 132:Generated_Source\PSoC4/I2CM_I2C.c ****             /* Configure RX direction */
 133:Generated_Source\PSoC4/I2CM_I2C.c ****             I2CM_RX_CTRL_REG      = I2CM_GET_RX_CTRL_MEDIAN(medianFilter) |
 134:Generated_Source\PSoC4/I2CM_I2C.c ****                                                 I2CM_I2C_RX_CTRL;
 135:Generated_Source\PSoC4/I2CM_I2C.c ****             I2CM_RX_FIFO_CTRL_REG = I2CM_CLEAR_REG;
 136:Generated_Source\PSoC4/I2CM_I2C.c **** 
 137:Generated_Source\PSoC4/I2CM_I2C.c ****             /* Set default address and mask */
 138:Generated_Source\PSoC4/I2CM_I2C.c ****             I2CM_RX_MATCH_REG    = ((I2CM_I2C_SLAVE) ?
 139:Generated_Source\PSoC4/I2CM_I2C.c ****                                                 (I2CM_GET_I2C_8BIT_ADDRESS(config->slaveAddr) |
 140:Generated_Source\PSoC4/I2CM_I2C.c ****                                                  I2CM_GET_RX_MATCH_MASK(config->slaveAddrMask)) :
 141:Generated_Source\PSoC4/I2CM_I2C.c ****                                                 (I2CM_CLEAR_REG));
 142:Generated_Source\PSoC4/I2CM_I2C.c **** 
 143:Generated_Source\PSoC4/I2CM_I2C.c **** 
ARM GAS  C:\Users\JAMESS~1\AppData\Local\Temp\cc9shGxJ.s 			page 4


 144:Generated_Source\PSoC4/I2CM_I2C.c ****             /* Configure TX direction */
 145:Generated_Source\PSoC4/I2CM_I2C.c ****             I2CM_TX_CTRL_REG      = I2CM_I2C_TX_CTRL;
 146:Generated_Source\PSoC4/I2CM_I2C.c ****             I2CM_TX_FIFO_CTRL_REG = I2CM_CLEAR_REG;
 147:Generated_Source\PSoC4/I2CM_I2C.c **** 
 148:Generated_Source\PSoC4/I2CM_I2C.c ****             /* Configure interrupt with I2C handler but do not enable it */
 149:Generated_Source\PSoC4/I2CM_I2C.c ****             CyIntDisable    (I2CM_ISR_NUMBER);
 150:Generated_Source\PSoC4/I2CM_I2C.c ****             CyIntSetPriority(I2CM_ISR_NUMBER, I2CM_ISR_PRIORITY);
 151:Generated_Source\PSoC4/I2CM_I2C.c ****             (void) CyIntSetVector(I2CM_ISR_NUMBER, &I2CM_I2C_ISR);
 152:Generated_Source\PSoC4/I2CM_I2C.c **** 
 153:Generated_Source\PSoC4/I2CM_I2C.c ****             /* Configure interrupt sources */
 154:Generated_Source\PSoC4/I2CM_I2C.c ****         #if(!I2CM_CY_SCBIP_V1)
 155:Generated_Source\PSoC4/I2CM_I2C.c ****             I2CM_INTR_SPI_EC_MASK_REG = I2CM_NO_INTR_SOURCES;
 156:Generated_Source\PSoC4/I2CM_I2C.c ****         #endif /* (!I2CM_CY_SCBIP_V1) */
 157:Generated_Source\PSoC4/I2CM_I2C.c **** 
 158:Generated_Source\PSoC4/I2CM_I2C.c ****             I2CM_INTR_I2C_EC_MASK_REG = I2CM_NO_INTR_SOURCES;
 159:Generated_Source\PSoC4/I2CM_I2C.c ****             I2CM_INTR_RX_MASK_REG     = I2CM_NO_INTR_SOURCES;
 160:Generated_Source\PSoC4/I2CM_I2C.c ****             I2CM_INTR_TX_MASK_REG     = I2CM_NO_INTR_SOURCES;
 161:Generated_Source\PSoC4/I2CM_I2C.c **** 
 162:Generated_Source\PSoC4/I2CM_I2C.c ****             I2CM_INTR_SLAVE_MASK_REG  = ((I2CM_I2C_SLAVE) ?
 163:Generated_Source\PSoC4/I2CM_I2C.c ****                             (I2CM_GET_INTR_SLAVE_I2C_GENERAL(config->acceptGeneralAddr) |
 164:Generated_Source\PSoC4/I2CM_I2C.c ****                              I2CM_I2C_INTR_SLAVE_MASK) : (I2CM_CLEAR_REG));
 165:Generated_Source\PSoC4/I2CM_I2C.c **** 
 166:Generated_Source\PSoC4/I2CM_I2C.c ****             I2CM_INTR_MASTER_MASK_REG = ((I2CM_I2C_MASTER) ?
 167:Generated_Source\PSoC4/I2CM_I2C.c ****                                                      (I2CM_I2C_INTR_MASTER_MASK) :
 168:Generated_Source\PSoC4/I2CM_I2C.c ****                                                      (I2CM_CLEAR_REG));
 169:Generated_Source\PSoC4/I2CM_I2C.c **** 
 170:Generated_Source\PSoC4/I2CM_I2C.c ****             /* Configure global variables */
 171:Generated_Source\PSoC4/I2CM_I2C.c ****             I2CM_state = I2CM_I2C_FSM_IDLE;
 172:Generated_Source\PSoC4/I2CM_I2C.c **** 
 173:Generated_Source\PSoC4/I2CM_I2C.c ****             /* Internal slave variables */
 174:Generated_Source\PSoC4/I2CM_I2C.c ****             I2CM_slStatus        = 0u;
 175:Generated_Source\PSoC4/I2CM_I2C.c ****             I2CM_slRdBufIndex    = 0u;
 176:Generated_Source\PSoC4/I2CM_I2C.c ****             I2CM_slWrBufIndex    = 0u;
 177:Generated_Source\PSoC4/I2CM_I2C.c ****             I2CM_slOverFlowCount = 0u;
 178:Generated_Source\PSoC4/I2CM_I2C.c **** 
 179:Generated_Source\PSoC4/I2CM_I2C.c ****             /* Internal master variables */
 180:Generated_Source\PSoC4/I2CM_I2C.c ****             I2CM_mstrStatus     = 0u;
 181:Generated_Source\PSoC4/I2CM_I2C.c ****             I2CM_mstrRdBufIndex = 0u;
 182:Generated_Source\PSoC4/I2CM_I2C.c ****             I2CM_mstrWrBufIndex = 0u;
 183:Generated_Source\PSoC4/I2CM_I2C.c ****         }
 184:Generated_Source\PSoC4/I2CM_I2C.c ****     }
 185:Generated_Source\PSoC4/I2CM_I2C.c **** 
 186:Generated_Source\PSoC4/I2CM_I2C.c **** #else
 187:Generated_Source\PSoC4/I2CM_I2C.c **** 
 188:Generated_Source\PSoC4/I2CM_I2C.c ****     /*******************************************************************************
 189:Generated_Source\PSoC4/I2CM_I2C.c ****     * Function Name: I2CM_I2CInit
 190:Generated_Source\PSoC4/I2CM_I2C.c ****     ****************************************************************************//**
 191:Generated_Source\PSoC4/I2CM_I2C.c ****     *
 192:Generated_Source\PSoC4/I2CM_I2C.c ****     *  Configures the SCB for the I2C operation.
 193:Generated_Source\PSoC4/I2CM_I2C.c ****     *
 194:Generated_Source\PSoC4/I2CM_I2C.c ****     *******************************************************************************/
 195:Generated_Source\PSoC4/I2CM_I2C.c ****     void I2CM_I2CInit(void)
 196:Generated_Source\PSoC4/I2CM_I2C.c ****     {
  29              		.loc 1 196 0
  30              		.cfi_startproc
  31              		@ args = 0, pretend = 0, frame = 0
  32              		@ frame_needed = 1, uses_anonymous_args = 0
ARM GAS  C:\Users\JAMESS~1\AppData\Local\Temp\cc9shGxJ.s 			page 5


  33 0000 80B5     		push	{r7, lr}
  34              		.cfi_def_cfa_offset 8
  35              		.cfi_offset 7, -8
  36              		.cfi_offset 14, -4
  37 0002 00AF     		add	r7, sp, #0
  38              		.cfi_def_cfa_register 7
 197:Generated_Source\PSoC4/I2CM_I2C.c ****     #if(I2CM_CY_SCBIP_V0)
 198:Generated_Source\PSoC4/I2CM_I2C.c ****         /* Adjust SDA filter settings. Ticket ID#150521 */
 199:Generated_Source\PSoC4/I2CM_I2C.c ****         I2CM_SET_I2C_CFG_SDA_FILT_TRIM(I2CM_EC_AM_I2C_CFG_SDA_FILT_TRIM);
  39              		.loc 1 199 0
  40 0004 244B     		ldr	r3, .L2
  41 0006 244A     		ldr	r2, .L2
  42 0008 1268     		ldr	r2, [r2]
  43 000a 0C21     		movs	r1, #12
  44 000c 0A43     		orrs	r2, r1
  45 000e 1A60     		str	r2, [r3]
 200:Generated_Source\PSoC4/I2CM_I2C.c ****     #endif /* (I2CM_CY_SCBIP_V0) */
 201:Generated_Source\PSoC4/I2CM_I2C.c **** 
 202:Generated_Source\PSoC4/I2CM_I2C.c ****         /* Adjust AF and DF filter settings. Ticket ID#176179 */
 203:Generated_Source\PSoC4/I2CM_I2C.c ****         I2CM_I2C_CFG_ANALOG_FITER_ENABLE_ADJ;
 204:Generated_Source\PSoC4/I2CM_I2C.c **** 
 205:Generated_Source\PSoC4/I2CM_I2C.c ****         /* Configure I2C interface */
 206:Generated_Source\PSoC4/I2CM_I2C.c ****         I2CM_CTRL_REG     = I2CM_I2C_DEFAULT_CTRL;
  46              		.loc 1 206 0
  47 0010 224B     		ldr	r3, .L2+4
  48 0012 0022     		movs	r2, #0
  49 0014 1A60     		str	r2, [r3]
 207:Generated_Source\PSoC4/I2CM_I2C.c ****         I2CM_I2C_CTRL_REG = I2CM_I2C_DEFAULT_I2C_CTRL;
  50              		.loc 1 207 0
  51 0016 224B     		ldr	r3, .L2+8
  52 0018 224A     		ldr	r2, .L2+12
  53 001a 1A60     		str	r2, [r3]
 208:Generated_Source\PSoC4/I2CM_I2C.c **** 
 209:Generated_Source\PSoC4/I2CM_I2C.c ****         /* Configure RX direction */
 210:Generated_Source\PSoC4/I2CM_I2C.c ****         I2CM_RX_CTRL_REG      = I2CM_I2C_DEFAULT_RX_CTRL;
  54              		.loc 1 210 0
  55 001c 224B     		ldr	r3, .L2+16
  56 001e 234A     		ldr	r2, .L2+20
  57 0020 1A60     		str	r2, [r3]
 211:Generated_Source\PSoC4/I2CM_I2C.c ****         I2CM_RX_FIFO_CTRL_REG = I2CM_I2C_DEFAULT_RX_FIFO_CTRL;
  58              		.loc 1 211 0
  59 0022 234B     		ldr	r3, .L2+24
  60 0024 0022     		movs	r2, #0
  61 0026 1A60     		str	r2, [r3]
 212:Generated_Source\PSoC4/I2CM_I2C.c **** 
 213:Generated_Source\PSoC4/I2CM_I2C.c ****         /* Set default address and mask */
 214:Generated_Source\PSoC4/I2CM_I2C.c ****         I2CM_RX_MATCH_REG     = I2CM_I2C_DEFAULT_RX_MATCH;
  62              		.loc 1 214 0
  63 0028 224B     		ldr	r3, .L2+28
  64 002a 0022     		movs	r2, #0
  65 002c 1A60     		str	r2, [r3]
 215:Generated_Source\PSoC4/I2CM_I2C.c **** 
 216:Generated_Source\PSoC4/I2CM_I2C.c ****         /* Configure TX direction */
 217:Generated_Source\PSoC4/I2CM_I2C.c ****         I2CM_TX_CTRL_REG      = I2CM_I2C_DEFAULT_TX_CTRL;
  66              		.loc 1 217 0
  67 002e 224B     		ldr	r3, .L2+32
  68 0030 1E4A     		ldr	r2, .L2+20
ARM GAS  C:\Users\JAMESS~1\AppData\Local\Temp\cc9shGxJ.s 			page 6


  69 0032 1A60     		str	r2, [r3]
 218:Generated_Source\PSoC4/I2CM_I2C.c ****         I2CM_TX_FIFO_CTRL_REG = I2CM_I2C_DEFAULT_TX_FIFO_CTRL;
  70              		.loc 1 218 0
  71 0034 214B     		ldr	r3, .L2+36
  72 0036 0022     		movs	r2, #0
  73 0038 1A60     		str	r2, [r3]
 219:Generated_Source\PSoC4/I2CM_I2C.c **** 
 220:Generated_Source\PSoC4/I2CM_I2C.c ****         /* Configure interrupt with I2C handler but do not enable it */
 221:Generated_Source\PSoC4/I2CM_I2C.c ****         CyIntDisable    (I2CM_ISR_NUMBER);
  74              		.loc 1 221 0
  75 003a 0A20     		movs	r0, #10
  76 003c FFF7FEFF 		bl	CyIntDisable
 222:Generated_Source\PSoC4/I2CM_I2C.c ****         CyIntSetPriority(I2CM_ISR_NUMBER, I2CM_ISR_PRIORITY);
  77              		.loc 1 222 0
  78 0040 0321     		movs	r1, #3
  79 0042 0A20     		movs	r0, #10
  80 0044 FFF7FEFF 		bl	CyIntSetPriority
 223:Generated_Source\PSoC4/I2CM_I2C.c ****     #if(!I2CM_I2C_EXTERN_INTR_HANDLER)
 224:Generated_Source\PSoC4/I2CM_I2C.c ****         (void) CyIntSetVector(I2CM_ISR_NUMBER, &I2CM_I2C_ISR);
  81              		.loc 1 224 0
  82 0048 1D4B     		ldr	r3, .L2+40
  83 004a 1900     		movs	r1, r3
  84 004c 0A20     		movs	r0, #10
  85 004e FFF7FEFF 		bl	CyIntSetVector
 225:Generated_Source\PSoC4/I2CM_I2C.c ****     #endif /* (I2CM_I2C_EXTERN_INTR_HANDLER) */
 226:Generated_Source\PSoC4/I2CM_I2C.c **** 
 227:Generated_Source\PSoC4/I2CM_I2C.c ****         /* Configure interrupt sources */
 228:Generated_Source\PSoC4/I2CM_I2C.c ****     #if(!I2CM_CY_SCBIP_V1)
 229:Generated_Source\PSoC4/I2CM_I2C.c ****         I2CM_INTR_SPI_EC_MASK_REG = I2CM_I2C_DEFAULT_INTR_SPI_EC_MASK;
  86              		.loc 1 229 0
  87 0052 1C4B     		ldr	r3, .L2+44
  88 0054 0022     		movs	r2, #0
  89 0056 1A60     		str	r2, [r3]
 230:Generated_Source\PSoC4/I2CM_I2C.c ****     #endif /* (!I2CM_CY_SCBIP_V1) */
 231:Generated_Source\PSoC4/I2CM_I2C.c **** 
 232:Generated_Source\PSoC4/I2CM_I2C.c ****         I2CM_INTR_I2C_EC_MASK_REG = I2CM_I2C_DEFAULT_INTR_I2C_EC_MASK;
  90              		.loc 1 232 0
  91 0058 1B4B     		ldr	r3, .L2+48
  92 005a 0022     		movs	r2, #0
  93 005c 1A60     		str	r2, [r3]
 233:Generated_Source\PSoC4/I2CM_I2C.c ****         I2CM_INTR_SLAVE_MASK_REG  = I2CM_I2C_DEFAULT_INTR_SLAVE_MASK;
  94              		.loc 1 233 0
  95 005e 1B4B     		ldr	r3, .L2+52
  96 0060 0022     		movs	r2, #0
  97 0062 1A60     		str	r2, [r3]
 234:Generated_Source\PSoC4/I2CM_I2C.c ****         I2CM_INTR_MASTER_MASK_REG = I2CM_I2C_DEFAULT_INTR_MASTER_MASK;
  98              		.loc 1 234 0
  99 0064 1A4B     		ldr	r3, .L2+56
 100 0066 1422     		movs	r2, #20
 101 0068 FF32     		adds	r2, r2, #255
 102 006a 1A60     		str	r2, [r3]
 235:Generated_Source\PSoC4/I2CM_I2C.c ****         I2CM_INTR_RX_MASK_REG     = I2CM_I2C_DEFAULT_INTR_RX_MASK;
 103              		.loc 1 235 0
 104 006c 194B     		ldr	r3, .L2+60
 105 006e 0022     		movs	r2, #0
 106 0070 1A60     		str	r2, [r3]
 236:Generated_Source\PSoC4/I2CM_I2C.c ****         I2CM_INTR_TX_MASK_REG     = I2CM_I2C_DEFAULT_INTR_TX_MASK;
ARM GAS  C:\Users\JAMESS~1\AppData\Local\Temp\cc9shGxJ.s 			page 7


 107              		.loc 1 236 0
 108 0072 194B     		ldr	r3, .L2+64
 109 0074 0022     		movs	r2, #0
 110 0076 1A60     		str	r2, [r3]
 237:Generated_Source\PSoC4/I2CM_I2C.c **** 
 238:Generated_Source\PSoC4/I2CM_I2C.c ****         /* Configure global variables */
 239:Generated_Source\PSoC4/I2CM_I2C.c ****         I2CM_state = I2CM_I2C_FSM_IDLE;
 111              		.loc 1 239 0
 112 0078 184B     		ldr	r3, .L2+68
 113 007a 1022     		movs	r2, #16
 114 007c 1A70     		strb	r2, [r3]
 240:Generated_Source\PSoC4/I2CM_I2C.c **** 
 241:Generated_Source\PSoC4/I2CM_I2C.c ****     #if(I2CM_I2C_SLAVE)
 242:Generated_Source\PSoC4/I2CM_I2C.c ****         /* Internal slave variable */
 243:Generated_Source\PSoC4/I2CM_I2C.c ****         I2CM_slStatus        = 0u;
 244:Generated_Source\PSoC4/I2CM_I2C.c ****         I2CM_slRdBufIndex    = 0u;
 245:Generated_Source\PSoC4/I2CM_I2C.c ****         I2CM_slWrBufIndex    = 0u;
 246:Generated_Source\PSoC4/I2CM_I2C.c ****         I2CM_slOverFlowCount = 0u;
 247:Generated_Source\PSoC4/I2CM_I2C.c ****     #endif /* (I2CM_I2C_SLAVE) */
 248:Generated_Source\PSoC4/I2CM_I2C.c **** 
 249:Generated_Source\PSoC4/I2CM_I2C.c ****     #if(I2CM_I2C_MASTER)
 250:Generated_Source\PSoC4/I2CM_I2C.c ****     /* Internal master variable */
 251:Generated_Source\PSoC4/I2CM_I2C.c ****         I2CM_mstrStatus     = 0u;
 115              		.loc 1 251 0
 116 007e 184B     		ldr	r3, .L2+72
 117 0080 0022     		movs	r2, #0
 118 0082 1A80     		strh	r2, [r3]
 252:Generated_Source\PSoC4/I2CM_I2C.c ****         I2CM_mstrRdBufIndex = 0u;
 119              		.loc 1 252 0
 120 0084 174B     		ldr	r3, .L2+76
 121 0086 0022     		movs	r2, #0
 122 0088 1A60     		str	r2, [r3]
 253:Generated_Source\PSoC4/I2CM_I2C.c ****         I2CM_mstrWrBufIndex = 0u;
 123              		.loc 1 253 0
 124 008a 174B     		ldr	r3, .L2+80
 125 008c 0022     		movs	r2, #0
 126 008e 1A60     		str	r2, [r3]
 254:Generated_Source\PSoC4/I2CM_I2C.c ****     #endif /* (I2CM_I2C_MASTER) */
 255:Generated_Source\PSoC4/I2CM_I2C.c ****     }
 127              		.loc 1 255 0
 128 0090 C046     		nop
 129 0092 BD46     		mov	sp, r7
 130              		@ sp needed
 131 0094 80BD     		pop	{r7, pc}
 132              	.L3:
 133 0096 C046     		.align	2
 134              	.L2:
 135 0098 70000640 		.word	1074135152
 136 009c 00000640 		.word	1074135040
 137 00a0 60000640 		.word	1074135136
 138 00a4 77080080 		.word	-2147481481
 139 00a8 00030640 		.word	1074135808
 140 00ac 07010080 		.word	-2147483385
 141 00b0 04030640 		.word	1074135812
 142 00b4 10030640 		.word	1074135824
 143 00b8 00020640 		.word	1074135552
 144 00bc 04020640 		.word	1074135556
ARM GAS  C:\Users\JAMESS~1\AppData\Local\Temp\cc9shGxJ.s 			page 8


 145 00c0 00000000 		.word	I2CM_I2C_ISR
 146 00c4 C80E0640 		.word	1074138824
 147 00c8 880E0640 		.word	1074138760
 148 00cc 480F0640 		.word	1074138952
 149 00d0 080F0640 		.word	1074138888
 150 00d4 C80F0640 		.word	1074139080
 151 00d8 880F0640 		.word	1074139016
 152 00dc 00000000 		.word	I2CM_state
 153 00e0 00000000 		.word	I2CM_mstrStatus
 154 00e4 00000000 		.word	I2CM_mstrRdBufIndex
 155 00e8 00000000 		.word	I2CM_mstrWrBufIndex
 156              		.cfi_endproc
 157              	.LFE0:
 158              		.size	I2CM_I2CInit, .-I2CM_I2CInit
 159              		.section	.text.I2CM_I2CStop,"ax",%progbits
 160              		.align	2
 161              		.global	I2CM_I2CStop
 162              		.code	16
 163              		.thumb_func
 164              		.type	I2CM_I2CStop, %function
 165              	I2CM_I2CStop:
 166              	.LFB1:
 256:Generated_Source\PSoC4/I2CM_I2C.c **** #endif /* (I2CM_SCB_MODE_UNCONFIG_CONST_CFG) */
 257:Generated_Source\PSoC4/I2CM_I2C.c **** 
 258:Generated_Source\PSoC4/I2CM_I2C.c **** 
 259:Generated_Source\PSoC4/I2CM_I2C.c **** /*******************************************************************************
 260:Generated_Source\PSoC4/I2CM_I2C.c **** * Function Name: I2CM_I2CStop
 261:Generated_Source\PSoC4/I2CM_I2C.c **** ****************************************************************************//**
 262:Generated_Source\PSoC4/I2CM_I2C.c **** *
 263:Generated_Source\PSoC4/I2CM_I2C.c **** *  Resets the I2C FSM into the default state.
 264:Generated_Source\PSoC4/I2CM_I2C.c **** *
 265:Generated_Source\PSoC4/I2CM_I2C.c **** *******************************************************************************/
 266:Generated_Source\PSoC4/I2CM_I2C.c **** void I2CM_I2CStop(void)
 267:Generated_Source\PSoC4/I2CM_I2C.c **** {
 167              		.loc 1 267 0
 168              		.cfi_startproc
 169              		@ args = 0, pretend = 0, frame = 0
 170              		@ frame_needed = 1, uses_anonymous_args = 0
 171 0000 80B5     		push	{r7, lr}
 172              		.cfi_def_cfa_offset 8
 173              		.cfi_offset 7, -8
 174              		.cfi_offset 14, -4
 175 0002 00AF     		add	r7, sp, #0
 176              		.cfi_def_cfa_register 7
 268:Generated_Source\PSoC4/I2CM_I2C.c ****     I2CM_state = I2CM_I2C_FSM_IDLE;
 177              		.loc 1 268 0
 178 0004 024B     		ldr	r3, .L5
 179 0006 1022     		movs	r2, #16
 180 0008 1A70     		strb	r2, [r3]
 269:Generated_Source\PSoC4/I2CM_I2C.c **** }
 181              		.loc 1 269 0
 182 000a C046     		nop
 183 000c BD46     		mov	sp, r7
 184              		@ sp needed
 185 000e 80BD     		pop	{r7, pc}
 186              	.L6:
 187              		.align	2
ARM GAS  C:\Users\JAMESS~1\AppData\Local\Temp\cc9shGxJ.s 			page 9


 188              	.L5:
 189 0010 00000000 		.word	I2CM_state
 190              		.cfi_endproc
 191              	.LFE1:
 192              		.size	I2CM_I2CStop, .-I2CM_I2CStop
 193              		.text
 194              	.Letext0:
 195              		.file 2 "Generated_Source\\PSoC4/cytypes.h"
 196              		.file 3 "Generated_Source\\PSoC4\\I2CM_I2C_PVT.h"