ARM GAS  C:\Users\JAMESS~1\AppData\Local\Temp\ccakYJyy.s 			page 1


   1              		.syntax unified
   2              		.cpu cortex-m0
   3              		.fpu softvfp
   4              		.eabi_attribute 20, 1
   5              		.eabi_attribute 21, 1
   6              		.eabi_attribute 23, 3
   7              		.eabi_attribute 24, 1
   8              		.eabi_attribute 25, 1
   9              		.eabi_attribute 26, 1
  10              		.eabi_attribute 30, 6
  11              		.eabi_attribute 34, 0
  12              		.eabi_attribute 18, 4
  13              		.thumb
  14              		.syntax unified
  15              		.file	"main.c"
  16              		.text
  17              	.Ltext0:
  18              		.cfi_sections	.debug_frame
  19              		.section	.text.main,"ax",%progbits
  20              		.align	2
  21              		.global	main
  22              		.code	16
  23              		.thumb_func
  24              		.type	main, %function
  25              	main:
  26              	.LFB32:
  27              		.file 1 "main.c"
   1:main.c        **** /*******************************************************************************
   2:main.c        **** MASTER
   3:main.c        **** *******************************************************************************/
   4:main.c        **** 
   5:main.c        **** #include "main.h"
   6:main.c        **** 
   7:main.c        **** 
   8:main.c        **** /*******************************************************************************
   9:main.c        **** * Function Name: main
  10:main.c        **** ********************************************************************************
  11:main.c        **** * Summary:
  12:main.c        **** *  The main function performs the following actions:
  13:main.c        **** *   1. Turns off the RGB LED.
  14:main.c        **** *   2. Starts the I2C master (SCB mode) component.
  15:main.c        **** *   3. Enables global interrupts.
  16:main.c        **** *   4. Sends command and status packets to the slave every 500mS.
  17:main.c        **** *
  18:main.c        **** * Parameters:
  19:main.c        **** *  None
  20:main.c        **** *
  21:main.c        **** * Return:
  22:main.c        **** *  None
  23:main.c        **** *
  24:main.c        **** *******************************************************************************/
  25:main.c        **** int main()
  26:main.c        **** {
  28              		.loc 1 26 0
  29              		.cfi_startproc
  30              		@ args = 0, pretend = 0, frame = 8
  31              		@ frame_needed = 1, uses_anonymous_args = 0
ARM GAS  C:\Users\JAMESS~1\AppData\Local\Temp\ccakYJyy.s 			page 2


  32 0000 80B5     		push	{r7, lr}
  33              		.cfi_def_cfa_offset 8
  34              		.cfi_offset 7, -8
  35              		.cfi_offset 14, -4
  36 0002 82B0     		sub	sp, sp, #8
  37              		.cfi_def_cfa_offset 16
  38 0004 00AF     		add	r7, sp, #0
  39              		.cfi_def_cfa_register 7
  27:main.c        ****     uint8 command = CMD_SET_RED;
  40              		.loc 1 27 0
  41 0006 FB1D     		adds	r3, r7, #7
  42 0008 0122     		movs	r2, #1
  43 000a 1A70     		strb	r2, [r3]
  28:main.c        **** 
  29:main.c        ****     RGB_LED_OFF;
  44              		.loc 1 29 0
  45 000c 0120     		movs	r0, #1
  46 000e FFF7FEFF 		bl	LED_RED_Write
  47 0012 0120     		movs	r0, #1
  48 0014 FFF7FEFF 		bl	LED_GREEN_Write
  30:main.c        **** 
  31:main.c        ****     I2CM_Start();
  49              		.loc 1 31 0
  50 0018 FFF7FEFF 		bl	I2CM_Start
  32:main.c        **** 
  33:main.c        ****     CyGlobalIntEnable;
  51              		.loc 1 33 0
  52              		.syntax divided
  53              	@ 33 "main.c" 1
  54 001c 62B6     		CPSIE   i
  55              	@ 0 "" 2
  56              		.thumb
  57              		.syntax unified
  58              	.L3:
  34:main.c        **** 
  35:main.c        ****     /***************************************************************************
  36:main.c        ****     * Main polling loop
  37:main.c        ****     ***************************************************************************/
  38:main.c        ****     for(;;)
  39:main.c        ****     {
  40:main.c        ****         /* Send packet with command to the slave */
  41:main.c        ****         if (0u == WriteCommandPacket(command))
  59              		.loc 1 41 0
  60 001e FB1D     		adds	r3, r7, #7
  61 0020 1B78     		ldrb	r3, [r3]
  62 0022 1800     		movs	r0, r3
  63 0024 FFF7FEFF 		bl	WriteCommandPacket
  64 0028 031E     		subs	r3, r0, #0
  65 002a F8D1     		bne	.L3
  42:main.c        ****         {
  43:main.c        ****             /* Read response packet from the slave */
  44:main.c        ****             if (0u == ReadStatusPacket())
  66              		.loc 1 44 0
  67 002c FFF7FEFF 		bl	ReadStatusPacket
  68 0030 031E     		subs	r3, r0, #0
  69 0032 F4D1     		bne	.L3
  45:main.c        ****             {
ARM GAS  C:\Users\JAMESS~1\AppData\Local\Temp\ccakYJyy.s 			page 3


  46:main.c        ****                 /* Next command to be written */
  47:main.c        ****                 command++;
  70              		.loc 1 47 0
  71 0034 FB1D     		adds	r3, r7, #7
  72 0036 1A78     		ldrb	r2, [r3]
  73 0038 FB1D     		adds	r3, r7, #7
  74 003a 0132     		adds	r2, r2, #1
  75 003c 1A70     		strb	r2, [r3]
  48:main.c        ****                 if (command >= NUM_COLORS)
  76              		.loc 1 48 0
  77 003e FB1D     		adds	r3, r7, #7
  78 0040 1B78     		ldrb	r3, [r3]
  79 0042 072B     		cmp	r3, #7
  80 0044 EBD9     		bls	.L3
  49:main.c        ****                 {
  50:main.c        ****                     command = CMD_SET_OFF;
  81              		.loc 1 50 0
  82 0046 FB1D     		adds	r3, r7, #7
  83 0048 0022     		movs	r2, #0
  84 004a 1A70     		strb	r2, [r3]
  51:main.c        ****                 }
  52:main.c        **** 
  53:main.c        ****                 /* Turn off status LED */
  54:main.c        ****                 //RGB_LED_OFF;
  55:main.c        ****             }
  56:main.c        ****         }
  57:main.c        **** 
  58:main.c        **** //        CyDelay(CMD_TO_CMD_DELAY); /* Delay between commands */
  59:main.c        ****     }
  85              		.loc 1 59 0
  86 004c E7E7     		b	.L3
  87              		.cfi_endproc
  88              	.LFE32:
  89              		.size	main, .-main
  90 004e C046     		.section	.text.WriteCommandPacket,"ax",%progbits
  91              		.align	2
  92              		.global	WriteCommandPacket
  93              		.code	16
  94              		.thumb_func
  95              		.type	WriteCommandPacket, %function
  96              	WriteCommandPacket:
  97              	.LFB33:
  60:main.c        **** }
  61:main.c        **** 
  62:main.c        **** 
  63:main.c        **** /*******************************************************************************
  64:main.c        **** * Function Name: WriteCommandPacket
  65:main.c        **** ********************************************************************************
  66:main.c        **** * Summary:
  67:main.c        **** *  Master initiates the transfer to write command packet into the slave.
  68:main.c        **** *  The status of the transfer is returned.
  69:main.c        **** *
  70:main.c        **** * Parameters:
  71:main.c        **** *  cmd: command to execute. Available commands:
  72:main.c        **** *   - CMD_SET_RED:   set red color of the LED.
  73:main.c        **** *   - CMD_SET_GREEN: set green color of the LED.
  74:main.c        **** *   - CMD_SET_BLUE:  set blue color of the LED.
ARM GAS  C:\Users\JAMESS~1\AppData\Local\Temp\ccakYJyy.s 			page 4


  75:main.c        **** *   - CMD_SET_OFF:   turn off the LED.
  76:main.c        **** *
  77:main.c        **** * Return:
  78:main.c        **** *  Returns status of the transfer. There are two statuses
  79:main.c        **** *  - TRANSFER_CMPLT: transfer completed successfully.
  80:main.c        **** *  - TRANSFER_ERROR: the error occurred while transfer.
  81:main.c        **** *
  82:main.c        **** *******************************************************************************/
  83:main.c        **** uint32 WriteCommandPacket(uint8 cmd)
  84:main.c        **** {
  98              		.loc 1 84 0
  99              		.cfi_startproc
 100              		@ args = 0, pretend = 0, frame = 16
 101              		@ frame_needed = 1, uses_anonymous_args = 0
 102 0000 80B5     		push	{r7, lr}
 103              		.cfi_def_cfa_offset 8
 104              		.cfi_offset 7, -8
 105              		.cfi_offset 14, -4
 106 0002 84B0     		sub	sp, sp, #16
 107              		.cfi_def_cfa_offset 24
 108 0004 00AF     		add	r7, sp, #0
 109              		.cfi_def_cfa_register 7
 110 0006 0200     		movs	r2, r0
 111 0008 FB1D     		adds	r3, r7, #7
 112 000a 1A70     		strb	r2, [r3]
  85:main.c        ****     uint8  buffer[BUFFER_SIZE];
  86:main.c        ****     uint32 status = TRANSFER_ERROR;
 113              		.loc 1 86 0
 114 000c FF23     		movs	r3, #255
 115 000e FB60     		str	r3, [r7, #12]
  87:main.c        **** 
  88:main.c        ****     /* Initialize buffer with packet */
  89:main.c        ****     buffer[PACKET_SOP_POS] = PACKET_SOP;
 116              		.loc 1 89 0
 117 0010 0823     		movs	r3, #8
 118 0012 FB18     		adds	r3, r7, r3
 119 0014 0122     		movs	r2, #1
 120 0016 1A70     		strb	r2, [r3]
  90:main.c        ****     buffer[PACKET_CMD_POS] = cmd;
 121              		.loc 1 90 0
 122 0018 0823     		movs	r3, #8
 123 001a FB18     		adds	r3, r7, r3
 124 001c FA1D     		adds	r2, r7, #7
 125 001e 1278     		ldrb	r2, [r2]
 126 0020 5A70     		strb	r2, [r3, #1]
  91:main.c        ****     buffer[PACKET_EOP_POS] = PACKET_EOP;
 127              		.loc 1 91 0
 128 0022 0823     		movs	r3, #8
 129 0024 FB18     		adds	r3, r7, r3
 130 0026 1722     		movs	r2, #23
 131 0028 9A70     		strb	r2, [r3, #2]
  92:main.c        **** 
  93:main.c        ****     (void) I2CM_I2CMasterWriteBuf(I2C_SLAVE_ADDR, buffer, PACKET_SIZE, \
 132              		.loc 1 93 0
 133 002a 0823     		movs	r3, #8
 134 002c F918     		adds	r1, r7, r3
 135 002e 0023     		movs	r3, #0
ARM GAS  C:\Users\JAMESS~1\AppData\Local\Temp\ccakYJyy.s 			page 5


 136 0030 0322     		movs	r2, #3
 137 0032 0820     		movs	r0, #8
 138 0034 FFF7FEFF 		bl	I2CM_I2CMasterWriteBuf
  94:main.c        ****                                   I2CM_I2C_MODE_COMPLETE_XFER);
  95:main.c        **** 
  96:main.c        ****     /* Waits until master completes write transfer */
  97:main.c        ****     while (0u == (I2CM_I2CMasterStatus() & I2CM_I2C_MSTAT_WR_CMPLT))
 139              		.loc 1 97 0
 140 0038 C046     		nop
 141              	.L5:
 142              		.loc 1 97 0 is_stmt 0 discriminator 1
 143 003a FFF7FEFF 		bl	I2CM_I2CMasterStatus
 144 003e 0200     		movs	r2, r0
 145 0040 0223     		movs	r3, #2
 146 0042 1340     		ands	r3, r2
 147 0044 F9D0     		beq	.L5
  98:main.c        ****     {
  99:main.c        ****     }
 100:main.c        **** 
 101:main.c        ****     /* Displays transfer status */
 102:main.c        ****     if (0u == (I2CM_I2C_MSTAT_ERR_XFER & I2CM_I2CMasterStatus()))
 148              		.loc 1 102 0 is_stmt 1
 149 0046 FFF7FEFF 		bl	I2CM_I2CMasterStatus
 150 004a 0200     		movs	r2, r0
 151 004c 8023     		movs	r3, #128
 152 004e 9B00     		lsls	r3, r3, #2
 153 0050 1340     		ands	r3, r2
 154 0052 0CD1     		bne	.L6
 103:main.c        ****     {
 104:main.c        ****         /* Check if all bytes was written */
 105:main.c        ****         if (I2CM_I2CMasterGetWriteBufSize() == BUFFER_SIZE)
 155              		.loc 1 105 0
 156 0054 FFF7FEFF 		bl	I2CM_I2CMasterGetWriteBufSize
 157 0058 0300     		movs	r3, r0
 158 005a 032B     		cmp	r3, #3
 159 005c 07D1     		bne	.L6
 106:main.c        ****         {
 107:main.c        ****             RGB_LED_ON_GREEN;
 160              		.loc 1 107 0
 161 005e 0120     		movs	r0, #1
 162 0060 FFF7FEFF 		bl	LED_RED_Write
 163 0064 0020     		movs	r0, #0
 164 0066 FFF7FEFF 		bl	LED_GREEN_Write
 108:main.c        ****             status = TRANSFER_CMPLT;
 165              		.loc 1 108 0
 166 006a 0023     		movs	r3, #0
 167 006c FB60     		str	r3, [r7, #12]
 168              	.L6:
 109:main.c        ****         }
 110:main.c        ****     }
 111:main.c        ****     else
 112:main.c        ****     {
 113:main.c        **** //        RGB_LED_ON_RED;
 114:main.c        ****     }
 115:main.c        **** 
 116:main.c        ****     (void) I2CM_I2CMasterClearStatus();
 169              		.loc 1 116 0
ARM GAS  C:\Users\JAMESS~1\AppData\Local\Temp\ccakYJyy.s 			page 6


 170 006e FFF7FEFF 		bl	I2CM_I2CMasterClearStatus
 117:main.c        **** 
 118:main.c        ****     return (status);
 171              		.loc 1 118 0
 172 0072 FB68     		ldr	r3, [r7, #12]
 119:main.c        **** }
 173              		.loc 1 119 0
 174 0074 1800     		movs	r0, r3
 175 0076 BD46     		mov	sp, r7
 176 0078 04B0     		add	sp, sp, #16
 177              		@ sp needed
 178 007a 80BD     		pop	{r7, pc}
 179              		.cfi_endproc
 180              	.LFE33:
 181              		.size	WriteCommandPacket, .-WriteCommandPacket
 182              		.section	.text.ReadStatusPacket,"ax",%progbits
 183              		.align	2
 184              		.global	ReadStatusPacket
 185              		.code	16
 186              		.thumb_func
 187              		.type	ReadStatusPacket, %function
 188              	ReadStatusPacket:
 189              	.LFB34:
 120:main.c        **** 
 121:main.c        **** 
 122:main.c        **** /*******************************************************************************
 123:main.c        **** * Function Name: ReadStatusPacket
 124:main.c        **** ********************************************************************************
 125:main.c        **** * Summary:
 126:main.c        **** *  Master initiates the transfer to read status packet from the slave.
 127:main.c        **** *  The status of the transfer is returned.
 128:main.c        **** *
 129:main.c        **** * Parameters:
 130:main.c        **** *  None
 131:main.c        **** *
 132:main.c        **** * Return:
 133:main.c        **** *  Returns status of the transfer. There are two statuses
 134:main.c        **** *  - TRANSFER_CMPLT: transfer completed successfully.
 135:main.c        **** *  - TRANSFER_ERROR: the error occurred while transfer.
 136:main.c        **** *
 137:main.c        **** *******************************************************************************/
 138:main.c        **** uint32 ReadStatusPacket(void)
 139:main.c        **** {
 190              		.loc 1 139 0
 191              		.cfi_startproc
 192              		@ args = 0, pretend = 0, frame = 8
 193              		@ frame_needed = 1, uses_anonymous_args = 0
 194 0000 80B5     		push	{r7, lr}
 195              		.cfi_def_cfa_offset 8
 196              		.cfi_offset 7, -8
 197              		.cfi_offset 14, -4
 198 0002 82B0     		sub	sp, sp, #8
 199              		.cfi_def_cfa_offset 16
 200 0004 00AF     		add	r7, sp, #0
 201              		.cfi_def_cfa_register 7
 140:main.c        ****     uint8  buffer[BUFFER_SIZE];
 141:main.c        ****     uint32 status = TRANSFER_ERROR;
ARM GAS  C:\Users\JAMESS~1\AppData\Local\Temp\ccakYJyy.s 			page 7


 202              		.loc 1 141 0
 203 0006 FF23     		movs	r3, #255
 204 0008 7B60     		str	r3, [r7, #4]
 142:main.c        **** 
 143:main.c        ****     (void) I2CM_I2CMasterReadBuf(I2C_SLAVE_ADDR, buffer, PACKET_SIZE, \
 205              		.loc 1 143 0
 206 000a 3900     		movs	r1, r7
 207 000c 0023     		movs	r3, #0
 208 000e 0322     		movs	r2, #3
 209 0010 0820     		movs	r0, #8
 210 0012 FFF7FEFF 		bl	I2CM_I2CMasterReadBuf
 144:main.c        ****                                  I2CM_I2C_MODE_COMPLETE_XFER);
 145:main.c        **** 
 146:main.c        ****     /* Waits until master complete read transfer */
 147:main.c        ****     while (0u == (I2CM_I2CMasterStatus() & I2CM_I2C_MSTAT_RD_CMPLT))
 211              		.loc 1 147 0
 212 0016 C046     		nop
 213              	.L10:
 214              		.loc 1 147 0 is_stmt 0 discriminator 1
 215 0018 FFF7FEFF 		bl	I2CM_I2CMasterStatus
 216 001c 0200     		movs	r2, r0
 217 001e 0123     		movs	r3, #1
 218 0020 1340     		ands	r3, r2
 219 0022 F9D0     		beq	.L10
 148:main.c        ****     {
 149:main.c        ****     }
 150:main.c        **** 
 151:main.c        ****     /* Displays transfer status */
 152:main.c        ****     if (0u == (I2CM_I2C_MSTAT_ERR_XFER & I2CM_I2CMasterStatus()))
 220              		.loc 1 152 0 is_stmt 1
 221 0024 FFF7FEFF 		bl	I2CM_I2CMasterStatus
 222 0028 0200     		movs	r2, r0
 223 002a 8023     		movs	r3, #128
 224 002c 9B00     		lsls	r3, r3, #2
 225 002e 1340     		ands	r3, r2
 226 0030 20D1     		bne	.L11
 153:main.c        ****     {
 154:main.c        ****         /* Check packet structure */
 155:main.c        ****         if ((I2CM_I2CMasterGetReadBufSize() == BUFFER_SIZE) &&
 227              		.loc 1 155 0
 228 0032 FFF7FEFF 		bl	I2CM_I2CMasterGetReadBufSize
 229 0036 0300     		movs	r3, r0
 230 0038 032B     		cmp	r3, #3
 231 003a 23D1     		bne	.L14
 156:main.c        ****             (PACKET_SOP == buffer[PACKET_SOP_POS]) &&
 232              		.loc 1 156 0 discriminator 1
 233 003c 3B00     		movs	r3, r7
 234 003e 1B78     		ldrb	r3, [r3]
 155:main.c        ****             (PACKET_SOP == buffer[PACKET_SOP_POS]) &&
 235              		.loc 1 155 0 discriminator 1
 236 0040 012B     		cmp	r3, #1
 237 0042 1FD1     		bne	.L14
 157:main.c        ****             (PACKET_EOP == buffer[PACKET_EOP_POS]))
 238              		.loc 1 157 0
 239 0044 3B00     		movs	r3, r7
 240 0046 9B78     		ldrb	r3, [r3, #2]
 156:main.c        ****             (PACKET_SOP == buffer[PACKET_SOP_POS]) &&
ARM GAS  C:\Users\JAMESS~1\AppData\Local\Temp\ccakYJyy.s 			page 8


 241              		.loc 1 156 0
 242 0048 172B     		cmp	r3, #23
 243 004a 1BD1     		bne	.L14
 158:main.c        ****         {
 159:main.c        ****             /* Check packet status */
 160:main.c        ****             if (100 == buffer[PACKET_STS_POS]) // STS_CMD_DONE
 244              		.loc 1 160 0
 245 004c 3B00     		movs	r3, r7
 246 004e 5B78     		ldrb	r3, [r3, #1]
 247 0050 642B     		cmp	r3, #100
 248 0052 08D1     		bne	.L13
 161:main.c        ****             {
 162:main.c        ****                 RGB_LED_ON_GREEN;
 249              		.loc 1 162 0
 250 0054 0120     		movs	r0, #1
 251 0056 FFF7FEFF 		bl	LED_RED_Write
 252 005a 0020     		movs	r0, #0
 253 005c FFF7FEFF 		bl	LED_GREEN_Write
 163:main.c        ****                 status = TRANSFER_CMPLT;
 254              		.loc 1 163 0
 255 0060 0023     		movs	r3, #0
 256 0062 7B60     		str	r3, [r7, #4]
 257 0064 0EE0     		b	.L14
 258              	.L13:
 164:main.c        ****             }
 165:main.c        ****             else{ //this used to not be here
 166:main.c        ****                 RGB_LED_OFF;
 259              		.loc 1 166 0
 260 0066 0120     		movs	r0, #1
 261 0068 FFF7FEFF 		bl	LED_RED_Write
 262 006c 0120     		movs	r0, #1
 263 006e FFF7FEFF 		bl	LED_GREEN_Write
 264 0072 07E0     		b	.L14
 265              	.L11:
 167:main.c        ****             }
 168:main.c        ****         }
 169:main.c        ****     }
 170:main.c        ****     else
 171:main.c        ****     {
 172:main.c        ****         RGB_LED_ON_RED;
 266              		.loc 1 172 0
 267 0074 0020     		movs	r0, #0
 268 0076 FFF7FEFF 		bl	LED_RED_Write
 269 007a 0120     		movs	r0, #1
 270 007c FFF7FEFF 		bl	LED_GREEN_Write
 173:main.c        ****         status = TRANSFER_ERROR;
 271              		.loc 1 173 0
 272 0080 FF23     		movs	r3, #255
 273 0082 7B60     		str	r3, [r7, #4]
 274              	.L14:
 174:main.c        ****     }
 175:main.c        **** 
 176:main.c        ****     (void) I2CM_I2CMasterClearStatus();
 275              		.loc 1 176 0
 276 0084 FFF7FEFF 		bl	I2CM_I2CMasterClearStatus
 177:main.c        **** 
 178:main.c        ****     return (status);
ARM GAS  C:\Users\JAMESS~1\AppData\Local\Temp\ccakYJyy.s 			page 9


 277              		.loc 1 178 0
 278 0088 7B68     		ldr	r3, [r7, #4]
 179:main.c        **** }
 279              		.loc 1 179 0
 280 008a 1800     		movs	r0, r3
 281 008c BD46     		mov	sp, r7
 282 008e 02B0     		add	sp, sp, #8
 283              		@ sp needed
 284 0090 80BD     		pop	{r7, pc}
 285              		.cfi_endproc
 286              	.LFE34:
 287              		.size	ReadStatusPacket, .-ReadStatusPacket
 288 0092 C046     		.text
 289              	.Letext0:
 290              		.file 2 "Generated_Source\\PSoC4/cytypes.h"
 291              		.file 3 "main.h"