ARM GAS  C:\Users\JAMESS~1\AppData\Local\Temp\ccgE8URB.s 			page 1


   1              		.syntax unified
   2              		.cpu cortex-m0
   3              		.fpu softvfp
   4              		.eabi_attribute 20, 1
   5              		.eabi_attribute 21, 1
   6              		.eabi_attribute 23, 3
   7              		.eabi_attribute 24, 1
   8              		.eabi_attribute 25, 1
   9              		.eabi_attribute 26, 1
  10              		.eabi_attribute 30, 6
  11              		.eabi_attribute 34, 0
  12              		.eabi_attribute 18, 4
  13              		.thumb
  14              		.syntax unified
  15              		.file	"StripLights.c"
  16              		.text
  17              	.Ltext0:
  18              		.cfi_sections	.debug_frame
  19              		.global	StripLights_EnterCritical
  20              		.bss
  21              		.align	2
  22              		.type	StripLights_EnterCritical, %object
  23              		.size	StripLights_EnterCritical, 4
  24              	StripLights_EnterCritical:
  25 0000 00000000 		.space	4
  26              		.global	StripLights_ExitCritical
  27              		.align	2
  28              		.type	StripLights_ExitCritical, %object
  29              		.size	StripLights_ExitCritical, 4
  30              	StripLights_ExitCritical:
  31 0004 00000000 		.space	4
  32              		.global	StripLights_initvar
  33              		.type	StripLights_initvar, %object
  34              		.size	StripLights_initvar, 1
  35              	StripLights_initvar:
  36 0008 00       		.space	1
  37              		.comm	StripLights_ledArray,120,4
  38              		.global	StripLights_ledIndex
  39 0009 000000   		.align	2
  40              		.type	StripLights_ledIndex, %object
  41              		.size	StripLights_ledIndex, 4
  42              	StripLights_ledIndex:
  43 000c 00000000 		.space	4
  44              		.global	StripLights_row
  45              		.align	2
  46              		.type	StripLights_row, %object
  47              		.size	StripLights_row, 4
  48              	StripLights_row:
  49 0010 00000000 		.space	4
  50              		.comm	StripLights_refreshComplete,4,4
  51              		.comm	StripLights_DimMask,4,4
  52              		.comm	StripLights_DimShift,4,4
  53              		.global	StripLights_gamma
  54              		.section	.rodata
  55              		.align	2
  56              		.type	StripLights_gamma, %object
  57              		.size	StripLights_gamma, 256
ARM GAS  C:\Users\JAMESS~1\AppData\Local\Temp\ccgE8URB.s 			page 2


  58              	StripLights_gamma:
  59 0000 00       		.byte	0
  60 0001 00       		.byte	0
  61 0002 00       		.byte	0
  62 0003 00       		.byte	0
  63 0004 00       		.byte	0
  64 0005 00       		.byte	0
  65 0006 00       		.byte	0
  66 0007 00       		.byte	0
  67 0008 00       		.byte	0
  68 0009 00       		.byte	0
  69 000a 00       		.byte	0
  70 000b 00       		.byte	0
  71 000c 00       		.byte	0
  72 000d 00       		.byte	0
  73 000e 00       		.byte	0
  74 000f 00       		.byte	0
  75 0010 00       		.byte	0
  76 0011 00       		.byte	0
  77 0012 00       		.byte	0
  78 0013 00       		.byte	0
  79 0014 00       		.byte	0
  80 0015 00       		.byte	0
  81 0016 00       		.byte	0
  82 0017 00       		.byte	0
  83 0018 00       		.byte	0
  84 0019 00       		.byte	0
  85 001a 00       		.byte	0
  86 001b 00       		.byte	0
  87 001c 01       		.byte	1
  88 001d 01       		.byte	1
  89 001e 01       		.byte	1
  90 001f 01       		.byte	1
  91 0020 01       		.byte	1
  92 0021 01       		.byte	1
  93 0022 01       		.byte	1
  94 0023 01       		.byte	1
  95 0024 01       		.byte	1
  96 0025 01       		.byte	1
  97 0026 01       		.byte	1
  98 0027 01       		.byte	1
  99 0028 01       		.byte	1
 100 0029 02       		.byte	2
 101 002a 02       		.byte	2
 102 002b 02       		.byte	2
 103 002c 02       		.byte	2
 104 002d 02       		.byte	2
 105 002e 02       		.byte	2
 106 002f 02       		.byte	2
 107 0030 02       		.byte	2
 108 0031 03       		.byte	3
 109 0032 03       		.byte	3
 110 0033 03       		.byte	3
 111 0034 03       		.byte	3
 112 0035 03       		.byte	3
 113 0036 03       		.byte	3
 114 0037 03       		.byte	3
ARM GAS  C:\Users\JAMESS~1\AppData\Local\Temp\ccgE8URB.s 			page 3


 115 0038 04       		.byte	4
 116 0039 04       		.byte	4
 117 003a 04       		.byte	4
 118 003b 04       		.byte	4
 119 003c 04       		.byte	4
 120 003d 05       		.byte	5
 121 003e 05       		.byte	5
 122 003f 05       		.byte	5
 123 0040 05       		.byte	5
 124 0041 06       		.byte	6
 125 0042 06       		.byte	6
 126 0043 06       		.byte	6
 127 0044 06       		.byte	6
 128 0045 07       		.byte	7
 129 0046 07       		.byte	7
 130 0047 07       		.byte	7
 131 0048 07       		.byte	7
 132 0049 08       		.byte	8
 133 004a 08       		.byte	8
 134 004b 08       		.byte	8
 135 004c 09       		.byte	9
 136 004d 09       		.byte	9
 137 004e 09       		.byte	9
 138 004f 0A       		.byte	10
 139 0050 0A       		.byte	10
 140 0051 0A       		.byte	10
 141 0052 0B       		.byte	11
 142 0053 0B       		.byte	11
 143 0054 0B       		.byte	11
 144 0055 0C       		.byte	12
 145 0056 0C       		.byte	12
 146 0057 0D       		.byte	13
 147 0058 0D       		.byte	13
 148 0059 0D       		.byte	13
 149 005a 0E       		.byte	14
 150 005b 0E       		.byte	14
 151 005c 0F       		.byte	15
 152 005d 0F       		.byte	15
 153 005e 10       		.byte	16
 154 005f 10       		.byte	16
 155 0060 11       		.byte	17
 156 0061 11       		.byte	17
 157 0062 12       		.byte	18
 158 0063 12       		.byte	18
 159 0064 13       		.byte	19
 160 0065 13       		.byte	19
 161 0066 14       		.byte	20
 162 0067 14       		.byte	20
 163 0068 15       		.byte	21
 164 0069 15       		.byte	21
 165 006a 16       		.byte	22
 166 006b 16       		.byte	22
 167 006c 17       		.byte	23
 168 006d 18       		.byte	24
 169 006e 18       		.byte	24
 170 006f 19       		.byte	25
 171 0070 19       		.byte	25
ARM GAS  C:\Users\JAMESS~1\AppData\Local\Temp\ccgE8URB.s 			page 4


 172 0071 1A       		.byte	26
 173 0072 1B       		.byte	27
 174 0073 1B       		.byte	27
 175 0074 1C       		.byte	28
 176 0075 1D       		.byte	29
 177 0076 1D       		.byte	29
 178 0077 1E       		.byte	30
 179 0078 1F       		.byte	31
 180 0079 20       		.byte	32
 181 007a 20       		.byte	32
 182 007b 21       		.byte	33
 183 007c 22       		.byte	34
 184 007d 23       		.byte	35
 185 007e 23       		.byte	35
 186 007f 24       		.byte	36
 187 0080 25       		.byte	37
 188 0081 26       		.byte	38
 189 0082 27       		.byte	39
 190 0083 27       		.byte	39
 191 0084 28       		.byte	40
 192 0085 29       		.byte	41
 193 0086 2A       		.byte	42
 194 0087 2B       		.byte	43
 195 0088 2C       		.byte	44
 196 0089 2D       		.byte	45
 197 008a 2E       		.byte	46
 198 008b 2F       		.byte	47
 199 008c 30       		.byte	48
 200 008d 31       		.byte	49
 201 008e 32       		.byte	50
 202 008f 32       		.byte	50
 203 0090 33       		.byte	51
 204 0091 34       		.byte	52
 205 0092 36       		.byte	54
 206 0093 37       		.byte	55
 207 0094 38       		.byte	56
 208 0095 39       		.byte	57
 209 0096 3A       		.byte	58
 210 0097 3B       		.byte	59
 211 0098 3C       		.byte	60
 212 0099 3D       		.byte	61
 213 009a 3E       		.byte	62
 214 009b 3F       		.byte	63
 215 009c 40       		.byte	64
 216 009d 42       		.byte	66
 217 009e 43       		.byte	67
 218 009f 44       		.byte	68
 219 00a0 45       		.byte	69
 220 00a1 46       		.byte	70
 221 00a2 48       		.byte	72
 222 00a3 49       		.byte	73
 223 00a4 4A       		.byte	74
 224 00a5 4B       		.byte	75
 225 00a6 4D       		.byte	77
 226 00a7 4E       		.byte	78
 227 00a8 4F       		.byte	79
 228 00a9 51       		.byte	81
ARM GAS  C:\Users\JAMESS~1\AppData\Local\Temp\ccgE8URB.s 			page 5


 229 00aa 52       		.byte	82
 230 00ab 53       		.byte	83
 231 00ac 55       		.byte	85
 232 00ad 56       		.byte	86
 233 00ae 57       		.byte	87
 234 00af 59       		.byte	89
 235 00b0 5A       		.byte	90
 236 00b1 5C       		.byte	92
 237 00b2 5D       		.byte	93
 238 00b3 5F       		.byte	95
 239 00b4 60       		.byte	96
 240 00b5 62       		.byte	98
 241 00b6 63       		.byte	99
 242 00b7 65       		.byte	101
 243 00b8 66       		.byte	102
 244 00b9 68       		.byte	104
 245 00ba 69       		.byte	105
 246 00bb 6B       		.byte	107
 247 00bc 6D       		.byte	109
 248 00bd 6E       		.byte	110
 249 00be 70       		.byte	112
 250 00bf 72       		.byte	114
 251 00c0 73       		.byte	115
 252 00c1 75       		.byte	117
 253 00c2 77       		.byte	119
 254 00c3 78       		.byte	120
 255 00c4 7A       		.byte	122
 256 00c5 7C       		.byte	124
 257 00c6 7E       		.byte	126
 258 00c7 7F       		.byte	127
 259 00c8 81       		.byte	-127
 260 00c9 83       		.byte	-125
 261 00ca 85       		.byte	-123
 262 00cb 87       		.byte	-121
 263 00cc 89       		.byte	-119
 264 00cd 8A       		.byte	-118
 265 00ce 8C       		.byte	-116
 266 00cf 8E       		.byte	-114
 267 00d0 90       		.byte	-112
 268 00d1 92       		.byte	-110
 269 00d2 94       		.byte	-108
 270 00d3 96       		.byte	-106
 271 00d4 98       		.byte	-104
 272 00d5 9A       		.byte	-102
 273 00d6 9C       		.byte	-100
 274 00d7 9E       		.byte	-98
 275 00d8 A0       		.byte	-96
 276 00d9 A2       		.byte	-94
 277 00da A4       		.byte	-92
 278 00db A7       		.byte	-89
 279 00dc A9       		.byte	-87
 280 00dd AB       		.byte	-85
 281 00de AD       		.byte	-83
 282 00df AF       		.byte	-81
 283 00e0 B1       		.byte	-79
 284 00e1 B4       		.byte	-76
 285 00e2 B6       		.byte	-74
ARM GAS  C:\Users\JAMESS~1\AppData\Local\Temp\ccgE8URB.s 			page 6


 286 00e3 B8       		.byte	-72
 287 00e4 BA       		.byte	-70
 288 00e5 BD       		.byte	-67
 289 00e6 BF       		.byte	-65
 290 00e7 C1       		.byte	-63
 291 00e8 C4       		.byte	-60
 292 00e9 C6       		.byte	-58
 293 00ea C8       		.byte	-56
 294 00eb CB       		.byte	-53
 295 00ec CD       		.byte	-51
 296 00ed D0       		.byte	-48
 297 00ee D2       		.byte	-46
 298 00ef D5       		.byte	-43
 299 00f0 D7       		.byte	-41
 300 00f1 DA       		.byte	-38
 301 00f2 DC       		.byte	-36
 302 00f3 DF       		.byte	-33
 303 00f4 E1       		.byte	-31
 304 00f5 E4       		.byte	-28
 305 00f6 E7       		.byte	-25
 306 00f7 E9       		.byte	-23
 307 00f8 EC       		.byte	-20
 308 00f9 EF       		.byte	-17
 309 00fa F1       		.byte	-15
 310 00fb F4       		.byte	-12
 311 00fc F7       		.byte	-9
 312 00fd F9       		.byte	-7
 313 00fe FC       		.byte	-4
 314 00ff FF       		.byte	-1
 315              		.global	StripLights_CLUT
 316              		.align	2
 317              		.type	StripLights_CLUT, %object
 318              		.size	StripLights_CLUT, 480
 319              	StripLights_CLUT:
 320 0100 FFFF0000 		.word	65535
 321 0104 FFCC0000 		.word	52479
 322 0108 FF990000 		.word	39423
 323 010c FF330000 		.word	13311
 324 0110 FF000000 		.word	255
 325 0114 B3006600 		.word	6684851
 326 0118 99009900 		.word	10027161
 327 011c 6600B300 		.word	11731046
 328 0120 3300CC00 		.word	13369395
 329 0124 1919B300 		.word	11737369
 330 0128 00339900 		.word	10040064
 331 012c 00409900 		.word	10043392
 332 0130 00669900 		.word	10053120
 333 0134 00999900 		.word	10066176
 334 0138 00CC9900 		.word	10079232
 335 013c 00E66600 		.word	6743552
 336 0140 00FF0000 		.word	65280
 337 0144 33FF0000 		.word	65331
 338 0148 66FF0000 		.word	65382
 339 014c 80FF0000 		.word	65408
 340 0150 99FF0000 		.word	65433
 341 0154 B2FF0000 		.word	65458
 342 0158 CCFF0000 		.word	65484
ARM GAS  C:\Users\JAMESS~1\AppData\Local\Temp\ccgE8URB.s 			page 7


 343 015c E5FF0000 		.word	65509
 344 0160 00000000 		.word	0
 345 0164 00005500 		.word	5570560
 346 0168 0000AA00 		.word	11141120
 347 016c 0000FF00 		.word	16711680
 348 0170 55000000 		.word	85
 349 0174 55005500 		.word	5570645
 350 0178 5500AA00 		.word	11141205
 351 017c 5500FF00 		.word	16711765
 352 0180 AA000000 		.word	170
 353 0184 AA005500 		.word	5570730
 354 0188 AA00AA00 		.word	11141290
 355 018c AA00FF00 		.word	16711850
 356 0190 FF000000 		.word	255
 357 0194 FF005500 		.word	5570815
 358 0198 FF00AA00 		.word	11141375
 359 019c FF00FF00 		.word	16711935
 360 01a0 00550000 		.word	21760
 361 01a4 00555500 		.word	5592320
 362 01a8 0055AA00 		.word	11162880
 363 01ac 0055FF00 		.word	16733440
 364 01b0 55550000 		.word	21845
 365 01b4 55555500 		.word	5592405
 366 01b8 5555AA00 		.word	11162965
 367 01bc 5555FF00 		.word	16733525
 368 01c0 AA550000 		.word	21930
 369 01c4 AA555500 		.word	5592490
 370 01c8 AA55AA00 		.word	11163050
 371 01cc AA55FF00 		.word	16733610
 372 01d0 FF550000 		.word	22015
 373 01d4 FF555500 		.word	5592575
 374 01d8 FF55AA00 		.word	11163135
 375 01dc FF55FF00 		.word	16733695
 376 01e0 00AA0000 		.word	43520
 377 01e4 00AA5500 		.word	5614080
 378 01e8 00AAAA00 		.word	11184640
 379 01ec 00AAFF00 		.word	16755200
 380 01f0 55AA0000 		.word	43605
 381 01f4 55AA5500 		.word	5614165
 382 01f8 55AAAA00 		.word	11184725
 383 01fc 55AAFF00 		.word	16755285
 384 0200 AAAA0000 		.word	43690
 385 0204 AAAA5500 		.word	5614250
 386 0208 AAAAAA00 		.word	11184810
 387 020c AAAAFF00 		.word	16755370
 388 0210 FFAA0000 		.word	43775
 389 0214 FFAA5500 		.word	5614335
 390 0218 FFAAAA00 		.word	11184895
 391 021c FFAAFF00 		.word	16755455
 392 0220 00FF0000 		.word	65280
 393 0224 00FF5500 		.word	5635840
 394 0228 00FFAA00 		.word	11206400
 395 022c 00FFFF00 		.word	16776960
 396 0230 55FF0000 		.word	65365
 397 0234 55FF5500 		.word	5635925
 398 0238 55FFAA00 		.word	11206485
 399 023c 55FFFF00 		.word	16777045
ARM GAS  C:\Users\JAMESS~1\AppData\Local\Temp\ccgE8URB.s 			page 8


 400 0240 AAFF0000 		.word	65450
 401 0244 AAFF5500 		.word	5636010
 402 0248 AAFFAA00 		.word	11206570
 403 024c AAFFFF00 		.word	16777130
 404 0250 FFFF0000 		.word	65535
 405 0254 FFFF5500 		.word	5636095
 406 0258 FFFFAA00 		.word	11206655
 407 025c FFFFFF00 		.word	16777215
 408 0260 FF800000 		.word	33023
 409 0264 FF008000 		.word	8388863
 410 0268 FF00FF00 		.word	16711935
 411 026c 8000FF00 		.word	16711808
 412 0270 0080FF00 		.word	16744448
 413 0274 00FF8000 		.word	8453888
 414 0278 FF000000 		.word	255
 415 027c 20202000 		.word	2105376
 416 0280 00002000 		.word	2097152
 417 0284 00000010 		.word	268435456
 418 0288 00FF0000 		.word	65280
 419 028c 30FF0000 		.word	65328
 420 0290 FFFFFFFF 		.word	-1
 421 0294 000000FF 		.word	-16777216
 422 0298 808080FF 		.word	-8355712
 423 029c 404040FF 		.word	-12566464
 424 02a0 0000FF00 		.word	16711680
 425 02a4 0010F000 		.word	15732736
 426 02a8 0020E000 		.word	14688256
 427 02ac 0030D000 		.word	13643776
 428 02b0 0040C000 		.word	12599296
 429 02b4 0050B000 		.word	11554816
 430 02b8 0060A000 		.word	10510336
 431 02bc 00709000 		.word	9465856
 432 02c0 00808000 		.word	8421376
 433 02c4 00907000 		.word	7376896
 434 02c8 00A06000 		.word	6332416
 435 02cc 00B05000 		.word	5287936
 436 02d0 00C04000 		.word	4243456
 437 02d4 00D03000 		.word	3198976
 438 02d8 00E02000 		.word	2154496
 439 02dc 00FF0000 		.word	65280
 440              		.section	.text.StripLights_Start,"ax",%progbits
 441              		.align	2
 442              		.global	StripLights_Start
 443              		.code	16
 444              		.thumb_func
 445              		.type	StripLights_Start, %function
 446              	StripLights_Start:
 447              	.LFB32:
 448              		.file 1 "Generated_Source\\PSoC4\\StripLights.c"
   1:Generated_Source\PSoC4/StripLights.c **** /* =========================================================
   2:Generated_Source\PSoC4/StripLights.c ****  *
   3:Generated_Source\PSoC4/StripLights.c ****  * Strip Light Controller
   4:Generated_Source\PSoC4/StripLights.c ****  * By Mark Hastings
   5:Generated_Source\PSoC4/StripLights.c ****  *
   6:Generated_Source\PSoC4/StripLights.c ****  * 10/28/2015 MEH Added support for SF2812RGBW
   7:Generated_Source\PSoC4/StripLights.c ****  *                Allow for a more flexible bus clock selection
   8:Generated_Source\PSoC4/StripLights.c ****  * 12/12/2015 MEH Fixed a bug that may cause the interface
ARM GAS  C:\Users\JAMESS~1\AppData\Local\Temp\ccgE8URB.s 			page 9


   9:Generated_Source\PSoC4/StripLights.c ****  *                to hang when many other ISRs are running.
  10:Generated_Source\PSoC4/StripLights.c ****  *
  11:Generated_Source\PSoC4/StripLights.c ****  * This file contains the functions required to control each
  12:Generated_Source\PSoC4/StripLights.c ****  * lighting control channel.
  13:Generated_Source\PSoC4/StripLights.c ****  *
  14:Generated_Source\PSoC4/StripLights.c ****  * =========================================================
  15:Generated_Source\PSoC4/StripLights.c **** */
  16:Generated_Source\PSoC4/StripLights.c **** 
  17:Generated_Source\PSoC4/StripLights.c **** #include <project.h>
  18:Generated_Source\PSoC4/StripLights.c **** #include "cytypes.h"
  19:Generated_Source\PSoC4/StripLights.c **** #include "stdlib.h"
  20:Generated_Source\PSoC4/StripLights.c **** #include "cyfitter.h"
  21:Generated_Source\PSoC4/StripLights.c **** #include "StripLights.h"
  22:Generated_Source\PSoC4/StripLights.c **** #include "StripLights_fonts.h"
  23:Generated_Source\PSoC4/StripLights.c **** 
  24:Generated_Source\PSoC4/StripLights.c **** 
  25:Generated_Source\PSoC4/StripLights.c **** void   (*StripLights_EnterCritical)() = (funcPtr)0;
  26:Generated_Source\PSoC4/StripLights.c **** void   (*StripLights_ExitCritical)() = (funcPtr)0;
  27:Generated_Source\PSoC4/StripLights.c **** 
  28:Generated_Source\PSoC4/StripLights.c **** 
  29:Generated_Source\PSoC4/StripLights.c **** uint8  StripLights_initvar = 0;
  30:Generated_Source\PSoC4/StripLights.c **** 
  31:Generated_Source\PSoC4/StripLights.c **** #if(StripLights_MEMORY_TYPE == StripLights_MEMORY_RGB)
  32:Generated_Source\PSoC4/StripLights.c **** uint32  StripLights_ledArray[StripLights_ARRAY_ROWS][StripLights_ARRAY_COLS];
  33:Generated_Source\PSoC4/StripLights.c **** #else
  34:Generated_Source\PSoC4/StripLights.c **** uint8   StripLights_ledArray[StripLights_ARRAY_ROWS][StripLights_ARRAY_COLS];
  35:Generated_Source\PSoC4/StripLights.c **** #endif
  36:Generated_Source\PSoC4/StripLights.c **** 
  37:Generated_Source\PSoC4/StripLights.c **** uint32  StripLights_ledIndex = 0;  
  38:Generated_Source\PSoC4/StripLights.c **** uint32  StripLights_row = 0;
  39:Generated_Source\PSoC4/StripLights.c **** uint32  StripLights_refreshComplete;
  40:Generated_Source\PSoC4/StripLights.c **** 
  41:Generated_Source\PSoC4/StripLights.c **** uint32  StripLights_DimMask;
  42:Generated_Source\PSoC4/StripLights.c **** uint32  StripLights_DimShift;
  43:Generated_Source\PSoC4/StripLights.c **** 
  44:Generated_Source\PSoC4/StripLights.c **** #if( StripLights_GAMMA_CORRECTION == StripLights_GAMMA_ON )
  45:Generated_Source\PSoC4/StripLights.c **** const uint8 StripLights_gamma[] = {
  46:Generated_Source\PSoC4/StripLights.c ****     0,  0,  0,  0,  0,  0,  0,  0,  0,  0,  0,  0,  0,  0,  0,  0,
  47:Generated_Source\PSoC4/StripLights.c ****     0,  0,  0,  0,  0,  0,  0,  0,  0,  0,  0,  0,  1,  1,  1,  1,
  48:Generated_Source\PSoC4/StripLights.c ****     1,  1,  1,  1,  1,  1,  1,  1,  1,  2,  2,  2,  2,  2,  2,  2,
  49:Generated_Source\PSoC4/StripLights.c ****     2,  3,  3,  3,  3,  3,  3,  3,  4,  4,  4,  4,  4,  5,  5,  5,
  50:Generated_Source\PSoC4/StripLights.c ****     5,  6,  6,  6,  6,  7,  7,  7,  7,  8,  8,  8,  9,  9,  9, 10,
  51:Generated_Source\PSoC4/StripLights.c ****    10, 10, 11, 11, 11, 12, 12, 13, 13, 13, 14, 14, 15, 15, 16, 16,
  52:Generated_Source\PSoC4/StripLights.c ****    17, 17, 18, 18, 19, 19, 20, 20, 21, 21, 22, 22, 23, 24, 24, 25,
  53:Generated_Source\PSoC4/StripLights.c ****    25, 26, 27, 27, 28, 29, 29, 30, 31, 32, 32, 33, 34, 35, 35, 36,
  54:Generated_Source\PSoC4/StripLights.c ****    37, 38, 39, 39, 40, 41, 42, 43, 44, 45, 46, 47, 48, 49, 50, 50,
  55:Generated_Source\PSoC4/StripLights.c ****    51, 52, 54, 55, 56, 57, 58, 59, 60, 61, 62, 63, 64, 66, 67, 68,
  56:Generated_Source\PSoC4/StripLights.c ****    69, 70, 72, 73, 74, 75, 77, 78, 79, 81, 82, 83, 85, 86, 87, 89,
  57:Generated_Source\PSoC4/StripLights.c ****    90, 92, 93, 95, 96, 98, 99,101,102,104,105,107,109,110,112,114,
  58:Generated_Source\PSoC4/StripLights.c ****   115,117,119,120,122,124,126,127,129,131,133,135,137,138,140,142,
  59:Generated_Source\PSoC4/StripLights.c ****   144,146,148,150,152,154,156,158,160,162,164,167,169,171,173,175,
  60:Generated_Source\PSoC4/StripLights.c ****   177,180,182,184,186,189,191,193,196,198,200,203,205,208,210,213,
  61:Generated_Source\PSoC4/StripLights.c ****   215,218,220,223,225,228,231,233,236,239,241,244,247,249,252,255 };
  62:Generated_Source\PSoC4/StripLights.c **** 
  63:Generated_Source\PSoC4/StripLights.c **** #endif
  64:Generated_Source\PSoC4/StripLights.c **** 
  65:Generated_Source\PSoC4/StripLights.c **** #if (StripLights_LED_LAYOUT == StripLights_LED_LAYOUT_GRID16X16)
ARM GAS  C:\Users\JAMESS~1\AppData\Local\Temp\ccgE8URB.s 			page 10


  66:Generated_Source\PSoC4/StripLights.c ****  uint8 const StripLights_cTrans[16][16] =  {
  67:Generated_Source\PSoC4/StripLights.c **** 	/*  0  */  {  0,  1,  2,  3,  4,  5,  6,  7,  8,  9, 10, 11, 12, 13, 14, 15},
  68:Generated_Source\PSoC4/StripLights.c ****     /*  1  */  { 31, 30, 29, 28, 27, 26, 25, 24, 23, 22, 21, 20, 19, 18, 17, 16},
  69:Generated_Source\PSoC4/StripLights.c **** 	/*  2  */  { 32, 33, 34, 35, 36, 37, 38, 39, 40, 41, 42, 43, 44, 45, 46, 47},
  70:Generated_Source\PSoC4/StripLights.c **** 	/*  3  */  { 63, 62, 61, 60, 59, 58, 57, 56, 55, 54, 53, 52, 51, 50, 49, 48}, 
  71:Generated_Source\PSoC4/StripLights.c **** 	/*  4  */  { 64, 65, 66, 67, 68, 69, 70, 71, 72, 73, 74, 75, 76, 77, 78, 79},
  72:Generated_Source\PSoC4/StripLights.c **** 	/*  5  */  { 95, 94, 93, 92, 91, 90, 89, 88, 87, 86, 85, 84, 83, 82, 81, 80},
  73:Generated_Source\PSoC4/StripLights.c **** 	/*  6  */  { 96, 97, 98, 99,100,101,102,103,104,105,106,107,108,109,110,111},
  74:Generated_Source\PSoC4/StripLights.c **** 	/*  7  */  {127,126,125,124,123,122,121,120,119,118,117,116,115,114,113,112},
  75:Generated_Source\PSoC4/StripLights.c **** 	/*  8  */  {128,129,130,131,132,133,134,135,136,137,138,139,140,141,142,143},
  76:Generated_Source\PSoC4/StripLights.c **** 	/*  9  */  {159,158,157,156,155,154,153,152,151,150,149,148,147,146,145,144},
  77:Generated_Source\PSoC4/StripLights.c **** 	/* 10  */  {160,161,162,163,164,165,166,167,168,169,170,171,172,173,174,175},
  78:Generated_Source\PSoC4/StripLights.c **** 	/* 11  */  {191,190,189,188,187,186,185,184,183,182,181,180,179,178,177,176},
  79:Generated_Source\PSoC4/StripLights.c **** 	/* 12  */  {192,193,194,195,196,197,198,199,200,201,202,203,204,205,206,207},
  80:Generated_Source\PSoC4/StripLights.c **** 	/* 13  */  {223,222,221,220,219,218,217,216,215,214,213,212,211,210,209,208},
  81:Generated_Source\PSoC4/StripLights.c **** 	/* 14  */  {224,225,226,227,228,229,230,231,232,233,234,235,236,237,238,239},
  82:Generated_Source\PSoC4/StripLights.c **** 	/* 15  */  {255,254,253,252,251,250,249,248,247,246,245,244,243,242,241,240}};   
  83:Generated_Source\PSoC4/StripLights.c **** #endif
  84:Generated_Source\PSoC4/StripLights.c **** 
  85:Generated_Source\PSoC4/StripLights.c **** 
  86:Generated_Source\PSoC4/StripLights.c **** #if((StripLights_CHIP == StripLights_CHIP_WS2812) || (StripLights_CHIP == StripLights_CHIP_SF2812RG
  87:Generated_Source\PSoC4/StripLights.c **** const uint32 StripLights_CLUT[ ] = {
  88:Generated_Source\PSoC4/StripLights.c **** //xxBBRRGG (WS2812)
  89:Generated_Source\PSoC4/StripLights.c **** //     (24)   [ Index = 0 ]
  90:Generated_Source\PSoC4/StripLights.c **** 0x0000FFFF,  // 0 Yellow
  91:Generated_Source\PSoC4/StripLights.c **** 0x0000CCFF,
  92:Generated_Source\PSoC4/StripLights.c **** 0x000099FF,
  93:Generated_Source\PSoC4/StripLights.c **** 0x000033FF,
  94:Generated_Source\PSoC4/StripLights.c **** 0x000000FF,  // 5  Green
  95:Generated_Source\PSoC4/StripLights.c **** 0x006600B3,
  96:Generated_Source\PSoC4/StripLights.c **** 0x00990099, 
  97:Generated_Source\PSoC4/StripLights.c **** 0x00B30066, 
  98:Generated_Source\PSoC4/StripLights.c **** 0x00CC0033,  // 9 Blue
  99:Generated_Source\PSoC4/StripLights.c **** 0x00B31919, 
 100:Generated_Source\PSoC4/StripLights.c **** 0x00993300, 
 101:Generated_Source\PSoC4/StripLights.c **** 0x00994000, 
 102:Generated_Source\PSoC4/StripLights.c **** 0x00996600, 
 103:Generated_Source\PSoC4/StripLights.c **** 0x00999900, 
 104:Generated_Source\PSoC4/StripLights.c **** 0x0099CC00, 
 105:Generated_Source\PSoC4/StripLights.c **** 0x0066E600, 
 106:Generated_Source\PSoC4/StripLights.c **** 0x0000FF00, // Red
 107:Generated_Source\PSoC4/StripLights.c **** 0x0000FF33, 
 108:Generated_Source\PSoC4/StripLights.c **** 0x0000FF66, 
 109:Generated_Source\PSoC4/StripLights.c **** 0x0000FF80, 
 110:Generated_Source\PSoC4/StripLights.c **** 0x0000FF99,  // 20 Orange
 111:Generated_Source\PSoC4/StripLights.c **** 0x0000FFB2, 
 112:Generated_Source\PSoC4/StripLights.c **** 0x0000FFCC, 
 113:Generated_Source\PSoC4/StripLights.c **** 0x0000FFE5,
 114:Generated_Source\PSoC4/StripLights.c **** // #24
 115:Generated_Source\PSoC4/StripLights.c **** 
 116:Generated_Source\PSoC4/StripLights.c **** //xxBBRRGG  (64)  [ Index = 24 ]
 117:Generated_Source\PSoC4/StripLights.c **** 0x00000000, 0x00550000, 0x00AA0000, 0x00FF0000,  // 0, Black,  LtBlue, MBlue, Blue
 118:Generated_Source\PSoC4/StripLights.c **** 0x00000055, 0x00550055, 0x00AA0055, 0x00FF0055,  // 4, LtGreen
 119:Generated_Source\PSoC4/StripLights.c **** 0x000000AA, 0x005500AA, 0x00AA00AA, 0x00FF00AA,  // 8, MGreen
 120:Generated_Source\PSoC4/StripLights.c **** 0x000000FF, 0x005500FF, 0x00AA00FF, 0x00FF00FF,  // 12 Green
 121:Generated_Source\PSoC4/StripLights.c **** 
 122:Generated_Source\PSoC4/StripLights.c **** 0x00005500, 0x00555500, 0x00AA5500, 0x00FF5500,  // 16, LtRed
ARM GAS  C:\Users\JAMESS~1\AppData\Local\Temp\ccgE8URB.s 			page 11


 123:Generated_Source\PSoC4/StripLights.c **** 0x00005555, 0x00555555, 0x00AA5555, 0x00FF5555,  // 20, LtYellow
 124:Generated_Source\PSoC4/StripLights.c **** 0x000055AA, 0x005555AA, 0x00AA55AA, 0x00FF55AA,  // 24, 
 125:Generated_Source\PSoC4/StripLights.c **** 0x000055FF, 0x005555FF, 0x00AA55FF, 0x00FF55FF,  // 28,
 126:Generated_Source\PSoC4/StripLights.c **** 
 127:Generated_Source\PSoC4/StripLights.c **** 0x0000AA00, 0x0055AA00, 0x00AAAA00, 0x00FFAA00,  // 32, MRed
 128:Generated_Source\PSoC4/StripLights.c **** 0x0000AA55, 0x0055AA55, 0x00AAAA55, 0x00FFAA55,  // 36, 
 129:Generated_Source\PSoC4/StripLights.c **** 0x0000AAAA, 0x0055AAAA, 0x00AAAAAA, 0x00FFAAAA,  // 55, 
 130:Generated_Source\PSoC4/StripLights.c **** 0x0000AAFF, 0x0055AAFF, 0x00AAAAFF, 0x00FFAAFF,  // 44, 
 131:Generated_Source\PSoC4/StripLights.c **** 
 132:Generated_Source\PSoC4/StripLights.c **** 0x0000FF00, 0x0055FF00, 0x00AAFF00, 0x00FFFF00,  // 48, Red, ??, ??, Magenta
 133:Generated_Source\PSoC4/StripLights.c **** 0x0000FF55, 0x0055FF55, 0x00AAFF55, 0x00FFFF55,  // 52,
 134:Generated_Source\PSoC4/StripLights.c **** 0x0000FFAA, 0x0055FFAA, 0x00AAFFAA, 0x00FFFFAA,  // 56,
 135:Generated_Source\PSoC4/StripLights.c **** 0x0000FFFF, 0x0055FFFF, 0x00AAFFFF, 0x00FFFFFF,  // 60, Yellow,??, ??, White
 136:Generated_Source\PSoC4/StripLights.c **** 
 137:Generated_Source\PSoC4/StripLights.c **** // Misc ( 16 )  [ Index = 88 ]
 138:Generated_Source\PSoC4/StripLights.c **** 0x000080FF,  // SPRING_GREEN
 139:Generated_Source\PSoC4/StripLights.c **** 0x008000FF,  // TURQUOSE
 140:Generated_Source\PSoC4/StripLights.c **** 0x00FF00FF,  // CYAN
 141:Generated_Source\PSoC4/StripLights.c **** 0x00FF0080,  // OCEAN
 142:Generated_Source\PSoC4/StripLights.c **** 0x00FF8000,  // VIOLET
 143:Generated_Source\PSoC4/StripLights.c **** 0x0080FF00,  // RASPBERRY
 144:Generated_Source\PSoC4/StripLights.c **** 0x000000FF,  // GREEN
 145:Generated_Source\PSoC4/StripLights.c **** 0x00202020,  // DIM WHITE
 146:Generated_Source\PSoC4/StripLights.c **** 0x00200000,  // DIM BLUE
 147:Generated_Source\PSoC4/StripLights.c **** 0x10000000,  // INVISIBLE
 148:Generated_Source\PSoC4/StripLights.c **** 0x0000FF00,  // Fire_Dark
 149:Generated_Source\PSoC4/StripLights.c **** 0x0000FF30,  // Fire_Light  // 00FF80
 150:Generated_Source\PSoC4/StripLights.c **** 0xFFFFFFFF,  // Full White
 151:Generated_Source\PSoC4/StripLights.c **** 0xFF000000,  // LED_WHITE
 152:Generated_Source\PSoC4/StripLights.c **** 0xFF808080,  // WHITE_RGB50
 153:Generated_Source\PSoC4/StripLights.c **** 0xFF404040,  // WHITE_RGB25
 154:Generated_Source\PSoC4/StripLights.c **** 
 155:Generated_Source\PSoC4/StripLights.c **** // Temperture Color Blue to Red (16) [ Index = 104 ]
 156:Generated_Source\PSoC4/StripLights.c **** 0x00FF0000, 0x00F01000, 0x00E02000, 0x00D03000,
 157:Generated_Source\PSoC4/StripLights.c **** 0x00C04000, 0x00B05000, 0x00A06000, 0x00907000,
 158:Generated_Source\PSoC4/StripLights.c **** 0x00808000, 0x00709000, 0x0060A000, 0x0050B000,
 159:Generated_Source\PSoC4/StripLights.c **** 0x0040C000, 0x0030D000, 0x0020E000, 0x0000FF00
 160:Generated_Source\PSoC4/StripLights.c **** };
 161:Generated_Source\PSoC4/StripLights.c **** #else  //xxBBGGRR (WS2811)
 162:Generated_Source\PSoC4/StripLights.c **** const uint32 StripLights_CLUT[ ] = {
 163:Generated_Source\PSoC4/StripLights.c **** //     (24)   [ Index = 0 ]
 164:Generated_Source\PSoC4/StripLights.c **** 0x0000FFFF,  // 0 Yellow
 165:Generated_Source\PSoC4/StripLights.c **** 0x0000FFCC,
 166:Generated_Source\PSoC4/StripLights.c **** 0x0000FF99,
 167:Generated_Source\PSoC4/StripLights.c **** 0x0000FF33,
 168:Generated_Source\PSoC4/StripLights.c **** 0x0000FF00,  // 5  Green
 169:Generated_Source\PSoC4/StripLights.c **** 0x0066B300,
 170:Generated_Source\PSoC4/StripLights.c **** 0x00999900, 
 171:Generated_Source\PSoC4/StripLights.c **** 0x00B36600, 
 172:Generated_Source\PSoC4/StripLights.c **** 0x00CC3300,  // 9 Blue
 173:Generated_Source\PSoC4/StripLights.c **** 0x00B31919, 
 174:Generated_Source\PSoC4/StripLights.c **** 0x00990033, 
 175:Generated_Source\PSoC4/StripLights.c **** 0x00990040, 
 176:Generated_Source\PSoC4/StripLights.c **** 0x00990066, 
 177:Generated_Source\PSoC4/StripLights.c **** 0x00990099, 
 178:Generated_Source\PSoC4/StripLights.c **** 0x009900CC, 
 179:Generated_Source\PSoC4/StripLights.c **** 0x006600E6, 
ARM GAS  C:\Users\JAMESS~1\AppData\Local\Temp\ccgE8URB.s 			page 12


 180:Generated_Source\PSoC4/StripLights.c **** 0x000000FF, 
 181:Generated_Source\PSoC4/StripLights.c **** 0x000033FF, 
 182:Generated_Source\PSoC4/StripLights.c **** 0x000066FF, 
 183:Generated_Source\PSoC4/StripLights.c **** 0x000080FF, 
 184:Generated_Source\PSoC4/StripLights.c **** 0x000080FF,  // 20 Orange
 185:Generated_Source\PSoC4/StripLights.c **** 0x0000B2FF, 
 186:Generated_Source\PSoC4/StripLights.c **** 0x0000CCFF, 
 187:Generated_Source\PSoC4/StripLights.c **** 0x0000E5FF,
 188:Generated_Source\PSoC4/StripLights.c **** // #24
 189:Generated_Source\PSoC4/StripLights.c **** 
 190:Generated_Source\PSoC4/StripLights.c **** //xxBBGGRR  (64)  [ Index = 24 ]
 191:Generated_Source\PSoC4/StripLights.c **** 0x00000000, 0x00550000, 0x00AA0000, 0x00FF0000,  // 0, Black,  LtBlue, MBlue, Blue
 192:Generated_Source\PSoC4/StripLights.c **** 0x00005500, 0x00555500, 0x00AA5500, 0x00FF5500,  // 4, LtGreen
 193:Generated_Source\PSoC4/StripLights.c **** 0x0000AA00, 0x0055AA00, 0x00AAAA00, 0x00FFAA00,  // 8, MGreen
 194:Generated_Source\PSoC4/StripLights.c **** 0x0000FF00, 0x0055FF00, 0x00AAFF00, 0x00FFFF00,  // 12 Green
 195:Generated_Source\PSoC4/StripLights.c **** 
 196:Generated_Source\PSoC4/StripLights.c **** 0x00000055, 0x00550055, 0x00AA0055, 0x00FF0055,  // 16, LtRed
 197:Generated_Source\PSoC4/StripLights.c **** 0x00005555, 0x00555555, 0x00AA5555, 0x00FF5555,  // 20, LtYellow
 198:Generated_Source\PSoC4/StripLights.c **** 0x0000AA55, 0x0055AA55, 0x00AAAA55, 0x00FFAA55,  // 24, 
 199:Generated_Source\PSoC4/StripLights.c **** 0x0000FF55, 0x0055FF55, 0x00AAFF55, 0x00FFFF55,  // 28,
 200:Generated_Source\PSoC4/StripLights.c **** 
 201:Generated_Source\PSoC4/StripLights.c **** 0x000000AA, 0x005500AA, 0x00AA00AA, 0x00FF00AA,  // 32, MRed
 202:Generated_Source\PSoC4/StripLights.c **** 0x000055AA, 0x005555AA, 0x00AA55AA, 0x00FF55AA,  // 36, 
 203:Generated_Source\PSoC4/StripLights.c **** 0x0000AAAA, 0x0055AAAA, 0x00AAAAAA, 0x00FFAAAA,  // 55, 
 204:Generated_Source\PSoC4/StripLights.c **** 0x0000FFAA, 0x0055FFAA, 0x00AAFFAA, 0x00FFFFAA,  // 44, 
 205:Generated_Source\PSoC4/StripLights.c **** 
 206:Generated_Source\PSoC4/StripLights.c **** 0x000000FF, 0x005500FF, 0x00AA00FF, 0x00F00FFF,  // 48, Red, ??, ??, Magenta
 207:Generated_Source\PSoC4/StripLights.c **** 0x000055FF, 0x005555FF, 0x00AA55FF, 0x00FF55FF,  // 52,
 208:Generated_Source\PSoC4/StripLights.c **** 0x0000AAFF, 0x0055AAFF, 0x00AAAAFF, 0x00FFAAFF,  // 56,
 209:Generated_Source\PSoC4/StripLights.c **** 0x0000FFFF, 0x0055FFFF, 0x00AAFFFF, 0x00FFFFFF,  // 60, Yellow,??, ??, White
 210:Generated_Source\PSoC4/StripLights.c **** 
 211:Generated_Source\PSoC4/StripLights.c **** // Misc ( 16 )  [ Index = 88 ]   //xxBBGGRR
 212:Generated_Source\PSoC4/StripLights.c **** 0x0000FF80,  // SPRING_GREEN
 213:Generated_Source\PSoC4/StripLights.c **** 0x0080FF00,  // TURQUOSE
 214:Generated_Source\PSoC4/StripLights.c **** 0x00FFFF00,  // CYAN
 215:Generated_Source\PSoC4/StripLights.c **** 0x00FF8000,  // OCEAN
 216:Generated_Source\PSoC4/StripLights.c **** 0x00FF0080,  // VIOLET
 217:Generated_Source\PSoC4/StripLights.c **** 0x008000FF,  // RASPBERRY
 218:Generated_Source\PSoC4/StripLights.c **** 0x0000FF00,  // GREEN
 219:Generated_Source\PSoC4/StripLights.c **** 0x00202020,  // DIM WHITE
 220:Generated_Source\PSoC4/StripLights.c **** 0x00200000,  // DIM BLUE
 221:Generated_Source\PSoC4/StripLights.c **** 0x10000000,  // INVISIBLE
 222:Generated_Source\PSoC4/StripLights.c **** 0x000000FF,  // Fire_Dark
 223:Generated_Source\PSoC4/StripLights.c **** 0x000030FF,  // Fire_Light  // 0080FF
 224:Generated_Source\PSoC4/StripLights.c **** 0xFFFFFFFF,  // Full White
 225:Generated_Source\PSoC4/StripLights.c **** 0xFF000000,  // White_LED
 226:Generated_Source\PSoC4/StripLights.c **** 0xFF808080,  // WHITE_RGB50
 227:Generated_Source\PSoC4/StripLights.c **** 0xFF404040,  // WHITE_RGB25
 228:Generated_Source\PSoC4/StripLights.c **** 
 229:Generated_Source\PSoC4/StripLights.c **** // Temperture Color Blue to Red (16) [ Index = 104 ]
 230:Generated_Source\PSoC4/StripLights.c **** 0x00FF0000, 0x00F00010, 0x00E00020, 0x00D00030,
 231:Generated_Source\PSoC4/StripLights.c **** 0x00C00040, 0x00B00050, 0x00A00060, 0x00900070,
 232:Generated_Source\PSoC4/StripLights.c **** 0x00800080, 0x00700090, 0x006000A0, 0x005000B0,
 233:Generated_Source\PSoC4/StripLights.c **** 0x004000C0, 0x003000D0, 0x002000E0, 0x000000FF
 234:Generated_Source\PSoC4/StripLights.c **** };
 235:Generated_Source\PSoC4/StripLights.c **** #endif
 236:Generated_Source\PSoC4/StripLights.c **** 
ARM GAS  C:\Users\JAMESS~1\AppData\Local\Temp\ccgE8URB.s 			page 13


 237:Generated_Source\PSoC4/StripLights.c **** 
 238:Generated_Source\PSoC4/StripLights.c **** 
 239:Generated_Source\PSoC4/StripLights.c **** /*******************************************************************************
 240:Generated_Source\PSoC4/StripLights.c **** * Function Name: StripLights_Start
 241:Generated_Source\PSoC4/StripLights.c **** ********************************************************************************
 242:Generated_Source\PSoC4/StripLights.c **** * Summary:
 243:Generated_Source\PSoC4/StripLights.c **** *  Initialize the hardware. 
 244:Generated_Source\PSoC4/StripLights.c **** *
 245:Generated_Source\PSoC4/StripLights.c **** * Parameters:  
 246:Generated_Source\PSoC4/StripLights.c **** *  void  
 247:Generated_Source\PSoC4/StripLights.c **** *
 248:Generated_Source\PSoC4/StripLights.c **** * Return: 
 249:Generated_Source\PSoC4/StripLights.c **** *  void
 250:Generated_Source\PSoC4/StripLights.c **** *
 251:Generated_Source\PSoC4/StripLights.c **** *******************************************************************************/
 252:Generated_Source\PSoC4/StripLights.c **** void StripLights_Start()
 253:Generated_Source\PSoC4/StripLights.c **** {
 449              		.loc 1 253 0
 450              		.cfi_startproc
 451              		@ args = 0, pretend = 0, frame = 0
 452              		@ frame_needed = 1, uses_anonymous_args = 0
 453 0000 80B5     		push	{r7, lr}
 454              		.cfi_def_cfa_offset 8
 455              		.cfi_offset 7, -8
 456              		.cfi_offset 14, -4
 457 0002 00AF     		add	r7, sp, #0
 458              		.cfi_def_cfa_register 7
 254:Generated_Source\PSoC4/StripLights.c ****     extern uint8 StripLights_initvar;
 255:Generated_Source\PSoC4/StripLights.c ****     extern uint32 StripLights_refreshComplete;
 256:Generated_Source\PSoC4/StripLights.c **** 
 257:Generated_Source\PSoC4/StripLights.c ****     #if (CY_PSOC3 || CY_PSOC5LP)
 258:Generated_Source\PSoC4/StripLights.c ****         int32   StripLights_realClock; 
 259:Generated_Source\PSoC4/StripLights.c ****         int16   StripLights_period;
 260:Generated_Source\PSoC4/StripLights.c ****         int16   StripLights_dataZero;
 261:Generated_Source\PSoC4/StripLights.c ****         int16   StripLights_dataOne;
 262:Generated_Source\PSoC4/StripLights.c ****     #endif /* CY_PSOC5A */
 263:Generated_Source\PSoC4/StripLights.c **** 
 264:Generated_Source\PSoC4/StripLights.c ****     StripLights_ACTL0_REG = StripLights_DISABLE_FIFO;
 459              		.loc 1 264 0
 460 0004 1C4B     		ldr	r3, .L3
 461 0006 0322     		movs	r2, #3
 462 0008 1A70     		strb	r2, [r3]
 265:Generated_Source\PSoC4/StripLights.c **** 
 266:Generated_Source\PSoC4/StripLights.c ****     #if (CY_PSOC3 || CY_PSOC5LP)
 267:Generated_Source\PSoC4/StripLights.c ****         StripLights_realClock = (int32)StripLights_INPUT_CLOCK / (int32)(StripLights_Clock_DIV_LSB 
 268:Generated_Source\PSoC4/StripLights.c ****         StripLights_period    = (int16)(StripLights_realClock/StripLights_WS281X_CLOCK );
 269:Generated_Source\PSoC4/StripLights.c ****         
 270:Generated_Source\PSoC4/StripLights.c ****         StripLights_dataZero  = ((StripLights_period * StripLights_TIME_T0H)/StripLights_TIME_TL_TH
 271:Generated_Source\PSoC4/StripLights.c ****         StripLights_dataOne   = ((StripLights_period * StripLights_TIME_T1H)/StripLights_TIME_TL_TH
 272:Generated_Source\PSoC4/StripLights.c ****         
 273:Generated_Source\PSoC4/StripLights.c ****         StripLights_Period    = (uint8)(StripLights_period - 1);
 274:Generated_Source\PSoC4/StripLights.c ****         StripLights_Compare0  = (uint8)(StripLights_period - StripLights_dataZero);
 275:Generated_Source\PSoC4/StripLights.c ****         StripLights_Compare1  = (uint8)(StripLights_period - StripLights_dataOne);
 276:Generated_Source\PSoC4/StripLights.c **** 
 277:Generated_Source\PSoC4/StripLights.c ****     #elif (CY_PSOC4)
 278:Generated_Source\PSoC4/StripLights.c ****  
 279:Generated_Source\PSoC4/StripLights.c ****         StripLights_Period   = (uint8)StripLights_PERIOD-1;
ARM GAS  C:\Users\JAMESS~1\AppData\Local\Temp\ccgE8URB.s 			page 14


 463              		.loc 1 279 0
 464 000a 1C4B     		ldr	r3, .L3+4
 465 000c 0E22     		movs	r2, #14
 466 000e 1A70     		strb	r2, [r3]
 280:Generated_Source\PSoC4/StripLights.c ****         StripLights_Compare0 = (uint8)StripLights_COMPARE_ZERO;
 467              		.loc 1 280 0
 468 0010 1B4B     		ldr	r3, .L3+8
 469 0012 0C22     		movs	r2, #12
 470 0014 1A70     		strb	r2, [r3]
 281:Generated_Source\PSoC4/StripLights.c ****         StripLights_Compare1 = (uint8)StripLights_COMPARE_ONE;        
 471              		.loc 1 281 0
 472 0016 1B4B     		ldr	r3, .L3+12
 473 0018 0722     		movs	r2, #7
 474 001a 1A70     		strb	r2, [r3]
 282:Generated_Source\PSoC4/StripLights.c ****     #endif /* CY_PSOC5A */
 283:Generated_Source\PSoC4/StripLights.c **** 
 284:Generated_Source\PSoC4/StripLights.c ****     
 285:Generated_Source\PSoC4/StripLights.c ****     StripLights_CONTROL = StripLights_ENABLE;
 475              		.loc 1 285 0
 476 001c 1A4B     		ldr	r3, .L3+16
 477 001e 0122     		movs	r2, #1
 478 0020 1A70     		strb	r2, [r3]
 286:Generated_Source\PSoC4/StripLights.c ****     StripLights_MemClear(StripLights_OFF);
 479              		.loc 1 286 0
 480 0022 1820     		movs	r0, #24
 481 0024 FFF7FEFF 		bl	StripLights_getColor
 482 0028 0300     		movs	r3, r0
 483 002a 1800     		movs	r0, r3
 484 002c FFF7FEFF 		bl	StripLights_MemClear
 287:Generated_Source\PSoC4/StripLights.c ****     StripLights_CONTROL = StripLights_DISABLE;
 485              		.loc 1 287 0
 486 0030 154B     		ldr	r3, .L3+16
 487 0032 0022     		movs	r2, #0
 488 0034 1A70     		strb	r2, [r3]
 288:Generated_Source\PSoC4/StripLights.c ****     
 289:Generated_Source\PSoC4/StripLights.c ****     StripLights_SetFont( StripLights_FONT_5X7);
 489              		.loc 1 289 0
 490 0036 0020     		movs	r0, #0
 491 0038 FFF7FEFF 		bl	StripLights_SetFont
 290:Generated_Source\PSoC4/StripLights.c ****     
 291:Generated_Source\PSoC4/StripLights.c ****     /* Set no dimming, full brightness */
 292:Generated_Source\PSoC4/StripLights.c ****     StripLights_Dim(0); 
 492              		.loc 1 292 0
 493 003c 0020     		movs	r0, #0
 494 003e FFF7FEFF 		bl	StripLights_Dim
 293:Generated_Source\PSoC4/StripLights.c **** 
 294:Generated_Source\PSoC4/StripLights.c ****     if(StripLights_initvar == 0)
 495              		.loc 1 294 0
 496 0042 124B     		ldr	r3, .L3+20
 497 0044 1B78     		ldrb	r3, [r3]
 498 0046 002B     		cmp	r3, #0
 499 0048 10D1     		bne	.L2
 295:Generated_Source\PSoC4/StripLights.c ****     {
 296:Generated_Source\PSoC4/StripLights.c **** 
 297:Generated_Source\PSoC4/StripLights.c ****         StripLights_initvar = 1;
 500              		.loc 1 297 0
 501 004a 104B     		ldr	r3, .L3+20
ARM GAS  C:\Users\JAMESS~1\AppData\Local\Temp\ccgE8URB.s 			page 15


 502 004c 0122     		movs	r2, #1
 503 004e 1A70     		strb	r2, [r3]
 298:Generated_Source\PSoC4/StripLights.c ****  
 299:Generated_Source\PSoC4/StripLights.c ****          /* Start and set interrupt vector */
 300:Generated_Source\PSoC4/StripLights.c **** 
 301:Generated_Source\PSoC4/StripLights.c **** #if(StripLights_TRANSFER == StripLights_TRANSFER_ISR)
 302:Generated_Source\PSoC4/StripLights.c ****        {
 303:Generated_Source\PSoC4/StripLights.c ****            StripLights_cisr_StartEx(StripLights_CISR);
 504              		.loc 1 303 0
 505 0050 0F4B     		ldr	r3, .L3+24
 506 0052 1800     		movs	r0, r3
 507 0054 FFF7FEFF 		bl	StripLights_cisr_StartEx
 304:Generated_Source\PSoC4/StripLights.c **** 		   StripLights_fisr_StartEx(StripLights_FISR);
 508              		.loc 1 304 0
 509 0058 0E4B     		ldr	r3, .L3+28
 510 005a 1800     		movs	r0, r3
 511 005c FFF7FEFF 		bl	StripLights_fisr_StartEx
 305:Generated_Source\PSoC4/StripLights.c ****         
 306:Generated_Source\PSoC4/StripLights.c ****            /* Set the ISRs to the highest priority */
 307:Generated_Source\PSoC4/StripLights.c ****            StripLights_cisr_SetPriority(1u);
 512              		.loc 1 307 0
 513 0060 0120     		movs	r0, #1
 514 0062 FFF7FEFF 		bl	StripLights_cisr_SetPriority
 308:Generated_Source\PSoC4/StripLights.c ****            StripLights_fisr_SetPriority(0u);
 515              		.loc 1 308 0
 516 0066 0020     		movs	r0, #0
 517 0068 FFF7FEFF 		bl	StripLights_fisr_SetPriority
 518              	.L2:
 309:Generated_Source\PSoC4/StripLights.c ****        }
 310:Generated_Source\PSoC4/StripLights.c **** #endif       
 311:Generated_Source\PSoC4/StripLights.c ****        if(StripLights_TRANSFER == StripLights_TRANSFER_FIRMWARE)
 312:Generated_Source\PSoC4/StripLights.c ****        {
 313:Generated_Source\PSoC4/StripLights.c ****            StripLights_CONTROL = StripLights_ENABLE;    
 314:Generated_Source\PSoC4/StripLights.c ****        }
 315:Generated_Source\PSoC4/StripLights.c ****     }
 316:Generated_Source\PSoC4/StripLights.c ****     StripLights_refreshComplete = 1;
 519              		.loc 1 316 0
 520 006c 0A4B     		ldr	r3, .L3+32
 521 006e 0122     		movs	r2, #1
 522 0070 1A60     		str	r2, [r3]
 317:Generated_Source\PSoC4/StripLights.c **** }
 523              		.loc 1 317 0
 524 0072 C046     		nop
 525 0074 BD46     		mov	sp, r7
 526              		@ sp needed
 527 0076 80BD     		pop	{r7, pc}
 528              	.L4:
 529              		.align	2
 530              	.L3:
 531 0078 91000F40 		.word	1074725009
 532 007c 41000F40 		.word	1074724929
 533 0080 21000F40 		.word	1074724897
 534 0084 31000F40 		.word	1074724913
 535 0088 70000F40 		.word	1074724976
 536 008c 00000000 		.word	StripLights_initvar
 537 0090 00000000 		.word	StripLights_CISR
 538 0094 00000000 		.word	StripLights_FISR
ARM GAS  C:\Users\JAMESS~1\AppData\Local\Temp\ccgE8URB.s 			page 16


 539 0098 00000000 		.word	StripLights_refreshComplete
 540              		.cfi_endproc
 541              	.LFE32:
 542              		.size	StripLights_Start, .-StripLights_Start
 543              		.section	.text.StripLights_SetCriticalFuncs,"ax",%progbits
 544              		.align	2
 545              		.global	StripLights_SetCriticalFuncs
 546              		.code	16
 547              		.thumb_func
 548              		.type	StripLights_SetCriticalFuncs, %function
 549              	StripLights_SetCriticalFuncs:
 550              	.LFB33:
 318:Generated_Source\PSoC4/StripLights.c **** 
 319:Generated_Source\PSoC4/StripLights.c **** /*******************************************************************************
 320:Generated_Source\PSoC4/StripLights.c **** * Function Name: StripLights_SetCriticalFuncs
 321:Generated_Source\PSoC4/StripLights.c **** ********************************************************************************
 322:Generated_Source\PSoC4/StripLights.c **** * Summary:
 323:Generated_Source\PSoC4/StripLights.c **** *   Set the enter and exit critical functions
 324:Generated_Source\PSoC4/StripLights.c **** *
 325:Generated_Source\PSoC4/StripLights.c **** * Parameters:  
 326:Generated_Source\PSoC4/StripLights.c **** *  void  
 327:Generated_Source\PSoC4/StripLights.c **** *
 328:Generated_Source\PSoC4/StripLights.c **** * Return: 
 329:Generated_Source\PSoC4/StripLights.c **** *  void
 330:Generated_Source\PSoC4/StripLights.c **** *
 331:Generated_Source\PSoC4/StripLights.c **** *******************************************************************************/
 332:Generated_Source\PSoC4/StripLights.c **** void StripLights_SetCriticalFuncs(funcPtr EnCriticalFunc, funcPtr ExCriticalFunc)
 333:Generated_Source\PSoC4/StripLights.c **** {
 551              		.loc 1 333 0
 552              		.cfi_startproc
 553              		@ args = 0, pretend = 0, frame = 8
 554              		@ frame_needed = 1, uses_anonymous_args = 0
 555 0000 80B5     		push	{r7, lr}
 556              		.cfi_def_cfa_offset 8
 557              		.cfi_offset 7, -8
 558              		.cfi_offset 14, -4
 559 0002 82B0     		sub	sp, sp, #8
 560              		.cfi_def_cfa_offset 16
 561 0004 00AF     		add	r7, sp, #0
 562              		.cfi_def_cfa_register 7
 563 0006 7860     		str	r0, [r7, #4]
 564 0008 3960     		str	r1, [r7]
 334:Generated_Source\PSoC4/StripLights.c ****     StripLights_EnterCritical = EnCriticalFunc;
 565              		.loc 1 334 0
 566 000a 054B     		ldr	r3, .L6
 567 000c 7A68     		ldr	r2, [r7, #4]
 568 000e 1A60     		str	r2, [r3]
 335:Generated_Source\PSoC4/StripLights.c ****     StripLights_ExitCritical  = ExCriticalFunc;   
 569              		.loc 1 335 0
 570 0010 044B     		ldr	r3, .L6+4
 571 0012 3A68     		ldr	r2, [r7]
 572 0014 1A60     		str	r2, [r3]
 336:Generated_Source\PSoC4/StripLights.c **** }
 573              		.loc 1 336 0
 574 0016 C046     		nop
 575 0018 BD46     		mov	sp, r7
 576 001a 02B0     		add	sp, sp, #8
ARM GAS  C:\Users\JAMESS~1\AppData\Local\Temp\ccgE8URB.s 			page 17


 577              		@ sp needed
 578 001c 80BD     		pop	{r7, pc}
 579              	.L7:
 580 001e C046     		.align	2
 581              	.L6:
 582 0020 00000000 		.word	StripLights_EnterCritical
 583 0024 00000000 		.word	StripLights_ExitCritical
 584              		.cfi_endproc
 585              	.LFE33:
 586              		.size	StripLights_SetCriticalFuncs, .-StripLights_SetCriticalFuncs
 587              		.section	.text.StripLights_TriggerWaitDelay,"ax",%progbits
 588              		.align	2
 589              		.global	StripLights_TriggerWaitDelay
 590              		.code	16
 591              		.thumb_func
 592              		.type	StripLights_TriggerWaitDelay, %function
 593              	StripLights_TriggerWaitDelay:
 594              	.LFB34:
 337:Generated_Source\PSoC4/StripLights.c **** 
 338:Generated_Source\PSoC4/StripLights.c **** /*******************************************************************************
 339:Generated_Source\PSoC4/StripLights.c **** * Function Name: StripLights_TriggerWaitDelay
 340:Generated_Source\PSoC4/StripLights.c **** ********************************************************************************
 341:Generated_Source\PSoC4/StripLights.c **** * Summary:
 342:Generated_Source\PSoC4/StripLights.c **** *   Update the LEDs then wait for completion.
 343:Generated_Source\PSoC4/StripLights.c **** *
 344:Generated_Source\PSoC4/StripLights.c **** * Parameters:  
 345:Generated_Source\PSoC4/StripLights.c **** *  void  
 346:Generated_Source\PSoC4/StripLights.c **** *
 347:Generated_Source\PSoC4/StripLights.c **** * Return: 
 348:Generated_Source\PSoC4/StripLights.c **** *  void
 349:Generated_Source\PSoC4/StripLights.c **** *
 350:Generated_Source\PSoC4/StripLights.c **** *******************************************************************************/
 351:Generated_Source\PSoC4/StripLights.c **** void StripLights_TriggerWaitDelay(uint32 delay)
 352:Generated_Source\PSoC4/StripLights.c **** {
 595              		.loc 1 352 0
 596              		.cfi_startproc
 597              		@ args = 0, pretend = 0, frame = 16
 598              		@ frame_needed = 1, uses_anonymous_args = 0
 599 0000 80B5     		push	{r7, lr}
 600              		.cfi_def_cfa_offset 8
 601              		.cfi_offset 7, -8
 602              		.cfi_offset 14, -4
 603 0002 84B0     		sub	sp, sp, #16
 604              		.cfi_def_cfa_offset 24
 605 0004 00AF     		add	r7, sp, #0
 606              		.cfi_def_cfa_register 7
 607 0006 7860     		str	r0, [r7, #4]
 353:Generated_Source\PSoC4/StripLights.c **** 
 354:Generated_Source\PSoC4/StripLights.c ****     uint32 toCount = 0;
 608              		.loc 1 354 0
 609 0008 0023     		movs	r3, #0
 610 000a FB60     		str	r3, [r7, #12]
 355:Generated_Source\PSoC4/StripLights.c ****     
 356:Generated_Source\PSoC4/StripLights.c ****     // Call Critical section function here
 357:Generated_Source\PSoC4/StripLights.c ****     if(StripLights_EnterCritical != (funcPtr)0)
 611              		.loc 1 357 0
 612 000c 1B4B     		ldr	r3, .L19
ARM GAS  C:\Users\JAMESS~1\AppData\Local\Temp\ccgE8URB.s 			page 18


 613 000e 1B68     		ldr	r3, [r3]
 614 0010 002B     		cmp	r3, #0
 615 0012 02D0     		beq	.L9
 358:Generated_Source\PSoC4/StripLights.c ****     {
 359:Generated_Source\PSoC4/StripLights.c ****         StripLights_EnterCritical();    
 616              		.loc 1 359 0
 617 0014 194B     		ldr	r3, .L19
 618 0016 1B68     		ldr	r3, [r3]
 619 0018 9847     		blx	r3
 620              	.L9:
 360:Generated_Source\PSoC4/StripLights.c ****     }
 361:Generated_Source\PSoC4/StripLights.c ****     
 362:Generated_Source\PSoC4/StripLights.c ****     StripLights_Trigger(1);           // Trigger the LED update
 621              		.loc 1 362 0
 622 001a 0120     		movs	r0, #1
 623 001c FFF7FEFF 		bl	StripLights_Trigger
 363:Generated_Source\PSoC4/StripLights.c ****     
 364:Generated_Source\PSoC4/StripLights.c ****     while( StripLights_Ready() == 0)
 624              		.loc 1 364 0
 625 0020 0AE0     		b	.L10
 626              	.L13:
 365:Generated_Source\PSoC4/StripLights.c ****     {
 366:Generated_Source\PSoC4/StripLights.c ****         if(toCount > (StripLights_READY_TIMEOUT  * 10)) break; 
 627              		.loc 1 366 0
 628 0022 FA68     		ldr	r2, [r7, #12]
 629 0024 FA23     		movs	r3, #250
 630 0026 DB00     		lsls	r3, r3, #3
 631 0028 9A42     		cmp	r2, r3
 632 002a 0AD8     		bhi	.L17
 367:Generated_Source\PSoC4/StripLights.c ****         CyDelayUs(100);  
 633              		.loc 1 367 0
 634 002c 6420     		movs	r0, #100
 635 002e FFF7FEFF 		bl	CyDelayUs
 368:Generated_Source\PSoC4/StripLights.c ****         toCount++;
 636              		.loc 1 368 0
 637 0032 FB68     		ldr	r3, [r7, #12]
 638 0034 0133     		adds	r3, r3, #1
 639 0036 FB60     		str	r3, [r7, #12]
 640              	.L10:
 364:Generated_Source\PSoC4/StripLights.c ****     {
 641              		.loc 1 364 0
 642 0038 FFF7FEFF 		bl	StripLights_Ready
 643 003c 031E     		subs	r3, r0, #0
 644 003e F0D0     		beq	.L13
 645 0040 07E0     		b	.L14
 646              	.L17:
 366:Generated_Source\PSoC4/StripLights.c ****         CyDelayUs(100);  
 647              		.loc 1 366 0
 648 0042 C046     		nop
 369:Generated_Source\PSoC4/StripLights.c ****     }
 370:Generated_Source\PSoC4/StripLights.c ****     
 371:Generated_Source\PSoC4/StripLights.c ****     while(toCount < (delay*10)) 
 649              		.loc 1 371 0
 650 0044 05E0     		b	.L14
 651              	.L15:
 372:Generated_Source\PSoC4/StripLights.c ****     {
 373:Generated_Source\PSoC4/StripLights.c ****         toCount++;
ARM GAS  C:\Users\JAMESS~1\AppData\Local\Temp\ccgE8URB.s 			page 19


 652              		.loc 1 373 0
 653 0046 FB68     		ldr	r3, [r7, #12]
 654 0048 0133     		adds	r3, r3, #1
 655 004a FB60     		str	r3, [r7, #12]
 374:Generated_Source\PSoC4/StripLights.c ****         CyDelayUs(100); 
 656              		.loc 1 374 0
 657 004c 6420     		movs	r0, #100
 658 004e FFF7FEFF 		bl	CyDelayUs
 659              	.L14:
 371:Generated_Source\PSoC4/StripLights.c ****     {
 660              		.loc 1 371 0
 661 0052 7A68     		ldr	r2, [r7, #4]
 662 0054 1300     		movs	r3, r2
 663 0056 9B00     		lsls	r3, r3, #2
 664 0058 9B18     		adds	r3, r3, r2
 665 005a 5B00     		lsls	r3, r3, #1
 666 005c 1A00     		movs	r2, r3
 667 005e FB68     		ldr	r3, [r7, #12]
 668 0060 9A42     		cmp	r2, r3
 669 0062 F0D8     		bhi	.L15
 375:Generated_Source\PSoC4/StripLights.c ****     }
 376:Generated_Source\PSoC4/StripLights.c ****     
 377:Generated_Source\PSoC4/StripLights.c ****     
 378:Generated_Source\PSoC4/StripLights.c ****     // Call undo critical function here
 379:Generated_Source\PSoC4/StripLights.c ****       if(StripLights_ExitCritical != (funcPtr)0)
 670              		.loc 1 379 0
 671 0064 064B     		ldr	r3, .L19+4
 672 0066 1B68     		ldr	r3, [r3]
 673 0068 002B     		cmp	r3, #0
 674 006a 02D0     		beq	.L18
 380:Generated_Source\PSoC4/StripLights.c ****     {
 381:Generated_Source\PSoC4/StripLights.c ****         StripLights_ExitCritical();    
 675              		.loc 1 381 0
 676 006c 044B     		ldr	r3, .L19+4
 677 006e 1B68     		ldr	r3, [r3]
 678 0070 9847     		blx	r3
 679              	.L18:
 382:Generated_Source\PSoC4/StripLights.c ****     }
 383:Generated_Source\PSoC4/StripLights.c ****     
 384:Generated_Source\PSoC4/StripLights.c ****     
 385:Generated_Source\PSoC4/StripLights.c **** }
 680              		.loc 1 385 0
 681 0072 C046     		nop
 682 0074 BD46     		mov	sp, r7
 683 0076 04B0     		add	sp, sp, #16
 684              		@ sp needed
 685 0078 80BD     		pop	{r7, pc}
 686              	.L20:
 687 007a C046     		.align	2
 688              	.L19:
 689 007c 00000000 		.word	StripLights_EnterCritical
 690 0080 00000000 		.word	StripLights_ExitCritical
 691              		.cfi_endproc
 692              	.LFE34:
 693              		.size	StripLights_TriggerWaitDelay, .-StripLights_TriggerWaitDelay
 694              		.section	.text.StripLights_TriggerWait,"ax",%progbits
 695              		.align	2
ARM GAS  C:\Users\JAMESS~1\AppData\Local\Temp\ccgE8URB.s 			page 20


 696              		.global	StripLights_TriggerWait
 697              		.code	16
 698              		.thumb_func
 699              		.type	StripLights_TriggerWait, %function
 700              	StripLights_TriggerWait:
 701              	.LFB35:
 386:Generated_Source\PSoC4/StripLights.c **** 
 387:Generated_Source\PSoC4/StripLights.c **** /*******************************************************************************
 388:Generated_Source\PSoC4/StripLights.c **** * Function Name: StripLights_TriggerWait
 389:Generated_Source\PSoC4/StripLights.c **** ********************************************************************************
 390:Generated_Source\PSoC4/StripLights.c **** * Summary:
 391:Generated_Source\PSoC4/StripLights.c **** *   Update the LEDs then waits for completion.
 392:Generated_Source\PSoC4/StripLights.c **** *
 393:Generated_Source\PSoC4/StripLights.c **** * Parameters:  
 394:Generated_Source\PSoC4/StripLights.c ****   rst: Resets the row and column parameters.    
 395:Generated_Source\PSoC4/StripLights.c **** *
 396:Generated_Source\PSoC4/StripLights.c **** * Return: 
 397:Generated_Source\PSoC4/StripLights.c **** *  void
 398:Generated_Source\PSoC4/StripLights.c **** *
 399:Generated_Source\PSoC4/StripLights.c **** *******************************************************************************/
 400:Generated_Source\PSoC4/StripLights.c **** void StripLights_TriggerWait(uint32 rst)
 401:Generated_Source\PSoC4/StripLights.c **** {
 702              		.loc 1 401 0
 703              		.cfi_startproc
 704              		@ args = 0, pretend = 0, frame = 8
 705              		@ frame_needed = 1, uses_anonymous_args = 0
 706 0000 80B5     		push	{r7, lr}
 707              		.cfi_def_cfa_offset 8
 708              		.cfi_offset 7, -8
 709              		.cfi_offset 14, -4
 710 0002 82B0     		sub	sp, sp, #8
 711              		.cfi_def_cfa_offset 16
 712 0004 00AF     		add	r7, sp, #0
 713              		.cfi_def_cfa_register 7
 714 0006 7860     		str	r0, [r7, #4]
 402:Generated_Source\PSoC4/StripLights.c **** 
 403:Generated_Source\PSoC4/StripLights.c ****     
 404:Generated_Source\PSoC4/StripLights.c ****     // Call Critical section function here
 405:Generated_Source\PSoC4/StripLights.c ****     if(StripLights_EnterCritical != (funcPtr)0)
 715              		.loc 1 405 0
 716 0008 0D4B     		ldr	r3, .L26
 717 000a 1B68     		ldr	r3, [r3]
 718 000c 002B     		cmp	r3, #0
 719 000e 02D0     		beq	.L22
 406:Generated_Source\PSoC4/StripLights.c ****     {
 407:Generated_Source\PSoC4/StripLights.c ****         StripLights_EnterCritical();    
 720              		.loc 1 407 0
 721 0010 0B4B     		ldr	r3, .L26
 722 0012 1B68     		ldr	r3, [r3]
 723 0014 9847     		blx	r3
 724              	.L22:
 408:Generated_Source\PSoC4/StripLights.c ****     }
 409:Generated_Source\PSoC4/StripLights.c ****     
 410:Generated_Source\PSoC4/StripLights.c ****     StripLights_Trigger(rst);
 725              		.loc 1 410 0
 726 0016 7B68     		ldr	r3, [r7, #4]
 727 0018 1800     		movs	r0, r3
ARM GAS  C:\Users\JAMESS~1\AppData\Local\Temp\ccgE8URB.s 			page 21


 728 001a FFF7FEFF 		bl	StripLights_Trigger
 411:Generated_Source\PSoC4/StripLights.c ****     
 412:Generated_Source\PSoC4/StripLights.c ****     while( StripLights_Ready() == 0);
 729              		.loc 1 412 0
 730 001e C046     		nop
 731              	.L23:
 732              		.loc 1 412 0 is_stmt 0 discriminator 1
 733 0020 FFF7FEFF 		bl	StripLights_Ready
 734 0024 031E     		subs	r3, r0, #0
 735 0026 FBD0     		beq	.L23
 413:Generated_Source\PSoC4/StripLights.c ****     
 414:Generated_Source\PSoC4/StripLights.c ****     
 415:Generated_Source\PSoC4/StripLights.c ****     // Call undo critical function here
 416:Generated_Source\PSoC4/StripLights.c ****       if(StripLights_ExitCritical != (funcPtr)0)
 736              		.loc 1 416 0 is_stmt 1
 737 0028 064B     		ldr	r3, .L26+4
 738 002a 1B68     		ldr	r3, [r3]
 739 002c 002B     		cmp	r3, #0
 740 002e 02D0     		beq	.L25
 417:Generated_Source\PSoC4/StripLights.c ****     {
 418:Generated_Source\PSoC4/StripLights.c ****         StripLights_ExitCritical();    
 741              		.loc 1 418 0
 742 0030 044B     		ldr	r3, .L26+4
 743 0032 1B68     		ldr	r3, [r3]
 744 0034 9847     		blx	r3
 745              	.L25:
 419:Generated_Source\PSoC4/StripLights.c ****     }
 420:Generated_Source\PSoC4/StripLights.c ****     
 421:Generated_Source\PSoC4/StripLights.c ****     
 422:Generated_Source\PSoC4/StripLights.c **** }
 746              		.loc 1 422 0
 747 0036 C046     		nop
 748 0038 BD46     		mov	sp, r7
 749 003a 02B0     		add	sp, sp, #8
 750              		@ sp needed
 751 003c 80BD     		pop	{r7, pc}
 752              	.L27:
 753 003e C046     		.align	2
 754              	.L26:
 755 0040 00000000 		.word	StripLights_EnterCritical
 756 0044 00000000 		.word	StripLights_ExitCritical
 757              		.cfi_endproc
 758              	.LFE35:
 759              		.size	StripLights_TriggerWait, .-StripLights_TriggerWait
 760              		.section	.text.StripLights_Trigger,"ax",%progbits
 761              		.align	2
 762              		.global	StripLights_Trigger
 763              		.code	16
 764              		.thumb_func
 765              		.type	StripLights_Trigger, %function
 766              	StripLights_Trigger:
 767              	.LFB36:
 423:Generated_Source\PSoC4/StripLights.c **** 
 424:Generated_Source\PSoC4/StripLights.c **** 
 425:Generated_Source\PSoC4/StripLights.c **** /*******************************************************************************
 426:Generated_Source\PSoC4/StripLights.c **** * Function Name: StripLights_Trigger
 427:Generated_Source\PSoC4/StripLights.c **** ********************************************************************************
ARM GAS  C:\Users\JAMESS~1\AppData\Local\Temp\ccgE8URB.s 			page 22


 428:Generated_Source\PSoC4/StripLights.c **** * Summary:
 429:Generated_Source\PSoC4/StripLights.c **** *   Update the LEDs with graphics memory.
 430:Generated_Source\PSoC4/StripLights.c **** *
 431:Generated_Source\PSoC4/StripLights.c **** * Parameters:  
 432:Generated_Source\PSoC4/StripLights.c **** *  rst: Resets the row and column parameters.  
 433:Generated_Source\PSoC4/StripLights.c **** *
 434:Generated_Source\PSoC4/StripLights.c **** * Return: 
 435:Generated_Source\PSoC4/StripLights.c **** *  void
 436:Generated_Source\PSoC4/StripLights.c **** *
 437:Generated_Source\PSoC4/StripLights.c **** *******************************************************************************/
 438:Generated_Source\PSoC4/StripLights.c **** void StripLights_Trigger(uint32 rst)
 439:Generated_Source\PSoC4/StripLights.c **** {
 768              		.loc 1 439 0
 769              		.cfi_startproc
 770              		@ args = 0, pretend = 0, frame = 16
 771              		@ frame_needed = 1, uses_anonymous_args = 0
 772 0000 80B5     		push	{r7, lr}
 773              		.cfi_def_cfa_offset 8
 774              		.cfi_offset 7, -8
 775              		.cfi_offset 14, -4
 776 0002 84B0     		sub	sp, sp, #16
 777              		.cfi_def_cfa_offset 24
 778 0004 00AF     		add	r7, sp, #0
 779              		.cfi_def_cfa_register 7
 780 0006 7860     		str	r0, [r7, #4]
 440:Generated_Source\PSoC4/StripLights.c ****     uint32 color;
 441:Generated_Source\PSoC4/StripLights.c ****     
 442:Generated_Source\PSoC4/StripLights.c ****     if(rst) 
 781              		.loc 1 442 0
 782 0008 7B68     		ldr	r3, [r7, #4]
 783 000a 002B     		cmp	r3, #0
 784 000c 05D0     		beq	.L29
 443:Generated_Source\PSoC4/StripLights.c ****     {
 444:Generated_Source\PSoC4/StripLights.c ****         StripLights_row = 0;  /* Reset the row */
 785              		.loc 1 444 0
 786 000e 1F4B     		ldr	r3, .L30
 787 0010 0022     		movs	r2, #0
 788 0012 1A60     		str	r2, [r3]
 445:Generated_Source\PSoC4/StripLights.c ****         StripLights_Channel = 0;
 789              		.loc 1 445 0
 790 0014 1E4B     		ldr	r3, .L30+4
 791 0016 0022     		movs	r2, #0
 792 0018 1A70     		strb	r2, [r3]
 793              	.L29:
 446:Generated_Source\PSoC4/StripLights.c ****     }
 447:Generated_Source\PSoC4/StripLights.c ****     
 448:Generated_Source\PSoC4/StripLights.c ****     #if(StripLights_MEMORY_TYPE == StripLights_MEMORY_RGB)
 449:Generated_Source\PSoC4/StripLights.c ****        color = StripLights_ledArray[StripLights_row][0];
 794              		.loc 1 449 0
 795 001a 1C4B     		ldr	r3, .L30
 796 001c 1A68     		ldr	r2, [r3]
 797 001e 1D49     		ldr	r1, .L30+8
 798 0020 1300     		movs	r3, r2
 799 0022 1B01     		lsls	r3, r3, #4
 800 0024 9B1A     		subs	r3, r3, r2
 801 0026 DB00     		lsls	r3, r3, #3
 802 0028 5B58     		ldr	r3, [r3, r1]
ARM GAS  C:\Users\JAMESS~1\AppData\Local\Temp\ccgE8URB.s 			page 23


 803 002a FB60     		str	r3, [r7, #12]
 450:Generated_Source\PSoC4/StripLights.c ****     #else  /* Else use lookup table */
 451:Generated_Source\PSoC4/StripLights.c ****        color = StripLights_CLUT[ (StripLights_ledArray[StripLights_row][0]) ];
 452:Generated_Source\PSoC4/StripLights.c ****     #endif
 453:Generated_Source\PSoC4/StripLights.c ****     
 454:Generated_Source\PSoC4/StripLights.c ****      color = (color >> StripLights_DimShift) & StripLights_DimMask;
 804              		.loc 1 454 0
 805 002c 1A4B     		ldr	r3, .L30+12
 806 002e 1B68     		ldr	r3, [r3]
 807 0030 FA68     		ldr	r2, [r7, #12]
 808 0032 DA40     		lsrs	r2, r2, r3
 809 0034 194B     		ldr	r3, .L30+16
 810 0036 1B68     		ldr	r3, [r3]
 811 0038 1340     		ands	r3, r2
 812 003a FB60     		str	r3, [r7, #12]
 455:Generated_Source\PSoC4/StripLights.c ****      
 456:Generated_Source\PSoC4/StripLights.c ****     #if(StripLights_GAMMA_CORRECTION == StripLights_GAMMA_ON)
 457:Generated_Source\PSoC4/StripLights.c ****         StripLights_DATA = StripLights_gamma[color & 0x000000FF];  // Write Green
 813              		.loc 1 457 0
 814 003c 1849     		ldr	r1, .L30+20
 815 003e FB68     		ldr	r3, [r7, #12]
 816 0040 FF22     		movs	r2, #255
 817 0042 1340     		ands	r3, r2
 818 0044 174A     		ldr	r2, .L30+24
 819 0046 D35C     		ldrb	r3, [r2, r3]
 820 0048 0B70     		strb	r3, [r1]
 458:Generated_Source\PSoC4/StripLights.c ****         color = color >> 8;
 821              		.loc 1 458 0
 822 004a FB68     		ldr	r3, [r7, #12]
 823 004c 1B0A     		lsrs	r3, r3, #8
 824 004e FB60     		str	r3, [r7, #12]
 459:Generated_Source\PSoC4/StripLights.c ****         StripLights_DATA = StripLights_gamma[color & 0x000000FF];  // Write Red
 825              		.loc 1 459 0
 826 0050 1349     		ldr	r1, .L30+20
 827 0052 FB68     		ldr	r3, [r7, #12]
 828 0054 FF22     		movs	r2, #255
 829 0056 1340     		ands	r3, r2
 830 0058 124A     		ldr	r2, .L30+24
 831 005a D35C     		ldrb	r3, [r2, r3]
 832 005c 0B70     		strb	r3, [r1]
 460:Generated_Source\PSoC4/StripLights.c ****         color = color >> 8;
 833              		.loc 1 460 0
 834 005e FB68     		ldr	r3, [r7, #12]
 835 0060 1B0A     		lsrs	r3, r3, #8
 836 0062 FB60     		str	r3, [r7, #12]
 461:Generated_Source\PSoC4/StripLights.c ****         StripLights_DATA = StripLights_gamma[color & 0x000000FF];  // Write Blue
 837              		.loc 1 461 0
 838 0064 0E49     		ldr	r1, .L30+20
 839 0066 FB68     		ldr	r3, [r7, #12]
 840 0068 FF22     		movs	r2, #255
 841 006a 1340     		ands	r3, r2
 842 006c 0D4A     		ldr	r2, .L30+24
 843 006e D35C     		ldrb	r3, [r2, r3]
 844 0070 0B70     		strb	r3, [r1]
 462:Generated_Source\PSoC4/StripLights.c ****         #if(StripLights_CHIP == StripLights_CHIP_SF2812RGBW)
 463:Generated_Source\PSoC4/StripLights.c ****             color = color >> 8;
 464:Generated_Source\PSoC4/StripLights.c ****             StripLights_DATA = StripLights_gamma[color & 0x000000FF];  // Write White
ARM GAS  C:\Users\JAMESS~1\AppData\Local\Temp\ccgE8URB.s 			page 24


 465:Generated_Source\PSoC4/StripLights.c ****         #endif
 466:Generated_Source\PSoC4/StripLights.c ****     #else
 467:Generated_Source\PSoC4/StripLights.c ****         StripLights_DATA = (uint8)(color & 0x000000FF);  // Write Green
 468:Generated_Source\PSoC4/StripLights.c ****         color = color >> 8;
 469:Generated_Source\PSoC4/StripLights.c ****         StripLights_DATA = (uint8)(color & 0x000000FF);  // Write Red
 470:Generated_Source\PSoC4/StripLights.c ****         color = color >> 8;
 471:Generated_Source\PSoC4/StripLights.c ****         StripLights_DATA = (uint8)(color & 0x000000FF);  // Write Blue  
 472:Generated_Source\PSoC4/StripLights.c ****         #if(StripLights_CHIP == StripLights_CHIP_SF2812RGBW)
 473:Generated_Source\PSoC4/StripLights.c ****             color = color >> 8;
 474:Generated_Source\PSoC4/StripLights.c ****         StripLights_DATA = (uint8)(color & 0x000000FF);  // Write White 
 475:Generated_Source\PSoC4/StripLights.c ****         #endif
 476:Generated_Source\PSoC4/StripLights.c ****     #endif
 477:Generated_Source\PSoC4/StripLights.c ****   
 478:Generated_Source\PSoC4/StripLights.c ****     StripLights_ledIndex = 1;
 845              		.loc 1 478 0
 846 0072 0D4B     		ldr	r3, .L30+28
 847 0074 0122     		movs	r2, #1
 848 0076 1A60     		str	r2, [r3]
 479:Generated_Source\PSoC4/StripLights.c **** 	
 480:Generated_Source\PSoC4/StripLights.c **** 	StripLights_CONTROL = StripLights_ENABLE | StripLights_XFRCMPT_IRQ_EN | StripLights_FIFO_IRQ_EN; 
 849              		.loc 1 480 0
 850 0078 0C4B     		ldr	r3, .L30+32
 851 007a 1922     		movs	r2, #25
 852 007c 1A70     		strb	r2, [r3]
 481:Generated_Source\PSoC4/StripLights.c ****     StripLights_refreshComplete = 0;
 853              		.loc 1 481 0
 854 007e 0C4B     		ldr	r3, .L30+36
 855 0080 0022     		movs	r2, #0
 856 0082 1A60     		str	r2, [r3]
 482:Generated_Source\PSoC4/StripLights.c **** }
 857              		.loc 1 482 0
 858 0084 C046     		nop
 859 0086 BD46     		mov	sp, r7
 860 0088 04B0     		add	sp, sp, #16
 861              		@ sp needed
 862 008a 80BD     		pop	{r7, pc}
 863              	.L31:
 864              		.align	2
 865              	.L30:
 866 008c 00000000 		.word	StripLights_row
 867 0090 71000F40 		.word	1074724977
 868 0094 00000000 		.word	StripLights_ledArray
 869 0098 00000000 		.word	StripLights_DimShift
 870 009c 00000000 		.word	StripLights_DimMask
 871 00a0 40000F40 		.word	1074724928
 872 00a4 00000000 		.word	StripLights_gamma
 873 00a8 00000000 		.word	StripLights_ledIndex
 874 00ac 70000F40 		.word	1074724976
 875 00b0 00000000 		.word	StripLights_refreshComplete
 876              		.cfi_endproc
 877              	.LFE36:
 878              		.size	StripLights_Trigger, .-StripLights_Trigger
 879              		.section	.text.StripLights_Ready,"ax",%progbits
 880              		.align	2
 881              		.global	StripLights_Ready
 882              		.code	16
 883              		.thumb_func
ARM GAS  C:\Users\JAMESS~1\AppData\Local\Temp\ccgE8URB.s 			page 25


 884              		.type	StripLights_Ready, %function
 885              	StripLights_Ready:
 886              	.LFB37:
 483:Generated_Source\PSoC4/StripLights.c **** 
 484:Generated_Source\PSoC4/StripLights.c **** /*******************************************************************************
 485:Generated_Source\PSoC4/StripLights.c **** * Function Name: StripLights_Ready
 486:Generated_Source\PSoC4/StripLights.c **** ********************************************************************************
 487:Generated_Source\PSoC4/StripLights.c **** * Summary:
 488:Generated_Source\PSoC4/StripLights.c **** *  Checks to see if transfer is complete.
 489:Generated_Source\PSoC4/StripLights.c **** *
 490:Generated_Source\PSoC4/StripLights.c **** * Parameters:  
 491:Generated_Source\PSoC4/StripLights.c **** *  none  
 492:Generated_Source\PSoC4/StripLights.c **** *
 493:Generated_Source\PSoC4/StripLights.c **** * Return: 
 494:Generated_Source\PSoC4/StripLights.c **** *  Zero if not complete, non-zero if transfer complete.
 495:Generated_Source\PSoC4/StripLights.c **** *
 496:Generated_Source\PSoC4/StripLights.c **** *******************************************************************************/
 497:Generated_Source\PSoC4/StripLights.c **** uint32 StripLights_Ready(void)
 498:Generated_Source\PSoC4/StripLights.c **** {
 887              		.loc 1 498 0
 888              		.cfi_startproc
 889              		@ args = 0, pretend = 0, frame = 0
 890              		@ frame_needed = 1, uses_anonymous_args = 0
 891 0000 80B5     		push	{r7, lr}
 892              		.cfi_def_cfa_offset 8
 893              		.cfi_offset 7, -8
 894              		.cfi_offset 14, -4
 895 0002 00AF     		add	r7, sp, #0
 896              		.cfi_def_cfa_register 7
 499:Generated_Source\PSoC4/StripLights.c ****     if(StripLights_refreshComplete )
 897              		.loc 1 499 0
 898 0004 064B     		ldr	r3, .L35
 899 0006 1B68     		ldr	r3, [r3]
 900 0008 002B     		cmp	r3, #0
 901 000a 04D0     		beq	.L33
 500:Generated_Source\PSoC4/StripLights.c ****     {
 501:Generated_Source\PSoC4/StripLights.c ****         StripLights_CONTROL = StripLights_DISABLE;
 902              		.loc 1 501 0
 903 000c 054B     		ldr	r3, .L35+4
 904 000e 0022     		movs	r2, #0
 905 0010 1A70     		strb	r2, [r3]
 502:Generated_Source\PSoC4/StripLights.c ****         return((uint32)1);
 906              		.loc 1 502 0
 907 0012 0123     		movs	r3, #1
 908 0014 00E0     		b	.L34
 909              	.L33:
 503:Generated_Source\PSoC4/StripLights.c ****     }
 504:Generated_Source\PSoC4/StripLights.c ****     else
 505:Generated_Source\PSoC4/StripLights.c ****     {
 506:Generated_Source\PSoC4/StripLights.c ****          return((uint32)0);
 910              		.loc 1 506 0
 911 0016 0023     		movs	r3, #0
 912              	.L34:
 507:Generated_Source\PSoC4/StripLights.c ****     }
 508:Generated_Source\PSoC4/StripLights.c **** }
 913              		.loc 1 508 0
 914 0018 1800     		movs	r0, r3
ARM GAS  C:\Users\JAMESS~1\AppData\Local\Temp\ccgE8URB.s 			page 26


 915 001a BD46     		mov	sp, r7
 916              		@ sp needed
 917 001c 80BD     		pop	{r7, pc}
 918              	.L36:
 919 001e C046     		.align	2
 920              	.L35:
 921 0020 00000000 		.word	StripLights_refreshComplete
 922 0024 70000F40 		.word	1074724976
 923              		.cfi_endproc
 924              	.LFE37:
 925              		.size	StripLights_Ready, .-StripLights_Ready
 926              		.section	.text.StripLights_Stop,"ax",%progbits
 927              		.align	2
 928              		.global	StripLights_Stop
 929              		.code	16
 930              		.thumb_func
 931              		.type	StripLights_Stop, %function
 932              	StripLights_Stop:
 933              	.LFB38:
 509:Generated_Source\PSoC4/StripLights.c **** 
 510:Generated_Source\PSoC4/StripLights.c **** 
 511:Generated_Source\PSoC4/StripLights.c **** /*******************************************************************************
 512:Generated_Source\PSoC4/StripLights.c **** * Function Name: StripLights_Stop
 513:Generated_Source\PSoC4/StripLights.c **** ********************************************************************************
 514:Generated_Source\PSoC4/StripLights.c **** * Summary:
 515:Generated_Source\PSoC4/StripLights.c **** *  Stop all transfers.
 516:Generated_Source\PSoC4/StripLights.c **** *
 517:Generated_Source\PSoC4/StripLights.c **** * Parameters:  
 518:Generated_Source\PSoC4/StripLights.c **** *  None 
 519:Generated_Source\PSoC4/StripLights.c **** *
 520:Generated_Source\PSoC4/StripLights.c **** * Return: 
 521:Generated_Source\PSoC4/StripLights.c **** *  void
 522:Generated_Source\PSoC4/StripLights.c **** *
 523:Generated_Source\PSoC4/StripLights.c **** *******************************************************************************/
 524:Generated_Source\PSoC4/StripLights.c **** void StripLights_Stop()
 525:Generated_Source\PSoC4/StripLights.c **** {
 934              		.loc 1 525 0
 935              		.cfi_startproc
 936              		@ args = 0, pretend = 0, frame = 0
 937              		@ frame_needed = 1, uses_anonymous_args = 0
 938 0000 80B5     		push	{r7, lr}
 939              		.cfi_def_cfa_offset 8
 940              		.cfi_offset 7, -8
 941              		.cfi_offset 14, -4
 942 0002 00AF     		add	r7, sp, #0
 943              		.cfi_def_cfa_register 7
 526:Generated_Source\PSoC4/StripLights.c ****     StripLights_CONTROL = StripLights_DISABLE;
 944              		.loc 1 526 0
 945 0004 024B     		ldr	r3, .L38
 946 0006 0022     		movs	r2, #0
 947 0008 1A70     		strb	r2, [r3]
 527:Generated_Source\PSoC4/StripLights.c **** }
 948              		.loc 1 527 0
 949 000a C046     		nop
 950 000c BD46     		mov	sp, r7
 951              		@ sp needed
 952 000e 80BD     		pop	{r7, pc}
ARM GAS  C:\Users\JAMESS~1\AppData\Local\Temp\ccgE8URB.s 			page 27


 953              	.L39:
 954              		.align	2
 955              	.L38:
 956 0010 70000F40 		.word	1074724976
 957              		.cfi_endproc
 958              	.LFE38:
 959              		.size	StripLights_Stop, .-StripLights_Stop
 960              		.section	.text.StripLights_getColor,"ax",%progbits
 961              		.align	2
 962              		.global	StripLights_getColor
 963              		.code	16
 964              		.thumb_func
 965              		.type	StripLights_getColor, %function
 966              	StripLights_getColor:
 967              	.LFB39:
 528:Generated_Source\PSoC4/StripLights.c **** 
 529:Generated_Source\PSoC4/StripLights.c **** uint32 StripLights_getColor( uint32 color)
 530:Generated_Source\PSoC4/StripLights.c **** {
 968              		.loc 1 530 0
 969              		.cfi_startproc
 970              		@ args = 0, pretend = 0, frame = 8
 971              		@ frame_needed = 1, uses_anonymous_args = 0
 972 0000 80B5     		push	{r7, lr}
 973              		.cfi_def_cfa_offset 8
 974              		.cfi_offset 7, -8
 975              		.cfi_offset 14, -4
 976 0002 82B0     		sub	sp, sp, #8
 977              		.cfi_def_cfa_offset 16
 978 0004 00AF     		add	r7, sp, #0
 979              		.cfi_def_cfa_register 7
 980 0006 7860     		str	r0, [r7, #4]
 531:Generated_Source\PSoC4/StripLights.c ****     #if(StripLights_MEMORY_TYPE == StripLights_MEMORY_RGB)
 532:Generated_Source\PSoC4/StripLights.c ****     color = StripLights_CLUT[color];
 981              		.loc 1 532 0
 982 0008 044B     		ldr	r3, .L42
 983 000a 7A68     		ldr	r2, [r7, #4]
 984 000c 9200     		lsls	r2, r2, #2
 985 000e D358     		ldr	r3, [r2, r3]
 986 0010 7B60     		str	r3, [r7, #4]
 533:Generated_Source\PSoC4/StripLights.c ****     #endif
 534:Generated_Source\PSoC4/StripLights.c **** 
 535:Generated_Source\PSoC4/StripLights.c ****     return(color);
 987              		.loc 1 535 0
 988 0012 7B68     		ldr	r3, [r7, #4]
 536:Generated_Source\PSoC4/StripLights.c **** }
 989              		.loc 1 536 0
 990 0014 1800     		movs	r0, r3
 991 0016 BD46     		mov	sp, r7
 992 0018 02B0     		add	sp, sp, #8
 993              		@ sp needed
 994 001a 80BD     		pop	{r7, pc}
 995              	.L43:
 996              		.align	2
 997              	.L42:
 998 001c 00000000 		.word	StripLights_CLUT
 999              		.cfi_endproc
 1000              	.LFE39:
ARM GAS  C:\Users\JAMESS~1\AppData\Local\Temp\ccgE8URB.s 			page 28


 1001              		.size	StripLights_getColor, .-StripLights_getColor
 1002              		.global	__aeabi_uidivmod
 1003              		.section	.text.StripLights_ColorInc,"ax",%progbits
 1004              		.align	2
 1005              		.global	StripLights_ColorInc
 1006              		.code	16
 1007              		.thumb_func
 1008              		.type	StripLights_ColorInc, %function
 1009              	StripLights_ColorInc:
 1010              	.LFB40:
 537:Generated_Source\PSoC4/StripLights.c **** 
 538:Generated_Source\PSoC4/StripLights.c **** /*******************************************************************************
 539:Generated_Source\PSoC4/StripLights.c **** * Function Name: StripLights_ColorInc
 540:Generated_Source\PSoC4/StripLights.c **** ********************************************************************************
 541:Generated_Source\PSoC4/StripLights.c **** * Summary:
 542:Generated_Source\PSoC4/StripLights.c **** *  Increment color throught the color lookup table.
 543:Generated_Source\PSoC4/StripLights.c **** *
 544:Generated_Source\PSoC4/StripLights.c **** * Parameters:  
 545:Generated_Source\PSoC4/StripLights.c **** *  uint32 incValue: Increment through color table by incValue. 
 546:Generated_Source\PSoC4/StripLights.c **** *
 547:Generated_Source\PSoC4/StripLights.c **** * Return: Color at next location.
 548:Generated_Source\PSoC4/StripLights.c **** *  
 549:Generated_Source\PSoC4/StripLights.c **** *
 550:Generated_Source\PSoC4/StripLights.c **** *******************************************************************************/
 551:Generated_Source\PSoC4/StripLights.c **** uint32 StripLights_ColorInc(uint32 incValue)
 552:Generated_Source\PSoC4/StripLights.c **** {
 1011              		.loc 1 552 0
 1012              		.cfi_startproc
 1013              		@ args = 0, pretend = 0, frame = 16
 1014              		@ frame_needed = 1, uses_anonymous_args = 0
 1015 0000 80B5     		push	{r7, lr}
 1016              		.cfi_def_cfa_offset 8
 1017              		.cfi_offset 7, -8
 1018              		.cfi_offset 14, -4
 1019 0002 84B0     		sub	sp, sp, #16
 1020              		.cfi_def_cfa_offset 24
 1021 0004 00AF     		add	r7, sp, #0
 1022              		.cfi_def_cfa_register 7
 1023 0006 7860     		str	r0, [r7, #4]
 553:Generated_Source\PSoC4/StripLights.c ****     uint32 color;
 554:Generated_Source\PSoC4/StripLights.c ****     extern const uint32 StripLights_CLUT[];
 555:Generated_Source\PSoC4/StripLights.c ****     static uint32 colorIndex = 0;
 556:Generated_Source\PSoC4/StripLights.c ****     
 557:Generated_Source\PSoC4/StripLights.c ****     colorIndex += incValue;
 1024              		.loc 1 557 0
 1025 0008 0D4B     		ldr	r3, .L46
 1026 000a 1A68     		ldr	r2, [r3]
 1027 000c 7B68     		ldr	r3, [r7, #4]
 1028 000e D218     		adds	r2, r2, r3
 1029 0010 0B4B     		ldr	r3, .L46
 1030 0012 1A60     		str	r2, [r3]
 558:Generated_Source\PSoC4/StripLights.c ****     colorIndex = colorIndex % StripLights_COLOR_WHEEL_SIZE;
 1031              		.loc 1 558 0
 1032 0014 0A4B     		ldr	r3, .L46
 1033 0016 1B68     		ldr	r3, [r3]
 1034 0018 1821     		movs	r1, #24
 1035 001a 1800     		movs	r0, r3
ARM GAS  C:\Users\JAMESS~1\AppData\Local\Temp\ccgE8URB.s 			page 29


 1036 001c FFF7FEFF 		bl	__aeabi_uidivmod
 1037 0020 0B00     		movs	r3, r1
 1038 0022 1A00     		movs	r2, r3
 1039 0024 064B     		ldr	r3, .L46
 1040 0026 1A60     		str	r2, [r3]
 559:Generated_Source\PSoC4/StripLights.c **** 
 560:Generated_Source\PSoC4/StripLights.c ****     #if(StripLights_MEMORY_TYPE == StripLights_MEMORY_RGB)
 561:Generated_Source\PSoC4/StripLights.c ****        color = StripLights_CLUT[ colorIndex ];
 1041              		.loc 1 561 0
 1042 0028 054B     		ldr	r3, .L46
 1043 002a 1A68     		ldr	r2, [r3]
 1044 002c 054B     		ldr	r3, .L46+4
 1045 002e 9200     		lsls	r2, r2, #2
 1046 0030 D358     		ldr	r3, [r2, r3]
 1047 0032 FB60     		str	r3, [r7, #12]
 562:Generated_Source\PSoC4/StripLights.c ****     #else
 563:Generated_Source\PSoC4/StripLights.c ****         color = colorIndex;
 564:Generated_Source\PSoC4/StripLights.c ****     #endif
 565:Generated_Source\PSoC4/StripLights.c ****     return(color);
 1048              		.loc 1 565 0
 1049 0034 FB68     		ldr	r3, [r7, #12]
 566:Generated_Source\PSoC4/StripLights.c **** }
 1050              		.loc 1 566 0
 1051 0036 1800     		movs	r0, r3
 1052 0038 BD46     		mov	sp, r7
 1053 003a 04B0     		add	sp, sp, #16
 1054              		@ sp needed
 1055 003c 80BD     		pop	{r7, pc}
 1056              	.L47:
 1057 003e C046     		.align	2
 1058              	.L46:
 1059 0040 14000000 		.word	colorIndex.5906
 1060 0044 00000000 		.word	StripLights_CLUT
 1061              		.cfi_endproc
 1062              	.LFE40:
 1063              		.size	StripLights_ColorInc, .-StripLights_ColorInc
 1064              		.section	.text.StripLights_FISR,"ax",%progbits
 1065              		.align	2
 1066              		.global	StripLights_FISR
 1067              		.code	16
 1068              		.thumb_func
 1069              		.type	StripLights_FISR, %function
 1070              	StripLights_FISR:
 1071              	.LFB41:
 567:Generated_Source\PSoC4/StripLights.c **** /*****************************************************************************
 568:Generated_Source\PSoC4/StripLights.c **** * Function Name: StripLights_FISR
 569:Generated_Source\PSoC4/StripLights.c **** ******************************************************************************
 570:Generated_Source\PSoC4/StripLights.c **** *
 571:Generated_Source\PSoC4/StripLights.c **** * Summary:
 572:Generated_Source\PSoC4/StripLights.c **** *  Interrupt service handler for data transfer for each LED 
 573:Generated_Source\PSoC4/StripLights.c **** *
 574:Generated_Source\PSoC4/StripLights.c **** * Parameters:  
 575:Generated_Source\PSoC4/StripLights.c **** *  void
 576:Generated_Source\PSoC4/StripLights.c **** *
 577:Generated_Source\PSoC4/StripLights.c **** * Return: 
 578:Generated_Source\PSoC4/StripLights.c **** *  void 
 579:Generated_Source\PSoC4/StripLights.c **** *
ARM GAS  C:\Users\JAMESS~1\AppData\Local\Temp\ccgE8URB.s 			page 30


 580:Generated_Source\PSoC4/StripLights.c **** * Reentrant: 
 581:Generated_Source\PSoC4/StripLights.c **** *  No
 582:Generated_Source\PSoC4/StripLights.c **** *
 583:Generated_Source\PSoC4/StripLights.c **** *****************************************************************************/
 584:Generated_Source\PSoC4/StripLights.c **** CY_ISR( StripLights_FISR)
 585:Generated_Source\PSoC4/StripLights.c **** {
 1072              		.loc 1 585 0
 1073              		.cfi_startproc
 1074              		@ args = 0, pretend = 0, frame = 0
 1075              		@ frame_needed = 1, uses_anonymous_args = 0
 1076 0000 80B5     		push	{r7, lr}
 1077              		.cfi_def_cfa_offset 8
 1078              		.cfi_offset 7, -8
 1079              		.cfi_offset 14, -4
 1080 0002 00AF     		add	r7, sp, #0
 1081              		.cfi_def_cfa_register 7
 586:Generated_Source\PSoC4/StripLights.c ****     extern uint32  StripLights_DimMask;
 587:Generated_Source\PSoC4/StripLights.c ****     extern uint32  StripLights_DimShift;
 588:Generated_Source\PSoC4/StripLights.c ****     uint32 static color;
 589:Generated_Source\PSoC4/StripLights.c ****    
 590:Generated_Source\PSoC4/StripLights.c ****     #if(StripLights_MEMORY_TYPE == StripLights_MEMORY_RGB)
 591:Generated_Source\PSoC4/StripLights.c ****         color = StripLights_ledArray[StripLights_row][StripLights_ledIndex];
 1082              		.loc 1 591 0
 1083 0004 244B     		ldr	r3, .L51
 1084 0006 1A68     		ldr	r2, [r3]
 1085 0008 244B     		ldr	r3, .L51+4
 1086 000a 1868     		ldr	r0, [r3]
 1087 000c 2449     		ldr	r1, .L51+8
 1088 000e 1300     		movs	r3, r2
 1089 0010 1B01     		lsls	r3, r3, #4
 1090 0012 9B1A     		subs	r3, r3, r2
 1091 0014 5B00     		lsls	r3, r3, #1
 1092 0016 1B18     		adds	r3, r3, r0
 1093 0018 9B00     		lsls	r3, r3, #2
 1094 001a 5A58     		ldr	r2, [r3, r1]
 1095 001c 214B     		ldr	r3, .L51+12
 1096 001e 1A60     		str	r2, [r3]
 592:Generated_Source\PSoC4/StripLights.c ****     #else  /* Else use lookup table */
 593:Generated_Source\PSoC4/StripLights.c ****         color = StripLights_CLUT[ (StripLights_ledArray[StripLights_row][StripLights_ledIndex]) ];
 594:Generated_Source\PSoC4/StripLights.c ****     #endif
 595:Generated_Source\PSoC4/StripLights.c **** 
 596:Generated_Source\PSoC4/StripLights.c ****     color = (color >> StripLights_DimShift) & StripLights_DimMask;  
 1097              		.loc 1 596 0
 1098 0020 204B     		ldr	r3, .L51+12
 1099 0022 1A68     		ldr	r2, [r3]
 1100 0024 204B     		ldr	r3, .L51+16
 1101 0026 1B68     		ldr	r3, [r3]
 1102 0028 DA40     		lsrs	r2, r2, r3
 1103 002a 204B     		ldr	r3, .L51+20
 1104 002c 1B68     		ldr	r3, [r3]
 1105 002e 1A40     		ands	r2, r3
 1106 0030 1C4B     		ldr	r3, .L51+12
 1107 0032 1A60     		str	r2, [r3]
 597:Generated_Source\PSoC4/StripLights.c **** 
 598:Generated_Source\PSoC4/StripLights.c ****     #if(StripLights_GAMMA_CORRECTION == StripLights_GAMMA_ON)
 599:Generated_Source\PSoC4/StripLights.c **** 
 600:Generated_Source\PSoC4/StripLights.c ****         StripLights_DATA = StripLights_gamma[color & 0x000000FF];  // Write Green
ARM GAS  C:\Users\JAMESS~1\AppData\Local\Temp\ccgE8URB.s 			page 31


 1108              		.loc 1 600 0
 1109 0034 1E49     		ldr	r1, .L51+24
 1110 0036 1B4B     		ldr	r3, .L51+12
 1111 0038 1B68     		ldr	r3, [r3]
 1112 003a FF22     		movs	r2, #255
 1113 003c 1340     		ands	r3, r2
 1114 003e 1D4A     		ldr	r2, .L51+28
 1115 0040 D35C     		ldrb	r3, [r2, r3]
 1116 0042 0B70     		strb	r3, [r1]
 601:Generated_Source\PSoC4/StripLights.c ****         color = color >> 8;
 1117              		.loc 1 601 0
 1118 0044 174B     		ldr	r3, .L51+12
 1119 0046 1B68     		ldr	r3, [r3]
 1120 0048 1A0A     		lsrs	r2, r3, #8
 1121 004a 164B     		ldr	r3, .L51+12
 1122 004c 1A60     		str	r2, [r3]
 602:Generated_Source\PSoC4/StripLights.c ****         StripLights_DATA = StripLights_gamma[color & 0x000000FF];  // Write Red
 1123              		.loc 1 602 0
 1124 004e 1849     		ldr	r1, .L51+24
 1125 0050 144B     		ldr	r3, .L51+12
 1126 0052 1B68     		ldr	r3, [r3]
 1127 0054 FF22     		movs	r2, #255
 1128 0056 1340     		ands	r3, r2
 1129 0058 164A     		ldr	r2, .L51+28
 1130 005a D35C     		ldrb	r3, [r2, r3]
 1131 005c 0B70     		strb	r3, [r1]
 603:Generated_Source\PSoC4/StripLights.c ****         color = color >> 8;
 1132              		.loc 1 603 0
 1133 005e 114B     		ldr	r3, .L51+12
 1134 0060 1B68     		ldr	r3, [r3]
 1135 0062 1A0A     		lsrs	r2, r3, #8
 1136 0064 0F4B     		ldr	r3, .L51+12
 1137 0066 1A60     		str	r2, [r3]
 604:Generated_Source\PSoC4/StripLights.c ****         StripLights_DATA = StripLights_gamma[color & 0x000000FF];  // Write Blue
 1138              		.loc 1 604 0
 1139 0068 1149     		ldr	r1, .L51+24
 1140 006a 0E4B     		ldr	r3, .L51+12
 1141 006c 1B68     		ldr	r3, [r3]
 1142 006e FF22     		movs	r2, #255
 1143 0070 1340     		ands	r3, r2
 1144 0072 104A     		ldr	r2, .L51+28
 1145 0074 D35C     		ldrb	r3, [r2, r3]
 1146 0076 0B70     		strb	r3, [r1]
 605:Generated_Source\PSoC4/StripLights.c ****         #if(StripLights_CHIP == StripLights_CHIP_SF2812RGBW)
 606:Generated_Source\PSoC4/StripLights.c ****             color = color >> 8;
 607:Generated_Source\PSoC4/StripLights.c ****             StripLights_DATA = StripLights_gamma[color & 0x000000FF];  // Write White 
 608:Generated_Source\PSoC4/StripLights.c ****         #endif
 609:Generated_Source\PSoC4/StripLights.c ****     #else
 610:Generated_Source\PSoC4/StripLights.c **** 
 611:Generated_Source\PSoC4/StripLights.c ****         StripLights_DATA = (uint8)(color & 0x000000FF);  // Write Green
 612:Generated_Source\PSoC4/StripLights.c ****         color = color >> 8;
 613:Generated_Source\PSoC4/StripLights.c ****         StripLights_DATA = (uint8)(color & 0x000000FF);  // Write Red
 614:Generated_Source\PSoC4/StripLights.c ****         color = color >> 8;
 615:Generated_Source\PSoC4/StripLights.c ****         StripLights_DATA = (uint8)(color & 0x000000FF);  // Write Blue    
 616:Generated_Source\PSoC4/StripLights.c ****          #if(StripLights_CHIP == StripLights_CHIP_SF2812RGBW)
 617:Generated_Source\PSoC4/StripLights.c ****             color = color >> 8;
 618:Generated_Source\PSoC4/StripLights.c ****             StripLights_DATA = (uint8)(color & 0x000000FF);  // Write White 
ARM GAS  C:\Users\JAMESS~1\AppData\Local\Temp\ccgE8URB.s 			page 32


 619:Generated_Source\PSoC4/StripLights.c ****         #endif 
 620:Generated_Source\PSoC4/StripLights.c ****     #endif
 621:Generated_Source\PSoC4/StripLights.c ****     
 622:Generated_Source\PSoC4/StripLights.c ****     StripLights_ledIndex++;
 1147              		.loc 1 622 0
 1148 0078 084B     		ldr	r3, .L51+4
 1149 007a 1B68     		ldr	r3, [r3]
 1150 007c 5A1C     		adds	r2, r3, #1
 1151 007e 074B     		ldr	r3, .L51+4
 1152 0080 1A60     		str	r2, [r3]
 623:Generated_Source\PSoC4/StripLights.c ****     if(StripLights_ledIndex >= StripLights_ARRAY_COLS)
 1153              		.loc 1 623 0
 1154 0082 064B     		ldr	r3, .L51+4
 1155 0084 1B68     		ldr	r3, [r3]
 1156 0086 1D2B     		cmp	r3, #29
 1157 0088 02D9     		bls	.L50
 624:Generated_Source\PSoC4/StripLights.c ****     {
 625:Generated_Source\PSoC4/StripLights.c ****         StripLights_CONTROL = StripLights_ENABLE | StripLights_XFRCMPT_IRQ_EN; 
 1158              		.loc 1 625 0
 1159 008a 0B4B     		ldr	r3, .L51+32
 1160 008c 1122     		movs	r2, #17
 1161 008e 1A70     		strb	r2, [r3]
 1162              	.L50:
 626:Generated_Source\PSoC4/StripLights.c ****     }
 627:Generated_Source\PSoC4/StripLights.c **** }
 1163              		.loc 1 627 0
 1164 0090 C046     		nop
 1165 0092 BD46     		mov	sp, r7
 1166              		@ sp needed
 1167 0094 80BD     		pop	{r7, pc}
 1168              	.L52:
 1169 0096 C046     		.align	2
 1170              	.L51:
 1171 0098 00000000 		.word	StripLights_row
 1172 009c 00000000 		.word	StripLights_ledIndex
 1173 00a0 00000000 		.word	StripLights_ledArray
 1174 00a4 18000000 		.word	color.5913
 1175 00a8 00000000 		.word	StripLights_DimShift
 1176 00ac 00000000 		.word	StripLights_DimMask
 1177 00b0 40000F40 		.word	1074724928
 1178 00b4 00000000 		.word	StripLights_gamma
 1179 00b8 70000F40 		.word	1074724976
 1180              		.cfi_endproc
 1181              	.LFE41:
 1182              		.size	StripLights_FISR, .-StripLights_FISR
 1183              		.section	.text.StripLights_CISR,"ax",%progbits
 1184              		.align	2
 1185              		.global	StripLights_CISR
 1186              		.code	16
 1187              		.thumb_func
 1188              		.type	StripLights_CISR, %function
 1189              	StripLights_CISR:
 1190              	.LFB42:
 628:Generated_Source\PSoC4/StripLights.c **** 
 629:Generated_Source\PSoC4/StripLights.c **** /*****************************************************************************
 630:Generated_Source\PSoC4/StripLights.c **** * Function Name: StripLights_CISR
 631:Generated_Source\PSoC4/StripLights.c **** ******************************************************************************
ARM GAS  C:\Users\JAMESS~1\AppData\Local\Temp\ccgE8URB.s 			page 33


 632:Generated_Source\PSoC4/StripLights.c **** *
 633:Generated_Source\PSoC4/StripLights.c **** * Summary:
 634:Generated_Source\PSoC4/StripLights.c **** *  Interrupt service handler after each row is complete.
 635:Generated_Source\PSoC4/StripLights.c **** *
 636:Generated_Source\PSoC4/StripLights.c **** * Parameters:  
 637:Generated_Source\PSoC4/StripLights.c **** *  void
 638:Generated_Source\PSoC4/StripLights.c **** *
 639:Generated_Source\PSoC4/StripLights.c **** * Return: 
 640:Generated_Source\PSoC4/StripLights.c **** *  void 
 641:Generated_Source\PSoC4/StripLights.c **** *
 642:Generated_Source\PSoC4/StripLights.c **** * Reentrant: 
 643:Generated_Source\PSoC4/StripLights.c **** *  No
 644:Generated_Source\PSoC4/StripLights.c **** *
 645:Generated_Source\PSoC4/StripLights.c **** *****************************************************************************/
 646:Generated_Source\PSoC4/StripLights.c **** CY_ISR( StripLights_CISR)
 647:Generated_Source\PSoC4/StripLights.c **** {
 1191              		.loc 1 647 0
 1192              		.cfi_startproc
 1193              		@ args = 0, pretend = 0, frame = 0
 1194              		@ frame_needed = 1, uses_anonymous_args = 0
 1195 0000 80B5     		push	{r7, lr}
 1196              		.cfi_def_cfa_offset 8
 1197              		.cfi_offset 7, -8
 1198              		.cfi_offset 14, -4
 1199 0002 00AF     		add	r7, sp, #0
 1200              		.cfi_def_cfa_register 7
 648:Generated_Source\PSoC4/StripLights.c ****     extern uint32  StripLights_DimMask;
 649:Generated_Source\PSoC4/StripLights.c ****     extern uint32  StripLights_DimShift;
 650:Generated_Source\PSoC4/StripLights.c ****     uint32 static color;
 651:Generated_Source\PSoC4/StripLights.c ****     extern uint32 StripLights_refreshComplete;
 652:Generated_Source\PSoC4/StripLights.c **** 
 653:Generated_Source\PSoC4/StripLights.c **** 	StripLights_CONTROL = StripLights_ENABLE |StripLights_NEXT_ROW;
 1201              		.loc 1 653 0
 1202 0004 294B     		ldr	r3, .L57
 1203 0006 2122     		movs	r2, #33
 1204 0008 1A70     		strb	r2, [r3]
 654:Generated_Source\PSoC4/StripLights.c ****     StripLights_row++;
 1205              		.loc 1 654 0
 1206 000a 294B     		ldr	r3, .L57+4
 1207 000c 1B68     		ldr	r3, [r3]
 1208 000e 5A1C     		adds	r2, r3, #1
 1209 0010 274B     		ldr	r3, .L57+4
 1210 0012 1A60     		str	r2, [r3]
 655:Generated_Source\PSoC4/StripLights.c ****     if( StripLights_row < StripLights_ARRAY_ROWS)  /* More Rows to do  */
 1211              		.loc 1 655 0
 1212 0014 264B     		ldr	r3, .L57+4
 1213 0016 1B68     		ldr	r3, [r3]
 1214 0018 002B     		cmp	r3, #0
 1215 001a 41D1     		bne	.L54
 656:Generated_Source\PSoC4/StripLights.c ****     {
 657:Generated_Source\PSoC4/StripLights.c ****         StripLights_Channel = StripLights_row;  
 1216              		.loc 1 657 0
 1217 001c 254A     		ldr	r2, .L57+8
 1218 001e 244B     		ldr	r3, .L57+4
 1219 0020 1B68     		ldr	r3, [r3]
 1220 0022 DBB2     		uxtb	r3, r3
 1221 0024 1370     		strb	r3, [r2]
ARM GAS  C:\Users\JAMESS~1\AppData\Local\Temp\ccgE8URB.s 			page 34


 658:Generated_Source\PSoC4/StripLights.c **** 
 659:Generated_Source\PSoC4/StripLights.c **** 		#if(StripLights_MEMORY_TYPE == StripLights_MEMORY_RGB)
 660:Generated_Source\PSoC4/StripLights.c ****              color = StripLights_ledArray[StripLights_row][0];
 1222              		.loc 1 660 0
 1223 0026 224B     		ldr	r3, .L57+4
 1224 0028 1A68     		ldr	r2, [r3]
 1225 002a 2349     		ldr	r1, .L57+12
 1226 002c 1300     		movs	r3, r2
 1227 002e 1B01     		lsls	r3, r3, #4
 1228 0030 9B1A     		subs	r3, r3, r2
 1229 0032 DB00     		lsls	r3, r3, #3
 1230 0034 5A58     		ldr	r2, [r3, r1]
 1231 0036 214B     		ldr	r3, .L57+16
 1232 0038 1A60     		str	r2, [r3]
 661:Generated_Source\PSoC4/StripLights.c ****         #else  /* Else use lookup table */
 662:Generated_Source\PSoC4/StripLights.c ****              color = StripLights_CLUT[ (StripLights_ledArray[StripLights_row][0]) ];
 663:Generated_Source\PSoC4/StripLights.c ****         #endif
 664:Generated_Source\PSoC4/StripLights.c **** 
 665:Generated_Source\PSoC4/StripLights.c ****         color = (color >> StripLights_DimShift) & StripLights_DimMask;
 1233              		.loc 1 665 0
 1234 003a 204B     		ldr	r3, .L57+16
 1235 003c 1A68     		ldr	r2, [r3]
 1236 003e 204B     		ldr	r3, .L57+20
 1237 0040 1B68     		ldr	r3, [r3]
 1238 0042 DA40     		lsrs	r2, r2, r3
 1239 0044 1F4B     		ldr	r3, .L57+24
 1240 0046 1B68     		ldr	r3, [r3]
 1241 0048 1A40     		ands	r2, r3
 1242 004a 1C4B     		ldr	r3, .L57+16
 1243 004c 1A60     		str	r2, [r3]
 666:Generated_Source\PSoC4/StripLights.c ****  
 667:Generated_Source\PSoC4/StripLights.c ****         #if(StripLights_GAMMA_CORRECTION == StripLights_GAMMA_ON)
 668:Generated_Source\PSoC4/StripLights.c ****             StripLights_DATA = StripLights_gamma[color & 0x000000FF];  // Write Green
 1244              		.loc 1 668 0
 1245 004e 1E49     		ldr	r1, .L57+28
 1246 0050 1A4B     		ldr	r3, .L57+16
 1247 0052 1B68     		ldr	r3, [r3]
 1248 0054 FF22     		movs	r2, #255
 1249 0056 1340     		ands	r3, r2
 1250 0058 1C4A     		ldr	r2, .L57+32
 1251 005a D35C     		ldrb	r3, [r2, r3]
 1252 005c 0B70     		strb	r3, [r1]
 669:Generated_Source\PSoC4/StripLights.c ****             color = color >> 8;
 1253              		.loc 1 669 0
 1254 005e 174B     		ldr	r3, .L57+16
 1255 0060 1B68     		ldr	r3, [r3]
 1256 0062 1A0A     		lsrs	r2, r3, #8
 1257 0064 154B     		ldr	r3, .L57+16
 1258 0066 1A60     		str	r2, [r3]
 670:Generated_Source\PSoC4/StripLights.c ****             StripLights_DATA = StripLights_gamma[color & 0x000000FF];  // Write Red
 1259              		.loc 1 670 0
 1260 0068 1749     		ldr	r1, .L57+28
 1261 006a 144B     		ldr	r3, .L57+16
 1262 006c 1B68     		ldr	r3, [r3]
 1263 006e FF22     		movs	r2, #255
 1264 0070 1340     		ands	r3, r2
 1265 0072 164A     		ldr	r2, .L57+32
ARM GAS  C:\Users\JAMESS~1\AppData\Local\Temp\ccgE8URB.s 			page 35


 1266 0074 D35C     		ldrb	r3, [r2, r3]
 1267 0076 0B70     		strb	r3, [r1]
 671:Generated_Source\PSoC4/StripLights.c ****             color = color >> 8;
 1268              		.loc 1 671 0
 1269 0078 104B     		ldr	r3, .L57+16
 1270 007a 1B68     		ldr	r3, [r3]
 1271 007c 1A0A     		lsrs	r2, r3, #8
 1272 007e 0F4B     		ldr	r3, .L57+16
 1273 0080 1A60     		str	r2, [r3]
 672:Generated_Source\PSoC4/StripLights.c ****             StripLights_DATA = StripLights_gamma[color & 0x000000FF];  // Write Blue
 1274              		.loc 1 672 0
 1275 0082 1149     		ldr	r1, .L57+28
 1276 0084 0D4B     		ldr	r3, .L57+16
 1277 0086 1B68     		ldr	r3, [r3]
 1278 0088 FF22     		movs	r2, #255
 1279 008a 1340     		ands	r3, r2
 1280 008c 0F4A     		ldr	r2, .L57+32
 1281 008e D35C     		ldrb	r3, [r2, r3]
 1282 0090 0B70     		strb	r3, [r1]
 673:Generated_Source\PSoC4/StripLights.c ****              #if(StripLights_CHIP == StripLights_CHIP_SF2812RGBW)
 674:Generated_Source\PSoC4/StripLights.c ****                 color = color >> 8;
 675:Generated_Source\PSoC4/StripLights.c ****                 StripLights_DATA = StripLights_gamma[color & 0x000000FF];  // Write White 
 676:Generated_Source\PSoC4/StripLights.c ****             #endif 
 677:Generated_Source\PSoC4/StripLights.c ****         #else
 678:Generated_Source\PSoC4/StripLights.c ****             StripLights_DATA = (uint8)(color & 0x000000FF);  // Write Green
 679:Generated_Source\PSoC4/StripLights.c ****             color = color >> 8;
 680:Generated_Source\PSoC4/StripLights.c ****             StripLights_DATA = (uint8)(color & 0x000000FF);  // Write Red
 681:Generated_Source\PSoC4/StripLights.c ****             color = color >> 8;
 682:Generated_Source\PSoC4/StripLights.c ****             StripLights_DATA = (uint8)(color & 0x000000FF);  // Write Blue  
 683:Generated_Source\PSoC4/StripLights.c ****             #if(StripLights_CHIP == StripLights_CHIP_SF2812RGBW)
 684:Generated_Source\PSoC4/StripLights.c ****                 color = color >> 8;
 685:Generated_Source\PSoC4/StripLights.c ****                 StripLights_DATA = (uint8)(color & 0x000000FF);  // Write White 
 686:Generated_Source\PSoC4/StripLights.c ****             #endif  
 687:Generated_Source\PSoC4/StripLights.c ****         #endif
 688:Generated_Source\PSoC4/StripLights.c ****        
 689:Generated_Source\PSoC4/StripLights.c ****         StripLights_ledIndex = 1;
 1283              		.loc 1 689 0
 1284 0092 0F4B     		ldr	r3, .L57+36
 1285 0094 0122     		movs	r2, #1
 1286 0096 1A60     		str	r2, [r3]
 690:Generated_Source\PSoC4/StripLights.c **** 		StripLights_CONTROL = StripLights_ENABLE | StripLights_XFRCMPT_IRQ_EN | StripLights_FIFO_IRQ_EN; 
 1287              		.loc 1 690 0
 1288 0098 044B     		ldr	r3, .L57
 1289 009a 1922     		movs	r2, #25
 1290 009c 1A70     		strb	r2, [r3]
 691:Generated_Source\PSoC4/StripLights.c ****     }
 692:Generated_Source\PSoC4/StripLights.c ****     else
 693:Generated_Source\PSoC4/StripLights.c ****     {
 694:Generated_Source\PSoC4/StripLights.c ****         StripLights_refreshComplete = 1u;
 695:Generated_Source\PSoC4/StripLights.c ****     }
 696:Generated_Source\PSoC4/StripLights.c **** }
 1291              		.loc 1 696 0
 1292 009e 02E0     		b	.L56
 1293              	.L54:
 694:Generated_Source\PSoC4/StripLights.c ****     }
 1294              		.loc 1 694 0
 1295 00a0 0C4B     		ldr	r3, .L57+40
ARM GAS  C:\Users\JAMESS~1\AppData\Local\Temp\ccgE8URB.s 			page 36


 1296 00a2 0122     		movs	r2, #1
 1297 00a4 1A60     		str	r2, [r3]
 1298              	.L56:
 1299              		.loc 1 696 0
 1300 00a6 C046     		nop
 1301 00a8 BD46     		mov	sp, r7
 1302              		@ sp needed
 1303 00aa 80BD     		pop	{r7, pc}
 1304              	.L58:
 1305              		.align	2
 1306              	.L57:
 1307 00ac 70000F40 		.word	1074724976
 1308 00b0 00000000 		.word	StripLights_row
 1309 00b4 71000F40 		.word	1074724977
 1310 00b8 00000000 		.word	StripLights_ledArray
 1311 00bc 1C000000 		.word	color.5921
 1312 00c0 00000000 		.word	StripLights_DimShift
 1313 00c4 00000000 		.word	StripLights_DimMask
 1314 00c8 40000F40 		.word	1074724928
 1315 00cc 00000000 		.word	StripLights_gamma
 1316 00d0 00000000 		.word	StripLights_ledIndex
 1317 00d4 00000000 		.word	StripLights_refreshComplete
 1318              		.cfi_endproc
 1319              	.LFE42:
 1320              		.size	StripLights_CISR, .-StripLights_CISR
 1321              		.section	.text.StripLights_DisplayClear,"ax",%progbits
 1322              		.align	2
 1323              		.global	StripLights_DisplayClear
 1324              		.code	16
 1325              		.thumb_func
 1326              		.type	StripLights_DisplayClear, %function
 1327              	StripLights_DisplayClear:
 1328              	.LFB43:
 697:Generated_Source\PSoC4/StripLights.c **** 
 698:Generated_Source\PSoC4/StripLights.c **** 
 699:Generated_Source\PSoC4/StripLights.c **** /*******************************************************************************
 700:Generated_Source\PSoC4/StripLights.c **** * Function Name: StripLights_DisplayClear
 701:Generated_Source\PSoC4/StripLights.c **** ********************************************************************************
 702:Generated_Source\PSoC4/StripLights.c **** * Summary:
 703:Generated_Source\PSoC4/StripLights.c **** *   Clear memory with a given value and update the display.
 704:Generated_Source\PSoC4/StripLights.c **** *
 705:Generated_Source\PSoC4/StripLights.c **** * Parameters:  
 706:Generated_Source\PSoC4/StripLights.c **** *  uint32 color: Color to clear display. 
 707:Generated_Source\PSoC4/StripLights.c **** *
 708:Generated_Source\PSoC4/StripLights.c **** * Return: 
 709:Generated_Source\PSoC4/StripLights.c **** *  void
 710:Generated_Source\PSoC4/StripLights.c **** *
 711:Generated_Source\PSoC4/StripLights.c **** *******************************************************************************/
 712:Generated_Source\PSoC4/StripLights.c **** void StripLights_DisplayClear(uint32 color)
 713:Generated_Source\PSoC4/StripLights.c **** {   
 1329              		.loc 1 713 0
 1330              		.cfi_startproc
 1331              		@ args = 0, pretend = 0, frame = 8
 1332              		@ frame_needed = 1, uses_anonymous_args = 0
 1333 0000 80B5     		push	{r7, lr}
 1334              		.cfi_def_cfa_offset 8
 1335              		.cfi_offset 7, -8
ARM GAS  C:\Users\JAMESS~1\AppData\Local\Temp\ccgE8URB.s 			page 37


 1336              		.cfi_offset 14, -4
 1337 0002 82B0     		sub	sp, sp, #8
 1338              		.cfi_def_cfa_offset 16
 1339 0004 00AF     		add	r7, sp, #0
 1340              		.cfi_def_cfa_register 7
 1341 0006 7860     		str	r0, [r7, #4]
 714:Generated_Source\PSoC4/StripLights.c ****     StripLights_MemClear(color);
 1342              		.loc 1 714 0
 1343 0008 7B68     		ldr	r3, [r7, #4]
 1344 000a 1800     		movs	r0, r3
 1345 000c FFF7FEFF 		bl	StripLights_MemClear
 715:Generated_Source\PSoC4/StripLights.c ****     StripLights_Trigger(1);
 1346              		.loc 1 715 0
 1347 0010 0120     		movs	r0, #1
 1348 0012 FFF7FEFF 		bl	StripLights_Trigger
 716:Generated_Source\PSoC4/StripLights.c **** }
 1349              		.loc 1 716 0
 1350 0016 C046     		nop
 1351 0018 BD46     		mov	sp, r7
 1352 001a 02B0     		add	sp, sp, #8
 1353              		@ sp needed
 1354 001c 80BD     		pop	{r7, pc}
 1355              		.cfi_endproc
 1356              	.LFE43:
 1357              		.size	StripLights_DisplayClear, .-StripLights_DisplayClear
 1358 001e C046     		.section	.text.StripLights_MemClear,"ax",%progbits
 1359              		.align	2
 1360              		.global	StripLights_MemClear
 1361              		.code	16
 1362              		.thumb_func
 1363              		.type	StripLights_MemClear, %function
 1364              	StripLights_MemClear:
 1365              	.LFB44:
 717:Generated_Source\PSoC4/StripLights.c **** 
 718:Generated_Source\PSoC4/StripLights.c **** /*******************************************************************************
 719:Generated_Source\PSoC4/StripLights.c **** * Function Name: StripLights_MemClear
 720:Generated_Source\PSoC4/StripLights.c **** ********************************************************************************
 721:Generated_Source\PSoC4/StripLights.c **** * Summary:
 722:Generated_Source\PSoC4/StripLights.c **** *   Clear LED memory with given color, but do not update display.
 723:Generated_Source\PSoC4/StripLights.c **** *
 724:Generated_Source\PSoC4/StripLights.c **** * Parameters:  
 725:Generated_Source\PSoC4/StripLights.c **** *  uint32 color: Color to clear display.  
 726:Generated_Source\PSoC4/StripLights.c **** *
 727:Generated_Source\PSoC4/StripLights.c **** * Return: 
 728:Generated_Source\PSoC4/StripLights.c **** *  void
 729:Generated_Source\PSoC4/StripLights.c **** *
 730:Generated_Source\PSoC4/StripLights.c **** *******************************************************************************/
 731:Generated_Source\PSoC4/StripLights.c **** void StripLights_MemClear(uint32 color)
 732:Generated_Source\PSoC4/StripLights.c **** {
 1366              		.loc 1 732 0
 1367              		.cfi_startproc
 1368              		@ args = 0, pretend = 0, frame = 16
 1369              		@ frame_needed = 1, uses_anonymous_args = 0
 1370 0000 80B5     		push	{r7, lr}
 1371              		.cfi_def_cfa_offset 8
 1372              		.cfi_offset 7, -8
 1373              		.cfi_offset 14, -4
ARM GAS  C:\Users\JAMESS~1\AppData\Local\Temp\ccgE8URB.s 			page 38


 1374 0002 84B0     		sub	sp, sp, #16
 1375              		.cfi_def_cfa_offset 24
 1376 0004 00AF     		add	r7, sp, #0
 1377              		.cfi_def_cfa_register 7
 1378 0006 7860     		str	r0, [r7, #4]
 733:Generated_Source\PSoC4/StripLights.c ****     uint32  row, col;
 734:Generated_Source\PSoC4/StripLights.c ****     
 735:Generated_Source\PSoC4/StripLights.c ****     for(row=0; row < StripLights_ARRAY_ROWS; row++)
 1379              		.loc 1 735 0
 1380 0008 0023     		movs	r3, #0
 1381 000a FB60     		str	r3, [r7, #12]
 1382 000c 16E0     		b	.L61
 1383              	.L64:
 736:Generated_Source\PSoC4/StripLights.c ****     {
 737:Generated_Source\PSoC4/StripLights.c ****         for(col=0; col < StripLights_ARRAY_COLS; col++)
 1384              		.loc 1 737 0
 1385 000e 0023     		movs	r3, #0
 1386 0010 BB60     		str	r3, [r7, #8]
 1387 0012 0DE0     		b	.L62
 1388              	.L63:
 738:Generated_Source\PSoC4/StripLights.c ****         {
 739:Generated_Source\PSoC4/StripLights.c ****             #if(StripLights_MEMORY_TYPE == StripLights_MEMORY_RGB)
 740:Generated_Source\PSoC4/StripLights.c ****                 StripLights_ledArray[row][col] = color;
 1389              		.loc 1 740 0 discriminator 3
 1390 0014 0D49     		ldr	r1, .L65
 1391 0016 FA68     		ldr	r2, [r7, #12]
 1392 0018 1300     		movs	r3, r2
 1393 001a 1B01     		lsls	r3, r3, #4
 1394 001c 9B1A     		subs	r3, r3, r2
 1395 001e 5B00     		lsls	r3, r3, #1
 1396 0020 BA68     		ldr	r2, [r7, #8]
 1397 0022 9B18     		adds	r3, r3, r2
 1398 0024 9B00     		lsls	r3, r3, #2
 1399 0026 7A68     		ldr	r2, [r7, #4]
 1400 0028 5A50     		str	r2, [r3, r1]
 737:Generated_Source\PSoC4/StripLights.c ****         {
 1401              		.loc 1 737 0 discriminator 3
 1402 002a BB68     		ldr	r3, [r7, #8]
 1403 002c 0133     		adds	r3, r3, #1
 1404 002e BB60     		str	r3, [r7, #8]
 1405              	.L62:
 737:Generated_Source\PSoC4/StripLights.c ****         {
 1406              		.loc 1 737 0 is_stmt 0 discriminator 1
 1407 0030 BB68     		ldr	r3, [r7, #8]
 1408 0032 1D2B     		cmp	r3, #29
 1409 0034 EED9     		bls	.L63
 735:Generated_Source\PSoC4/StripLights.c ****     {
 1410              		.loc 1 735 0 is_stmt 1 discriminator 2
 1411 0036 FB68     		ldr	r3, [r7, #12]
 1412 0038 0133     		adds	r3, r3, #1
 1413 003a FB60     		str	r3, [r7, #12]
 1414              	.L61:
 735:Generated_Source\PSoC4/StripLights.c ****     {
 1415              		.loc 1 735 0 is_stmt 0 discriminator 1
 1416 003c FB68     		ldr	r3, [r7, #12]
 1417 003e 002B     		cmp	r3, #0
 1418 0040 E5D0     		beq	.L64
ARM GAS  C:\Users\JAMESS~1\AppData\Local\Temp\ccgE8URB.s 			page 39


 741:Generated_Source\PSoC4/StripLights.c ****             #else  /* Else use lookup table */
 742:Generated_Source\PSoC4/StripLights.c ****                  StripLights_ledArray[row][col] = (uint8)color;
 743:Generated_Source\PSoC4/StripLights.c ****             #endif
 744:Generated_Source\PSoC4/StripLights.c ****         }
 745:Generated_Source\PSoC4/StripLights.c ****     }
 746:Generated_Source\PSoC4/StripLights.c **** }
 1419              		.loc 1 746 0 is_stmt 1
 1420 0042 C046     		nop
 1421 0044 BD46     		mov	sp, r7
 1422 0046 04B0     		add	sp, sp, #16
 1423              		@ sp needed
 1424 0048 80BD     		pop	{r7, pc}
 1425              	.L66:
 1426 004a C046     		.align	2
 1427              	.L65:
 1428 004c 00000000 		.word	StripLights_ledArray
 1429              		.cfi_endproc
 1430              	.LFE44:
 1431              		.size	StripLights_MemClear, .-StripLights_MemClear
 1432              		.section	.text.StripLights_WriteColor,"ax",%progbits
 1433              		.align	2
 1434              		.global	StripLights_WriteColor
 1435              		.code	16
 1436              		.thumb_func
 1437              		.type	StripLights_WriteColor, %function
 1438              	StripLights_WriteColor:
 1439              	.LFB45:
 747:Generated_Source\PSoC4/StripLights.c **** 
 748:Generated_Source\PSoC4/StripLights.c **** 
 749:Generated_Source\PSoC4/StripLights.c **** 
 750:Generated_Source\PSoC4/StripLights.c **** /*******************************************************************************
 751:Generated_Source\PSoC4/StripLights.c **** * Function Name: StripLights_WriteColor
 752:Generated_Source\PSoC4/StripLights.c **** ********************************************************************************
 753:Generated_Source\PSoC4/StripLights.c **** * Summary:
 754:Generated_Source\PSoC4/StripLights.c **** *   Write given color directly to output register.
 755:Generated_Source\PSoC4/StripLights.c **** *
 756:Generated_Source\PSoC4/StripLights.c **** * Parameters:  
 757:Generated_Source\PSoC4/StripLights.c **** *  uint32 color: Color to write to display. 
 758:Generated_Source\PSoC4/StripLights.c **** *
 759:Generated_Source\PSoC4/StripLights.c **** * Return: 
 760:Generated_Source\PSoC4/StripLights.c **** *  void
 761:Generated_Source\PSoC4/StripLights.c **** *
 762:Generated_Source\PSoC4/StripLights.c **** *******************************************************************************/
 763:Generated_Source\PSoC4/StripLights.c **** void StripLights_WriteColor(uint32 color)
 764:Generated_Source\PSoC4/StripLights.c **** {
 1440              		.loc 1 764 0
 1441              		.cfi_startproc
 1442              		@ args = 0, pretend = 0, frame = 8
 1443              		@ frame_needed = 1, uses_anonymous_args = 0
 1444 0000 80B5     		push	{r7, lr}
 1445              		.cfi_def_cfa_offset 8
 1446              		.cfi_offset 7, -8
 1447              		.cfi_offset 14, -4
 1448 0002 82B0     		sub	sp, sp, #8
 1449              		.cfi_def_cfa_offset 16
 1450 0004 00AF     		add	r7, sp, #0
 1451              		.cfi_def_cfa_register 7
ARM GAS  C:\Users\JAMESS~1\AppData\Local\Temp\ccgE8URB.s 			page 40


 1452 0006 7860     		str	r0, [r7, #4]
 765:Generated_Source\PSoC4/StripLights.c ****     while( (StripLights_STATUS & StripLights_FIFO_EMPTY) == 0); 
 1453              		.loc 1 765 0
 1454 0008 C046     		nop
 1455              	.L68:
 1456              		.loc 1 765 0 is_stmt 0 discriminator 1
 1457 000a 0E4B     		ldr	r3, .L69
 1458 000c 1B78     		ldrb	r3, [r3]
 1459 000e DBB2     		uxtb	r3, r3
 1460 0010 1A00     		movs	r2, r3
 1461 0012 0123     		movs	r3, #1
 1462 0014 1340     		ands	r3, r2
 1463 0016 F8D0     		beq	.L68
 766:Generated_Source\PSoC4/StripLights.c **** 
 767:Generated_Source\PSoC4/StripLights.c ****     StripLights_DATA = (uint8)(color & 0x000000FF);  // Write Green
 1464              		.loc 1 767 0 is_stmt 1
 1465 0018 0B4B     		ldr	r3, .L69+4
 1466 001a 7A68     		ldr	r2, [r7, #4]
 1467 001c D2B2     		uxtb	r2, r2
 1468 001e 1A70     		strb	r2, [r3]
 768:Generated_Source\PSoC4/StripLights.c ****     color = color >> 8;
 1469              		.loc 1 768 0
 1470 0020 7B68     		ldr	r3, [r7, #4]
 1471 0022 1B0A     		lsrs	r3, r3, #8
 1472 0024 7B60     		str	r3, [r7, #4]
 769:Generated_Source\PSoC4/StripLights.c ****     StripLights_DATA = (uint8)(color & 0x000000FF);  // Write Red
 1473              		.loc 1 769 0
 1474 0026 084B     		ldr	r3, .L69+4
 1475 0028 7A68     		ldr	r2, [r7, #4]
 1476 002a D2B2     		uxtb	r2, r2
 1477 002c 1A70     		strb	r2, [r3]
 770:Generated_Source\PSoC4/StripLights.c ****     color = color >> 8;
 1478              		.loc 1 770 0
 1479 002e 7B68     		ldr	r3, [r7, #4]
 1480 0030 1B0A     		lsrs	r3, r3, #8
 1481 0032 7B60     		str	r3, [r7, #4]
 771:Generated_Source\PSoC4/StripLights.c ****     StripLights_DATA = (uint8)(color & 0x000000FF);  // Write Blue
 1482              		.loc 1 771 0
 1483 0034 044B     		ldr	r3, .L69+4
 1484 0036 7A68     		ldr	r2, [r7, #4]
 1485 0038 D2B2     		uxtb	r2, r2
 1486 003a 1A70     		strb	r2, [r3]
 772:Generated_Source\PSoC4/StripLights.c ****     
 773:Generated_Source\PSoC4/StripLights.c ****     #if(StripLights_CHIP == StripLights_CHIP_SF2812RGBW)
 774:Generated_Source\PSoC4/StripLights.c ****         color = color >> 8;
 775:Generated_Source\PSoC4/StripLights.c ****         StripLights_DATA = (uint8)(color & 0x000000FF);  // Write White 
 776:Generated_Source\PSoC4/StripLights.c ****     #endif 
 777:Generated_Source\PSoC4/StripLights.c **** }
 1487              		.loc 1 777 0
 1488 003c C046     		nop
 1489 003e BD46     		mov	sp, r7
 1490 0040 02B0     		add	sp, sp, #8
 1491              		@ sp needed
 1492 0042 80BD     		pop	{r7, pc}
 1493              	.L70:
 1494              		.align	2
 1495              	.L69:
ARM GAS  C:\Users\JAMESS~1\AppData\Local\Temp\ccgE8URB.s 			page 41


 1496 0044 60000F40 		.word	1074724960
 1497 0048 40000F40 		.word	1074724928
 1498              		.cfi_endproc
 1499              	.LFE45:
 1500              		.size	StripLights_WriteColor, .-StripLights_WriteColor
 1501              		.section	.text.StripLights_Pixel,"ax",%progbits
 1502              		.align	2
 1503              		.global	StripLights_Pixel
 1504              		.code	16
 1505              		.thumb_func
 1506              		.type	StripLights_Pixel, %function
 1507              	StripLights_Pixel:
 1508              	.LFB46:
 778:Generated_Source\PSoC4/StripLights.c **** 
 779:Generated_Source\PSoC4/StripLights.c **** 
 780:Generated_Source\PSoC4/StripLights.c **** /*******************************************************************************
 781:Generated_Source\PSoC4/StripLights.c **** * Function Name: StripLights_Pixel
 782:Generated_Source\PSoC4/StripLights.c **** ********************************************************************************
 783:Generated_Source\PSoC4/StripLights.c **** *
 784:Generated_Source\PSoC4/StripLights.c **** * Summary:
 785:Generated_Source\PSoC4/StripLights.c **** *  Draw Pixel  
 786:Generated_Source\PSoC4/StripLights.c **** *
 787:Generated_Source\PSoC4/StripLights.c **** * Parameters:  
 788:Generated_Source\PSoC4/StripLights.c **** *  x,y:    Location to draw the pixel
 789:Generated_Source\PSoC4/StripLights.c **** *  color:  Color of the pixel
 790:Generated_Source\PSoC4/StripLights.c **** *
 791:Generated_Source\PSoC4/StripLights.c **** * Return: 
 792:Generated_Source\PSoC4/StripLights.c **** *  None 
 793:Generated_Source\PSoC4/StripLights.c **** *******************************************************************************/
 794:Generated_Source\PSoC4/StripLights.c **** void StripLights_Pixel(int32 x, int32 y, uint32 color)
 795:Generated_Source\PSoC4/StripLights.c **** {
 1509              		.loc 1 795 0
 1510              		.cfi_startproc
 1511              		@ args = 0, pretend = 0, frame = 16
 1512              		@ frame_needed = 1, uses_anonymous_args = 0
 1513 0000 80B5     		push	{r7, lr}
 1514              		.cfi_def_cfa_offset 8
 1515              		.cfi_offset 7, -8
 1516              		.cfi_offset 14, -4
 1517 0002 84B0     		sub	sp, sp, #16
 1518              		.cfi_def_cfa_offset 24
 1519 0004 00AF     		add	r7, sp, #0
 1520              		.cfi_def_cfa_register 7
 1521 0006 F860     		str	r0, [r7, #12]
 1522 0008 B960     		str	r1, [r7, #8]
 1523 000a 7A60     		str	r2, [r7, #4]
 796:Generated_Source\PSoC4/StripLights.c **** 
 797:Generated_Source\PSoC4/StripLights.c ****     // Swap X-Y Coordinates
 798:Generated_Source\PSoC4/StripLights.c ****     #if(StripLights_SWAP_XY_COORD == StripLights_XY_SWAPED)
 799:Generated_Source\PSoC4/StripLights.c ****         uint32 xyTmp;
 800:Generated_Source\PSoC4/StripLights.c ****         xyTmp = x;
 801:Generated_Source\PSoC4/StripLights.c ****         x = y;
 802:Generated_Source\PSoC4/StripLights.c ****         y = xyTmp;
 803:Generated_Source\PSoC4/StripLights.c ****     #endif
 804:Generated_Source\PSoC4/StripLights.c ****     
 805:Generated_Source\PSoC4/StripLights.c ****     // X-Wrap
 806:Generated_Source\PSoC4/StripLights.c ****     #if (StripLights_COORD_WRAP & StripLights_COORD_XAXIS )
ARM GAS  C:\Users\JAMESS~1\AppData\Local\Temp\ccgE8URB.s 			page 42


 807:Generated_Source\PSoC4/StripLights.c ****         x = x % (StripLights_MAX_X+1);
 808:Generated_Source\PSoC4/StripLights.c ****     #endif
 809:Generated_Source\PSoC4/StripLights.c ****     
 810:Generated_Source\PSoC4/StripLights.c ****     // Y-Wrap
 811:Generated_Source\PSoC4/StripLights.c ****     #if (StripLights_COORD_WRAP & StripLights_COORD_YAXIS )
 812:Generated_Source\PSoC4/StripLights.c ****         y = y % (StripLights_MAX_Y+1);
 813:Generated_Source\PSoC4/StripLights.c ****     #endif
 814:Generated_Source\PSoC4/StripLights.c ****     
 815:Generated_Source\PSoC4/StripLights.c ****     // Flip X-Axis
 816:Generated_Source\PSoC4/StripLights.c ****     #if (StripLights_FLIP_X_COORD == StripLights_FLIP_COORD )
 817:Generated_Source\PSoC4/StripLights.c ****         x = StripLights_MAX_X - x;
 818:Generated_Source\PSoC4/StripLights.c ****     #endif
 819:Generated_Source\PSoC4/StripLights.c ****     
 820:Generated_Source\PSoC4/StripLights.c ****     // Flip Y-Axis
 821:Generated_Source\PSoC4/StripLights.c ****     #if (StripLights_FLIP_Y_COORD == StripLights_FLIP_COORD )
 822:Generated_Source\PSoC4/StripLights.c ****         y = StripLights_MAX_Y - y;
 823:Generated_Source\PSoC4/StripLights.c ****     #endif
 824:Generated_Source\PSoC4/StripLights.c ****     
 825:Generated_Source\PSoC4/StripLights.c ****     // Make sure X-Y values are in range
 826:Generated_Source\PSoC4/StripLights.c ****    	if((x >= StripLights_MIN_X) && (y >= StripLights_MIN_Y) && (x <= StripLights_MAX_X) && (y <= St
 1524              		.loc 1 826 0
 1525 000c FB68     		ldr	r3, [r7, #12]
 1526 000e 002B     		cmp	r3, #0
 1527 0010 1CDB     		blt	.L73
 1528              		.loc 1 826 0 is_stmt 0 discriminator 1
 1529 0012 BB68     		ldr	r3, [r7, #8]
 1530 0014 002B     		cmp	r3, #0
 1531 0016 19DB     		blt	.L73
 1532              		.loc 1 826 0 discriminator 2
 1533 0018 FB68     		ldr	r3, [r7, #12]
 1534 001a 0E2B     		cmp	r3, #14
 1535 001c 16DC     		bgt	.L73
 1536              		.loc 1 826 0 discriminator 3
 1537 001e BB68     		ldr	r3, [r7, #8]
 1538 0020 002B     		cmp	r3, #0
 1539 0022 13DC     		bgt	.L73
 827:Generated_Source\PSoC4/StripLights.c ****     {
 828:Generated_Source\PSoC4/StripLights.c ****         
 829:Generated_Source\PSoC4/StripLights.c ****         #if (StripLights_LED_LAYOUT == StripLights_LED_LAYOUT_STANDARD)
 830:Generated_Source\PSoC4/StripLights.c ****              // Do nothing special   
 831:Generated_Source\PSoC4/StripLights.c ****         #elif (StripLights_LED_LAYOUT == StripLights_LED_LAYOUT_SPIRAL)
 832:Generated_Source\PSoC4/StripLights.c ****             x = x + (y * StripLights_COLUMNS);
 1540              		.loc 1 832 0 is_stmt 1
 1541 0024 BA68     		ldr	r2, [r7, #8]
 1542 0026 1300     		movs	r3, r2
 1543 0028 1B01     		lsls	r3, r3, #4
 1544 002a 9B1A     		subs	r3, r3, r2
 1545 002c FA68     		ldr	r2, [r7, #12]
 1546 002e D318     		adds	r3, r2, r3
 1547 0030 FB60     		str	r3, [r7, #12]
 833:Generated_Source\PSoC4/StripLights.c ****             y = 0;
 1548              		.loc 1 833 0
 1549 0032 0023     		movs	r3, #0
 1550 0034 BB60     		str	r3, [r7, #8]
 834:Generated_Source\PSoC4/StripLights.c ****             
 835:Generated_Source\PSoC4/StripLights.c ****         #elif (StripLights_LED_LAYOUT == StripLights_LED_LAYOUT_GRID16X16)
 836:Generated_Source\PSoC4/StripLights.c ****             	x = (((x/(int32)16)*(int32)256) + (uint32)StripLights_cTrans[y % 16][x % 16]);
ARM GAS  C:\Users\JAMESS~1\AppData\Local\Temp\ccgE8URB.s 			page 43


 837:Generated_Source\PSoC4/StripLights.c **** 		        y = (y/(int32)16);    
 838:Generated_Source\PSoC4/StripLights.c ****         #endif
 839:Generated_Source\PSoC4/StripLights.c ****          
 840:Generated_Source\PSoC4/StripLights.c ****         #if(StripLights_MEMORY_TYPE == StripLights_MEMORY_RGB)
 841:Generated_Source\PSoC4/StripLights.c ****             StripLights_ledArray[y][x] = color;
 1551              		.loc 1 841 0
 1552 0036 0749     		ldr	r1, .L74
 1553 0038 BA68     		ldr	r2, [r7, #8]
 1554 003a 1300     		movs	r3, r2
 1555 003c 1B01     		lsls	r3, r3, #4
 1556 003e 9B1A     		subs	r3, r3, r2
 1557 0040 5B00     		lsls	r3, r3, #1
 1558 0042 FA68     		ldr	r2, [r7, #12]
 1559 0044 9B18     		adds	r3, r3, r2
 1560 0046 9B00     		lsls	r3, r3, #2
 1561 0048 7A68     		ldr	r2, [r7, #4]
 1562 004a 5A50     		str	r2, [r3, r1]
 1563              	.L73:
 842:Generated_Source\PSoC4/StripLights.c ****         #else  /* Else use lookup table */
 843:Generated_Source\PSoC4/StripLights.c ****             StripLights_ledArray[y][x] = (uint8)color;
 844:Generated_Source\PSoC4/StripLights.c ****         #endif    
 845:Generated_Source\PSoC4/StripLights.c ****             
 846:Generated_Source\PSoC4/StripLights.c **** 
 847:Generated_Source\PSoC4/StripLights.c ****     }
 848:Generated_Source\PSoC4/StripLights.c **** }
 1564              		.loc 1 848 0
 1565 004c C046     		nop
 1566 004e BD46     		mov	sp, r7
 1567 0050 04B0     		add	sp, sp, #16
 1568              		@ sp needed
 1569 0052 80BD     		pop	{r7, pc}
 1570              	.L75:
 1571              		.align	2
 1572              	.L74:
 1573 0054 00000000 		.word	StripLights_ledArray
 1574              		.cfi_endproc
 1575              	.LFE46:
 1576              		.size	StripLights_Pixel, .-StripLights_Pixel
 1577              		.section	.text.StripLights_GetPixel,"ax",%progbits
 1578              		.align	2
 1579              		.global	StripLights_GetPixel
 1580              		.code	16
 1581              		.thumb_func
 1582              		.type	StripLights_GetPixel, %function
 1583              	StripLights_GetPixel:
 1584              	.LFB47:
 849:Generated_Source\PSoC4/StripLights.c **** 
 850:Generated_Source\PSoC4/StripLights.c **** 
 851:Generated_Source\PSoC4/StripLights.c **** 
 852:Generated_Source\PSoC4/StripLights.c **** /*******************************************************************************
 853:Generated_Source\PSoC4/StripLights.c **** * Function Name: StripLights_GetPixel
 854:Generated_Source\PSoC4/StripLights.c **** ********************************************************************************
 855:Generated_Source\PSoC4/StripLights.c **** *
 856:Generated_Source\PSoC4/StripLights.c **** * Summary:
 857:Generated_Source\PSoC4/StripLights.c **** *  Get Pixel Color  
 858:Generated_Source\PSoC4/StripLights.c **** *
 859:Generated_Source\PSoC4/StripLights.c **** * Parameters:  
ARM GAS  C:\Users\JAMESS~1\AppData\Local\Temp\ccgE8URB.s 			page 44


 860:Generated_Source\PSoC4/StripLights.c **** *  x,y:    Location to get pixel color
 861:Generated_Source\PSoC4/StripLights.c **** *
 862:Generated_Source\PSoC4/StripLights.c **** * Return: 
 863:Generated_Source\PSoC4/StripLights.c **** *  None 
 864:Generated_Source\PSoC4/StripLights.c **** *******************************************************************************/
 865:Generated_Source\PSoC4/StripLights.c **** uint32 StripLights_GetPixel(int32 x, int32 y)
 866:Generated_Source\PSoC4/StripLights.c **** {
 1585              		.loc 1 866 0
 1586              		.cfi_startproc
 1587              		@ args = 0, pretend = 0, frame = 16
 1588              		@ frame_needed = 1, uses_anonymous_args = 0
 1589 0000 80B5     		push	{r7, lr}
 1590              		.cfi_def_cfa_offset 8
 1591              		.cfi_offset 7, -8
 1592              		.cfi_offset 14, -4
 1593 0002 84B0     		sub	sp, sp, #16
 1594              		.cfi_def_cfa_offset 24
 1595 0004 00AF     		add	r7, sp, #0
 1596              		.cfi_def_cfa_register 7
 1597 0006 7860     		str	r0, [r7, #4]
 1598 0008 3960     		str	r1, [r7]
 867:Generated_Source\PSoC4/StripLights.c ****     uint32 color = 0;
 1599              		.loc 1 867 0
 1600 000a 0023     		movs	r3, #0
 1601 000c FB60     		str	r3, [r7, #12]
 868:Generated_Source\PSoC4/StripLights.c ****     #if (StripLights_COORD_WRAP & StripLights_COORD_XAXIS )
 869:Generated_Source\PSoC4/StripLights.c ****         x = x % (StripLights_MAX_X+1);
 870:Generated_Source\PSoC4/StripLights.c ****     #endif
 871:Generated_Source\PSoC4/StripLights.c ****     #if (StripLights_COORD_WRAP & StripLights_COORD_YAXIS )
 872:Generated_Source\PSoC4/StripLights.c ****         y = y % (StripLights_MAX_Y+1);
 873:Generated_Source\PSoC4/StripLights.c ****     #endif
 874:Generated_Source\PSoC4/StripLights.c ****     
 875:Generated_Source\PSoC4/StripLights.c ****     if((x>=0) && (y>=0) && (x < StripLights_ARRAY_COLS) && (y < StripLights_ARRAY_ROWS))
 1602              		.loc 1 875 0
 1603 000e 7B68     		ldr	r3, [r7, #4]
 1604 0010 002B     		cmp	r3, #0
 1605 0012 1CDB     		blt	.L77
 1606              		.loc 1 875 0 is_stmt 0 discriminator 1
 1607 0014 3B68     		ldr	r3, [r7]
 1608 0016 002B     		cmp	r3, #0
 1609 0018 19DB     		blt	.L77
 1610              		.loc 1 875 0 discriminator 2
 1611 001a 7B68     		ldr	r3, [r7, #4]
 1612 001c 1D2B     		cmp	r3, #29
 1613 001e 16DC     		bgt	.L77
 1614              		.loc 1 875 0 discriminator 3
 1615 0020 3B68     		ldr	r3, [r7]
 1616 0022 002B     		cmp	r3, #0
 1617 0024 13DC     		bgt	.L77
 876:Generated_Source\PSoC4/StripLights.c ****     {
 877:Generated_Source\PSoC4/StripLights.c ****                 
 878:Generated_Source\PSoC4/StripLights.c ****         #if (StripLights_LED_LAYOUT == StripLights_LED_LAYOUT_STANDARD)
 879:Generated_Source\PSoC4/StripLights.c ****             
 880:Generated_Source\PSoC4/StripLights.c ****         #elif (StripLights_LED_LAYOUT == StripLights_LED_LAYOUT_SPIRAL)
 881:Generated_Source\PSoC4/StripLights.c ****             x = x + (y * StripLights_COLUMNS);
 1618              		.loc 1 881 0 is_stmt 1
 1619 0026 3A68     		ldr	r2, [r7]
ARM GAS  C:\Users\JAMESS~1\AppData\Local\Temp\ccgE8URB.s 			page 45


 1620 0028 1300     		movs	r3, r2
 1621 002a 1B01     		lsls	r3, r3, #4
 1622 002c 9B1A     		subs	r3, r3, r2
 1623 002e 7A68     		ldr	r2, [r7, #4]
 1624 0030 D318     		adds	r3, r2, r3
 1625 0032 7B60     		str	r3, [r7, #4]
 882:Generated_Source\PSoC4/StripLights.c ****             y = 0;
 1626              		.loc 1 882 0
 1627 0034 0023     		movs	r3, #0
 1628 0036 3B60     		str	r3, [r7]
 883:Generated_Source\PSoC4/StripLights.c ****             
 884:Generated_Source\PSoC4/StripLights.c ****         #elif (StripLights_LED_LAYOUT == StripLights_LED_LAYOUT_GRID16X16)
 885:Generated_Source\PSoC4/StripLights.c ****             	x = (((x/(int32)16)*(int32)256) + (uint32)StripLights_cTrans[y % 16][x % 16]);
 886:Generated_Source\PSoC4/StripLights.c **** 		        y = (y/(int32)16);    
 887:Generated_Source\PSoC4/StripLights.c ****         #endif
 888:Generated_Source\PSoC4/StripLights.c ****     
 889:Generated_Source\PSoC4/StripLights.c ****         #if(StripLights_MEMORY_TYPE == StripLights_MEMORY_RGB)
 890:Generated_Source\PSoC4/StripLights.c ****             color = StripLights_ledArray[y][x];
 1629              		.loc 1 890 0
 1630 0038 0749     		ldr	r1, .L79
 1631 003a 3A68     		ldr	r2, [r7]
 1632 003c 1300     		movs	r3, r2
 1633 003e 1B01     		lsls	r3, r3, #4
 1634 0040 9B1A     		subs	r3, r3, r2
 1635 0042 5B00     		lsls	r3, r3, #1
 1636 0044 7A68     		ldr	r2, [r7, #4]
 1637 0046 9B18     		adds	r3, r3, r2
 1638 0048 9B00     		lsls	r3, r3, #2
 1639 004a 5B58     		ldr	r3, [r3, r1]
 1640 004c FB60     		str	r3, [r7, #12]
 1641              	.L77:
 891:Generated_Source\PSoC4/StripLights.c ****         #else  /* Else use lookup table */
 892:Generated_Source\PSoC4/StripLights.c ****             color = (uint32)StripLights_ledArray[y][x];
 893:Generated_Source\PSoC4/StripLights.c ****         #endif
 894:Generated_Source\PSoC4/StripLights.c **** 
 895:Generated_Source\PSoC4/StripLights.c ****     }
 896:Generated_Source\PSoC4/StripLights.c ****     return(color);
 1642              		.loc 1 896 0
 1643 004e FB68     		ldr	r3, [r7, #12]
 897:Generated_Source\PSoC4/StripLights.c **** }
 1644              		.loc 1 897 0
 1645 0050 1800     		movs	r0, r3
 1646 0052 BD46     		mov	sp, r7
 1647 0054 04B0     		add	sp, sp, #16
 1648              		@ sp needed
 1649 0056 80BD     		pop	{r7, pc}
 1650              	.L80:
 1651              		.align	2
 1652              	.L79:
 1653 0058 00000000 		.word	StripLights_ledArray
 1654              		.cfi_endproc
 1655              	.LFE47:
 1656              		.size	StripLights_GetPixel, .-StripLights_GetPixel
 1657              		.section	.text.StripLights_DrawCircle,"ax",%progbits
 1658              		.align	2
 1659              		.global	StripLights_DrawCircle
 1660              		.code	16
ARM GAS  C:\Users\JAMESS~1\AppData\Local\Temp\ccgE8URB.s 			page 46


 1661              		.thumb_func
 1662              		.type	StripLights_DrawCircle, %function
 1663              	StripLights_DrawCircle:
 1664              	.LFB48:
 898:Generated_Source\PSoC4/StripLights.c **** 
 899:Generated_Source\PSoC4/StripLights.c **** /*******************************************************************************
 900:Generated_Source\PSoC4/StripLights.c **** * Function Name: StripLights_DrawCircle
 901:Generated_Source\PSoC4/StripLights.c **** ********************************************************************************
 902:Generated_Source\PSoC4/StripLights.c **** *
 903:Generated_Source\PSoC4/StripLights.c **** * Summary:
 904:Generated_Source\PSoC4/StripLights.c **** *  Draw a circle on the display given a start point and radius.  
 905:Generated_Source\PSoC4/StripLights.c **** *
 906:Generated_Source\PSoC4/StripLights.c **** *  This code uses Bresenham's Circle Algorithm. 
 907:Generated_Source\PSoC4/StripLights.c **** *
 908:Generated_Source\PSoC4/StripLights.c **** * Parameters:  
 909:Generated_Source\PSoC4/StripLights.c **** *  x0, y0: Center of circle
 910:Generated_Source\PSoC4/StripLights.c **** *  radius: Radius of circle
 911:Generated_Source\PSoC4/StripLights.c **** *  color:  Color of circle
 912:Generated_Source\PSoC4/StripLights.c **** *
 913:Generated_Source\PSoC4/StripLights.c **** * Return: 
 914:Generated_Source\PSoC4/StripLights.c **** *  None 
 915:Generated_Source\PSoC4/StripLights.c **** *  
 916:Generated_Source\PSoC4/StripLights.c **** *******************************************************************************/
 917:Generated_Source\PSoC4/StripLights.c **** void StripLights_DrawCircle (int32 x0, int32 y0, int32 radius, uint32 color)
 918:Generated_Source\PSoC4/StripLights.c **** {
 1665              		.loc 1 918 0
 1666              		.cfi_startproc
 1667              		@ args = 0, pretend = 0, frame = 40
 1668              		@ frame_needed = 1, uses_anonymous_args = 0
 1669 0000 80B5     		push	{r7, lr}
 1670              		.cfi_def_cfa_offset 8
 1671              		.cfi_offset 7, -8
 1672              		.cfi_offset 14, -4
 1673 0002 8AB0     		sub	sp, sp, #40
 1674              		.cfi_def_cfa_offset 48
 1675 0004 00AF     		add	r7, sp, #0
 1676              		.cfi_def_cfa_register 7
 1677 0006 F860     		str	r0, [r7, #12]
 1678 0008 B960     		str	r1, [r7, #8]
 1679 000a 7A60     		str	r2, [r7, #4]
 1680 000c 3B60     		str	r3, [r7]
 919:Generated_Source\PSoC4/StripLights.c **** 	int32 f = 1 - radius;
 1681              		.loc 1 919 0
 1682 000e 7B68     		ldr	r3, [r7, #4]
 1683 0010 0122     		movs	r2, #1
 1684 0012 D31A     		subs	r3, r2, r3
 1685 0014 7B62     		str	r3, [r7, #36]
 920:Generated_Source\PSoC4/StripLights.c **** 	int32 ddF_x = 0;
 1686              		.loc 1 920 0
 1687 0016 0023     		movs	r3, #0
 1688 0018 3B62     		str	r3, [r7, #32]
 921:Generated_Source\PSoC4/StripLights.c **** 	int32 ddF_y = -2 * radius;
 1689              		.loc 1 921 0
 1690 001a 7A68     		ldr	r2, [r7, #4]
 1691 001c 1300     		movs	r3, r2
 1692 001e DB07     		lsls	r3, r3, #31
 1693 0020 9B1A     		subs	r3, r3, r2
ARM GAS  C:\Users\JAMESS~1\AppData\Local\Temp\ccgE8URB.s 			page 47


 1694 0022 5B00     		lsls	r3, r3, #1
 1695 0024 FB61     		str	r3, [r7, #28]
 922:Generated_Source\PSoC4/StripLights.c **** 	int32 x = 0;
 1696              		.loc 1 922 0
 1697 0026 0023     		movs	r3, #0
 1698 0028 BB61     		str	r3, [r7, #24]
 923:Generated_Source\PSoC4/StripLights.c **** 	int32 y = radius;
 1699              		.loc 1 923 0
 1700 002a 7B68     		ldr	r3, [r7, #4]
 1701 002c 7B61     		str	r3, [r7, #20]
 924:Generated_Source\PSoC4/StripLights.c **** 
 925:Generated_Source\PSoC4/StripLights.c **** 	StripLights_Pixel(x0, y0 + radius, color);
 1702              		.loc 1 925 0
 1703 002e BA68     		ldr	r2, [r7, #8]
 1704 0030 7B68     		ldr	r3, [r7, #4]
 1705 0032 D118     		adds	r1, r2, r3
 1706 0034 3A68     		ldr	r2, [r7]
 1707 0036 FB68     		ldr	r3, [r7, #12]
 1708 0038 1800     		movs	r0, r3
 1709 003a FFF7FEFF 		bl	StripLights_Pixel
 926:Generated_Source\PSoC4/StripLights.c **** 	StripLights_Pixel(x0, y0 - radius, color);
 1710              		.loc 1 926 0
 1711 003e BA68     		ldr	r2, [r7, #8]
 1712 0040 7B68     		ldr	r3, [r7, #4]
 1713 0042 D11A     		subs	r1, r2, r3
 1714 0044 3A68     		ldr	r2, [r7]
 1715 0046 FB68     		ldr	r3, [r7, #12]
 1716 0048 1800     		movs	r0, r3
 1717 004a FFF7FEFF 		bl	StripLights_Pixel
 927:Generated_Source\PSoC4/StripLights.c **** 	StripLights_Pixel( x0 + radius, y0, color);
 1718              		.loc 1 927 0
 1719 004e FA68     		ldr	r2, [r7, #12]
 1720 0050 7B68     		ldr	r3, [r7, #4]
 1721 0052 D318     		adds	r3, r2, r3
 1722 0054 3A68     		ldr	r2, [r7]
 1723 0056 B968     		ldr	r1, [r7, #8]
 1724 0058 1800     		movs	r0, r3
 1725 005a FFF7FEFF 		bl	StripLights_Pixel
 928:Generated_Source\PSoC4/StripLights.c **** 	StripLights_Pixel( x0 - radius, y0, color);
 1726              		.loc 1 928 0
 1727 005e FA68     		ldr	r2, [r7, #12]
 1728 0060 7B68     		ldr	r3, [r7, #4]
 1729 0062 D31A     		subs	r3, r2, r3
 1730 0064 3A68     		ldr	r2, [r7]
 1731 0066 B968     		ldr	r1, [r7, #8]
 1732 0068 1800     		movs	r0, r3
 1733 006a FFF7FEFF 		bl	StripLights_Pixel
 929:Generated_Source\PSoC4/StripLights.c **** 
 930:Generated_Source\PSoC4/StripLights.c **** 	while(x < y)
 1734              		.loc 1 930 0
 1735 006e 67E0     		b	.L82
 1736              	.L84:
 931:Generated_Source\PSoC4/StripLights.c **** 	{
 932:Generated_Source\PSoC4/StripLights.c **** 		if(f >= 0)
 1737              		.loc 1 932 0
 1738 0070 7B6A     		ldr	r3, [r7, #36]
 1739 0072 002B     		cmp	r3, #0
ARM GAS  C:\Users\JAMESS~1\AppData\Local\Temp\ccgE8URB.s 			page 48


 1740 0074 09DB     		blt	.L83
 933:Generated_Source\PSoC4/StripLights.c **** 		{
 934:Generated_Source\PSoC4/StripLights.c **** 			y--;
 1741              		.loc 1 934 0
 1742 0076 7B69     		ldr	r3, [r7, #20]
 1743 0078 013B     		subs	r3, r3, #1
 1744 007a 7B61     		str	r3, [r7, #20]
 935:Generated_Source\PSoC4/StripLights.c **** 			ddF_y += 2;
 1745              		.loc 1 935 0
 1746 007c FB69     		ldr	r3, [r7, #28]
 1747 007e 0233     		adds	r3, r3, #2
 1748 0080 FB61     		str	r3, [r7, #28]
 936:Generated_Source\PSoC4/StripLights.c **** 			f += ddF_y;
 1749              		.loc 1 936 0
 1750 0082 7A6A     		ldr	r2, [r7, #36]
 1751 0084 FB69     		ldr	r3, [r7, #28]
 1752 0086 D318     		adds	r3, r2, r3
 1753 0088 7B62     		str	r3, [r7, #36]
 1754              	.L83:
 937:Generated_Source\PSoC4/StripLights.c **** 		}
 938:Generated_Source\PSoC4/StripLights.c **** 		x++;
 1755              		.loc 1 938 0
 1756 008a BB69     		ldr	r3, [r7, #24]
 1757 008c 0133     		adds	r3, r3, #1
 1758 008e BB61     		str	r3, [r7, #24]
 939:Generated_Source\PSoC4/StripLights.c **** 		ddF_x += 2;
 1759              		.loc 1 939 0
 1760 0090 3B6A     		ldr	r3, [r7, #32]
 1761 0092 0233     		adds	r3, r3, #2
 1762 0094 3B62     		str	r3, [r7, #32]
 940:Generated_Source\PSoC4/StripLights.c **** 		f += ddF_x + 1;
 1763              		.loc 1 940 0
 1764 0096 3B6A     		ldr	r3, [r7, #32]
 1765 0098 0133     		adds	r3, r3, #1
 1766 009a 7A6A     		ldr	r2, [r7, #36]
 1767 009c D318     		adds	r3, r2, r3
 1768 009e 7B62     		str	r3, [r7, #36]
 941:Generated_Source\PSoC4/StripLights.c **** 
 942:Generated_Source\PSoC4/StripLights.c **** 		StripLights_Pixel(x0 + x, y0 + y, color);
 1769              		.loc 1 942 0
 1770 00a0 FA68     		ldr	r2, [r7, #12]
 1771 00a2 BB69     		ldr	r3, [r7, #24]
 1772 00a4 D018     		adds	r0, r2, r3
 1773 00a6 BA68     		ldr	r2, [r7, #8]
 1774 00a8 7B69     		ldr	r3, [r7, #20]
 1775 00aa D318     		adds	r3, r2, r3
 1776 00ac 3A68     		ldr	r2, [r7]
 1777 00ae 1900     		movs	r1, r3
 1778 00b0 FFF7FEFF 		bl	StripLights_Pixel
 943:Generated_Source\PSoC4/StripLights.c **** 		StripLights_Pixel(x0 - x, y0 + y, color);
 1779              		.loc 1 943 0
 1780 00b4 FA68     		ldr	r2, [r7, #12]
 1781 00b6 BB69     		ldr	r3, [r7, #24]
 1782 00b8 D01A     		subs	r0, r2, r3
 1783 00ba BA68     		ldr	r2, [r7, #8]
 1784 00bc 7B69     		ldr	r3, [r7, #20]
 1785 00be D318     		adds	r3, r2, r3
ARM GAS  C:\Users\JAMESS~1\AppData\Local\Temp\ccgE8URB.s 			page 49


 1786 00c0 3A68     		ldr	r2, [r7]
 1787 00c2 1900     		movs	r1, r3
 1788 00c4 FFF7FEFF 		bl	StripLights_Pixel
 944:Generated_Source\PSoC4/StripLights.c **** 		StripLights_Pixel( x0 + x, y0 - y, color);
 1789              		.loc 1 944 0
 1790 00c8 FA68     		ldr	r2, [r7, #12]
 1791 00ca BB69     		ldr	r3, [r7, #24]
 1792 00cc D018     		adds	r0, r2, r3
 1793 00ce BA68     		ldr	r2, [r7, #8]
 1794 00d0 7B69     		ldr	r3, [r7, #20]
 1795 00d2 D31A     		subs	r3, r2, r3
 1796 00d4 3A68     		ldr	r2, [r7]
 1797 00d6 1900     		movs	r1, r3
 1798 00d8 FFF7FEFF 		bl	StripLights_Pixel
 945:Generated_Source\PSoC4/StripLights.c **** 		StripLights_Pixel( x0 - x, y0 - y, color);
 1799              		.loc 1 945 0
 1800 00dc FA68     		ldr	r2, [r7, #12]
 1801 00de BB69     		ldr	r3, [r7, #24]
 1802 00e0 D01A     		subs	r0, r2, r3
 1803 00e2 BA68     		ldr	r2, [r7, #8]
 1804 00e4 7B69     		ldr	r3, [r7, #20]
 1805 00e6 D31A     		subs	r3, r2, r3
 1806 00e8 3A68     		ldr	r2, [r7]
 1807 00ea 1900     		movs	r1, r3
 1808 00ec FFF7FEFF 		bl	StripLights_Pixel
 946:Generated_Source\PSoC4/StripLights.c **** 		StripLights_Pixel( x0 + y, y0 + x, color);
 1809              		.loc 1 946 0
 1810 00f0 FA68     		ldr	r2, [r7, #12]
 1811 00f2 7B69     		ldr	r3, [r7, #20]
 1812 00f4 D018     		adds	r0, r2, r3
 1813 00f6 BA68     		ldr	r2, [r7, #8]
 1814 00f8 BB69     		ldr	r3, [r7, #24]
 1815 00fa D318     		adds	r3, r2, r3
 1816 00fc 3A68     		ldr	r2, [r7]
 1817 00fe 1900     		movs	r1, r3
 1818 0100 FFF7FEFF 		bl	StripLights_Pixel
 947:Generated_Source\PSoC4/StripLights.c **** 		StripLights_Pixel( x0 - y, y0 + x, color);
 1819              		.loc 1 947 0
 1820 0104 FA68     		ldr	r2, [r7, #12]
 1821 0106 7B69     		ldr	r3, [r7, #20]
 1822 0108 D01A     		subs	r0, r2, r3
 1823 010a BA68     		ldr	r2, [r7, #8]
 1824 010c BB69     		ldr	r3, [r7, #24]
 1825 010e D318     		adds	r3, r2, r3
 1826 0110 3A68     		ldr	r2, [r7]
 1827 0112 1900     		movs	r1, r3
 1828 0114 FFF7FEFF 		bl	StripLights_Pixel
 948:Generated_Source\PSoC4/StripLights.c **** 		StripLights_Pixel( x0 + y, y0 - x, color);
 1829              		.loc 1 948 0
 1830 0118 FA68     		ldr	r2, [r7, #12]
 1831 011a 7B69     		ldr	r3, [r7, #20]
 1832 011c D018     		adds	r0, r2, r3
 1833 011e BA68     		ldr	r2, [r7, #8]
 1834 0120 BB69     		ldr	r3, [r7, #24]
 1835 0122 D31A     		subs	r3, r2, r3
 1836 0124 3A68     		ldr	r2, [r7]
 1837 0126 1900     		movs	r1, r3
ARM GAS  C:\Users\JAMESS~1\AppData\Local\Temp\ccgE8URB.s 			page 50


 1838 0128 FFF7FEFF 		bl	StripLights_Pixel
 949:Generated_Source\PSoC4/StripLights.c **** 		StripLights_Pixel( x0 - y, y0 - x, color);
 1839              		.loc 1 949 0
 1840 012c FA68     		ldr	r2, [r7, #12]
 1841 012e 7B69     		ldr	r3, [r7, #20]
 1842 0130 D01A     		subs	r0, r2, r3
 1843 0132 BA68     		ldr	r2, [r7, #8]
 1844 0134 BB69     		ldr	r3, [r7, #24]
 1845 0136 D31A     		subs	r3, r2, r3
 1846 0138 3A68     		ldr	r2, [r7]
 1847 013a 1900     		movs	r1, r3
 1848 013c FFF7FEFF 		bl	StripLights_Pixel
 1849              	.L82:
 930:Generated_Source\PSoC4/StripLights.c **** 	{
 1850              		.loc 1 930 0
 1851 0140 BA69     		ldr	r2, [r7, #24]
 1852 0142 7B69     		ldr	r3, [r7, #20]
 1853 0144 9A42     		cmp	r2, r3
 1854 0146 93DB     		blt	.L84
 950:Generated_Source\PSoC4/StripLights.c **** 	}
 951:Generated_Source\PSoC4/StripLights.c **** }
 1855              		.loc 1 951 0
 1856 0148 C046     		nop
 1857 014a BD46     		mov	sp, r7
 1858 014c 0AB0     		add	sp, sp, #40
 1859              		@ sp needed
 1860 014e 80BD     		pop	{r7, pc}
 1861              		.cfi_endproc
 1862              	.LFE48:
 1863              		.size	StripLights_DrawCircle, .-StripLights_DrawCircle
 1864              		.section	.text.StripLights_DrawLine,"ax",%progbits
 1865              		.align	2
 1866              		.global	StripLights_DrawLine
 1867              		.code	16
 1868              		.thumb_func
 1869              		.type	StripLights_DrawLine, %function
 1870              	StripLights_DrawLine:
 1871              	.LFB49:
 952:Generated_Source\PSoC4/StripLights.c **** 
 953:Generated_Source\PSoC4/StripLights.c **** 
 954:Generated_Source\PSoC4/StripLights.c **** /*******************************************************************************
 955:Generated_Source\PSoC4/StripLights.c **** * Function Name: StripLights_DrawLine
 956:Generated_Source\PSoC4/StripLights.c **** ********************************************************************************
 957:Generated_Source\PSoC4/StripLights.c **** *
 958:Generated_Source\PSoC4/StripLights.c **** * Summary:
 959:Generated_Source\PSoC4/StripLights.c **** *  Draw a line on the display.  
 960:Generated_Source\PSoC4/StripLights.c **** *
 961:Generated_Source\PSoC4/StripLights.c **** * Parameters:  
 962:Generated_Source\PSoC4/StripLights.c **** *  x0, y0:  The beginning endpoint
 963:Generated_Source\PSoC4/StripLights.c **** *  x1, y1:  The end endpoint.
 964:Generated_Source\PSoC4/StripLights.c **** *  color:   Color of the line.
 965:Generated_Source\PSoC4/StripLights.c **** *
 966:Generated_Source\PSoC4/StripLights.c **** * Return: 
 967:Generated_Source\PSoC4/StripLights.c **** *  None 
 968:Generated_Source\PSoC4/StripLights.c **** *  
 969:Generated_Source\PSoC4/StripLights.c **** *******************************************************************************/
 970:Generated_Source\PSoC4/StripLights.c **** void StripLights_DrawLine(int32 x0, int32 y0, int32 x1, int32 y1, uint32 color)
ARM GAS  C:\Users\JAMESS~1\AppData\Local\Temp\ccgE8URB.s 			page 51


 971:Generated_Source\PSoC4/StripLights.c **** {
 1872              		.loc 1 971 0
 1873              		.cfi_startproc
 1874              		@ args = 4, pretend = 0, frame = 40
 1875              		@ frame_needed = 1, uses_anonymous_args = 0
 1876 0000 80B5     		push	{r7, lr}
 1877              		.cfi_def_cfa_offset 8
 1878              		.cfi_offset 7, -8
 1879              		.cfi_offset 14, -4
 1880 0002 8AB0     		sub	sp, sp, #40
 1881              		.cfi_def_cfa_offset 48
 1882 0004 00AF     		add	r7, sp, #0
 1883              		.cfi_def_cfa_register 7
 1884 0006 F860     		str	r0, [r7, #12]
 1885 0008 B960     		str	r1, [r7, #8]
 1886 000a 7A60     		str	r2, [r7, #4]
 1887 000c 3B60     		str	r3, [r7]
 972:Generated_Source\PSoC4/StripLights.c **** 	int32 dy = y1 - y0; /* Difference between y0 and y1 */
 1888              		.loc 1 972 0
 1889 000e 3A68     		ldr	r2, [r7]
 1890 0010 BB68     		ldr	r3, [r7, #8]
 1891 0012 D31A     		subs	r3, r2, r3
 1892 0014 7B62     		str	r3, [r7, #36]
 973:Generated_Source\PSoC4/StripLights.c **** 	int32 dx = x1 - x0; /* Difference between x0 and x1 */
 1893              		.loc 1 973 0
 1894 0016 7A68     		ldr	r2, [r7, #4]
 1895 0018 FB68     		ldr	r3, [r7, #12]
 1896 001a D31A     		subs	r3, r2, r3
 1897 001c 3B62     		str	r3, [r7, #32]
 974:Generated_Source\PSoC4/StripLights.c **** 	int32 stepx, stepy;
 975:Generated_Source\PSoC4/StripLights.c **** 
 976:Generated_Source\PSoC4/StripLights.c **** 	if (dy < 0)
 1898              		.loc 1 976 0
 1899 001e 7B6A     		ldr	r3, [r7, #36]
 1900 0020 002B     		cmp	r3, #0
 1901 0022 06DA     		bge	.L86
 977:Generated_Source\PSoC4/StripLights.c **** 	{
 978:Generated_Source\PSoC4/StripLights.c **** 		dy = -dy;
 1902              		.loc 1 978 0
 1903 0024 7B6A     		ldr	r3, [r7, #36]
 1904 0026 5B42     		rsbs	r3, r3, #0
 1905 0028 7B62     		str	r3, [r7, #36]
 979:Generated_Source\PSoC4/StripLights.c **** 		stepy = -1;
 1906              		.loc 1 979 0
 1907 002a 0123     		movs	r3, #1
 1908 002c 5B42     		rsbs	r3, r3, #0
 1909 002e BB61     		str	r3, [r7, #24]
 1910 0030 01E0     		b	.L87
 1911              	.L86:
 980:Generated_Source\PSoC4/StripLights.c **** 	}
 981:Generated_Source\PSoC4/StripLights.c **** 	else
 982:Generated_Source\PSoC4/StripLights.c **** 	{
 983:Generated_Source\PSoC4/StripLights.c **** 		stepy = 1;
 1912              		.loc 1 983 0
 1913 0032 0123     		movs	r3, #1
 1914 0034 BB61     		str	r3, [r7, #24]
 1915              	.L87:
ARM GAS  C:\Users\JAMESS~1\AppData\Local\Temp\ccgE8URB.s 			page 52


 984:Generated_Source\PSoC4/StripLights.c **** 	}
 985:Generated_Source\PSoC4/StripLights.c **** 
 986:Generated_Source\PSoC4/StripLights.c **** 	if (dx < 0)
 1916              		.loc 1 986 0
 1917 0036 3B6A     		ldr	r3, [r7, #32]
 1918 0038 002B     		cmp	r3, #0
 1919 003a 06DA     		bge	.L88
 987:Generated_Source\PSoC4/StripLights.c **** 	{
 988:Generated_Source\PSoC4/StripLights.c **** 		dx = -dx;
 1920              		.loc 1 988 0
 1921 003c 3B6A     		ldr	r3, [r7, #32]
 1922 003e 5B42     		rsbs	r3, r3, #0
 1923 0040 3B62     		str	r3, [r7, #32]
 989:Generated_Source\PSoC4/StripLights.c **** 		stepx = -1;
 1924              		.loc 1 989 0
 1925 0042 0123     		movs	r3, #1
 1926 0044 5B42     		rsbs	r3, r3, #0
 1927 0046 FB61     		str	r3, [r7, #28]
 1928 0048 01E0     		b	.L89
 1929              	.L88:
 990:Generated_Source\PSoC4/StripLights.c **** 	}
 991:Generated_Source\PSoC4/StripLights.c **** 	else
 992:Generated_Source\PSoC4/StripLights.c **** 	{
 993:Generated_Source\PSoC4/StripLights.c **** 		stepx = 1;
 1930              		.loc 1 993 0
 1931 004a 0123     		movs	r3, #1
 1932 004c FB61     		str	r3, [r7, #28]
 1933              	.L89:
 994:Generated_Source\PSoC4/StripLights.c **** 	}
 995:Generated_Source\PSoC4/StripLights.c **** 
 996:Generated_Source\PSoC4/StripLights.c **** 	dy <<= 1; /* dy is now 2*dy  */
 1934              		.loc 1 996 0
 1935 004e 7B6A     		ldr	r3, [r7, #36]
 1936 0050 5B00     		lsls	r3, r3, #1
 1937 0052 7B62     		str	r3, [r7, #36]
 997:Generated_Source\PSoC4/StripLights.c **** 	dx <<= 1; /* dx is now 2*dx  */
 1938              		.loc 1 997 0
 1939 0054 3B6A     		ldr	r3, [r7, #32]
 1940 0056 5B00     		lsls	r3, r3, #1
 1941 0058 3B62     		str	r3, [r7, #32]
 998:Generated_Source\PSoC4/StripLights.c **** 	StripLights_Pixel(x0, y0, color);
 1942              		.loc 1 998 0
 1943 005a 3A6B     		ldr	r2, [r7, #48]
 1944 005c B968     		ldr	r1, [r7, #8]
 1945 005e FB68     		ldr	r3, [r7, #12]
 1946 0060 1800     		movs	r0, r3
 1947 0062 FFF7FEFF 		bl	StripLights_Pixel
 999:Generated_Source\PSoC4/StripLights.c **** 
1000:Generated_Source\PSoC4/StripLights.c **** 	if (dx > dy) 
 1948              		.loc 1 1000 0
 1949 0066 3A6A     		ldr	r2, [r7, #32]
 1950 0068 7B6A     		ldr	r3, [r7, #36]
 1951 006a 9A42     		cmp	r2, r3
 1952 006c 23DD     		ble	.L90
 1953              	.LBB2:
1001:Generated_Source\PSoC4/StripLights.c **** 	{
1002:Generated_Source\PSoC4/StripLights.c **** 		int fraction = dy - (dx >> 1);
ARM GAS  C:\Users\JAMESS~1\AppData\Local\Temp\ccgE8URB.s 			page 53


 1954              		.loc 1 1002 0
 1955 006e 3B6A     		ldr	r3, [r7, #32]
 1956 0070 5B10     		asrs	r3, r3, #1
 1957 0072 7A6A     		ldr	r2, [r7, #36]
 1958 0074 D31A     		subs	r3, r2, r3
 1959 0076 7B61     		str	r3, [r7, #20]
1003:Generated_Source\PSoC4/StripLights.c **** 		while (x0 != x1)
 1960              		.loc 1 1003 0
 1961 0078 18E0     		b	.L91
 1962              	.L93:
1004:Generated_Source\PSoC4/StripLights.c **** 		{
1005:Generated_Source\PSoC4/StripLights.c **** 			if (fraction >= 0)
 1963              		.loc 1 1005 0
 1964 007a 7B69     		ldr	r3, [r7, #20]
 1965 007c 002B     		cmp	r3, #0
 1966 007e 07DB     		blt	.L92
1006:Generated_Source\PSoC4/StripLights.c **** 			{
1007:Generated_Source\PSoC4/StripLights.c **** 				y0 += stepy;
 1967              		.loc 1 1007 0
 1968 0080 BA68     		ldr	r2, [r7, #8]
 1969 0082 BB69     		ldr	r3, [r7, #24]
 1970 0084 D318     		adds	r3, r2, r3
 1971 0086 BB60     		str	r3, [r7, #8]
1008:Generated_Source\PSoC4/StripLights.c **** 				fraction -= dx;
 1972              		.loc 1 1008 0
 1973 0088 7A69     		ldr	r2, [r7, #20]
 1974 008a 3B6A     		ldr	r3, [r7, #32]
 1975 008c D31A     		subs	r3, r2, r3
 1976 008e 7B61     		str	r3, [r7, #20]
 1977              	.L92:
1009:Generated_Source\PSoC4/StripLights.c **** 			}
1010:Generated_Source\PSoC4/StripLights.c **** 			x0 += stepx;
 1978              		.loc 1 1010 0
 1979 0090 FA68     		ldr	r2, [r7, #12]
 1980 0092 FB69     		ldr	r3, [r7, #28]
 1981 0094 D318     		adds	r3, r2, r3
 1982 0096 FB60     		str	r3, [r7, #12]
1011:Generated_Source\PSoC4/StripLights.c **** 			fraction += dy;
 1983              		.loc 1 1011 0
 1984 0098 7A69     		ldr	r2, [r7, #20]
 1985 009a 7B6A     		ldr	r3, [r7, #36]
 1986 009c D318     		adds	r3, r2, r3
 1987 009e 7B61     		str	r3, [r7, #20]
1012:Generated_Source\PSoC4/StripLights.c **** 			StripLights_Pixel(x0, y0, color);
 1988              		.loc 1 1012 0
 1989 00a0 3A6B     		ldr	r2, [r7, #48]
 1990 00a2 B968     		ldr	r1, [r7, #8]
 1991 00a4 FB68     		ldr	r3, [r7, #12]
 1992 00a6 1800     		movs	r0, r3
 1993 00a8 FFF7FEFF 		bl	StripLights_Pixel
 1994              	.L91:
1003:Generated_Source\PSoC4/StripLights.c **** 		{
 1995              		.loc 1 1003 0
 1996 00ac FA68     		ldr	r2, [r7, #12]
 1997 00ae 7B68     		ldr	r3, [r7, #4]
 1998 00b0 9A42     		cmp	r2, r3
 1999 00b2 E2D1     		bne	.L93
ARM GAS  C:\Users\JAMESS~1\AppData\Local\Temp\ccgE8URB.s 			page 54


 2000              	.LBE2:
1013:Generated_Source\PSoC4/StripLights.c **** 		}
1014:Generated_Source\PSoC4/StripLights.c **** 	}
1015:Generated_Source\PSoC4/StripLights.c **** 	else
1016:Generated_Source\PSoC4/StripLights.c **** 	{
1017:Generated_Source\PSoC4/StripLights.c **** 		int fraction = dx - (dy >> 1);
1018:Generated_Source\PSoC4/StripLights.c **** 		while (y0 != y1)
1019:Generated_Source\PSoC4/StripLights.c **** 		{
1020:Generated_Source\PSoC4/StripLights.c **** 			if (fraction >= 0)
1021:Generated_Source\PSoC4/StripLights.c **** 			{
1022:Generated_Source\PSoC4/StripLights.c **** 				x0 += stepx;
1023:Generated_Source\PSoC4/StripLights.c **** 				fraction -= dy;
1024:Generated_Source\PSoC4/StripLights.c **** 			}
1025:Generated_Source\PSoC4/StripLights.c **** 			y0 += stepy;
1026:Generated_Source\PSoC4/StripLights.c **** 			fraction += dx;
1027:Generated_Source\PSoC4/StripLights.c **** 			StripLights_Pixel( x0, y0, color);
1028:Generated_Source\PSoC4/StripLights.c **** 		}
1029:Generated_Source\PSoC4/StripLights.c **** 	}
1030:Generated_Source\PSoC4/StripLights.c **** }
 2001              		.loc 1 1030 0
 2002 00b4 22E0     		b	.L98
 2003              	.L90:
 2004              	.LBB3:
1017:Generated_Source\PSoC4/StripLights.c **** 		while (y0 != y1)
 2005              		.loc 1 1017 0
 2006 00b6 7B6A     		ldr	r3, [r7, #36]
 2007 00b8 5B10     		asrs	r3, r3, #1
 2008 00ba 3A6A     		ldr	r2, [r7, #32]
 2009 00bc D31A     		subs	r3, r2, r3
 2010 00be 3B61     		str	r3, [r7, #16]
1018:Generated_Source\PSoC4/StripLights.c **** 		{
 2011              		.loc 1 1018 0
 2012 00c0 18E0     		b	.L95
 2013              	.L97:
1020:Generated_Source\PSoC4/StripLights.c **** 			{
 2014              		.loc 1 1020 0
 2015 00c2 3B69     		ldr	r3, [r7, #16]
 2016 00c4 002B     		cmp	r3, #0
 2017 00c6 07DB     		blt	.L96
1022:Generated_Source\PSoC4/StripLights.c **** 				fraction -= dy;
 2018              		.loc 1 1022 0
 2019 00c8 FA68     		ldr	r2, [r7, #12]
 2020 00ca FB69     		ldr	r3, [r7, #28]
 2021 00cc D318     		adds	r3, r2, r3
 2022 00ce FB60     		str	r3, [r7, #12]
1023:Generated_Source\PSoC4/StripLights.c **** 			}
 2023              		.loc 1 1023 0
 2024 00d0 3A69     		ldr	r2, [r7, #16]
 2025 00d2 7B6A     		ldr	r3, [r7, #36]
 2026 00d4 D31A     		subs	r3, r2, r3
 2027 00d6 3B61     		str	r3, [r7, #16]
 2028              	.L96:
1025:Generated_Source\PSoC4/StripLights.c **** 			fraction += dx;
 2029              		.loc 1 1025 0
 2030 00d8 BA68     		ldr	r2, [r7, #8]
 2031 00da BB69     		ldr	r3, [r7, #24]
 2032 00dc D318     		adds	r3, r2, r3
ARM GAS  C:\Users\JAMESS~1\AppData\Local\Temp\ccgE8URB.s 			page 55


 2033 00de BB60     		str	r3, [r7, #8]
1026:Generated_Source\PSoC4/StripLights.c **** 			StripLights_Pixel( x0, y0, color);
 2034              		.loc 1 1026 0
 2035 00e0 3A69     		ldr	r2, [r7, #16]
 2036 00e2 3B6A     		ldr	r3, [r7, #32]
 2037 00e4 D318     		adds	r3, r2, r3
 2038 00e6 3B61     		str	r3, [r7, #16]
1027:Generated_Source\PSoC4/StripLights.c **** 		}
 2039              		.loc 1 1027 0
 2040 00e8 3A6B     		ldr	r2, [r7, #48]
 2041 00ea B968     		ldr	r1, [r7, #8]
 2042 00ec FB68     		ldr	r3, [r7, #12]
 2043 00ee 1800     		movs	r0, r3
 2044 00f0 FFF7FEFF 		bl	StripLights_Pixel
 2045              	.L95:
1018:Generated_Source\PSoC4/StripLights.c **** 		{
 2046              		.loc 1 1018 0
 2047 00f4 BA68     		ldr	r2, [r7, #8]
 2048 00f6 3B68     		ldr	r3, [r7]
 2049 00f8 9A42     		cmp	r2, r3
 2050 00fa E2D1     		bne	.L97
 2051              	.L98:
 2052              	.LBE3:
 2053              		.loc 1 1030 0
 2054 00fc C046     		nop
 2055 00fe BD46     		mov	sp, r7
 2056 0100 0AB0     		add	sp, sp, #40
 2057              		@ sp needed
 2058 0102 80BD     		pop	{r7, pc}
 2059              		.cfi_endproc
 2060              	.LFE49:
 2061              		.size	StripLights_DrawLine, .-StripLights_DrawLine
 2062              		.section	.text.StripLights_DrawRect,"ax",%progbits
 2063              		.align	2
 2064              		.global	StripLights_DrawRect
 2065              		.code	16
 2066              		.thumb_func
 2067              		.type	StripLights_DrawRect, %function
 2068              	StripLights_DrawRect:
 2069              	.LFB50:
1031:Generated_Source\PSoC4/StripLights.c **** 
1032:Generated_Source\PSoC4/StripLights.c **** /*******************************************************************************
1033:Generated_Source\PSoC4/StripLights.c **** * Function Name: StripLights_DrawRect
1034:Generated_Source\PSoC4/StripLights.c **** ********************************************************************************
1035:Generated_Source\PSoC4/StripLights.c **** *
1036:Generated_Source\PSoC4/StripLights.c **** * Summary:
1037:Generated_Source\PSoC4/StripLights.c **** *  Draw a rectangle, filled or not.  
1038:Generated_Source\PSoC4/StripLights.c **** *
1039:Generated_Source\PSoC4/StripLights.c **** * Parameters:  
1040:Generated_Source\PSoC4/StripLights.c **** *  x0, y0:  The upper lefthand corner.
1041:Generated_Source\PSoC4/StripLights.c **** *  x1, y1:  The lower right corner.
1042:Generated_Source\PSoC4/StripLights.c **** *  fill:    Non-Zero if retangle is to be filled.
1043:Generated_Source\PSoC4/StripLights.c **** *  color:   Color for rectangle, border and fill.
1044:Generated_Source\PSoC4/StripLights.c **** *
1045:Generated_Source\PSoC4/StripLights.c **** * Return: 
1046:Generated_Source\PSoC4/StripLights.c **** *  None 
1047:Generated_Source\PSoC4/StripLights.c **** *  
ARM GAS  C:\Users\JAMESS~1\AppData\Local\Temp\ccgE8URB.s 			page 56


1048:Generated_Source\PSoC4/StripLights.c **** *******************************************************************************/
1049:Generated_Source\PSoC4/StripLights.c **** void StripLights_DrawRect(int32 x0, int32 y0, int32 x1, int32 y1, int32 fill, uint32 color)
1050:Generated_Source\PSoC4/StripLights.c **** {	
 2070              		.loc 1 1050 0
 2071              		.cfi_startproc
 2072              		@ args = 8, pretend = 0, frame = 24
 2073              		@ frame_needed = 1, uses_anonymous_args = 0
 2074 0000 90B5     		push	{r4, r7, lr}
 2075              		.cfi_def_cfa_offset 12
 2076              		.cfi_offset 4, -12
 2077              		.cfi_offset 7, -8
 2078              		.cfi_offset 14, -4
 2079 0002 89B0     		sub	sp, sp, #36
 2080              		.cfi_def_cfa_offset 48
 2081 0004 02AF     		add	r7, sp, #8
 2082              		.cfi_def_cfa 7, 40
 2083 0006 F860     		str	r0, [r7, #12]
 2084 0008 B960     		str	r1, [r7, #8]
 2085 000a 7A60     		str	r2, [r7, #4]
 2086 000c 3B60     		str	r3, [r7]
1051:Generated_Source\PSoC4/StripLights.c ****      int xDiff;
1052:Generated_Source\PSoC4/StripLights.c **** 	/* Check if the rectangle is to be filled    */
1053:Generated_Source\PSoC4/StripLights.c **** 	if (fill != 0)
 2087              		.loc 1 1053 0
 2088 000e BB6A     		ldr	r3, [r7, #40]
 2089 0010 002B     		cmp	r3, #0
 2090 0012 28D0     		beq	.L100
1054:Generated_Source\PSoC4/StripLights.c **** 	{	
1055:Generated_Source\PSoC4/StripLights.c ****         /* Find the difference between the x vars */
1056:Generated_Source\PSoC4/StripLights.c **** 		if(x0 > x1)
 2091              		.loc 1 1056 0
 2092 0014 FA68     		ldr	r2, [r7, #12]
 2093 0016 7B68     		ldr	r3, [r7, #4]
 2094 0018 9A42     		cmp	r2, r3
 2095 001a 04DD     		ble	.L101
1057:Generated_Source\PSoC4/StripLights.c **** 		{
1058:Generated_Source\PSoC4/StripLights.c **** 			xDiff = x0 - x1; 
 2096              		.loc 1 1058 0
 2097 001c FA68     		ldr	r2, [r7, #12]
 2098 001e 7B68     		ldr	r3, [r7, #4]
 2099 0020 D31A     		subs	r3, r2, r3
 2100 0022 7B61     		str	r3, [r7, #20]
 2101 0024 1BE0     		b	.L103
 2102              	.L101:
1059:Generated_Source\PSoC4/StripLights.c **** 		}
1060:Generated_Source\PSoC4/StripLights.c **** 		else
1061:Generated_Source\PSoC4/StripLights.c **** 		{
1062:Generated_Source\PSoC4/StripLights.c **** 			xDiff = x1 - x0;
 2103              		.loc 1 1062 0
 2104 0026 7A68     		ldr	r2, [r7, #4]
 2105 0028 FB68     		ldr	r3, [r7, #12]
 2106 002a D31A     		subs	r3, r2, r3
 2107 002c 7B61     		str	r3, [r7, #20]
1063:Generated_Source\PSoC4/StripLights.c **** 		}
1064:Generated_Source\PSoC4/StripLights.c **** 	
1065:Generated_Source\PSoC4/StripLights.c **** 	    /* Fill it with lines  */
1066:Generated_Source\PSoC4/StripLights.c **** 		while(xDiff >= 0)
ARM GAS  C:\Users\JAMESS~1\AppData\Local\Temp\ccgE8URB.s 			page 57


 2108              		.loc 1 1066 0
 2109 002e 16E0     		b	.L103
 2110              	.L106:
1067:Generated_Source\PSoC4/StripLights.c **** 		{
1068:Generated_Source\PSoC4/StripLights.c **** 			StripLights_DrawLine(x0, y0, x0, y1, color);
 2111              		.loc 1 1068 0
 2112 0030 3C68     		ldr	r4, [r7]
 2113 0032 FA68     		ldr	r2, [r7, #12]
 2114 0034 B968     		ldr	r1, [r7, #8]
 2115 0036 F868     		ldr	r0, [r7, #12]
 2116 0038 FB6A     		ldr	r3, [r7, #44]
 2117 003a 0093     		str	r3, [sp]
 2118 003c 2300     		movs	r3, r4
 2119 003e FFF7FEFF 		bl	StripLights_DrawLine
1069:Generated_Source\PSoC4/StripLights.c **** 		
1070:Generated_Source\PSoC4/StripLights.c **** 			if(x0 > x1)
 2120              		.loc 1 1070 0
 2121 0042 FA68     		ldr	r2, [r7, #12]
 2122 0044 7B68     		ldr	r3, [r7, #4]
 2123 0046 9A42     		cmp	r2, r3
 2124 0048 03DD     		ble	.L104
1071:Generated_Source\PSoC4/StripLights.c **** 				x0--;
 2125              		.loc 1 1071 0
 2126 004a FB68     		ldr	r3, [r7, #12]
 2127 004c 013B     		subs	r3, r3, #1
 2128 004e FB60     		str	r3, [r7, #12]
 2129 0050 02E0     		b	.L105
 2130              	.L104:
1072:Generated_Source\PSoC4/StripLights.c **** 			else
1073:Generated_Source\PSoC4/StripLights.c **** 				x0++;
 2131              		.loc 1 1073 0
 2132 0052 FB68     		ldr	r3, [r7, #12]
 2133 0054 0133     		adds	r3, r3, #1
 2134 0056 FB60     		str	r3, [r7, #12]
 2135              	.L105:
1074:Generated_Source\PSoC4/StripLights.c **** 		
1075:Generated_Source\PSoC4/StripLights.c **** 			xDiff--;
 2136              		.loc 1 1075 0
 2137 0058 7B69     		ldr	r3, [r7, #20]
 2138 005a 013B     		subs	r3, r3, #1
 2139 005c 7B61     		str	r3, [r7, #20]
 2140              	.L103:
1066:Generated_Source\PSoC4/StripLights.c **** 		{
 2141              		.loc 1 1066 0
 2142 005e 7B69     		ldr	r3, [r7, #20]
 2143 0060 002B     		cmp	r3, #0
 2144 0062 E5DA     		bge	.L106
1076:Generated_Source\PSoC4/StripLights.c **** 		}
1077:Generated_Source\PSoC4/StripLights.c **** 	}
1078:Generated_Source\PSoC4/StripLights.c **** 	else 
1079:Generated_Source\PSoC4/StripLights.c **** 	{
1080:Generated_Source\PSoC4/StripLights.c **** 		/* Draw the four sides of the rectangle */
1081:Generated_Source\PSoC4/StripLights.c **** 		StripLights_DrawLine(x0, y0, x1, y0, color);
1082:Generated_Source\PSoC4/StripLights.c **** 		StripLights_DrawLine(x0, y1, x1, y1, color);
1083:Generated_Source\PSoC4/StripLights.c **** 		StripLights_DrawLine(x0, y0, x0, y1, color);
1084:Generated_Source\PSoC4/StripLights.c **** 		StripLights_DrawLine(x1, y0, x1, y1, color);
1085:Generated_Source\PSoC4/StripLights.c **** 	}
ARM GAS  C:\Users\JAMESS~1\AppData\Local\Temp\ccgE8URB.s 			page 58


1086:Generated_Source\PSoC4/StripLights.c **** }
 2145              		.loc 1 1086 0
 2146 0064 23E0     		b	.L108
 2147              	.L100:
1081:Generated_Source\PSoC4/StripLights.c **** 		StripLights_DrawLine(x0, y1, x1, y1, color);
 2148              		.loc 1 1081 0
 2149 0066 BC68     		ldr	r4, [r7, #8]
 2150 0068 7A68     		ldr	r2, [r7, #4]
 2151 006a B968     		ldr	r1, [r7, #8]
 2152 006c F868     		ldr	r0, [r7, #12]
 2153 006e FB6A     		ldr	r3, [r7, #44]
 2154 0070 0093     		str	r3, [sp]
 2155 0072 2300     		movs	r3, r4
 2156 0074 FFF7FEFF 		bl	StripLights_DrawLine
1082:Generated_Source\PSoC4/StripLights.c **** 		StripLights_DrawLine(x0, y0, x0, y1, color);
 2157              		.loc 1 1082 0
 2158 0078 3C68     		ldr	r4, [r7]
 2159 007a 7A68     		ldr	r2, [r7, #4]
 2160 007c 3968     		ldr	r1, [r7]
 2161 007e F868     		ldr	r0, [r7, #12]
 2162 0080 FB6A     		ldr	r3, [r7, #44]
 2163 0082 0093     		str	r3, [sp]
 2164 0084 2300     		movs	r3, r4
 2165 0086 FFF7FEFF 		bl	StripLights_DrawLine
1083:Generated_Source\PSoC4/StripLights.c **** 		StripLights_DrawLine(x1, y0, x1, y1, color);
 2166              		.loc 1 1083 0
 2167 008a 3C68     		ldr	r4, [r7]
 2168 008c FA68     		ldr	r2, [r7, #12]
 2169 008e B968     		ldr	r1, [r7, #8]
 2170 0090 F868     		ldr	r0, [r7, #12]
 2171 0092 FB6A     		ldr	r3, [r7, #44]
 2172 0094 0093     		str	r3, [sp]
 2173 0096 2300     		movs	r3, r4
 2174 0098 FFF7FEFF 		bl	StripLights_DrawLine
1084:Generated_Source\PSoC4/StripLights.c **** 	}
 2175              		.loc 1 1084 0
 2176 009c 3C68     		ldr	r4, [r7]
 2177 009e 7A68     		ldr	r2, [r7, #4]
 2178 00a0 B968     		ldr	r1, [r7, #8]
 2179 00a2 7868     		ldr	r0, [r7, #4]
 2180 00a4 FB6A     		ldr	r3, [r7, #44]
 2181 00a6 0093     		str	r3, [sp]
 2182 00a8 2300     		movs	r3, r4
 2183 00aa FFF7FEFF 		bl	StripLights_DrawLine
 2184              	.L108:
 2185              		.loc 1 1086 0
 2186 00ae C046     		nop
 2187 00b0 BD46     		mov	sp, r7
 2188 00b2 07B0     		add	sp, sp, #28
 2189              		@ sp needed
 2190 00b4 90BD     		pop	{r4, r7, pc}
 2191              		.cfi_endproc
 2192              	.LFE50:
 2193              		.size	StripLights_DrawRect, .-StripLights_DrawRect
 2194 00b6 C046     		.section	.text.StripLights_Dim,"ax",%progbits
 2195              		.align	2
 2196              		.global	StripLights_Dim
ARM GAS  C:\Users\JAMESS~1\AppData\Local\Temp\ccgE8URB.s 			page 59


 2197              		.code	16
 2198              		.thumb_func
 2199              		.type	StripLights_Dim, %function
 2200              	StripLights_Dim:
 2201              	.LFB51:
1087:Generated_Source\PSoC4/StripLights.c **** 
1088:Generated_Source\PSoC4/StripLights.c **** /*******************************************************************************
1089:Generated_Source\PSoC4/StripLights.c **** * Function Name: StripLights_Dim
1090:Generated_Source\PSoC4/StripLights.c **** ********************************************************************************
1091:Generated_Source\PSoC4/StripLights.c **** *
1092:Generated_Source\PSoC4/StripLights.c **** * Summary:
1093:Generated_Source\PSoC4/StripLights.c **** *  Dim all output by a specific level (0,1,2,3,4)  
1094:Generated_Source\PSoC4/StripLights.c **** *
1095:Generated_Source\PSoC4/StripLights.c **** * Parameters:  
1096:Generated_Source\PSoC4/StripLights.c **** *  dimLevel:  Dim level 1 to 4, 0 => No dimming.
1097:Generated_Source\PSoC4/StripLights.c **** *
1098:Generated_Source\PSoC4/StripLights.c **** * Return: 
1099:Generated_Source\PSoC4/StripLights.c **** *  None 
1100:Generated_Source\PSoC4/StripLights.c **** *  
1101:Generated_Source\PSoC4/StripLights.c **** *******************************************************************************/
1102:Generated_Source\PSoC4/StripLights.c **** void StripLights_Dim(uint32 dimLevel) 
1103:Generated_Source\PSoC4/StripLights.c **** {
 2202              		.loc 1 1103 0
 2203              		.cfi_startproc
 2204              		@ args = 0, pretend = 0, frame = 8
 2205              		@ frame_needed = 1, uses_anonymous_args = 0
 2206 0000 80B5     		push	{r7, lr}
 2207              		.cfi_def_cfa_offset 8
 2208              		.cfi_offset 7, -8
 2209              		.cfi_offset 14, -4
 2210 0002 82B0     		sub	sp, sp, #8
 2211              		.cfi_def_cfa_offset 16
 2212 0004 00AF     		add	r7, sp, #0
 2213              		.cfi_def_cfa_register 7
 2214 0006 7860     		str	r0, [r7, #4]
1104:Generated_Source\PSoC4/StripLights.c **** extern uint32  StripLights_DimMask;
1105:Generated_Source\PSoC4/StripLights.c **** extern uint32  StripLights_DimShift;
1106:Generated_Source\PSoC4/StripLights.c **** 
1107:Generated_Source\PSoC4/StripLights.c ****     switch(dimLevel)
 2215              		.loc 1 1107 0
 2216 0008 7B68     		ldr	r3, [r7, #4]
 2217 000a 022B     		cmp	r3, #2
 2218 000c 0FD0     		beq	.L111
 2219 000e 02D8     		bhi	.L112
 2220 0010 012B     		cmp	r3, #1
 2221 0012 05D0     		beq	.L113
 2222 0014 20E0     		b	.L110
 2223              	.L112:
 2224 0016 032B     		cmp	r3, #3
 2225 0018 10D0     		beq	.L114
 2226 001a 042B     		cmp	r3, #4
 2227 001c 15D0     		beq	.L115
 2228 001e 1BE0     		b	.L110
 2229              	.L113:
1108:Generated_Source\PSoC4/StripLights.c ****     {
1109:Generated_Source\PSoC4/StripLights.c ****        case 1:  // 1/2 bright
1110:Generated_Source\PSoC4/StripLights.c ****            StripLights_DimMask = 0x7F7F7F7F;
ARM GAS  C:\Users\JAMESS~1\AppData\Local\Temp\ccgE8URB.s 			page 60


 2230              		.loc 1 1110 0
 2231 0020 134B     		ldr	r3, .L117
 2232 0022 144A     		ldr	r2, .L117+4
 2233 0024 1A60     		str	r2, [r3]
1111:Generated_Source\PSoC4/StripLights.c ****            StripLights_DimShift = 1;
 2234              		.loc 1 1111 0
 2235 0026 144B     		ldr	r3, .L117+8
 2236 0028 0122     		movs	r2, #1
 2237 002a 1A60     		str	r2, [r3]
1112:Generated_Source\PSoC4/StripLights.c ****            break;
 2238              		.loc 1 1112 0
 2239 002c 1CE0     		b	.L116
 2240              	.L111:
1113:Generated_Source\PSoC4/StripLights.c ****            
1114:Generated_Source\PSoC4/StripLights.c ****        case 2:
1115:Generated_Source\PSoC4/StripLights.c ****            StripLights_DimMask = 0x3F3F3F3F;
 2241              		.loc 1 1115 0
 2242 002e 104B     		ldr	r3, .L117
 2243 0030 124A     		ldr	r2, .L117+12
 2244 0032 1A60     		str	r2, [r3]
1116:Generated_Source\PSoC4/StripLights.c ****            StripLights_DimShift = 2;
 2245              		.loc 1 1116 0
 2246 0034 104B     		ldr	r3, .L117+8
 2247 0036 0222     		movs	r2, #2
 2248 0038 1A60     		str	r2, [r3]
1117:Generated_Source\PSoC4/StripLights.c ****            break;
 2249              		.loc 1 1117 0
 2250 003a 15E0     		b	.L116
 2251              	.L114:
1118:Generated_Source\PSoC4/StripLights.c ****            
1119:Generated_Source\PSoC4/StripLights.c ****        case 3:
1120:Generated_Source\PSoC4/StripLights.c ****            StripLights_DimMask = 0x1F1F1F1F;
 2252              		.loc 1 1120 0
 2253 003c 0C4B     		ldr	r3, .L117
 2254 003e 104A     		ldr	r2, .L117+16
 2255 0040 1A60     		str	r2, [r3]
1121:Generated_Source\PSoC4/StripLights.c ****            StripLights_DimShift = 3;
 2256              		.loc 1 1121 0
 2257 0042 0D4B     		ldr	r3, .L117+8
 2258 0044 0322     		movs	r2, #3
 2259 0046 1A60     		str	r2, [r3]
1122:Generated_Source\PSoC4/StripLights.c ****            break;
 2260              		.loc 1 1122 0
 2261 0048 0EE0     		b	.L116
 2262              	.L115:
1123:Generated_Source\PSoC4/StripLights.c ****            
1124:Generated_Source\PSoC4/StripLights.c ****        case 4:
1125:Generated_Source\PSoC4/StripLights.c ****            StripLights_DimMask = 0x0F0F0F0F;
 2263              		.loc 1 1125 0
 2264 004a 094B     		ldr	r3, .L117
 2265 004c 0D4A     		ldr	r2, .L117+20
 2266 004e 1A60     		str	r2, [r3]
1126:Generated_Source\PSoC4/StripLights.c ****            StripLights_DimShift = 4;
 2267              		.loc 1 1126 0
 2268 0050 094B     		ldr	r3, .L117+8
 2269 0052 0422     		movs	r2, #4
 2270 0054 1A60     		str	r2, [r3]
ARM GAS  C:\Users\JAMESS~1\AppData\Local\Temp\ccgE8URB.s 			page 61


1127:Generated_Source\PSoC4/StripLights.c ****            break;
 2271              		.loc 1 1127 0
 2272 0056 07E0     		b	.L116
 2273              	.L110:
1128:Generated_Source\PSoC4/StripLights.c ****            
1129:Generated_Source\PSoC4/StripLights.c ****        default:
1130:Generated_Source\PSoC4/StripLights.c ****            StripLights_DimMask = 0xFFFFFFFF;
 2274              		.loc 1 1130 0
 2275 0058 054B     		ldr	r3, .L117
 2276 005a 0122     		movs	r2, #1
 2277 005c 5242     		rsbs	r2, r2, #0
 2278 005e 1A60     		str	r2, [r3]
1131:Generated_Source\PSoC4/StripLights.c ****            StripLights_DimShift = 0;
 2279              		.loc 1 1131 0
 2280 0060 054B     		ldr	r3, .L117+8
 2281 0062 0022     		movs	r2, #0
 2282 0064 1A60     		str	r2, [r3]
1132:Generated_Source\PSoC4/StripLights.c ****            break; 
 2283              		.loc 1 1132 0
 2284 0066 C046     		nop
 2285              	.L116:
1133:Generated_Source\PSoC4/StripLights.c ****     }
1134:Generated_Source\PSoC4/StripLights.c **** }
 2286              		.loc 1 1134 0
 2287 0068 C046     		nop
 2288 006a BD46     		mov	sp, r7
 2289 006c 02B0     		add	sp, sp, #8
 2290              		@ sp needed
 2291 006e 80BD     		pop	{r7, pc}
 2292              	.L118:
 2293              		.align	2
 2294              	.L117:
 2295 0070 00000000 		.word	StripLights_DimMask
 2296 0074 7F7F7F7F 		.word	2139062143
 2297 0078 00000000 		.word	StripLights_DimShift
 2298 007c 3F3F3F3F 		.word	1061109567
 2299 0080 1F1F1F1F 		.word	522133279
 2300 0084 0F0F0F0F 		.word	252645135
 2301              		.cfi_endproc
 2302              	.LFE51:
 2303              		.size	StripLights_Dim, .-StripLights_Dim
 2304              		.section	.text.StripLights_Bplot8,"ax",%progbits
 2305              		.align	2
 2306              		.global	StripLights_Bplot8
 2307              		.code	16
 2308              		.thumb_func
 2309              		.type	StripLights_Bplot8, %function
 2310              	StripLights_Bplot8:
 2311              	.LFB52:
1135:Generated_Source\PSoC4/StripLights.c **** 
1136:Generated_Source\PSoC4/StripLights.c **** /*******************************************************************************
1137:Generated_Source\PSoC4/StripLights.c **** * Function Name: StripLights_Bplot8
1138:Generated_Source\PSoC4/StripLights.c **** ********************************************************************************
1139:Generated_Source\PSoC4/StripLights.c **** *
1140:Generated_Source\PSoC4/StripLights.c **** * Summary:
1141:Generated_Source\PSoC4/StripLights.c **** *  Draw a bitmap image on the display using 8-bit color. 
1142:Generated_Source\PSoC4/StripLights.c **** *
ARM GAS  C:\Users\JAMESS~1\AppData\Local\Temp\ccgE8URB.s 			page 62


1143:Generated_Source\PSoC4/StripLights.c **** * Parameters:  
1144:Generated_Source\PSoC4/StripLights.c **** *    x, y:  The upper left corner of the image location
1145:Generated_Source\PSoC4/StripLights.c **** *  bitMap:  A pointer to an image array.  The first two values is the X and Y
1146:Generated_Source\PSoC4/StripLights.c **** *           size of the bitmap.
1147:Generated_Source\PSoC4/StripLights.c **** *  update:  If not 0 update the display after drawing image.
1148:Generated_Source\PSoC4/StripLights.c **** *
1149:Generated_Source\PSoC4/StripLights.c **** * Return: 
1150:Generated_Source\PSoC4/StripLights.c **** *  None 
1151:Generated_Source\PSoC4/StripLights.c **** *  
1152:Generated_Source\PSoC4/StripLights.c **** *******************************************************************************/
1153:Generated_Source\PSoC4/StripLights.c **** void StripLights_Bplot8( int32 x, int32 y, uint8 * bitMap, int32 update)
1154:Generated_Source\PSoC4/StripLights.c **** {
 2312              		.loc 1 1154 0
 2313              		.cfi_startproc
 2314              		@ args = 0, pretend = 0, frame = 40
 2315              		@ frame_needed = 1, uses_anonymous_args = 0
 2316 0000 80B5     		push	{r7, lr}
 2317              		.cfi_def_cfa_offset 8
 2318              		.cfi_offset 7, -8
 2319              		.cfi_offset 14, -4
 2320 0002 8AB0     		sub	sp, sp, #40
 2321              		.cfi_def_cfa_offset 48
 2322 0004 00AF     		add	r7, sp, #0
 2323              		.cfi_def_cfa_register 7
 2324 0006 F860     		str	r0, [r7, #12]
 2325 0008 B960     		str	r1, [r7, #8]
 2326 000a 7A60     		str	r2, [r7, #4]
 2327 000c 3B60     		str	r3, [r7]
1155:Generated_Source\PSoC4/StripLights.c ****     int32 dx, dy;
1156:Generated_Source\PSoC4/StripLights.c ****     int32 aindex = 0;
 2328              		.loc 1 1156 0
 2329 000e 0023     		movs	r3, #0
 2330 0010 FB61     		str	r3, [r7, #28]
1157:Generated_Source\PSoC4/StripLights.c ****     int32 maxX, maxY;
1158:Generated_Source\PSoC4/StripLights.c **** 
1159:Generated_Source\PSoC4/StripLights.c ****     maxX = x + (int32)bitMap[aindex++];
 2331              		.loc 1 1159 0
 2332 0012 FB69     		ldr	r3, [r7, #28]
 2333 0014 5A1C     		adds	r2, r3, #1
 2334 0016 FA61     		str	r2, [r7, #28]
 2335 0018 1A00     		movs	r2, r3
 2336 001a 7B68     		ldr	r3, [r7, #4]
 2337 001c 9B18     		adds	r3, r3, r2
 2338 001e 1B78     		ldrb	r3, [r3]
 2339 0020 1A00     		movs	r2, r3
 2340 0022 FB68     		ldr	r3, [r7, #12]
 2341 0024 D318     		adds	r3, r2, r3
 2342 0026 BB61     		str	r3, [r7, #24]
1160:Generated_Source\PSoC4/StripLights.c ****     maxY = y  + (int32)bitMap[aindex++];
 2343              		.loc 1 1160 0
 2344 0028 FB69     		ldr	r3, [r7, #28]
 2345 002a 5A1C     		adds	r2, r3, #1
 2346 002c FA61     		str	r2, [r7, #28]
 2347 002e 1A00     		movs	r2, r3
 2348 0030 7B68     		ldr	r3, [r7, #4]
 2349 0032 9B18     		adds	r3, r3, r2
 2350 0034 1B78     		ldrb	r3, [r3]
ARM GAS  C:\Users\JAMESS~1\AppData\Local\Temp\ccgE8URB.s 			page 63


 2351 0036 1A00     		movs	r2, r3
 2352 0038 BB68     		ldr	r3, [r7, #8]
 2353 003a D318     		adds	r3, r2, r3
 2354 003c 7B61     		str	r3, [r7, #20]
1161:Generated_Source\PSoC4/StripLights.c **** 
1162:Generated_Source\PSoC4/StripLights.c **** 	for(dy = y; dy < maxY; dy++)
 2355              		.loc 1 1162 0
 2356 003e BB68     		ldr	r3, [r7, #8]
 2357 0040 3B62     		str	r3, [r7, #32]
 2358 0042 19E0     		b	.L120
 2359              	.L123:
1163:Generated_Source\PSoC4/StripLights.c ****     {
1164:Generated_Source\PSoC4/StripLights.c **** 		for(dx = x; dx < maxX; dx++)
 2360              		.loc 1 1164 0
 2361 0044 FB68     		ldr	r3, [r7, #12]
 2362 0046 7B62     		str	r3, [r7, #36]
 2363 0048 0FE0     		b	.L121
 2364              	.L122:
1165:Generated_Source\PSoC4/StripLights.c ****         {
1166:Generated_Source\PSoC4/StripLights.c ****             StripLights_Pixel(dx, dy, bitMap[aindex++]);
 2365              		.loc 1 1166 0 discriminator 3
 2366 004a FB69     		ldr	r3, [r7, #28]
 2367 004c 5A1C     		adds	r2, r3, #1
 2368 004e FA61     		str	r2, [r7, #28]
 2369 0050 1A00     		movs	r2, r3
 2370 0052 7B68     		ldr	r3, [r7, #4]
 2371 0054 9B18     		adds	r3, r3, r2
 2372 0056 1B78     		ldrb	r3, [r3]
 2373 0058 1A00     		movs	r2, r3
 2374 005a 396A     		ldr	r1, [r7, #32]
 2375 005c 7B6A     		ldr	r3, [r7, #36]
 2376 005e 1800     		movs	r0, r3
 2377 0060 FFF7FEFF 		bl	StripLights_Pixel
1164:Generated_Source\PSoC4/StripLights.c ****         {
 2378              		.loc 1 1164 0 discriminator 3
 2379 0064 7B6A     		ldr	r3, [r7, #36]
 2380 0066 0133     		adds	r3, r3, #1
 2381 0068 7B62     		str	r3, [r7, #36]
 2382              	.L121:
1164:Generated_Source\PSoC4/StripLights.c ****         {
 2383              		.loc 1 1164 0 is_stmt 0 discriminator 1
 2384 006a 7A6A     		ldr	r2, [r7, #36]
 2385 006c BB69     		ldr	r3, [r7, #24]
 2386 006e 9A42     		cmp	r2, r3
 2387 0070 EBDB     		blt	.L122
1162:Generated_Source\PSoC4/StripLights.c ****     {
 2388              		.loc 1 1162 0 is_stmt 1 discriminator 2
 2389 0072 3B6A     		ldr	r3, [r7, #32]
 2390 0074 0133     		adds	r3, r3, #1
 2391 0076 3B62     		str	r3, [r7, #32]
 2392              	.L120:
1162:Generated_Source\PSoC4/StripLights.c ****     {
 2393              		.loc 1 1162 0 is_stmt 0 discriminator 1
 2394 0078 3A6A     		ldr	r2, [r7, #32]
 2395 007a 7B69     		ldr	r3, [r7, #20]
 2396 007c 9A42     		cmp	r2, r3
 2397 007e E1DB     		blt	.L123
ARM GAS  C:\Users\JAMESS~1\AppData\Local\Temp\ccgE8URB.s 			page 64


1167:Generated_Source\PSoC4/StripLights.c ****         }
1168:Generated_Source\PSoC4/StripLights.c ****     }
1169:Generated_Source\PSoC4/StripLights.c **** 	if(update) StripLights_Trigger(1);
 2398              		.loc 1 1169 0 is_stmt 1
 2399 0080 3B68     		ldr	r3, [r7]
 2400 0082 002B     		cmp	r3, #0
 2401 0084 02D0     		beq	.L125
 2402              		.loc 1 1169 0 is_stmt 0 discriminator 1
 2403 0086 0120     		movs	r0, #1
 2404 0088 FFF7FEFF 		bl	StripLights_Trigger
 2405              	.L125:
1170:Generated_Source\PSoC4/StripLights.c **** }
 2406              		.loc 1 1170 0 is_stmt 1
 2407 008c C046     		nop
 2408 008e BD46     		mov	sp, r7
 2409 0090 0AB0     		add	sp, sp, #40
 2410              		@ sp needed
 2411 0092 80BD     		pop	{r7, pc}
 2412              		.cfi_endproc
 2413              	.LFE52:
 2414              		.size	StripLights_Bplot8, .-StripLights_Bplot8
 2415              		.section	.text.StripLights_Bplot32,"ax",%progbits
 2416              		.align	2
 2417              		.global	StripLights_Bplot32
 2418              		.code	16
 2419              		.thumb_func
 2420              		.type	StripLights_Bplot32, %function
 2421              	StripLights_Bplot32:
 2422              	.LFB53:
1171:Generated_Source\PSoC4/StripLights.c **** 
1172:Generated_Source\PSoC4/StripLights.c **** /*******************************************************************************
1173:Generated_Source\PSoC4/StripLights.c **** * Function Name: StripLights_Bplot32
1174:Generated_Source\PSoC4/StripLights.c **** ********************************************************************************
1175:Generated_Source\PSoC4/StripLights.c **** *
1176:Generated_Source\PSoC4/StripLights.c **** * Summary:
1177:Generated_Source\PSoC4/StripLights.c **** *  Draw a bitmap image on the display using 32-bit color. 
1178:Generated_Source\PSoC4/StripLights.c **** *
1179:Generated_Source\PSoC4/StripLights.c **** * Parameters:  
1180:Generated_Source\PSoC4/StripLights.c **** *    x, y:  The upper left corner of the image location
1181:Generated_Source\PSoC4/StripLights.c **** *  bitMap:  A pointer to an image array.  The first two values is the X and Y
1182:Generated_Source\PSoC4/StripLights.c **** *           size of the bitmap.
1183:Generated_Source\PSoC4/StripLights.c **** *  update:  If not 0 update the display after drawing image.
1184:Generated_Source\PSoC4/StripLights.c **** *
1185:Generated_Source\PSoC4/StripLights.c **** * Return: 
1186:Generated_Source\PSoC4/StripLights.c **** *  None 
1187:Generated_Source\PSoC4/StripLights.c **** *  
1188:Generated_Source\PSoC4/StripLights.c **** *******************************************************************************/
1189:Generated_Source\PSoC4/StripLights.c **** void StripLights_Bplot32( int32 x, int32 y, uint32 * bitMap, int32 update)
1190:Generated_Source\PSoC4/StripLights.c **** {
 2423              		.loc 1 1190 0
 2424              		.cfi_startproc
 2425              		@ args = 0, pretend = 0, frame = 40
 2426              		@ frame_needed = 1, uses_anonymous_args = 0
 2427 0000 80B5     		push	{r7, lr}
 2428              		.cfi_def_cfa_offset 8
 2429              		.cfi_offset 7, -8
 2430              		.cfi_offset 14, -4
ARM GAS  C:\Users\JAMESS~1\AppData\Local\Temp\ccgE8URB.s 			page 65


 2431 0002 8AB0     		sub	sp, sp, #40
 2432              		.cfi_def_cfa_offset 48
 2433 0004 00AF     		add	r7, sp, #0
 2434              		.cfi_def_cfa_register 7
 2435 0006 F860     		str	r0, [r7, #12]
 2436 0008 B960     		str	r1, [r7, #8]
 2437 000a 7A60     		str	r2, [r7, #4]
 2438 000c 3B60     		str	r3, [r7]
1191:Generated_Source\PSoC4/StripLights.c ****     int32 dx, dy;
1192:Generated_Source\PSoC4/StripLights.c ****     int32 aindex = 0;
 2439              		.loc 1 1192 0
 2440 000e 0023     		movs	r3, #0
 2441 0010 FB61     		str	r3, [r7, #28]
1193:Generated_Source\PSoC4/StripLights.c ****     int32 maxX, maxY;
1194:Generated_Source\PSoC4/StripLights.c **** 
1195:Generated_Source\PSoC4/StripLights.c ****     maxX = x + (int32)bitMap[aindex++];
 2442              		.loc 1 1195 0
 2443 0012 FB69     		ldr	r3, [r7, #28]
 2444 0014 5A1C     		adds	r2, r3, #1
 2445 0016 FA61     		str	r2, [r7, #28]
 2446 0018 9B00     		lsls	r3, r3, #2
 2447 001a 7A68     		ldr	r2, [r7, #4]
 2448 001c D318     		adds	r3, r2, r3
 2449 001e 1B68     		ldr	r3, [r3]
 2450 0020 1A00     		movs	r2, r3
 2451 0022 FB68     		ldr	r3, [r7, #12]
 2452 0024 D318     		adds	r3, r2, r3
 2453 0026 BB61     		str	r3, [r7, #24]
1196:Generated_Source\PSoC4/StripLights.c ****     maxY = y  + (int32)bitMap[aindex++];
 2454              		.loc 1 1196 0
 2455 0028 FB69     		ldr	r3, [r7, #28]
 2456 002a 5A1C     		adds	r2, r3, #1
 2457 002c FA61     		str	r2, [r7, #28]
 2458 002e 9B00     		lsls	r3, r3, #2
 2459 0030 7A68     		ldr	r2, [r7, #4]
 2460 0032 D318     		adds	r3, r2, r3
 2461 0034 1B68     		ldr	r3, [r3]
 2462 0036 1A00     		movs	r2, r3
 2463 0038 BB68     		ldr	r3, [r7, #8]
 2464 003a D318     		adds	r3, r2, r3
 2465 003c 7B61     		str	r3, [r7, #20]
1197:Generated_Source\PSoC4/StripLights.c **** 
1198:Generated_Source\PSoC4/StripLights.c **** 	for(dy = y; dy < maxY; dy++)
 2466              		.loc 1 1198 0
 2467 003e BB68     		ldr	r3, [r7, #8]
 2468 0040 3B62     		str	r3, [r7, #32]
 2469 0042 18E0     		b	.L127
 2470              	.L130:
1199:Generated_Source\PSoC4/StripLights.c ****     {
1200:Generated_Source\PSoC4/StripLights.c **** 		for(dx = x; dx < maxX; dx++)
 2471              		.loc 1 1200 0
 2472 0044 FB68     		ldr	r3, [r7, #12]
 2473 0046 7B62     		str	r3, [r7, #36]
 2474 0048 0EE0     		b	.L128
 2475              	.L129:
1201:Generated_Source\PSoC4/StripLights.c ****         {
1202:Generated_Source\PSoC4/StripLights.c ****             StripLights_Pixel(dx, dy, bitMap[aindex++]);
ARM GAS  C:\Users\JAMESS~1\AppData\Local\Temp\ccgE8URB.s 			page 66


 2476              		.loc 1 1202 0 discriminator 3
 2477 004a FB69     		ldr	r3, [r7, #28]
 2478 004c 5A1C     		adds	r2, r3, #1
 2479 004e FA61     		str	r2, [r7, #28]
 2480 0050 9B00     		lsls	r3, r3, #2
 2481 0052 7A68     		ldr	r2, [r7, #4]
 2482 0054 D318     		adds	r3, r2, r3
 2483 0056 1A68     		ldr	r2, [r3]
 2484 0058 396A     		ldr	r1, [r7, #32]
 2485 005a 7B6A     		ldr	r3, [r7, #36]
 2486 005c 1800     		movs	r0, r3
 2487 005e FFF7FEFF 		bl	StripLights_Pixel
1200:Generated_Source\PSoC4/StripLights.c ****         {
 2488              		.loc 1 1200 0 discriminator 3
 2489 0062 7B6A     		ldr	r3, [r7, #36]
 2490 0064 0133     		adds	r3, r3, #1
 2491 0066 7B62     		str	r3, [r7, #36]
 2492              	.L128:
1200:Generated_Source\PSoC4/StripLights.c ****         {
 2493              		.loc 1 1200 0 is_stmt 0 discriminator 1
 2494 0068 7A6A     		ldr	r2, [r7, #36]
 2495 006a BB69     		ldr	r3, [r7, #24]
 2496 006c 9A42     		cmp	r2, r3
 2497 006e ECDB     		blt	.L129
1198:Generated_Source\PSoC4/StripLights.c ****     {
 2498              		.loc 1 1198 0 is_stmt 1 discriminator 2
 2499 0070 3B6A     		ldr	r3, [r7, #32]
 2500 0072 0133     		adds	r3, r3, #1
 2501 0074 3B62     		str	r3, [r7, #32]
 2502              	.L127:
1198:Generated_Source\PSoC4/StripLights.c ****     {
 2503              		.loc 1 1198 0 is_stmt 0 discriminator 1
 2504 0076 3A6A     		ldr	r2, [r7, #32]
 2505 0078 7B69     		ldr	r3, [r7, #20]
 2506 007a 9A42     		cmp	r2, r3
 2507 007c E2DB     		blt	.L130
1203:Generated_Source\PSoC4/StripLights.c ****         }
1204:Generated_Source\PSoC4/StripLights.c ****     }
1205:Generated_Source\PSoC4/StripLights.c **** 	if(update) StripLights_Trigger(1);
 2508              		.loc 1 1205 0 is_stmt 1
 2509 007e 3B68     		ldr	r3, [r7]
 2510 0080 002B     		cmp	r3, #0
 2511 0082 02D0     		beq	.L132
 2512              		.loc 1 1205 0 is_stmt 0 discriminator 1
 2513 0084 0120     		movs	r0, #1
 2514 0086 FFF7FEFF 		bl	StripLights_Trigger
 2515              	.L132:
1206:Generated_Source\PSoC4/StripLights.c **** }
 2516              		.loc 1 1206 0 is_stmt 1
 2517 008a C046     		nop
 2518 008c BD46     		mov	sp, r7
 2519 008e 0AB0     		add	sp, sp, #40
 2520              		@ sp needed
 2521 0090 80BD     		pop	{r7, pc}
 2522              		.cfi_endproc
 2523              	.LFE53:
 2524              		.size	StripLights_Bplot32, .-StripLights_Bplot32
ARM GAS  C:\Users\JAMESS~1\AppData\Local\Temp\ccgE8URB.s 			page 67


 2525              		.global	__aeabi_uidiv
 2526 0092 C046     		.section	.text.StripLights_RgbBlend,"ax",%progbits
 2527              		.align	2
 2528              		.global	StripLights_RgbBlend
 2529              		.code	16
 2530              		.thumb_func
 2531              		.type	StripLights_RgbBlend, %function
 2532              	StripLights_RgbBlend:
 2533              	.LFB54:
1207:Generated_Source\PSoC4/StripLights.c **** 
1208:Generated_Source\PSoC4/StripLights.c **** /*******************************************************************************
1209:Generated_Source\PSoC4/StripLights.c **** * Function Name: StripLights_RgbBlend()
1210:Generated_Source\PSoC4/StripLights.c **** ********************************************************************************
1211:Generated_Source\PSoC4/StripLights.c **** * Summary:  Blend two colors into one.
1212:Generated_Source\PSoC4/StripLights.c **** *    
1213:Generated_Source\PSoC4/StripLights.c **** *    newColor = (pct * toColor)  + ((100-pct) * fromColor)
1214:Generated_Source\PSoC4/StripLights.c **** *
1215:Generated_Source\PSoC4/StripLights.c **** * Parameters:  
1216:Generated_Source\PSoC4/StripLights.c **** *  void  
1217:Generated_Source\PSoC4/StripLights.c **** *
1218:Generated_Source\PSoC4/StripLights.c **** * Return: 
1219:Generated_Source\PSoC4/StripLights.c **** *  void
1220:Generated_Source\PSoC4/StripLights.c **** *
1221:Generated_Source\PSoC4/StripLights.c **** *******************************************************************************/
1222:Generated_Source\PSoC4/StripLights.c **** uint32 StripLights_RgbBlend(uint32 fromColor, uint32 toColor, uint32 pct)
1223:Generated_Source\PSoC4/StripLights.c **** {
 2534              		.loc 1 1223 0
 2535              		.cfi_startproc
 2536              		@ args = 0, pretend = 0, frame = 24
 2537              		@ frame_needed = 1, uses_anonymous_args = 0
 2538 0000 80B5     		push	{r7, lr}
 2539              		.cfi_def_cfa_offset 8
 2540              		.cfi_offset 7, -8
 2541              		.cfi_offset 14, -4
 2542 0002 86B0     		sub	sp, sp, #24
 2543              		.cfi_def_cfa_offset 32
 2544 0004 00AF     		add	r7, sp, #0
 2545              		.cfi_def_cfa_register 7
 2546 0006 F860     		str	r0, [r7, #12]
 2547 0008 B960     		str	r1, [r7, #8]
 2548 000a 7A60     		str	r2, [r7, #4]
1224:Generated_Source\PSoC4/StripLights.c ****     uint32 newColor = 0;
 2549              		.loc 1 1224 0
 2550 000c 0023     		movs	r3, #0
 2551 000e 7B61     		str	r3, [r7, #20]
1225:Generated_Source\PSoC4/StripLights.c ****  
1226:Generated_Source\PSoC4/StripLights.c ****     #if(StripLights_CHIP == StripLights_CHIP_SF2812RGBW)
1227:Generated_Source\PSoC4/StripLights.c ****         uint32 tc, fc;
1228:Generated_Source\PSoC4/StripLights.c ****         
1229:Generated_Source\PSoC4/StripLights.c ****         tc = toColor >> 8;
1230:Generated_Source\PSoC4/StripLights.c ****         fc = fromColor >> 8;
1231:Generated_Source\PSoC4/StripLights.c ****         newColor = ((((pct * (tc & 0x00FF0000)) + ((100-pct) * (fc & 0x00FF0000)))/100) & 0x00FF000
1232:Generated_Source\PSoC4/StripLights.c ****     #endif
1233:Generated_Source\PSoC4/StripLights.c ****     newColor |= (((pct * (toColor & 0x00FF0000)) + ((100-pct) * (fromColor & 0x00FF0000)))/100) & 0
 2552              		.loc 1 1233 0
 2553 0010 BA68     		ldr	r2, [r7, #8]
 2554 0012 FF23     		movs	r3, #255
ARM GAS  C:\Users\JAMESS~1\AppData\Local\Temp\ccgE8URB.s 			page 68


 2555 0014 1B04     		lsls	r3, r3, #16
 2556 0016 1340     		ands	r3, r2
 2557 0018 7A68     		ldr	r2, [r7, #4]
 2558 001a 5A43     		muls	r2, r3
 2559 001c 7B68     		ldr	r3, [r7, #4]
 2560 001e 6421     		movs	r1, #100
 2561 0020 CB1A     		subs	r3, r1, r3
 2562 0022 F868     		ldr	r0, [r7, #12]
 2563 0024 FF21     		movs	r1, #255
 2564 0026 0904     		lsls	r1, r1, #16
 2565 0028 0140     		ands	r1, r0
 2566 002a 4B43     		muls	r3, r1
 2567 002c D318     		adds	r3, r2, r3
 2568 002e 6421     		movs	r1, #100
 2569 0030 1800     		movs	r0, r3
 2570 0032 FFF7FEFF 		bl	__aeabi_uidiv
 2571 0036 0300     		movs	r3, r0
 2572 0038 1A00     		movs	r2, r3
 2573 003a FF23     		movs	r3, #255
 2574 003c 1B04     		lsls	r3, r3, #16
 2575 003e 1340     		ands	r3, r2
 2576 0040 7A69     		ldr	r2, [r7, #20]
 2577 0042 1343     		orrs	r3, r2
 2578 0044 7B61     		str	r3, [r7, #20]
1234:Generated_Source\PSoC4/StripLights.c ****     newColor |= (((pct * (toColor & 0x0000FF00)) + ((100-pct) * (fromColor & 0x0000FF00)))/100) & 0
 2579              		.loc 1 1234 0
 2580 0046 BA68     		ldr	r2, [r7, #8]
 2581 0048 FF23     		movs	r3, #255
 2582 004a 1B02     		lsls	r3, r3, #8
 2583 004c 1340     		ands	r3, r2
 2584 004e 7A68     		ldr	r2, [r7, #4]
 2585 0050 5A43     		muls	r2, r3
 2586 0052 7B68     		ldr	r3, [r7, #4]
 2587 0054 6421     		movs	r1, #100
 2588 0056 CB1A     		subs	r3, r1, r3
 2589 0058 F868     		ldr	r0, [r7, #12]
 2590 005a FF21     		movs	r1, #255
 2591 005c 0902     		lsls	r1, r1, #8
 2592 005e 0140     		ands	r1, r0
 2593 0060 4B43     		muls	r3, r1
 2594 0062 D318     		adds	r3, r2, r3
 2595 0064 6421     		movs	r1, #100
 2596 0066 1800     		movs	r0, r3
 2597 0068 FFF7FEFF 		bl	__aeabi_uidiv
 2598 006c 0300     		movs	r3, r0
 2599 006e 1A00     		movs	r2, r3
 2600 0070 FF23     		movs	r3, #255
 2601 0072 1B02     		lsls	r3, r3, #8
 2602 0074 1340     		ands	r3, r2
 2603 0076 7A69     		ldr	r2, [r7, #20]
 2604 0078 1343     		orrs	r3, r2
 2605 007a 7B61     		str	r3, [r7, #20]
1235:Generated_Source\PSoC4/StripLights.c ****     newColor |= (((pct * (toColor & 0x000000FF)) + ((100-pct) * (fromColor & 0x000000FF)))/100) & 0
 2606              		.loc 1 1235 0
 2607 007c BB68     		ldr	r3, [r7, #8]
 2608 007e FF22     		movs	r2, #255
 2609 0080 1340     		ands	r3, r2
ARM GAS  C:\Users\JAMESS~1\AppData\Local\Temp\ccgE8URB.s 			page 69


 2610 0082 7A68     		ldr	r2, [r7, #4]
 2611 0084 5A43     		muls	r2, r3
 2612 0086 7B68     		ldr	r3, [r7, #4]
 2613 0088 6421     		movs	r1, #100
 2614 008a CB1A     		subs	r3, r1, r3
 2615 008c F968     		ldr	r1, [r7, #12]
 2616 008e FF20     		movs	r0, #255
 2617 0090 0140     		ands	r1, r0
 2618 0092 4B43     		muls	r3, r1
 2619 0094 D318     		adds	r3, r2, r3
 2620 0096 6421     		movs	r1, #100
 2621 0098 1800     		movs	r0, r3
 2622 009a FFF7FEFF 		bl	__aeabi_uidiv
 2623 009e 0300     		movs	r3, r0
 2624 00a0 1A00     		movs	r2, r3
 2625 00a2 FF23     		movs	r3, #255
 2626 00a4 1340     		ands	r3, r2
 2627 00a6 7A69     		ldr	r2, [r7, #20]
 2628 00a8 1343     		orrs	r3, r2
 2629 00aa 7B61     		str	r3, [r7, #20]
1236:Generated_Source\PSoC4/StripLights.c ****  
1237:Generated_Source\PSoC4/StripLights.c ****    return(newColor);
 2630              		.loc 1 1237 0
 2631 00ac 7B69     		ldr	r3, [r7, #20]
1238:Generated_Source\PSoC4/StripLights.c **** }
 2632              		.loc 1 1238 0
 2633 00ae 1800     		movs	r0, r3
 2634 00b0 BD46     		mov	sp, r7
 2635 00b2 06B0     		add	sp, sp, #24
 2636              		@ sp needed
 2637 00b4 80BD     		pop	{r7, pc}
 2638              		.cfi_endproc
 2639              	.LFE54:
 2640              		.size	StripLights_RgbBlend, .-StripLights_RgbBlend
 2641 00b6 C046     		.bss
 2642              		.align	2
 2643              	colorIndex.5906:
 2644 0014 00000000 		.space	4
 2645              		.align	2
 2646              	color.5913:
 2647 0018 00000000 		.space	4
 2648              		.align	2
 2649              	color.5921:
 2650 001c 00000000 		.space	4
 2651              		.text
 2652              	.Letext0:
 2653              		.file 2 "Generated_Source\\PSoC4/cytypes.h"
 2654              		.file 3 "Generated_Source\\PSoC4/StripLights.h"
 2655              		.section	.debug_info,"",%progbits
 2656              	.Ldebug_info0:
 2657 0000 D9080000 		.4byte	0x8d9
 2658 0004 0400     		.2byte	0x4
 2659 0006 00000000 		.4byte	.Ldebug_abbrev0
 2660 000a 04       		.byte	0x4
 2661 000b 01       		.uleb128 0x1
 2662 000c 04020000 		.4byte	.LASF75
 2663 0010 0C       		.byte	0xc
ARM GAS  C:\Users\JAMESS~1\AppData\Local\Temp\ccgE8URB.s 			page 70


 2664 0011 A7000000 		.4byte	.LASF76
 2665 0015 48000000 		.4byte	.LASF77
 2666 0019 00000000 		.4byte	.Ldebug_ranges0+0
 2667 001d 00000000 		.4byte	0
 2668 0021 00000000 		.4byte	.Ldebug_line0
 2669 0025 02       		.uleb128 0x2
 2670 0026 01       		.byte	0x1
 2671 0027 06       		.byte	0x6
 2672 0028 B1010000 		.4byte	.LASF0
 2673 002c 02       		.uleb128 0x2
 2674 002d 01       		.byte	0x1
 2675 002e 08       		.byte	0x8
 2676 002f B3020000 		.4byte	.LASF1
 2677 0033 02       		.uleb128 0x2
 2678 0034 02       		.byte	0x2
 2679 0035 05       		.byte	0x5
 2680 0036 3E000000 		.4byte	.LASF2
 2681 003a 02       		.uleb128 0x2
 2682 003b 02       		.byte	0x2
 2683 003c 07       		.byte	0x7
 2684 003d C3030000 		.4byte	.LASF3
 2685 0041 02       		.uleb128 0x2
 2686 0042 04       		.byte	0x4
 2687 0043 05       		.byte	0x5
 2688 0044 F6010000 		.4byte	.LASF4
 2689 0048 02       		.uleb128 0x2
 2690 0049 04       		.byte	0x4
 2691 004a 07       		.byte	0x7
 2692 004b 40040000 		.4byte	.LASF5
 2693 004f 02       		.uleb128 0x2
 2694 0050 08       		.byte	0x8
 2695 0051 05       		.byte	0x5
 2696 0052 DB010000 		.4byte	.LASF6
 2697 0056 02       		.uleb128 0x2
 2698 0057 08       		.byte	0x8
 2699 0058 07       		.byte	0x7
 2700 0059 FD020000 		.4byte	.LASF7
 2701 005d 03       		.uleb128 0x3
 2702 005e 04       		.byte	0x4
 2703 005f 05       		.byte	0x5
 2704 0060 696E7400 		.ascii	"int\000"
 2705 0064 02       		.uleb128 0x2
 2706 0065 04       		.byte	0x4
 2707 0066 07       		.byte	0x7
 2708 0067 30030000 		.4byte	.LASF8
 2709 006b 04       		.uleb128 0x4
 2710 006c 5C010000 		.4byte	.LASF9
 2711 0070 02       		.byte	0x2
 2712 0071 D201     		.2byte	0x1d2
 2713 0073 2C000000 		.4byte	0x2c
 2714 0077 04       		.uleb128 0x4
 2715 0078 2E040000 		.4byte	.LASF10
 2716 007c 02       		.byte	0x2
 2717 007d D401     		.2byte	0x1d4
 2718 007f 48000000 		.4byte	0x48
 2719 0083 04       		.uleb128 0x4
 2720 0084 58040000 		.4byte	.LASF11
ARM GAS  C:\Users\JAMESS~1\AppData\Local\Temp\ccgE8URB.s 			page 71


 2721 0088 02       		.byte	0x2
 2722 0089 D701     		.2byte	0x1d7
 2723 008b 41000000 		.4byte	0x41
 2724 008f 02       		.uleb128 0x2
 2725 0090 04       		.byte	0x4
 2726 0091 04       		.byte	0x4
 2727 0092 BD010000 		.4byte	.LASF12
 2728 0096 02       		.uleb128 0x2
 2729 0097 08       		.byte	0x8
 2730 0098 04       		.byte	0x4
 2731 0099 F3040000 		.4byte	.LASF13
 2732 009d 02       		.uleb128 0x2
 2733 009e 01       		.byte	0x1
 2734 009f 08       		.byte	0x8
 2735 00a0 0F000000 		.4byte	.LASF14
 2736 00a4 04       		.uleb128 0x4
 2737 00a5 3B040000 		.4byte	.LASF15
 2738 00a9 02       		.byte	0x2
 2739 00aa 7C02     		.2byte	0x27c
 2740 00ac B0000000 		.4byte	0xb0
 2741 00b0 05       		.uleb128 0x5
 2742 00b1 6B000000 		.4byte	0x6b
 2743 00b5 06       		.uleb128 0x6
 2744 00b6 04       		.byte	0x4
 2745 00b7 BB000000 		.4byte	0xbb
 2746 00bb 07       		.uleb128 0x7
 2747 00bc 02       		.uleb128 0x2
 2748 00bd 08       		.byte	0x8
 2749 00be 04       		.byte	0x4
 2750 00bf 92020000 		.4byte	.LASF16
 2751 00c3 02       		.uleb128 0x2
 2752 00c4 04       		.byte	0x4
 2753 00c5 07       		.byte	0x7
 2754 00c6 DB040000 		.4byte	.LASF17
 2755 00ca 08       		.uleb128 0x8
 2756 00cb 23050000 		.4byte	.LASF18
 2757 00cf 03       		.byte	0x3
 2758 00d0 12       		.byte	0x12
 2759 00d1 B5000000 		.4byte	0xb5
 2760 00d5 09       		.uleb128 0x9
 2761 00d6 FA040000 		.4byte	.LASF21
 2762 00da 01       		.byte	0x1
 2763 00db FC       		.byte	0xfc
 2764 00dc 00000000 		.4byte	.LFB32
 2765 00e0 9C000000 		.4byte	.LFE32-.LFB32
 2766 00e4 01       		.uleb128 0x1
 2767 00e5 9C       		.byte	0x9c
 2768 00e6 01010000 		.4byte	0x101
 2769 00ea 0A       		.uleb128 0xa
 2770 00eb 7F010000 		.4byte	.LASF19
 2771 00ef 01       		.byte	0x1
 2772 00f0 FE       		.byte	0xfe
 2773 00f1 6B000000 		.4byte	0x6b
 2774 00f5 0A       		.uleb128 0xa
 2775 00f6 46030000 		.4byte	.LASF20
 2776 00fa 01       		.byte	0x1
 2777 00fb FF       		.byte	0xff
ARM GAS  C:\Users\JAMESS~1\AppData\Local\Temp\ccgE8URB.s 			page 72


 2778 00fc 77000000 		.4byte	0x77
 2779 0100 00       		.byte	0
 2780 0101 0B       		.uleb128 0xb
 2781 0102 F8030000 		.4byte	.LASF22
 2782 0106 01       		.byte	0x1
 2783 0107 4C01     		.2byte	0x14c
 2784 0109 00000000 		.4byte	.LFB33
 2785 010d 28000000 		.4byte	.LFE33-.LFB33
 2786 0111 01       		.uleb128 0x1
 2787 0112 9C       		.byte	0x9c
 2788 0113 36010000 		.4byte	0x136
 2789 0117 0C       		.uleb128 0xc
 2790 0118 E4040000 		.4byte	.LASF23
 2791 011c 01       		.byte	0x1
 2792 011d 4C01     		.2byte	0x14c
 2793 011f CA000000 		.4byte	0xca
 2794 0123 02       		.uleb128 0x2
 2795 0124 91       		.byte	0x91
 2796 0125 74       		.sleb128 -12
 2797 0126 0C       		.uleb128 0xc
 2798 0127 00000000 		.4byte	.LASF24
 2799 012b 01       		.byte	0x1
 2800 012c 4C01     		.2byte	0x14c
 2801 012e CA000000 		.4byte	0xca
 2802 0132 02       		.uleb128 0x2
 2803 0133 91       		.byte	0x91
 2804 0134 70       		.sleb128 -16
 2805 0135 00       		.byte	0
 2806 0136 0D       		.uleb128 0xd
 2807 0137 62010000 		.4byte	.LASF25
 2808 013b 01       		.byte	0x1
 2809 013c 5F01     		.2byte	0x15f
 2810 013e 00000000 		.4byte	.LFB34
 2811 0142 84000000 		.4byte	.LFE34-.LFB34
 2812 0146 01       		.uleb128 0x1
 2813 0147 9C       		.byte	0x9c
 2814 0148 6B010000 		.4byte	0x16b
 2815 014c 0C       		.uleb128 0xc
 2816 014d E1000000 		.4byte	.LASF26
 2817 0151 01       		.byte	0x1
 2818 0152 5F01     		.2byte	0x15f
 2819 0154 77000000 		.4byte	0x77
 2820 0158 02       		.uleb128 0x2
 2821 0159 91       		.byte	0x91
 2822 015a 6C       		.sleb128 -20
 2823 015b 0E       		.uleb128 0xe
 2824 015c 54010000 		.4byte	.LASF29
 2825 0160 01       		.byte	0x1
 2826 0161 6201     		.2byte	0x162
 2827 0163 77000000 		.4byte	0x77
 2828 0167 02       		.uleb128 0x2
 2829 0168 91       		.byte	0x91
 2830 0169 74       		.sleb128 -12
 2831 016a 00       		.byte	0
 2832 016b 0D       		.uleb128 0xd
 2833 016c C3010000 		.4byte	.LASF27
 2834 0170 01       		.byte	0x1
ARM GAS  C:\Users\JAMESS~1\AppData\Local\Temp\ccgE8URB.s 			page 73


 2835 0171 9001     		.2byte	0x190
 2836 0173 00000000 		.4byte	.LFB35
 2837 0177 48000000 		.4byte	.LFE35-.LFB35
 2838 017b 01       		.uleb128 0x1
 2839 017c 9C       		.byte	0x9c
 2840 017d 91010000 		.4byte	0x191
 2841 0181 0F       		.uleb128 0xf
 2842 0182 72737400 		.ascii	"rst\000"
 2843 0186 01       		.byte	0x1
 2844 0187 9001     		.2byte	0x190
 2845 0189 77000000 		.4byte	0x77
 2846 018d 02       		.uleb128 0x2
 2847 018e 91       		.byte	0x91
 2848 018f 74       		.sleb128 -12
 2849 0190 00       		.byte	0
 2850 0191 0B       		.uleb128 0xb
 2851 0192 93010000 		.4byte	.LASF28
 2852 0196 01       		.byte	0x1
 2853 0197 B601     		.2byte	0x1b6
 2854 0199 00000000 		.4byte	.LFB36
 2855 019d B4000000 		.4byte	.LFE36-.LFB36
 2856 01a1 01       		.uleb128 0x1
 2857 01a2 9C       		.byte	0x9c
 2858 01a3 C6010000 		.4byte	0x1c6
 2859 01a7 0F       		.uleb128 0xf
 2860 01a8 72737400 		.ascii	"rst\000"
 2861 01ac 01       		.byte	0x1
 2862 01ad B601     		.2byte	0x1b6
 2863 01af 77000000 		.4byte	0x77
 2864 01b3 02       		.uleb128 0x2
 2865 01b4 91       		.byte	0x91
 2866 01b5 6C       		.sleb128 -20
 2867 01b6 0E       		.uleb128 0xe
 2868 01b7 8C000000 		.4byte	.LASF30
 2869 01bb 01       		.byte	0x1
 2870 01bc B801     		.2byte	0x1b8
 2871 01be 77000000 		.4byte	0x77
 2872 01c2 02       		.uleb128 0x2
 2873 01c3 91       		.byte	0x91
 2874 01c4 74       		.sleb128 -12
 2875 01c5 00       		.byte	0
 2876 01c6 10       		.uleb128 0x10
 2877 01c7 9C030000 		.4byte	.LASF78
 2878 01cb 01       		.byte	0x1
 2879 01cc F101     		.2byte	0x1f1
 2880 01ce 77000000 		.4byte	0x77
 2881 01d2 00000000 		.4byte	.LFB37
 2882 01d6 28000000 		.4byte	.LFE37-.LFB37
 2883 01da 01       		.uleb128 0x1
 2884 01db 9C       		.byte	0x9c
 2885 01dc 11       		.uleb128 0x11
 2886 01dd 82040000 		.4byte	.LASF79
 2887 01e1 01       		.byte	0x1
 2888 01e2 0C02     		.2byte	0x20c
 2889 01e4 00000000 		.4byte	.LFB38
 2890 01e8 14000000 		.4byte	.LFE38-.LFB38
 2891 01ec 01       		.uleb128 0x1
ARM GAS  C:\Users\JAMESS~1\AppData\Local\Temp\ccgE8URB.s 			page 74


 2892 01ed 9C       		.byte	0x9c
 2893 01ee 12       		.uleb128 0x12
 2894 01ef AE030000 		.4byte	.LASF31
 2895 01f3 01       		.byte	0x1
 2896 01f4 1102     		.2byte	0x211
 2897 01f6 77000000 		.4byte	0x77
 2898 01fa 00000000 		.4byte	.LFB39
 2899 01fe 20000000 		.4byte	.LFE39-.LFB39
 2900 0202 01       		.uleb128 0x1
 2901 0203 9C       		.byte	0x9c
 2902 0204 18020000 		.4byte	0x218
 2903 0208 0C       		.uleb128 0xc
 2904 0209 8C000000 		.4byte	.LASF30
 2905 020d 01       		.byte	0x1
 2906 020e 1102     		.2byte	0x211
 2907 0210 77000000 		.4byte	0x77
 2908 0214 02       		.uleb128 0x2
 2909 0215 91       		.byte	0x91
 2910 0216 74       		.sleb128 -12
 2911 0217 00       		.byte	0
 2912 0218 13       		.uleb128 0x13
 2913 0219 C1020000 		.4byte	.LASF32
 2914 021d 01       		.byte	0x1
 2915 021e 2702     		.2byte	0x227
 2916 0220 77000000 		.4byte	0x77
 2917 0224 00000000 		.4byte	.LFB40
 2918 0228 48000000 		.4byte	.LFE40-.LFB40
 2919 022c 01       		.uleb128 0x1
 2920 022d 9C       		.byte	0x9c
 2921 022e 6F020000 		.4byte	0x26f
 2922 0232 0C       		.uleb128 0xc
 2923 0233 EF030000 		.4byte	.LASF33
 2924 0237 01       		.byte	0x1
 2925 0238 2702     		.2byte	0x227
 2926 023a 77000000 		.4byte	0x77
 2927 023e 02       		.uleb128 0x2
 2928 023f 91       		.byte	0x91
 2929 0240 6C       		.sleb128 -20
 2930 0241 0E       		.uleb128 0xe
 2931 0242 8C000000 		.4byte	.LASF30
 2932 0246 01       		.byte	0x1
 2933 0247 2902     		.2byte	0x229
 2934 0249 77000000 		.4byte	0x77
 2935 024d 02       		.uleb128 0x2
 2936 024e 91       		.byte	0x91
 2937 024f 74       		.sleb128 -12
 2938 0250 14       		.uleb128 0x14
 2939 0251 18010000 		.4byte	.LASF34
 2940 0255 01       		.byte	0x1
 2941 0256 2A02     		.2byte	0x22a
 2942 0258 84020000 		.4byte	0x284
 2943 025c 0E       		.uleb128 0xe
 2944 025d ED020000 		.4byte	.LASF35
 2945 0261 01       		.byte	0x1
 2946 0262 2B02     		.2byte	0x22b
 2947 0264 77000000 		.4byte	0x77
 2948 0268 05       		.uleb128 0x5
ARM GAS  C:\Users\JAMESS~1\AppData\Local\Temp\ccgE8URB.s 			page 75


 2949 0269 03       		.byte	0x3
 2950 026a 14000000 		.4byte	colorIndex.5906
 2951 026e 00       		.byte	0
 2952 026f 15       		.uleb128 0x15
 2953 0270 7F020000 		.4byte	0x27f
 2954 0274 7F020000 		.4byte	0x27f
 2955 0278 16       		.uleb128 0x16
 2956 0279 C3000000 		.4byte	0xc3
 2957 027d 77       		.byte	0x77
 2958 027e 00       		.byte	0
 2959 027f 17       		.uleb128 0x17
 2960 0280 77000000 		.4byte	0x77
 2961 0284 17       		.uleb128 0x17
 2962 0285 6F020000 		.4byte	0x26f
 2963 0289 0B       		.uleb128 0xb
 2964 028a 93040000 		.4byte	.LASF36
 2965 028e 01       		.byte	0x1
 2966 028f 4802     		.2byte	0x248
 2967 0291 00000000 		.4byte	.LFB41
 2968 0295 BC000000 		.4byte	.LFE41-.LFB41
 2969 0299 01       		.uleb128 0x1
 2970 029a 9C       		.byte	0x9c
 2971 029b CA020000 		.4byte	0x2ca
 2972 029f 14       		.uleb128 0x14
 2973 02a0 29010000 		.4byte	.LASF37
 2974 02a4 01       		.byte	0x1
 2975 02a5 4A02     		.2byte	0x24a
 2976 02a7 77000000 		.4byte	0x77
 2977 02ab 14       		.uleb128 0x14
 2978 02ac 29000000 		.4byte	.LASF38
 2979 02b0 01       		.byte	0x1
 2980 02b1 4B02     		.2byte	0x24b
 2981 02b3 77000000 		.4byte	0x77
 2982 02b7 0E       		.uleb128 0xe
 2983 02b8 8C000000 		.4byte	.LASF30
 2984 02bc 01       		.byte	0x1
 2985 02bd 4C02     		.2byte	0x24c
 2986 02bf 77000000 		.4byte	0x77
 2987 02c3 05       		.uleb128 0x5
 2988 02c4 03       		.byte	0x3
 2989 02c5 18000000 		.4byte	color.5913
 2990 02c9 00       		.byte	0
 2991 02ca 0B       		.uleb128 0xb
 2992 02cb 71040000 		.4byte	.LASF39
 2993 02cf 01       		.byte	0x1
 2994 02d0 8602     		.2byte	0x286
 2995 02d2 00000000 		.4byte	.LFB42
 2996 02d6 D8000000 		.4byte	.LFE42-.LFB42
 2997 02da 01       		.uleb128 0x1
 2998 02db 9C       		.byte	0x9c
 2999 02dc 17030000 		.4byte	0x317
 3000 02e0 14       		.uleb128 0x14
 3001 02e1 29010000 		.4byte	.LASF37
 3002 02e5 01       		.byte	0x1
 3003 02e6 8802     		.2byte	0x288
 3004 02e8 77000000 		.4byte	0x77
 3005 02ec 14       		.uleb128 0x14
ARM GAS  C:\Users\JAMESS~1\AppData\Local\Temp\ccgE8URB.s 			page 76


 3006 02ed 29000000 		.4byte	.LASF38
 3007 02f1 01       		.byte	0x1
 3008 02f2 8902     		.2byte	0x289
 3009 02f4 77000000 		.4byte	0x77
 3010 02f8 0E       		.uleb128 0xe
 3011 02f9 8C000000 		.4byte	.LASF30
 3012 02fd 01       		.byte	0x1
 3013 02fe 8A02     		.2byte	0x28a
 3014 0300 77000000 		.4byte	0x77
 3015 0304 05       		.uleb128 0x5
 3016 0305 03       		.byte	0x3
 3017 0306 1C000000 		.4byte	color.5921
 3018 030a 14       		.uleb128 0x14
 3019 030b 46030000 		.4byte	.LASF20
 3020 030f 01       		.byte	0x1
 3021 0310 8B02     		.2byte	0x28b
 3022 0312 77000000 		.4byte	0x77
 3023 0316 00       		.byte	0
 3024 0317 0D       		.uleb128 0xd
 3025 0318 D6030000 		.4byte	.LASF40
 3026 031c 01       		.byte	0x1
 3027 031d C802     		.2byte	0x2c8
 3028 031f 00000000 		.4byte	.LFB43
 3029 0323 1E000000 		.4byte	.LFE43-.LFB43
 3030 0327 01       		.uleb128 0x1
 3031 0328 9C       		.byte	0x9c
 3032 0329 3D030000 		.4byte	0x33d
 3033 032d 0C       		.uleb128 0xc
 3034 032e 8C000000 		.4byte	.LASF30
 3035 0332 01       		.byte	0x1
 3036 0333 C802     		.2byte	0x2c8
 3037 0335 77000000 		.4byte	0x77
 3038 0339 02       		.uleb128 0x2
 3039 033a 91       		.byte	0x91
 3040 033b 74       		.sleb128 -12
 3041 033c 00       		.byte	0
 3042 033d 0B       		.uleb128 0xb
 3043 033e AD040000 		.4byte	.LASF41
 3044 0342 01       		.byte	0x1
 3045 0343 DB02     		.2byte	0x2db
 3046 0345 00000000 		.4byte	.LFB44
 3047 0349 50000000 		.4byte	.LFE44-.LFB44
 3048 034d 01       		.uleb128 0x1
 3049 034e 9C       		.byte	0x9c
 3050 034f 81030000 		.4byte	0x381
 3051 0353 0C       		.uleb128 0xc
 3052 0354 8C000000 		.4byte	.LASF30
 3053 0358 01       		.byte	0x1
 3054 0359 DB02     		.2byte	0x2db
 3055 035b 77000000 		.4byte	0x77
 3056 035f 02       		.uleb128 0x2
 3057 0360 91       		.byte	0x91
 3058 0361 6C       		.sleb128 -20
 3059 0362 18       		.uleb128 0x18
 3060 0363 726F7700 		.ascii	"row\000"
 3061 0367 01       		.byte	0x1
 3062 0368 DD02     		.2byte	0x2dd
ARM GAS  C:\Users\JAMESS~1\AppData\Local\Temp\ccgE8URB.s 			page 77


 3063 036a 77000000 		.4byte	0x77
 3064 036e 02       		.uleb128 0x2
 3065 036f 91       		.byte	0x91
 3066 0370 74       		.sleb128 -12
 3067 0371 18       		.uleb128 0x18
 3068 0372 636F6C00 		.ascii	"col\000"
 3069 0376 01       		.byte	0x1
 3070 0377 DD02     		.2byte	0x2dd
 3071 0379 77000000 		.4byte	0x77
 3072 037d 02       		.uleb128 0x2
 3073 037e 91       		.byte	0x91
 3074 037f 70       		.sleb128 -16
 3075 0380 00       		.byte	0
 3076 0381 0B       		.uleb128 0xb
 3077 0382 3D010000 		.4byte	.LASF42
 3078 0386 01       		.byte	0x1
 3079 0387 FB02     		.2byte	0x2fb
 3080 0389 00000000 		.4byte	.LFB45
 3081 038d 4C000000 		.4byte	.LFE45-.LFB45
 3082 0391 01       		.uleb128 0x1
 3083 0392 9C       		.byte	0x9c
 3084 0393 A7030000 		.4byte	0x3a7
 3085 0397 0C       		.uleb128 0xc
 3086 0398 8C000000 		.4byte	.LASF30
 3087 039c 01       		.byte	0x1
 3088 039d FB02     		.2byte	0x2fb
 3089 039f 77000000 		.4byte	0x77
 3090 03a3 02       		.uleb128 0x2
 3091 03a4 91       		.byte	0x91
 3092 03a5 74       		.sleb128 -12
 3093 03a6 00       		.byte	0
 3094 03a7 0B       		.uleb128 0xb
 3095 03a8 C9040000 		.4byte	.LASF43
 3096 03ac 01       		.byte	0x1
 3097 03ad 1A03     		.2byte	0x31a
 3098 03af 00000000 		.4byte	.LFB46
 3099 03b3 58000000 		.4byte	.LFE46-.LFB46
 3100 03b7 01       		.uleb128 0x1
 3101 03b8 9C       		.byte	0x9c
 3102 03b9 E7030000 		.4byte	0x3e7
 3103 03bd 0F       		.uleb128 0xf
 3104 03be 7800     		.ascii	"x\000"
 3105 03c0 01       		.byte	0x1
 3106 03c1 1A03     		.2byte	0x31a
 3107 03c3 83000000 		.4byte	0x83
 3108 03c7 02       		.uleb128 0x2
 3109 03c8 91       		.byte	0x91
 3110 03c9 74       		.sleb128 -12
 3111 03ca 0F       		.uleb128 0xf
 3112 03cb 7900     		.ascii	"y\000"
 3113 03cd 01       		.byte	0x1
 3114 03ce 1A03     		.2byte	0x31a
 3115 03d0 83000000 		.4byte	0x83
 3116 03d4 02       		.uleb128 0x2
 3117 03d5 91       		.byte	0x91
 3118 03d6 70       		.sleb128 -16
 3119 03d7 0C       		.uleb128 0xc
ARM GAS  C:\Users\JAMESS~1\AppData\Local\Temp\ccgE8URB.s 			page 78


 3120 03d8 8C000000 		.4byte	.LASF30
 3121 03dc 01       		.byte	0x1
 3122 03dd 1A03     		.2byte	0x31a
 3123 03df 77000000 		.4byte	0x77
 3124 03e3 02       		.uleb128 0x2
 3125 03e4 91       		.byte	0x91
 3126 03e5 6C       		.sleb128 -20
 3127 03e6 00       		.byte	0
 3128 03e7 12       		.uleb128 0x12
 3129 03e8 14000000 		.4byte	.LASF44
 3130 03ec 01       		.byte	0x1
 3131 03ed 6103     		.2byte	0x361
 3132 03ef 77000000 		.4byte	0x77
 3133 03f3 00000000 		.4byte	.LFB47
 3134 03f7 5C000000 		.4byte	.LFE47-.LFB47
 3135 03fb 01       		.uleb128 0x1
 3136 03fc 9C       		.byte	0x9c
 3137 03fd 2B040000 		.4byte	0x42b
 3138 0401 0F       		.uleb128 0xf
 3139 0402 7800     		.ascii	"x\000"
 3140 0404 01       		.byte	0x1
 3141 0405 6103     		.2byte	0x361
 3142 0407 83000000 		.4byte	0x83
 3143 040b 02       		.uleb128 0x2
 3144 040c 91       		.byte	0x91
 3145 040d 6C       		.sleb128 -20
 3146 040e 0F       		.uleb128 0xf
 3147 040f 7900     		.ascii	"y\000"
 3148 0411 01       		.byte	0x1
 3149 0412 6103     		.2byte	0x361
 3150 0414 83000000 		.4byte	0x83
 3151 0418 02       		.uleb128 0x2
 3152 0419 91       		.byte	0x91
 3153 041a 68       		.sleb128 -24
 3154 041b 0E       		.uleb128 0xe
 3155 041c 8C000000 		.4byte	.LASF30
 3156 0420 01       		.byte	0x1
 3157 0421 6303     		.2byte	0x363
 3158 0423 77000000 		.4byte	0x77
 3159 0427 02       		.uleb128 0x2
 3160 0428 91       		.byte	0x91
 3161 0429 74       		.sleb128 -12
 3162 042a 00       		.byte	0
 3163 042b 0D       		.uleb128 0xd
 3164 042c D6020000 		.4byte	.LASF45
 3165 0430 01       		.byte	0x1
 3166 0431 9503     		.2byte	0x395
 3167 0433 00000000 		.4byte	.LFB48
 3168 0437 50010000 		.4byte	.LFE48-.LFB48
 3169 043b 01       		.uleb128 0x1
 3170 043c 9C       		.byte	0x9c
 3171 043d C1040000 		.4byte	0x4c1
 3172 0441 0F       		.uleb128 0xf
 3173 0442 783000   		.ascii	"x0\000"
 3174 0445 01       		.byte	0x1
 3175 0446 9503     		.2byte	0x395
 3176 0448 83000000 		.4byte	0x83
ARM GAS  C:\Users\JAMESS~1\AppData\Local\Temp\ccgE8URB.s 			page 79


 3177 044c 02       		.uleb128 0x2
 3178 044d 91       		.byte	0x91
 3179 044e 5C       		.sleb128 -36
 3180 044f 0F       		.uleb128 0xf
 3181 0450 793000   		.ascii	"y0\000"
 3182 0453 01       		.byte	0x1
 3183 0454 9503     		.2byte	0x395
 3184 0456 83000000 		.4byte	0x83
 3185 045a 02       		.uleb128 0x2
 3186 045b 91       		.byte	0x91
 3187 045c 58       		.sleb128 -40
 3188 045d 0C       		.uleb128 0xc
 3189 045e 0C050000 		.4byte	.LASF46
 3190 0462 01       		.byte	0x1
 3191 0463 9503     		.2byte	0x395
 3192 0465 83000000 		.4byte	0x83
 3193 0469 02       		.uleb128 0x2
 3194 046a 91       		.byte	0x91
 3195 046b 54       		.sleb128 -44
 3196 046c 0C       		.uleb128 0xc
 3197 046d 8C000000 		.4byte	.LASF30
 3198 0471 01       		.byte	0x1
 3199 0472 9503     		.2byte	0x395
 3200 0474 77000000 		.4byte	0x77
 3201 0478 02       		.uleb128 0x2
 3202 0479 91       		.byte	0x91
 3203 047a 50       		.sleb128 -48
 3204 047b 18       		.uleb128 0x18
 3205 047c 6600     		.ascii	"f\000"
 3206 047e 01       		.byte	0x1
 3207 047f 9703     		.2byte	0x397
 3208 0481 83000000 		.4byte	0x83
 3209 0485 02       		.uleb128 0x2
 3210 0486 91       		.byte	0x91
 3211 0487 74       		.sleb128 -12
 3212 0488 0E       		.uleb128 0xe
 3213 0489 52040000 		.4byte	.LASF47
 3214 048d 01       		.byte	0x1
 3215 048e 9803     		.2byte	0x398
 3216 0490 83000000 		.4byte	0x83
 3217 0494 02       		.uleb128 0x2
 3218 0495 91       		.byte	0x91
 3219 0496 70       		.sleb128 -16
 3220 0497 0E       		.uleb128 0xe
 3221 0498 E9010000 		.4byte	.LASF48
 3222 049c 01       		.byte	0x1
 3223 049d 9903     		.2byte	0x399
 3224 049f 83000000 		.4byte	0x83
 3225 04a3 02       		.uleb128 0x2
 3226 04a4 91       		.byte	0x91
 3227 04a5 6C       		.sleb128 -20
 3228 04a6 18       		.uleb128 0x18
 3229 04a7 7800     		.ascii	"x\000"
 3230 04a9 01       		.byte	0x1
 3231 04aa 9A03     		.2byte	0x39a
 3232 04ac 83000000 		.4byte	0x83
 3233 04b0 02       		.uleb128 0x2
ARM GAS  C:\Users\JAMESS~1\AppData\Local\Temp\ccgE8URB.s 			page 80


 3234 04b1 91       		.byte	0x91
 3235 04b2 68       		.sleb128 -24
 3236 04b3 18       		.uleb128 0x18
 3237 04b4 7900     		.ascii	"y\000"
 3238 04b6 01       		.byte	0x1
 3239 04b7 9B03     		.2byte	0x39b
 3240 04b9 83000000 		.4byte	0x83
 3241 04bd 02       		.uleb128 0x2
 3242 04be 91       		.byte	0x91
 3243 04bf 64       		.sleb128 -28
 3244 04c0 00       		.byte	0
 3245 04c1 0D       		.uleb128 0xd
 3246 04c2 9E020000 		.4byte	.LASF49
 3247 04c6 01       		.byte	0x1
 3248 04c7 CA03     		.2byte	0x3ca
 3249 04c9 00000000 		.4byte	.LFB49
 3250 04cd 04010000 		.4byte	.LFE49-.LFB49
 3251 04d1 01       		.uleb128 0x1
 3252 04d2 9C       		.byte	0x9c
 3253 04d3 8F050000 		.4byte	0x58f
 3254 04d7 0F       		.uleb128 0xf
 3255 04d8 783000   		.ascii	"x0\000"
 3256 04db 01       		.byte	0x1
 3257 04dc CA03     		.2byte	0x3ca
 3258 04de 83000000 		.4byte	0x83
 3259 04e2 02       		.uleb128 0x2
 3260 04e3 91       		.byte	0x91
 3261 04e4 5C       		.sleb128 -36
 3262 04e5 0F       		.uleb128 0xf
 3263 04e6 793000   		.ascii	"y0\000"
 3264 04e9 01       		.byte	0x1
 3265 04ea CA03     		.2byte	0x3ca
 3266 04ec 83000000 		.4byte	0x83
 3267 04f0 02       		.uleb128 0x2
 3268 04f1 91       		.byte	0x91
 3269 04f2 58       		.sleb128 -40
 3270 04f3 0F       		.uleb128 0xf
 3271 04f4 783100   		.ascii	"x1\000"
 3272 04f7 01       		.byte	0x1
 3273 04f8 CA03     		.2byte	0x3ca
 3274 04fa 83000000 		.4byte	0x83
 3275 04fe 02       		.uleb128 0x2
 3276 04ff 91       		.byte	0x91
 3277 0500 54       		.sleb128 -44
 3278 0501 0F       		.uleb128 0xf
 3279 0502 793100   		.ascii	"y1\000"
 3280 0505 01       		.byte	0x1
 3281 0506 CA03     		.2byte	0x3ca
 3282 0508 83000000 		.4byte	0x83
 3283 050c 02       		.uleb128 0x2
 3284 050d 91       		.byte	0x91
 3285 050e 50       		.sleb128 -48
 3286 050f 0C       		.uleb128 0xc
 3287 0510 8C000000 		.4byte	.LASF30
 3288 0514 01       		.byte	0x1
 3289 0515 CA03     		.2byte	0x3ca
 3290 0517 77000000 		.4byte	0x77
ARM GAS  C:\Users\JAMESS~1\AppData\Local\Temp\ccgE8URB.s 			page 81


 3291 051b 02       		.uleb128 0x2
 3292 051c 91       		.byte	0x91
 3293 051d 00       		.sleb128 0
 3294 051e 18       		.uleb128 0x18
 3295 051f 647900   		.ascii	"dy\000"
 3296 0522 01       		.byte	0x1
 3297 0523 CC03     		.2byte	0x3cc
 3298 0525 83000000 		.4byte	0x83
 3299 0529 02       		.uleb128 0x2
 3300 052a 91       		.byte	0x91
 3301 052b 74       		.sleb128 -12
 3302 052c 18       		.uleb128 0x18
 3303 052d 647800   		.ascii	"dx\000"
 3304 0530 01       		.byte	0x1
 3305 0531 CD03     		.2byte	0x3cd
 3306 0533 83000000 		.4byte	0x83
 3307 0537 02       		.uleb128 0x2
 3308 0538 91       		.byte	0x91
 3309 0539 70       		.sleb128 -16
 3310 053a 0E       		.uleb128 0xe
 3311 053b 90030000 		.4byte	.LASF50
 3312 053f 01       		.byte	0x1
 3313 0540 CE03     		.2byte	0x3ce
 3314 0542 83000000 		.4byte	0x83
 3315 0546 02       		.uleb128 0x2
 3316 0547 91       		.byte	0x91
 3317 0548 6C       		.sleb128 -20
 3318 0549 0E       		.uleb128 0xe
 3319 054a 96030000 		.4byte	.LASF51
 3320 054e 01       		.byte	0x1
 3321 054f CE03     		.2byte	0x3ce
 3322 0551 83000000 		.4byte	0x83
 3323 0555 02       		.uleb128 0x2
 3324 0556 91       		.byte	0x91
 3325 0557 68       		.sleb128 -24
 3326 0558 19       		.uleb128 0x19
 3327 0559 6E000000 		.4byte	.LBB2
 3328 055d 46000000 		.4byte	.LBE2-.LBB2
 3329 0561 75050000 		.4byte	0x575
 3330 0565 0E       		.uleb128 0xe
 3331 0566 87030000 		.4byte	.LASF52
 3332 056a 01       		.byte	0x1
 3333 056b EA03     		.2byte	0x3ea
 3334 056d 5D000000 		.4byte	0x5d
 3335 0571 02       		.uleb128 0x2
 3336 0572 91       		.byte	0x91
 3337 0573 64       		.sleb128 -28
 3338 0574 00       		.byte	0
 3339 0575 1A       		.uleb128 0x1a
 3340 0576 B6000000 		.4byte	.LBB3
 3341 057a 46000000 		.4byte	.LBE3-.LBB3
 3342 057e 0E       		.uleb128 0xe
 3343 057f 87030000 		.4byte	.LASF52
 3344 0583 01       		.byte	0x1
 3345 0584 F903     		.2byte	0x3f9
 3346 0586 5D000000 		.4byte	0x5d
 3347 058a 02       		.uleb128 0x2
ARM GAS  C:\Users\JAMESS~1\AppData\Local\Temp\ccgE8URB.s 			page 82


 3348 058b 91       		.byte	0x91
 3349 058c 60       		.sleb128 -32
 3350 058d 00       		.byte	0
 3351 058e 00       		.byte	0
 3352 058f 0D       		.uleb128 0xd
 3353 0590 92000000 		.4byte	.LASF53
 3354 0594 01       		.byte	0x1
 3355 0595 1904     		.2byte	0x419
 3356 0597 00000000 		.4byte	.LFB50
 3357 059b B6000000 		.4byte	.LFE50-.LFB50
 3358 059f 01       		.uleb128 0x1
 3359 05a0 9C       		.byte	0x9c
 3360 05a1 0B060000 		.4byte	0x60b
 3361 05a5 0F       		.uleb128 0xf
 3362 05a6 783000   		.ascii	"x0\000"
 3363 05a9 01       		.byte	0x1
 3364 05aa 1904     		.2byte	0x419
 3365 05ac 83000000 		.4byte	0x83
 3366 05b0 02       		.uleb128 0x2
 3367 05b1 91       		.byte	0x91
 3368 05b2 64       		.sleb128 -28
 3369 05b3 0F       		.uleb128 0xf
 3370 05b4 793000   		.ascii	"y0\000"
 3371 05b7 01       		.byte	0x1
 3372 05b8 1904     		.2byte	0x419
 3373 05ba 83000000 		.4byte	0x83
 3374 05be 02       		.uleb128 0x2
 3375 05bf 91       		.byte	0x91
 3376 05c0 60       		.sleb128 -32
 3377 05c1 0F       		.uleb128 0xf
 3378 05c2 783100   		.ascii	"x1\000"
 3379 05c5 01       		.byte	0x1
 3380 05c6 1904     		.2byte	0x419
 3381 05c8 83000000 		.4byte	0x83
 3382 05cc 02       		.uleb128 0x2
 3383 05cd 91       		.byte	0x91
 3384 05ce 5C       		.sleb128 -36
 3385 05cf 0F       		.uleb128 0xf
 3386 05d0 793100   		.ascii	"y1\000"
 3387 05d3 01       		.byte	0x1
 3388 05d4 1904     		.2byte	0x419
 3389 05d6 83000000 		.4byte	0x83
 3390 05da 02       		.uleb128 0x2
 3391 05db 91       		.byte	0x91
 3392 05dc 58       		.sleb128 -40
 3393 05dd 0C       		.uleb128 0xc
 3394 05de 13010000 		.4byte	.LASF54
 3395 05e2 01       		.byte	0x1
 3396 05e3 1904     		.2byte	0x419
 3397 05e5 83000000 		.4byte	0x83
 3398 05e9 02       		.uleb128 0x2
 3399 05ea 91       		.byte	0x91
 3400 05eb 00       		.sleb128 0
 3401 05ec 0C       		.uleb128 0xc
 3402 05ed 8C000000 		.4byte	.LASF30
 3403 05f1 01       		.byte	0x1
 3404 05f2 1904     		.2byte	0x419
ARM GAS  C:\Users\JAMESS~1\AppData\Local\Temp\ccgE8URB.s 			page 83


 3405 05f4 77000000 		.4byte	0x77
 3406 05f8 02       		.uleb128 0x2
 3407 05f9 91       		.byte	0x91
 3408 05fa 04       		.sleb128 4
 3409 05fb 0E       		.uleb128 0xe
 3410 05fc 35040000 		.4byte	.LASF55
 3411 0600 01       		.byte	0x1
 3412 0601 1B04     		.2byte	0x41b
 3413 0603 5D000000 		.4byte	0x5d
 3414 0607 02       		.uleb128 0x2
 3415 0608 91       		.byte	0x91
 3416 0609 6C       		.sleb128 -20
 3417 060a 00       		.byte	0
 3418 060b 0B       		.uleb128 0xb
 3419 060c 77030000 		.4byte	.LASF56
 3420 0610 01       		.byte	0x1
 3421 0611 4E04     		.2byte	0x44e
 3422 0613 00000000 		.4byte	.LFB51
 3423 0617 88000000 		.4byte	.LFE51-.LFB51
 3424 061b 01       		.uleb128 0x1
 3425 061c 9C       		.byte	0x9c
 3426 061d 49060000 		.4byte	0x649
 3427 0621 0C       		.uleb128 0xc
 3428 0622 3D030000 		.4byte	.LASF57
 3429 0626 01       		.byte	0x1
 3430 0627 4E04     		.2byte	0x44e
 3431 0629 77000000 		.4byte	0x77
 3432 062d 02       		.uleb128 0x2
 3433 062e 91       		.byte	0x91
 3434 062f 74       		.sleb128 -12
 3435 0630 14       		.uleb128 0x14
 3436 0631 29010000 		.4byte	.LASF37
 3437 0635 01       		.byte	0x1
 3438 0636 5004     		.2byte	0x450
 3439 0638 77000000 		.4byte	0x77
 3440 063c 14       		.uleb128 0x14
 3441 063d 29000000 		.4byte	.LASF38
 3442 0641 01       		.byte	0x1
 3443 0642 5104     		.2byte	0x451
 3444 0644 77000000 		.4byte	0x77
 3445 0648 00       		.byte	0
 3446 0649 0D       		.uleb128 0xd
 3447 064a 5E040000 		.4byte	.LASF58
 3448 064e 01       		.byte	0x1
 3449 064f 8104     		.2byte	0x481
 3450 0651 00000000 		.4byte	.LFB52
 3451 0655 94000000 		.4byte	.LFE52-.LFB52
 3452 0659 01       		.uleb128 0x1
 3453 065a 9C       		.byte	0x9c
 3454 065b E1060000 		.4byte	0x6e1
 3455 065f 0F       		.uleb128 0xf
 3456 0660 7800     		.ascii	"x\000"
 3457 0662 01       		.byte	0x1
 3458 0663 8104     		.2byte	0x481
 3459 0665 83000000 		.4byte	0x83
 3460 0669 02       		.uleb128 0x2
 3461 066a 91       		.byte	0x91
ARM GAS  C:\Users\JAMESS~1\AppData\Local\Temp\ccgE8URB.s 			page 84


 3462 066b 5C       		.sleb128 -36
 3463 066c 0F       		.uleb128 0xf
 3464 066d 7900     		.ascii	"y\000"
 3465 066f 01       		.byte	0x1
 3466 0670 8104     		.2byte	0x481
 3467 0672 83000000 		.4byte	0x83
 3468 0676 02       		.uleb128 0x2
 3469 0677 91       		.byte	0x91
 3470 0678 58       		.sleb128 -40
 3471 0679 0C       		.uleb128 0xc
 3472 067a 2B050000 		.4byte	.LASF59
 3473 067e 01       		.byte	0x1
 3474 067f 8104     		.2byte	0x481
 3475 0681 E1060000 		.4byte	0x6e1
 3476 0685 02       		.uleb128 0x2
 3477 0686 91       		.byte	0x91
 3478 0687 54       		.sleb128 -44
 3479 0688 0C       		.uleb128 0xc
 3480 0689 EF010000 		.4byte	.LASF60
 3481 068d 01       		.byte	0x1
 3482 068e 8104     		.2byte	0x481
 3483 0690 83000000 		.4byte	0x83
 3484 0694 02       		.uleb128 0x2
 3485 0695 91       		.byte	0x91
 3486 0696 50       		.sleb128 -48
 3487 0697 18       		.uleb128 0x18
 3488 0698 647800   		.ascii	"dx\000"
 3489 069b 01       		.byte	0x1
 3490 069c 8304     		.2byte	0x483
 3491 069e 83000000 		.4byte	0x83
 3492 06a2 02       		.uleb128 0x2
 3493 06a3 91       		.byte	0x91
 3494 06a4 74       		.sleb128 -12
 3495 06a5 18       		.uleb128 0x18
 3496 06a6 647900   		.ascii	"dy\000"
 3497 06a9 01       		.byte	0x1
 3498 06aa 8304     		.2byte	0x483
 3499 06ac 83000000 		.4byte	0x83
 3500 06b0 02       		.uleb128 0x2
 3501 06b1 91       		.byte	0x91
 3502 06b2 70       		.sleb128 -16
 3503 06b3 0E       		.uleb128 0xe
 3504 06b4 C2040000 		.4byte	.LASF61
 3505 06b8 01       		.byte	0x1
 3506 06b9 8404     		.2byte	0x484
 3507 06bb 83000000 		.4byte	0x83
 3508 06bf 02       		.uleb128 0x2
 3509 06c0 91       		.byte	0x91
 3510 06c1 6C       		.sleb128 -20
 3511 06c2 0E       		.uleb128 0xe
 3512 06c3 FF010000 		.4byte	.LASF62
 3513 06c7 01       		.byte	0x1
 3514 06c8 8504     		.2byte	0x485
 3515 06ca 83000000 		.4byte	0x83
 3516 06ce 02       		.uleb128 0x2
 3517 06cf 91       		.byte	0x91
 3518 06d0 68       		.sleb128 -24
ARM GAS  C:\Users\JAMESS~1\AppData\Local\Temp\ccgE8URB.s 			page 85


 3519 06d1 0E       		.uleb128 0xe
 3520 06d2 F8020000 		.4byte	.LASF63
 3521 06d6 01       		.byte	0x1
 3522 06d7 8504     		.2byte	0x485
 3523 06d9 83000000 		.4byte	0x83
 3524 06dd 02       		.uleb128 0x2
 3525 06de 91       		.byte	0x91
 3526 06df 64       		.sleb128 -28
 3527 06e0 00       		.byte	0
 3528 06e1 06       		.uleb128 0x6
 3529 06e2 04       		.byte	0x4
 3530 06e3 6B000000 		.4byte	0x6b
 3531 06e7 0D       		.uleb128 0xd
 3532 06e8 1C030000 		.4byte	.LASF64
 3533 06ec 01       		.byte	0x1
 3534 06ed A504     		.2byte	0x4a5
 3535 06ef 00000000 		.4byte	.LFB53
 3536 06f3 92000000 		.4byte	.LFE53-.LFB53
 3537 06f7 01       		.uleb128 0x1
 3538 06f8 9C       		.byte	0x9c
 3539 06f9 7F070000 		.4byte	0x77f
 3540 06fd 0F       		.uleb128 0xf
 3541 06fe 7800     		.ascii	"x\000"
 3542 0700 01       		.byte	0x1
 3543 0701 A504     		.2byte	0x4a5
 3544 0703 83000000 		.4byte	0x83
 3545 0707 02       		.uleb128 0x2
 3546 0708 91       		.byte	0x91
 3547 0709 5C       		.sleb128 -36
 3548 070a 0F       		.uleb128 0xf
 3549 070b 7900     		.ascii	"y\000"
 3550 070d 01       		.byte	0x1
 3551 070e A504     		.2byte	0x4a5
 3552 0710 83000000 		.4byte	0x83
 3553 0714 02       		.uleb128 0x2
 3554 0715 91       		.byte	0x91
 3555 0716 58       		.sleb128 -40
 3556 0717 0C       		.uleb128 0xc
 3557 0718 2B050000 		.4byte	.LASF59
 3558 071c 01       		.byte	0x1
 3559 071d A504     		.2byte	0x4a5
 3560 071f 7F070000 		.4byte	0x77f
 3561 0723 02       		.uleb128 0x2
 3562 0724 91       		.byte	0x91
 3563 0725 54       		.sleb128 -44
 3564 0726 0C       		.uleb128 0xc
 3565 0727 EF010000 		.4byte	.LASF60
 3566 072b 01       		.byte	0x1
 3567 072c A504     		.2byte	0x4a5
 3568 072e 83000000 		.4byte	0x83
 3569 0732 02       		.uleb128 0x2
 3570 0733 91       		.byte	0x91
 3571 0734 50       		.sleb128 -48
 3572 0735 18       		.uleb128 0x18
 3573 0736 647800   		.ascii	"dx\000"
 3574 0739 01       		.byte	0x1
 3575 073a A704     		.2byte	0x4a7
ARM GAS  C:\Users\JAMESS~1\AppData\Local\Temp\ccgE8URB.s 			page 86


 3576 073c 83000000 		.4byte	0x83
 3577 0740 02       		.uleb128 0x2
 3578 0741 91       		.byte	0x91
 3579 0742 74       		.sleb128 -12
 3580 0743 18       		.uleb128 0x18
 3581 0744 647900   		.ascii	"dy\000"
 3582 0747 01       		.byte	0x1
 3583 0748 A704     		.2byte	0x4a7
 3584 074a 83000000 		.4byte	0x83
 3585 074e 02       		.uleb128 0x2
 3586 074f 91       		.byte	0x91
 3587 0750 70       		.sleb128 -16
 3588 0751 0E       		.uleb128 0xe
 3589 0752 C2040000 		.4byte	.LASF61
 3590 0756 01       		.byte	0x1
 3591 0757 A804     		.2byte	0x4a8
 3592 0759 83000000 		.4byte	0x83
 3593 075d 02       		.uleb128 0x2
 3594 075e 91       		.byte	0x91
 3595 075f 6C       		.sleb128 -20
 3596 0760 0E       		.uleb128 0xe
 3597 0761 FF010000 		.4byte	.LASF62
 3598 0765 01       		.byte	0x1
 3599 0766 A904     		.2byte	0x4a9
 3600 0768 83000000 		.4byte	0x83
 3601 076c 02       		.uleb128 0x2
 3602 076d 91       		.byte	0x91
 3603 076e 68       		.sleb128 -24
 3604 076f 0E       		.uleb128 0xe
 3605 0770 F8020000 		.4byte	.LASF63
 3606 0774 01       		.byte	0x1
 3607 0775 A904     		.2byte	0x4a9
 3608 0777 83000000 		.4byte	0x83
 3609 077b 02       		.uleb128 0x2
 3610 077c 91       		.byte	0x91
 3611 077d 64       		.sleb128 -28
 3612 077e 00       		.byte	0
 3613 077f 06       		.uleb128 0x6
 3614 0780 04       		.byte	0x4
 3615 0781 77000000 		.4byte	0x77
 3616 0785 13       		.uleb128 0x13
 3617 0786 32050000 		.4byte	.LASF65
 3618 078a 01       		.byte	0x1
 3619 078b C604     		.2byte	0x4c6
 3620 078d 77000000 		.4byte	0x77
 3621 0791 00000000 		.4byte	.LFB54
 3622 0795 B6000000 		.4byte	.LFE54-.LFB54
 3623 0799 01       		.uleb128 0x1
 3624 079a 9C       		.byte	0x9c
 3625 079b DC070000 		.4byte	0x7dc
 3626 079f 0C       		.uleb128 0xc
 3627 07a0 A7010000 		.4byte	.LASF66
 3628 07a4 01       		.byte	0x1
 3629 07a5 C604     		.2byte	0x4c6
 3630 07a7 77000000 		.4byte	0x77
 3631 07ab 02       		.uleb128 0x2
 3632 07ac 91       		.byte	0x91
ARM GAS  C:\Users\JAMESS~1\AppData\Local\Temp\ccgE8URB.s 			page 87


 3633 07ad 6C       		.sleb128 -20
 3634 07ae 0C       		.uleb128 0xc
 3635 07af 14030000 		.4byte	.LASF67
 3636 07b3 01       		.byte	0x1
 3637 07b4 C604     		.2byte	0x4c6
 3638 07b6 77000000 		.4byte	0x77
 3639 07ba 02       		.uleb128 0x2
 3640 07bb 91       		.byte	0x91
 3641 07bc 68       		.sleb128 -24
 3642 07bd 0F       		.uleb128 0xf
 3643 07be 70637400 		.ascii	"pct\000"
 3644 07c2 01       		.byte	0x1
 3645 07c3 C604     		.2byte	0x4c6
 3646 07c5 77000000 		.4byte	0x77
 3647 07c9 02       		.uleb128 0x2
 3648 07ca 91       		.byte	0x91
 3649 07cb 64       		.sleb128 -28
 3650 07cc 0E       		.uleb128 0xe
 3651 07cd A4040000 		.4byte	.LASF68
 3652 07d1 01       		.byte	0x1
 3653 07d2 C804     		.2byte	0x4c8
 3654 07d4 77000000 		.4byte	0x77
 3655 07d8 02       		.uleb128 0x2
 3656 07d9 91       		.byte	0x91
 3657 07da 74       		.sleb128 -12
 3658 07db 00       		.byte	0
 3659 07dc 1B       		.uleb128 0x1b
 3660 07dd E3070000 		.4byte	0x7e3
 3661 07e1 1C       		.uleb128 0x1c
 3662 07e2 00       		.byte	0
 3663 07e3 1D       		.uleb128 0x1d
 3664 07e4 E7000000 		.4byte	.LASF69
 3665 07e8 01       		.byte	0x1
 3666 07e9 19       		.byte	0x19
 3667 07ea F4070000 		.4byte	0x7f4
 3668 07ee 05       		.uleb128 0x5
 3669 07ef 03       		.byte	0x3
 3670 07f0 00000000 		.4byte	StripLights_EnterCritical
 3671 07f4 06       		.uleb128 0x6
 3672 07f5 04       		.byte	0x4
 3673 07f6 DC070000 		.4byte	0x7dc
 3674 07fa 1D       		.uleb128 0x1d
 3675 07fb 15040000 		.4byte	.LASF70
 3676 07ff 01       		.byte	0x1
 3677 0800 1A       		.byte	0x1a
 3678 0801 F4070000 		.4byte	0x7f4
 3679 0805 05       		.uleb128 0x5
 3680 0806 03       		.byte	0x3
 3681 0807 00000000 		.4byte	StripLights_ExitCritical
 3682 080b 1D       		.uleb128 0x1d
 3683 080c 7F010000 		.4byte	.LASF19
 3684 0810 01       		.byte	0x1
 3685 0811 1D       		.byte	0x1d
 3686 0812 6B000000 		.4byte	0x6b
 3687 0816 05       		.uleb128 0x5
 3688 0817 03       		.byte	0x3
 3689 0818 00000000 		.4byte	StripLights_initvar
ARM GAS  C:\Users\JAMESS~1\AppData\Local\Temp\ccgE8URB.s 			page 88


 3690 081c 15       		.uleb128 0x15
 3691 081d 77000000 		.4byte	0x77
 3692 0821 32080000 		.4byte	0x832
 3693 0825 16       		.uleb128 0x16
 3694 0826 C3000000 		.4byte	0xc3
 3695 082a 00       		.byte	0
 3696 082b 16       		.uleb128 0x16
 3697 082c C3000000 		.4byte	0xc3
 3698 0830 1D       		.byte	0x1d
 3699 0831 00       		.byte	0
 3700 0832 1D       		.uleb128 0x1d
 3701 0833 CC000000 		.4byte	.LASF71
 3702 0837 01       		.byte	0x1
 3703 0838 20       		.byte	0x20
 3704 0839 1C080000 		.4byte	0x81c
 3705 083d 05       		.uleb128 0x5
 3706 083e 03       		.byte	0x3
 3707 083f 00000000 		.4byte	StripLights_ledArray
 3708 0843 1D       		.uleb128 0x1d
 3709 0844 62030000 		.4byte	.LASF72
 3710 0848 01       		.byte	0x1
 3711 0849 25       		.byte	0x25
 3712 084a 77000000 		.4byte	0x77
 3713 084e 05       		.uleb128 0x5
 3714 084f 03       		.byte	0x3
 3715 0850 00000000 		.4byte	StripLights_ledIndex
 3716 0854 1D       		.uleb128 0x1d
 3717 0855 13050000 		.4byte	.LASF73
 3718 0859 01       		.byte	0x1
 3719 085a 26       		.byte	0x26
 3720 085b 77000000 		.4byte	0x77
 3721 085f 05       		.uleb128 0x5
 3722 0860 03       		.byte	0x3
 3723 0861 00000000 		.4byte	StripLights_row
 3724 0865 1E       		.uleb128 0x1e
 3725 0866 46030000 		.4byte	.LASF20
 3726 086a 01       		.byte	0x1
 3727 086b 8B02     		.2byte	0x28b
 3728 086d 77000000 		.4byte	0x77
 3729 0871 05       		.uleb128 0x5
 3730 0872 03       		.byte	0x3
 3731 0873 00000000 		.4byte	StripLights_refreshComplete
 3732 0877 1E       		.uleb128 0x1e
 3733 0878 29010000 		.4byte	.LASF37
 3734 087c 01       		.byte	0x1
 3735 087d 5004     		.2byte	0x450
 3736 087f 77000000 		.4byte	0x77
 3737 0883 05       		.uleb128 0x5
 3738 0884 03       		.byte	0x3
 3739 0885 00000000 		.4byte	StripLights_DimMask
 3740 0889 1E       		.uleb128 0x1e
 3741 088a 29000000 		.4byte	.LASF38
 3742 088e 01       		.byte	0x1
 3743 088f 5104     		.2byte	0x451
 3744 0891 77000000 		.4byte	0x77
 3745 0895 05       		.uleb128 0x5
 3746 0896 03       		.byte	0x3
ARM GAS  C:\Users\JAMESS~1\AppData\Local\Temp\ccgE8URB.s 			page 89


 3747 0897 00000000 		.4byte	StripLights_DimShift
 3748 089b 15       		.uleb128 0x15
 3749 089c AB080000 		.4byte	0x8ab
 3750 08a0 AB080000 		.4byte	0x8ab
 3751 08a4 16       		.uleb128 0x16
 3752 08a5 C3000000 		.4byte	0xc3
 3753 08a9 FF       		.byte	0xff
 3754 08aa 00       		.byte	0
 3755 08ab 17       		.uleb128 0x17
 3756 08ac 6B000000 		.4byte	0x6b
 3757 08b0 1D       		.uleb128 0x1d
 3758 08b1 01010000 		.4byte	.LASF74
 3759 08b5 01       		.byte	0x1
 3760 08b6 2D       		.byte	0x2d
 3761 08b7 C1080000 		.4byte	0x8c1
 3762 08bb 05       		.uleb128 0x5
 3763 08bc 03       		.byte	0x3
 3764 08bd 00000000 		.4byte	StripLights_gamma
 3765 08c1 17       		.uleb128 0x17
 3766 08c2 9B080000 		.4byte	0x89b
 3767 08c6 1D       		.uleb128 0x1d
 3768 08c7 18010000 		.4byte	.LASF34
 3769 08cb 01       		.byte	0x1
 3770 08cc 57       		.byte	0x57
 3771 08cd D7080000 		.4byte	0x8d7
 3772 08d1 05       		.uleb128 0x5
 3773 08d2 03       		.byte	0x3
 3774 08d3 00000000 		.4byte	StripLights_CLUT
 3775 08d7 17       		.uleb128 0x17
 3776 08d8 6F020000 		.4byte	0x26f
 3777 08dc 00       		.byte	0
 3778              		.section	.debug_abbrev,"",%progbits
 3779              	.Ldebug_abbrev0:
 3780 0000 01       		.uleb128 0x1
 3781 0001 11       		.uleb128 0x11
 3782 0002 01       		.byte	0x1
 3783 0003 25       		.uleb128 0x25
 3784 0004 0E       		.uleb128 0xe
 3785 0005 13       		.uleb128 0x13
 3786 0006 0B       		.uleb128 0xb
 3787 0007 03       		.uleb128 0x3
 3788 0008 0E       		.uleb128 0xe
 3789 0009 1B       		.uleb128 0x1b
 3790 000a 0E       		.uleb128 0xe
 3791 000b 55       		.uleb128 0x55
 3792 000c 17       		.uleb128 0x17
 3793 000d 11       		.uleb128 0x11
 3794 000e 01       		.uleb128 0x1
 3795 000f 10       		.uleb128 0x10
 3796 0010 17       		.uleb128 0x17
 3797 0011 00       		.byte	0
 3798 0012 00       		.byte	0
 3799 0013 02       		.uleb128 0x2
 3800 0014 24       		.uleb128 0x24
 3801 0015 00       		.byte	0
 3802 0016 0B       		.uleb128 0xb
 3803 0017 0B       		.uleb128 0xb
ARM GAS  C:\Users\JAMESS~1\AppData\Local\Temp\ccgE8URB.s 			page 90


 3804 0018 3E       		.uleb128 0x3e
 3805 0019 0B       		.uleb128 0xb
 3806 001a 03       		.uleb128 0x3
 3807 001b 0E       		.uleb128 0xe
 3808 001c 00       		.byte	0
 3809 001d 00       		.byte	0
 3810 001e 03       		.uleb128 0x3
 3811 001f 24       		.uleb128 0x24
 3812 0020 00       		.byte	0
 3813 0021 0B       		.uleb128 0xb
 3814 0022 0B       		.uleb128 0xb
 3815 0023 3E       		.uleb128 0x3e
 3816 0024 0B       		.uleb128 0xb
 3817 0025 03       		.uleb128 0x3
 3818 0026 08       		.uleb128 0x8
 3819 0027 00       		.byte	0
 3820 0028 00       		.byte	0
 3821 0029 04       		.uleb128 0x4
 3822 002a 16       		.uleb128 0x16
 3823 002b 00       		.byte	0
 3824 002c 03       		.uleb128 0x3
 3825 002d 0E       		.uleb128 0xe
 3826 002e 3A       		.uleb128 0x3a
 3827 002f 0B       		.uleb128 0xb
 3828 0030 3B       		.uleb128 0x3b
 3829 0031 05       		.uleb128 0x5
 3830 0032 49       		.uleb128 0x49
 3831 0033 13       		.uleb128 0x13
 3832 0034 00       		.byte	0
 3833 0035 00       		.byte	0
 3834 0036 05       		.uleb128 0x5
 3835 0037 35       		.uleb128 0x35
 3836 0038 00       		.byte	0
 3837 0039 49       		.uleb128 0x49
 3838 003a 13       		.uleb128 0x13
 3839 003b 00       		.byte	0
 3840 003c 00       		.byte	0
 3841 003d 06       		.uleb128 0x6
 3842 003e 0F       		.uleb128 0xf
 3843 003f 00       		.byte	0
 3844 0040 0B       		.uleb128 0xb
 3845 0041 0B       		.uleb128 0xb
 3846 0042 49       		.uleb128 0x49
 3847 0043 13       		.uleb128 0x13
 3848 0044 00       		.byte	0
 3849 0045 00       		.byte	0
 3850 0046 07       		.uleb128 0x7
 3851 0047 15       		.uleb128 0x15
 3852 0048 00       		.byte	0
 3853 0049 27       		.uleb128 0x27
 3854 004a 19       		.uleb128 0x19
 3855 004b 00       		.byte	0
 3856 004c 00       		.byte	0
 3857 004d 08       		.uleb128 0x8
 3858 004e 16       		.uleb128 0x16
 3859 004f 00       		.byte	0
 3860 0050 03       		.uleb128 0x3
ARM GAS  C:\Users\JAMESS~1\AppData\Local\Temp\ccgE8URB.s 			page 91


 3861 0051 0E       		.uleb128 0xe
 3862 0052 3A       		.uleb128 0x3a
 3863 0053 0B       		.uleb128 0xb
 3864 0054 3B       		.uleb128 0x3b
 3865 0055 0B       		.uleb128 0xb
 3866 0056 49       		.uleb128 0x49
 3867 0057 13       		.uleb128 0x13
 3868 0058 00       		.byte	0
 3869 0059 00       		.byte	0
 3870 005a 09       		.uleb128 0x9
 3871 005b 2E       		.uleb128 0x2e
 3872 005c 01       		.byte	0x1
 3873 005d 3F       		.uleb128 0x3f
 3874 005e 19       		.uleb128 0x19
 3875 005f 03       		.uleb128 0x3
 3876 0060 0E       		.uleb128 0xe
 3877 0061 3A       		.uleb128 0x3a
 3878 0062 0B       		.uleb128 0xb
 3879 0063 3B       		.uleb128 0x3b
 3880 0064 0B       		.uleb128 0xb
 3881 0065 27       		.uleb128 0x27
 3882 0066 19       		.uleb128 0x19
 3883 0067 11       		.uleb128 0x11
 3884 0068 01       		.uleb128 0x1
 3885 0069 12       		.uleb128 0x12
 3886 006a 06       		.uleb128 0x6
 3887 006b 40       		.uleb128 0x40
 3888 006c 18       		.uleb128 0x18
 3889 006d 9642     		.uleb128 0x2116
 3890 006f 19       		.uleb128 0x19
 3891 0070 01       		.uleb128 0x1
 3892 0071 13       		.uleb128 0x13
 3893 0072 00       		.byte	0
 3894 0073 00       		.byte	0
 3895 0074 0A       		.uleb128 0xa
 3896 0075 34       		.uleb128 0x34
 3897 0076 00       		.byte	0
 3898 0077 03       		.uleb128 0x3
 3899 0078 0E       		.uleb128 0xe
 3900 0079 3A       		.uleb128 0x3a
 3901 007a 0B       		.uleb128 0xb
 3902 007b 3B       		.uleb128 0x3b
 3903 007c 0B       		.uleb128 0xb
 3904 007d 49       		.uleb128 0x49
 3905 007e 13       		.uleb128 0x13
 3906 007f 3F       		.uleb128 0x3f
 3907 0080 19       		.uleb128 0x19
 3908 0081 3C       		.uleb128 0x3c
 3909 0082 19       		.uleb128 0x19
 3910 0083 00       		.byte	0
 3911 0084 00       		.byte	0
 3912 0085 0B       		.uleb128 0xb
 3913 0086 2E       		.uleb128 0x2e
 3914 0087 01       		.byte	0x1
 3915 0088 3F       		.uleb128 0x3f
 3916 0089 19       		.uleb128 0x19
 3917 008a 03       		.uleb128 0x3
ARM GAS  C:\Users\JAMESS~1\AppData\Local\Temp\ccgE8URB.s 			page 92


 3918 008b 0E       		.uleb128 0xe
 3919 008c 3A       		.uleb128 0x3a
 3920 008d 0B       		.uleb128 0xb
 3921 008e 3B       		.uleb128 0x3b
 3922 008f 05       		.uleb128 0x5
 3923 0090 27       		.uleb128 0x27
 3924 0091 19       		.uleb128 0x19
 3925 0092 11       		.uleb128 0x11
 3926 0093 01       		.uleb128 0x1
 3927 0094 12       		.uleb128 0x12
 3928 0095 06       		.uleb128 0x6
 3929 0096 40       		.uleb128 0x40
 3930 0097 18       		.uleb128 0x18
 3931 0098 9742     		.uleb128 0x2117
 3932 009a 19       		.uleb128 0x19
 3933 009b 01       		.uleb128 0x1
 3934 009c 13       		.uleb128 0x13
 3935 009d 00       		.byte	0
 3936 009e 00       		.byte	0
 3937 009f 0C       		.uleb128 0xc
 3938 00a0 05       		.uleb128 0x5
 3939 00a1 00       		.byte	0
 3940 00a2 03       		.uleb128 0x3
 3941 00a3 0E       		.uleb128 0xe
 3942 00a4 3A       		.uleb128 0x3a
 3943 00a5 0B       		.uleb128 0xb
 3944 00a6 3B       		.uleb128 0x3b
 3945 00a7 05       		.uleb128 0x5
 3946 00a8 49       		.uleb128 0x49
 3947 00a9 13       		.uleb128 0x13
 3948 00aa 02       		.uleb128 0x2
 3949 00ab 18       		.uleb128 0x18
 3950 00ac 00       		.byte	0
 3951 00ad 00       		.byte	0
 3952 00ae 0D       		.uleb128 0xd
 3953 00af 2E       		.uleb128 0x2e
 3954 00b0 01       		.byte	0x1
 3955 00b1 3F       		.uleb128 0x3f
 3956 00b2 19       		.uleb128 0x19
 3957 00b3 03       		.uleb128 0x3
 3958 00b4 0E       		.uleb128 0xe
 3959 00b5 3A       		.uleb128 0x3a
 3960 00b6 0B       		.uleb128 0xb
 3961 00b7 3B       		.uleb128 0x3b
 3962 00b8 05       		.uleb128 0x5
 3963 00b9 27       		.uleb128 0x27
 3964 00ba 19       		.uleb128 0x19
 3965 00bb 11       		.uleb128 0x11
 3966 00bc 01       		.uleb128 0x1
 3967 00bd 12       		.uleb128 0x12
 3968 00be 06       		.uleb128 0x6
 3969 00bf 40       		.uleb128 0x40
 3970 00c0 18       		.uleb128 0x18
 3971 00c1 9642     		.uleb128 0x2116
 3972 00c3 19       		.uleb128 0x19
 3973 00c4 01       		.uleb128 0x1
 3974 00c5 13       		.uleb128 0x13
ARM GAS  C:\Users\JAMESS~1\AppData\Local\Temp\ccgE8URB.s 			page 93


 3975 00c6 00       		.byte	0
 3976 00c7 00       		.byte	0
 3977 00c8 0E       		.uleb128 0xe
 3978 00c9 34       		.uleb128 0x34
 3979 00ca 00       		.byte	0
 3980 00cb 03       		.uleb128 0x3
 3981 00cc 0E       		.uleb128 0xe
 3982 00cd 3A       		.uleb128 0x3a
 3983 00ce 0B       		.uleb128 0xb
 3984 00cf 3B       		.uleb128 0x3b
 3985 00d0 05       		.uleb128 0x5
 3986 00d1 49       		.uleb128 0x49
 3987 00d2 13       		.uleb128 0x13
 3988 00d3 02       		.uleb128 0x2
 3989 00d4 18       		.uleb128 0x18
 3990 00d5 00       		.byte	0
 3991 00d6 00       		.byte	0
 3992 00d7 0F       		.uleb128 0xf
 3993 00d8 05       		.uleb128 0x5
 3994 00d9 00       		.byte	0
 3995 00da 03       		.uleb128 0x3
 3996 00db 08       		.uleb128 0x8
 3997 00dc 3A       		.uleb128 0x3a
 3998 00dd 0B       		.uleb128 0xb
 3999 00de 3B       		.uleb128 0x3b
 4000 00df 05       		.uleb128 0x5
 4001 00e0 49       		.uleb128 0x49
 4002 00e1 13       		.uleb128 0x13
 4003 00e2 02       		.uleb128 0x2
 4004 00e3 18       		.uleb128 0x18
 4005 00e4 00       		.byte	0
 4006 00e5 00       		.byte	0
 4007 00e6 10       		.uleb128 0x10
 4008 00e7 2E       		.uleb128 0x2e
 4009 00e8 00       		.byte	0
 4010 00e9 3F       		.uleb128 0x3f
 4011 00ea 19       		.uleb128 0x19
 4012 00eb 03       		.uleb128 0x3
 4013 00ec 0E       		.uleb128 0xe
 4014 00ed 3A       		.uleb128 0x3a
 4015 00ee 0B       		.uleb128 0xb
 4016 00ef 3B       		.uleb128 0x3b
 4017 00f0 05       		.uleb128 0x5
 4018 00f1 27       		.uleb128 0x27
 4019 00f2 19       		.uleb128 0x19
 4020 00f3 49       		.uleb128 0x49
 4021 00f4 13       		.uleb128 0x13
 4022 00f5 11       		.uleb128 0x11
 4023 00f6 01       		.uleb128 0x1
 4024 00f7 12       		.uleb128 0x12
 4025 00f8 06       		.uleb128 0x6
 4026 00f9 40       		.uleb128 0x40
 4027 00fa 18       		.uleb128 0x18
 4028 00fb 9742     		.uleb128 0x2117
 4029 00fd 19       		.uleb128 0x19
 4030 00fe 00       		.byte	0
 4031 00ff 00       		.byte	0
ARM GAS  C:\Users\JAMESS~1\AppData\Local\Temp\ccgE8URB.s 			page 94


 4032 0100 11       		.uleb128 0x11
 4033 0101 2E       		.uleb128 0x2e
 4034 0102 00       		.byte	0
 4035 0103 3F       		.uleb128 0x3f
 4036 0104 19       		.uleb128 0x19
 4037 0105 03       		.uleb128 0x3
 4038 0106 0E       		.uleb128 0xe
 4039 0107 3A       		.uleb128 0x3a
 4040 0108 0B       		.uleb128 0xb
 4041 0109 3B       		.uleb128 0x3b
 4042 010a 05       		.uleb128 0x5
 4043 010b 27       		.uleb128 0x27
 4044 010c 19       		.uleb128 0x19
 4045 010d 11       		.uleb128 0x11
 4046 010e 01       		.uleb128 0x1
 4047 010f 12       		.uleb128 0x12
 4048 0110 06       		.uleb128 0x6
 4049 0111 40       		.uleb128 0x40
 4050 0112 18       		.uleb128 0x18
 4051 0113 9742     		.uleb128 0x2117
 4052 0115 19       		.uleb128 0x19
 4053 0116 00       		.byte	0
 4054 0117 00       		.byte	0
 4055 0118 12       		.uleb128 0x12
 4056 0119 2E       		.uleb128 0x2e
 4057 011a 01       		.byte	0x1
 4058 011b 3F       		.uleb128 0x3f
 4059 011c 19       		.uleb128 0x19
 4060 011d 03       		.uleb128 0x3
 4061 011e 0E       		.uleb128 0xe
 4062 011f 3A       		.uleb128 0x3a
 4063 0120 0B       		.uleb128 0xb
 4064 0121 3B       		.uleb128 0x3b
 4065 0122 05       		.uleb128 0x5
 4066 0123 27       		.uleb128 0x27
 4067 0124 19       		.uleb128 0x19
 4068 0125 49       		.uleb128 0x49
 4069 0126 13       		.uleb128 0x13
 4070 0127 11       		.uleb128 0x11
 4071 0128 01       		.uleb128 0x1
 4072 0129 12       		.uleb128 0x12
 4073 012a 06       		.uleb128 0x6
 4074 012b 40       		.uleb128 0x40
 4075 012c 18       		.uleb128 0x18
 4076 012d 9742     		.uleb128 0x2117
 4077 012f 19       		.uleb128 0x19
 4078 0130 01       		.uleb128 0x1
 4079 0131 13       		.uleb128 0x13
 4080 0132 00       		.byte	0
 4081 0133 00       		.byte	0
 4082 0134 13       		.uleb128 0x13
 4083 0135 2E       		.uleb128 0x2e
 4084 0136 01       		.byte	0x1
 4085 0137 3F       		.uleb128 0x3f
 4086 0138 19       		.uleb128 0x19
 4087 0139 03       		.uleb128 0x3
 4088 013a 0E       		.uleb128 0xe
ARM GAS  C:\Users\JAMESS~1\AppData\Local\Temp\ccgE8URB.s 			page 95


 4089 013b 3A       		.uleb128 0x3a
 4090 013c 0B       		.uleb128 0xb
 4091 013d 3B       		.uleb128 0x3b
 4092 013e 05       		.uleb128 0x5
 4093 013f 27       		.uleb128 0x27
 4094 0140 19       		.uleb128 0x19
 4095 0141 49       		.uleb128 0x49
 4096 0142 13       		.uleb128 0x13
 4097 0143 11       		.uleb128 0x11
 4098 0144 01       		.uleb128 0x1
 4099 0145 12       		.uleb128 0x12
 4100 0146 06       		.uleb128 0x6
 4101 0147 40       		.uleb128 0x40
 4102 0148 18       		.uleb128 0x18
 4103 0149 9642     		.uleb128 0x2116
 4104 014b 19       		.uleb128 0x19
 4105 014c 01       		.uleb128 0x1
 4106 014d 13       		.uleb128 0x13
 4107 014e 00       		.byte	0
 4108 014f 00       		.byte	0
 4109 0150 14       		.uleb128 0x14
 4110 0151 34       		.uleb128 0x34
 4111 0152 00       		.byte	0
 4112 0153 03       		.uleb128 0x3
 4113 0154 0E       		.uleb128 0xe
 4114 0155 3A       		.uleb128 0x3a
 4115 0156 0B       		.uleb128 0xb
 4116 0157 3B       		.uleb128 0x3b
 4117 0158 05       		.uleb128 0x5
 4118 0159 49       		.uleb128 0x49
 4119 015a 13       		.uleb128 0x13
 4120 015b 3F       		.uleb128 0x3f
 4121 015c 19       		.uleb128 0x19
 4122 015d 3C       		.uleb128 0x3c
 4123 015e 19       		.uleb128 0x19
 4124 015f 00       		.byte	0
 4125 0160 00       		.byte	0
 4126 0161 15       		.uleb128 0x15
 4127 0162 01       		.uleb128 0x1
 4128 0163 01       		.byte	0x1
 4129 0164 49       		.uleb128 0x49
 4130 0165 13       		.uleb128 0x13
 4131 0166 01       		.uleb128 0x1
 4132 0167 13       		.uleb128 0x13
 4133 0168 00       		.byte	0
 4134 0169 00       		.byte	0
 4135 016a 16       		.uleb128 0x16
 4136 016b 21       		.uleb128 0x21
 4137 016c 00       		.byte	0
 4138 016d 49       		.uleb128 0x49
 4139 016e 13       		.uleb128 0x13
 4140 016f 2F       		.uleb128 0x2f
 4141 0170 0B       		.uleb128 0xb
 4142 0171 00       		.byte	0
 4143 0172 00       		.byte	0
 4144 0173 17       		.uleb128 0x17
 4145 0174 26       		.uleb128 0x26
ARM GAS  C:\Users\JAMESS~1\AppData\Local\Temp\ccgE8URB.s 			page 96


 4146 0175 00       		.byte	0
 4147 0176 49       		.uleb128 0x49
 4148 0177 13       		.uleb128 0x13
 4149 0178 00       		.byte	0
 4150 0179 00       		.byte	0
 4151 017a 18       		.uleb128 0x18
 4152 017b 34       		.uleb128 0x34
 4153 017c 00       		.byte	0
 4154 017d 03       		.uleb128 0x3
 4155 017e 08       		.uleb128 0x8
 4156 017f 3A       		.uleb128 0x3a
 4157 0180 0B       		.uleb128 0xb
 4158 0181 3B       		.uleb128 0x3b
 4159 0182 05       		.uleb128 0x5
 4160 0183 49       		.uleb128 0x49
 4161 0184 13       		.uleb128 0x13
 4162 0185 02       		.uleb128 0x2
 4163 0186 18       		.uleb128 0x18
 4164 0187 00       		.byte	0
 4165 0188 00       		.byte	0
 4166 0189 19       		.uleb128 0x19
 4167 018a 0B       		.uleb128 0xb
 4168 018b 01       		.byte	0x1
 4169 018c 11       		.uleb128 0x11
 4170 018d 01       		.uleb128 0x1
 4171 018e 12       		.uleb128 0x12
 4172 018f 06       		.uleb128 0x6
 4173 0190 01       		.uleb128 0x1
 4174 0191 13       		.uleb128 0x13
 4175 0192 00       		.byte	0
 4176 0193 00       		.byte	0
 4177 0194 1A       		.uleb128 0x1a
 4178 0195 0B       		.uleb128 0xb
 4179 0196 01       		.byte	0x1
 4180 0197 11       		.uleb128 0x11
 4181 0198 01       		.uleb128 0x1
 4182 0199 12       		.uleb128 0x12
 4183 019a 06       		.uleb128 0x6
 4184 019b 00       		.byte	0
 4185 019c 00       		.byte	0
 4186 019d 1B       		.uleb128 0x1b
 4187 019e 15       		.uleb128 0x15
 4188 019f 01       		.byte	0x1
 4189 01a0 01       		.uleb128 0x1
 4190 01a1 13       		.uleb128 0x13
 4191 01a2 00       		.byte	0
 4192 01a3 00       		.byte	0
 4193 01a4 1C       		.uleb128 0x1c
 4194 01a5 18       		.uleb128 0x18
 4195 01a6 00       		.byte	0
 4196 01a7 00       		.byte	0
 4197 01a8 00       		.byte	0
 4198 01a9 1D       		.uleb128 0x1d
 4199 01aa 34       		.uleb128 0x34
 4200 01ab 00       		.byte	0
 4201 01ac 03       		.uleb128 0x3
 4202 01ad 0E       		.uleb128 0xe
ARM GAS  C:\Users\JAMESS~1\AppData\Local\Temp\ccgE8URB.s 			page 97


 4203 01ae 3A       		.uleb128 0x3a
 4204 01af 0B       		.uleb128 0xb
 4205 01b0 3B       		.uleb128 0x3b
 4206 01b1 0B       		.uleb128 0xb
 4207 01b2 49       		.uleb128 0x49
 4208 01b3 13       		.uleb128 0x13
 4209 01b4 3F       		.uleb128 0x3f
 4210 01b5 19       		.uleb128 0x19
 4211 01b6 02       		.uleb128 0x2
 4212 01b7 18       		.uleb128 0x18
 4213 01b8 00       		.byte	0
 4214 01b9 00       		.byte	0
 4215 01ba 1E       		.uleb128 0x1e
 4216 01bb 34       		.uleb128 0x34
 4217 01bc 00       		.byte	0
 4218 01bd 03       		.uleb128 0x3
 4219 01be 0E       		.uleb128 0xe
 4220 01bf 3A       		.uleb128 0x3a
 4221 01c0 0B       		.uleb128 0xb
 4222 01c1 3B       		.uleb128 0x3b
 4223 01c2 05       		.uleb128 0x5
 4224 01c3 49       		.uleb128 0x49
 4225 01c4 13       		.uleb128 0x13
 4226 01c5 3F       		.uleb128 0x3f
 4227 01c6 19       		.uleb128 0x19
 4228 01c7 02       		.uleb128 0x2
 4229 01c8 18       		.uleb128 0x18
 4230 01c9 00       		.byte	0
 4231 01ca 00       		.byte	0
 4232 01cb 00       		.byte	0
 4233              		.section	.debug_aranges,"",%progbits
 4234 0000 CC000000 		.4byte	0xcc
 4235 0004 0200     		.2byte	0x2
 4236 0006 00000000 		.4byte	.Ldebug_info0
 4237 000a 04       		.byte	0x4
 4238 000b 00       		.byte	0
 4239 000c 0000     		.2byte	0
 4240 000e 0000     		.2byte	0
 4241 0010 00000000 		.4byte	.LFB32
 4242 0014 9C000000 		.4byte	.LFE32-.LFB32
 4243 0018 00000000 		.4byte	.LFB33
 4244 001c 28000000 		.4byte	.LFE33-.LFB33
 4245 0020 00000000 		.4byte	.LFB34
 4246 0024 84000000 		.4byte	.LFE34-.LFB34
 4247 0028 00000000 		.4byte	.LFB35
 4248 002c 48000000 		.4byte	.LFE35-.LFB35
 4249 0030 00000000 		.4byte	.LFB36
 4250 0034 B4000000 		.4byte	.LFE36-.LFB36
 4251 0038 00000000 		.4byte	.LFB37
 4252 003c 28000000 		.4byte	.LFE37-.LFB37
 4253 0040 00000000 		.4byte	.LFB38
 4254 0044 14000000 		.4byte	.LFE38-.LFB38
 4255 0048 00000000 		.4byte	.LFB39
 4256 004c 20000000 		.4byte	.LFE39-.LFB39
 4257 0050 00000000 		.4byte	.LFB40
 4258 0054 48000000 		.4byte	.LFE40-.LFB40
 4259 0058 00000000 		.4byte	.LFB41
ARM GAS  C:\Users\JAMESS~1\AppData\Local\Temp\ccgE8URB.s 			page 98


 4260 005c BC000000 		.4byte	.LFE41-.LFB41
 4261 0060 00000000 		.4byte	.LFB42
 4262 0064 D8000000 		.4byte	.LFE42-.LFB42
 4263 0068 00000000 		.4byte	.LFB43
 4264 006c 1E000000 		.4byte	.LFE43-.LFB43
 4265 0070 00000000 		.4byte	.LFB44
 4266 0074 50000000 		.4byte	.LFE44-.LFB44
 4267 0078 00000000 		.4byte	.LFB45
 4268 007c 4C000000 		.4byte	.LFE45-.LFB45
 4269 0080 00000000 		.4byte	.LFB46
 4270 0084 58000000 		.4byte	.LFE46-.LFB46
 4271 0088 00000000 		.4byte	.LFB47
 4272 008c 5C000000 		.4byte	.LFE47-.LFB47
 4273 0090 00000000 		.4byte	.LFB48
 4274 0094 50010000 		.4byte	.LFE48-.LFB48
 4275 0098 00000000 		.4byte	.LFB49
 4276 009c 04010000 		.4byte	.LFE49-.LFB49
 4277 00a0 00000000 		.4byte	.LFB50
 4278 00a4 B6000000 		.4byte	.LFE50-.LFB50
 4279 00a8 00000000 		.4byte	.LFB51
 4280 00ac 88000000 		.4byte	.LFE51-.LFB51
 4281 00b0 00000000 		.4byte	.LFB52
 4282 00b4 94000000 		.4byte	.LFE52-.LFB52
 4283 00b8 00000000 		.4byte	.LFB53
 4284 00bc 92000000 		.4byte	.LFE53-.LFB53
 4285 00c0 00000000 		.4byte	.LFB54
 4286 00c4 B6000000 		.4byte	.LFE54-.LFB54
 4287 00c8 00000000 		.4byte	0
 4288 00cc 00000000 		.4byte	0
 4289              		.section	.debug_ranges,"",%progbits
 4290              	.Ldebug_ranges0:
 4291 0000 00000000 		.4byte	.LFB32
 4292 0004 9C000000 		.4byte	.LFE32
 4293 0008 00000000 		.4byte	.LFB33
 4294 000c 28000000 		.4byte	.LFE33
 4295 0010 00000000 		.4byte	.LFB34
 4296 0014 84000000 		.4byte	.LFE34
 4297 0018 00000000 		.4byte	.LFB35
 4298 001c 48000000 		.4byte	.LFE35
 4299 0020 00000000 		.4byte	.LFB36
 4300 0024 B4000000 		.4byte	.LFE36
 4301 0028 00000000 		.4byte	.LFB37
 4302 002c 28000000 		.4byte	.LFE37
 4303 0030 00000000 		.4byte	.LFB38
 4304 0034 14000000 		.4byte	.LFE38
 4305 0038 00000000 		.4byte	.LFB39
 4306 003c 20000000 		.4byte	.LFE39
 4307 0040 00000000 		.4byte	.LFB40
 4308 0044 48000000 		.4byte	.LFE40
 4309 0048 00000000 		.4byte	.LFB41
 4310 004c BC000000 		.4byte	.LFE41
 4311 0050 00000000 		.4byte	.LFB42
 4312 0054 D8000000 		.4byte	.LFE42
 4313 0058 00000000 		.4byte	.LFB43
 4314 005c 1E000000 		.4byte	.LFE43
 4315 0060 00000000 		.4byte	.LFB44
 4316 0064 50000000 		.4byte	.LFE44
ARM GAS  C:\Users\JAMESS~1\AppData\Local\Temp\ccgE8URB.s 			page 99


 4317 0068 00000000 		.4byte	.LFB45
 4318 006c 4C000000 		.4byte	.LFE45
 4319 0070 00000000 		.4byte	.LFB46
 4320 0074 58000000 		.4byte	.LFE46
 4321 0078 00000000 		.4byte	.LFB47
 4322 007c 5C000000 		.4byte	.LFE47
 4323 0080 00000000 		.4byte	.LFB48
 4324 0084 50010000 		.4byte	.LFE48
 4325 0088 00000000 		.4byte	.LFB49
 4326 008c 04010000 		.4byte	.LFE49
 4327 0090 00000000 		.4byte	.LFB50
 4328 0094 B6000000 		.4byte	.LFE50
 4329 0098 00000000 		.4byte	.LFB51
 4330 009c 88000000 		.4byte	.LFE51
 4331 00a0 00000000 		.4byte	.LFB52
 4332 00a4 94000000 		.4byte	.LFE52
 4333 00a8 00000000 		.4byte	.LFB53
 4334 00ac 92000000 		.4byte	.LFE53
 4335 00b0 00000000 		.4byte	.LFB54
 4336 00b4 B6000000 		.4byte	.LFE54
 4337 00b8 00000000 		.4byte	0
 4338 00bc 00000000 		.4byte	0
 4339              		.section	.debug_line,"",%progbits
 4340              	.Ldebug_line0:
 4341 0000 79030000 		.section	.debug_str,"MS",%progbits,1
 4341      02005900 
 4341      00000201 
 4341      FB0E0D00 
 4341      01010101 
 4342              	.LASF24:
 4343 0000 45784372 		.ascii	"ExCriticalFunc\000"
 4343      69746963 
 4343      616C4675 
 4343      6E6300
 4344              	.LASF14:
 4345 000f 63686172 		.ascii	"char\000"
 4345      00
 4346              	.LASF44:
 4347 0014 53747269 		.ascii	"StripLights_GetPixel\000"
 4347      704C6967 
 4347      6874735F 
 4347      47657450 
 4347      6978656C 
 4348              	.LASF38:
 4349 0029 53747269 		.ascii	"StripLights_DimShift\000"
 4349      704C6967 
 4349      6874735F 
 4349      44696D53 
 4349      68696674 
 4350              	.LASF2:
 4351 003e 73686F72 		.ascii	"short int\000"
 4351      7420696E 
 4351      7400
 4352              	.LASF77:
 4353 0048 433A5C55 		.ascii	"C:\\Users\\James Sun\\Documents\\Git\\Whackamole\\W"
 4353      73657273 
 4353      5C4A616D 
ARM GAS  C:\Users\JAMESS~1\AppData\Local\Temp\ccgE8URB.s 			page 100


 4353      65732053 
 4353      756E5C44 
 4354 0075 6861636B 		.ascii	"hackamole\\Master.cydsn\000"
 4354      616D6F6C 
 4354      655C4D61 
 4354      73746572 
 4354      2E637964 
 4355              	.LASF30:
 4356 008c 636F6C6F 		.ascii	"color\000"
 4356      7200
 4357              	.LASF53:
 4358 0092 53747269 		.ascii	"StripLights_DrawRect\000"
 4358      704C6967 
 4358      6874735F 
 4358      44726177 
 4358      52656374 
 4359              	.LASF76:
 4360 00a7 47656E65 		.ascii	"Generated_Source\\PSoC4\\StripLights.c\000"
 4360      72617465 
 4360      645F536F 
 4360      75726365 
 4360      5C50536F 
 4361              	.LASF71:
 4362 00cc 53747269 		.ascii	"StripLights_ledArray\000"
 4362      704C6967 
 4362      6874735F 
 4362      6C656441 
 4362      72726179 
 4363              	.LASF26:
 4364 00e1 64656C61 		.ascii	"delay\000"
 4364      7900
 4365              	.LASF69:
 4366 00e7 53747269 		.ascii	"StripLights_EnterCritical\000"
 4366      704C6967 
 4366      6874735F 
 4366      456E7465 
 4366      72437269 
 4367              	.LASF74:
 4368 0101 53747269 		.ascii	"StripLights_gamma\000"
 4368      704C6967 
 4368      6874735F 
 4368      67616D6D 
 4368      6100
 4369              	.LASF54:
 4370 0113 66696C6C 		.ascii	"fill\000"
 4370      00
 4371              	.LASF34:
 4372 0118 53747269 		.ascii	"StripLights_CLUT\000"
 4372      704C6967 
 4372      6874735F 
 4372      434C5554 
 4372      00
 4373              	.LASF37:
 4374 0129 53747269 		.ascii	"StripLights_DimMask\000"
 4374      704C6967 
 4374      6874735F 
 4374      44696D4D 
ARM GAS  C:\Users\JAMESS~1\AppData\Local\Temp\ccgE8URB.s 			page 101


 4374      61736B00 
 4375              	.LASF42:
 4376 013d 53747269 		.ascii	"StripLights_WriteColor\000"
 4376      704C6967 
 4376      6874735F 
 4376      57726974 
 4376      65436F6C 
 4377              	.LASF29:
 4378 0154 746F436F 		.ascii	"toCount\000"
 4378      756E7400 
 4379              	.LASF9:
 4380 015c 75696E74 		.ascii	"uint8\000"
 4380      3800
 4381              	.LASF25:
 4382 0162 53747269 		.ascii	"StripLights_TriggerWaitDelay\000"
 4382      704C6967 
 4382      6874735F 
 4382      54726967 
 4382      67657257 
 4383              	.LASF19:
 4384 017f 53747269 		.ascii	"StripLights_initvar\000"
 4384      704C6967 
 4384      6874735F 
 4384      696E6974 
 4384      76617200 
 4385              	.LASF28:
 4386 0193 53747269 		.ascii	"StripLights_Trigger\000"
 4386      704C6967 
 4386      6874735F 
 4386      54726967 
 4386      67657200 
 4387              	.LASF66:
 4388 01a7 66726F6D 		.ascii	"fromColor\000"
 4388      436F6C6F 
 4388      7200
 4389              	.LASF0:
 4390 01b1 7369676E 		.ascii	"signed char\000"
 4390      65642063 
 4390      68617200 
 4391              	.LASF12:
 4392 01bd 666C6F61 		.ascii	"float\000"
 4392      7400
 4393              	.LASF27:
 4394 01c3 53747269 		.ascii	"StripLights_TriggerWait\000"
 4394      704C6967 
 4394      6874735F 
 4394      54726967 
 4394      67657257 
 4395              	.LASF6:
 4396 01db 6C6F6E67 		.ascii	"long long int\000"
 4396      206C6F6E 
 4396      6720696E 
 4396      7400
 4397              	.LASF48:
 4398 01e9 6464465F 		.ascii	"ddF_y\000"
 4398      7900
 4399              	.LASF60:
ARM GAS  C:\Users\JAMESS~1\AppData\Local\Temp\ccgE8URB.s 			page 102


 4400 01ef 75706461 		.ascii	"update\000"
 4400      746500
 4401              	.LASF4:
 4402 01f6 6C6F6E67 		.ascii	"long int\000"
 4402      20696E74 
 4402      00
 4403              	.LASF62:
 4404 01ff 6D617858 		.ascii	"maxX\000"
 4404      00
 4405              	.LASF75:
 4406 0204 474E5520 		.ascii	"GNU C11 5.4.1 20160609 (release) [ARM/embedded-5-br"
 4406      43313120 
 4406      352E342E 
 4406      31203230 
 4406      31363036 
 4407 0237 616E6368 		.ascii	"anch revision 237715] -mcpu=cortex-m0 -mthumb -g -O"
 4407      20726576 
 4407      6973696F 
 4407      6E203233 
 4407      37373135 
 4408 026a 30202D66 		.ascii	"0 -ffunction-sections -ffat-lto-objects\000"
 4408      66756E63 
 4408      74696F6E 
 4408      2D736563 
 4408      74696F6E 
 4409              	.LASF16:
 4410 0292 6C6F6E67 		.ascii	"long double\000"
 4410      20646F75 
 4410      626C6500 
 4411              	.LASF49:
 4412 029e 53747269 		.ascii	"StripLights_DrawLine\000"
 4412      704C6967 
 4412      6874735F 
 4412      44726177 
 4412      4C696E65 
 4413              	.LASF1:
 4414 02b3 756E7369 		.ascii	"unsigned char\000"
 4414      676E6564 
 4414      20636861 
 4414      7200
 4415              	.LASF32:
 4416 02c1 53747269 		.ascii	"StripLights_ColorInc\000"
 4416      704C6967 
 4416      6874735F 
 4416      436F6C6F 
 4416      72496E63 
 4417              	.LASF45:
 4418 02d6 53747269 		.ascii	"StripLights_DrawCircle\000"
 4418      704C6967 
 4418      6874735F 
 4418      44726177 
 4418      43697263 
 4419              	.LASF35:
 4420 02ed 636F6C6F 		.ascii	"colorIndex\000"
 4420      72496E64 
 4420      657800
 4421              	.LASF63:
ARM GAS  C:\Users\JAMESS~1\AppData\Local\Temp\ccgE8URB.s 			page 103


 4422 02f8 6D617859 		.ascii	"maxY\000"
 4422      00
 4423              	.LASF7:
 4424 02fd 6C6F6E67 		.ascii	"long long unsigned int\000"
 4424      206C6F6E 
 4424      6720756E 
 4424      7369676E 
 4424      65642069 
 4425              	.LASF67:
 4426 0314 746F436F 		.ascii	"toColor\000"
 4426      6C6F7200 
 4427              	.LASF64:
 4428 031c 53747269 		.ascii	"StripLights_Bplot32\000"
 4428      704C6967 
 4428      6874735F 
 4428      42706C6F 
 4428      74333200 
 4429              	.LASF8:
 4430 0330 756E7369 		.ascii	"unsigned int\000"
 4430      676E6564 
 4430      20696E74 
 4430      00
 4431              	.LASF57:
 4432 033d 64696D4C 		.ascii	"dimLevel\000"
 4432      6576656C 
 4432      00
 4433              	.LASF20:
 4434 0346 53747269 		.ascii	"StripLights_refreshComplete\000"
 4434      704C6967 
 4434      6874735F 
 4434      72656672 
 4434      65736843 
 4435              	.LASF72:
 4436 0362 53747269 		.ascii	"StripLights_ledIndex\000"
 4436      704C6967 
 4436      6874735F 
 4436      6C656449 
 4436      6E646578 
 4437              	.LASF56:
 4438 0377 53747269 		.ascii	"StripLights_Dim\000"
 4438      704C6967 
 4438      6874735F 
 4438      44696D00 
 4439              	.LASF52:
 4440 0387 66726163 		.ascii	"fraction\000"
 4440      74696F6E 
 4440      00
 4441              	.LASF50:
 4442 0390 73746570 		.ascii	"stepx\000"
 4442      7800
 4443              	.LASF51:
 4444 0396 73746570 		.ascii	"stepy\000"
 4444      7900
 4445              	.LASF78:
 4446 039c 53747269 		.ascii	"StripLights_Ready\000"
 4446      704C6967 
 4446      6874735F 
ARM GAS  C:\Users\JAMESS~1\AppData\Local\Temp\ccgE8URB.s 			page 104


 4446      52656164 
 4446      7900
 4447              	.LASF31:
 4448 03ae 53747269 		.ascii	"StripLights_getColor\000"
 4448      704C6967 
 4448      6874735F 
 4448      67657443 
 4448      6F6C6F72 
 4449              	.LASF3:
 4450 03c3 73686F72 		.ascii	"short unsigned int\000"
 4450      7420756E 
 4450      7369676E 
 4450      65642069 
 4450      6E7400
 4451              	.LASF40:
 4452 03d6 53747269 		.ascii	"StripLights_DisplayClear\000"
 4452      704C6967 
 4452      6874735F 
 4452      44697370 
 4452      6C617943 
 4453              	.LASF33:
 4454 03ef 696E6356 		.ascii	"incValue\000"
 4454      616C7565 
 4454      00
 4455              	.LASF22:
 4456 03f8 53747269 		.ascii	"StripLights_SetCriticalFuncs\000"
 4456      704C6967 
 4456      6874735F 
 4456      53657443 
 4456      72697469 
 4457              	.LASF70:
 4458 0415 53747269 		.ascii	"StripLights_ExitCritical\000"
 4458      704C6967 
 4458      6874735F 
 4458      45786974 
 4458      43726974 
 4459              	.LASF10:
 4460 042e 75696E74 		.ascii	"uint32\000"
 4460      333200
 4461              	.LASF55:
 4462 0435 78446966 		.ascii	"xDiff\000"
 4462      6600
 4463              	.LASF15:
 4464 043b 72656738 		.ascii	"reg8\000"
 4464      00
 4465              	.LASF5:
 4466 0440 6C6F6E67 		.ascii	"long unsigned int\000"
 4466      20756E73 
 4466      69676E65 
 4466      6420696E 
 4466      7400
 4467              	.LASF47:
 4468 0452 6464465F 		.ascii	"ddF_x\000"
 4468      7800
 4469              	.LASF11:
 4470 0458 696E7433 		.ascii	"int32\000"
 4470      3200
ARM GAS  C:\Users\JAMESS~1\AppData\Local\Temp\ccgE8URB.s 			page 105


 4471              	.LASF58:
 4472 045e 53747269 		.ascii	"StripLights_Bplot8\000"
 4472      704C6967 
 4472      6874735F 
 4472      42706C6F 
 4472      743800
 4473              	.LASF39:
 4474 0471 53747269 		.ascii	"StripLights_CISR\000"
 4474      704C6967 
 4474      6874735F 
 4474      43495352 
 4474      00
 4475              	.LASF79:
 4476 0482 53747269 		.ascii	"StripLights_Stop\000"
 4476      704C6967 
 4476      6874735F 
 4476      53746F70 
 4476      00
 4477              	.LASF36:
 4478 0493 53747269 		.ascii	"StripLights_FISR\000"
 4478      704C6967 
 4478      6874735F 
 4478      46495352 
 4478      00
 4479              	.LASF68:
 4480 04a4 6E657743 		.ascii	"newColor\000"
 4480      6F6C6F72 
 4480      00
 4481              	.LASF41:
 4482 04ad 53747269 		.ascii	"StripLights_MemClear\000"
 4482      704C6967 
 4482      6874735F 
 4482      4D656D43 
 4482      6C656172 
 4483              	.LASF61:
 4484 04c2 61696E64 		.ascii	"aindex\000"
 4484      657800
 4485              	.LASF43:
 4486 04c9 53747269 		.ascii	"StripLights_Pixel\000"
 4486      704C6967 
 4486      6874735F 
 4486      50697865 
 4486      6C00
 4487              	.LASF17:
 4488 04db 73697A65 		.ascii	"sizetype\000"
 4488      74797065 
 4488      00
 4489              	.LASF23:
 4490 04e4 456E4372 		.ascii	"EnCriticalFunc\000"
 4490      69746963 
 4490      616C4675 
 4490      6E6300
 4491              	.LASF13:
 4492 04f3 646F7562 		.ascii	"double\000"
 4492      6C6500
 4493              	.LASF21:
 4494 04fa 53747269 		.ascii	"StripLights_Start\000"
ARM GAS  C:\Users\JAMESS~1\AppData\Local\Temp\ccgE8URB.s 			page 106


 4494      704C6967 
 4494      6874735F 
 4494      53746172 
 4494      7400
 4495              	.LASF46:
 4496 050c 72616469 		.ascii	"radius\000"
 4496      757300
 4497              	.LASF73:
 4498 0513 53747269 		.ascii	"StripLights_row\000"
 4498      704C6967 
 4498      6874735F 
 4498      726F7700 
 4499              	.LASF18:
 4500 0523 66756E63 		.ascii	"funcPtr\000"
 4500      50747200 
 4501              	.LASF59:
 4502 052b 6269744D 		.ascii	"bitMap\000"
 4502      617000
 4503              	.LASF65:
 4504 0532 53747269 		.ascii	"StripLights_RgbBlend\000"
 4504      704C6967 
 4504      6874735F 
 4504      52676242 
 4504      6C656E64 
 4505              		.ident	"GCC: (GNU Tools for ARM Embedded Processors) 5.4.1 20160609 (release) [ARM/embedded-5-bran
