ARM GAS  C:\Users\JAMESS~1\AppData\Local\Temp\ccJnwK6b.s 			page 1


   1              		.syntax unified
   2              		.cpu cortex-m0
   3              		.fpu softvfp
   4              		.eabi_attribute 20, 1
   5              		.eabi_attribute 21, 1
   6              		.eabi_attribute 23, 3
   7              		.eabi_attribute 24, 1
   8              		.eabi_attribute 25, 1
   9              		.eabi_attribute 26, 1
  10              		.eabi_attribute 30, 1
  11              		.eabi_attribute 34, 0
  12              		.eabi_attribute 18, 4
  13              		.thumb
  14              		.syntax unified
  15              		.file	"cyfitter_cfg.c"
  16              		.text
  17              	.Ltext0:
  18              		.cfi_sections	.debug_frame
  19              		.section	.text.cfg_write_bytes32,"ax",%progbits
  20              		.align	2
  21              		.code	16
  22              		.thumb_func
  23              		.type	cfg_write_bytes32, %function
  24              	cfg_write_bytes32:
  25              	.LFB3:
  26              		.file 1 "Generated_Source\\PSoC4\\cyfitter_cfg.c"
   1:Generated_Source\PSoC4/cyfitter_cfg.c **** 
   2:Generated_Source\PSoC4/cyfitter_cfg.c **** /*******************************************************************************
   3:Generated_Source\PSoC4/cyfitter_cfg.c **** * File Name: cyfitter_cfg.c
   4:Generated_Source\PSoC4/cyfitter_cfg.c **** * 
   5:Generated_Source\PSoC4/cyfitter_cfg.c **** * PSoC Creator  4.1 Update 1
   6:Generated_Source\PSoC4/cyfitter_cfg.c **** *
   7:Generated_Source\PSoC4/cyfitter_cfg.c **** * Description:
   8:Generated_Source\PSoC4/cyfitter_cfg.c **** * This file contains device initialization code.
   9:Generated_Source\PSoC4/cyfitter_cfg.c **** * Except for the user defined sections in CyClockStartupError(), this file should not be modified.
  10:Generated_Source\PSoC4/cyfitter_cfg.c **** * This file is automatically generated by PSoC Creator.
  11:Generated_Source\PSoC4/cyfitter_cfg.c **** *
  12:Generated_Source\PSoC4/cyfitter_cfg.c **** ********************************************************************************
  13:Generated_Source\PSoC4/cyfitter_cfg.c **** * Copyright (c) 2007-2017 Cypress Semiconductor.  All rights reserved.
  14:Generated_Source\PSoC4/cyfitter_cfg.c **** * You may use this file only in accordance with the license, terms, conditions, 
  15:Generated_Source\PSoC4/cyfitter_cfg.c **** * disclaimers, and limitations in the end user license agreement accompanying 
  16:Generated_Source\PSoC4/cyfitter_cfg.c **** * the software package with which this file was provided.
  17:Generated_Source\PSoC4/cyfitter_cfg.c **** ********************************************************************************/
  18:Generated_Source\PSoC4/cyfitter_cfg.c **** 
  19:Generated_Source\PSoC4/cyfitter_cfg.c **** #include <string.h>
  20:Generated_Source\PSoC4/cyfitter_cfg.c **** #include "cytypes.h"
  21:Generated_Source\PSoC4/cyfitter_cfg.c **** #include "cydevice_trm.h"
  22:Generated_Source\PSoC4/cyfitter_cfg.c **** #include "cyfitter.h"
  23:Generated_Source\PSoC4/cyfitter_cfg.c **** #include "CyLib.h"
  24:Generated_Source\PSoC4/cyfitter_cfg.c **** #include "CyLFClk.h"
  25:Generated_Source\PSoC4/cyfitter_cfg.c **** #include "cyfitter_cfg.h"
  26:Generated_Source\PSoC4/cyfitter_cfg.c **** #include "cyapicallbacks.h"
  27:Generated_Source\PSoC4/cyfitter_cfg.c **** 
  28:Generated_Source\PSoC4/cyfitter_cfg.c **** 
  29:Generated_Source\PSoC4/cyfitter_cfg.c **** #if defined(__GNUC__) || defined(__ARMCC_VERSION)
  30:Generated_Source\PSoC4/cyfitter_cfg.c ****     #define CYPACKED 
  31:Generated_Source\PSoC4/cyfitter_cfg.c ****     #define CYPACKED_ATTR __attribute__ ((packed))
ARM GAS  C:\Users\JAMESS~1\AppData\Local\Temp\ccJnwK6b.s 			page 2


  32:Generated_Source\PSoC4/cyfitter_cfg.c ****     #define CYALIGNED __attribute__ ((aligned))
  33:Generated_Source\PSoC4/cyfitter_cfg.c ****     #define CY_CFG_UNUSED __attribute__ ((unused))
  34:Generated_Source\PSoC4/cyfitter_cfg.c ****     #ifndef CY_CFG_SECTION
  35:Generated_Source\PSoC4/cyfitter_cfg.c ****         #define CY_CFG_SECTION __attribute__ ((section(".psocinit")))
  36:Generated_Source\PSoC4/cyfitter_cfg.c ****     #endif
  37:Generated_Source\PSoC4/cyfitter_cfg.c ****     
  38:Generated_Source\PSoC4/cyfitter_cfg.c ****     #if defined(__ARMCC_VERSION)
  39:Generated_Source\PSoC4/cyfitter_cfg.c ****         #define CY_CFG_MEMORY_BARRIER() __memory_changed()
  40:Generated_Source\PSoC4/cyfitter_cfg.c ****     #else
  41:Generated_Source\PSoC4/cyfitter_cfg.c ****         #define CY_CFG_MEMORY_BARRIER() __sync_synchronize()
  42:Generated_Source\PSoC4/cyfitter_cfg.c ****     #endif
  43:Generated_Source\PSoC4/cyfitter_cfg.c ****     
  44:Generated_Source\PSoC4/cyfitter_cfg.c **** #elif defined(__ICCARM__)
  45:Generated_Source\PSoC4/cyfitter_cfg.c ****     #include <intrinsics.h>
  46:Generated_Source\PSoC4/cyfitter_cfg.c **** 
  47:Generated_Source\PSoC4/cyfitter_cfg.c ****     #define CYPACKED __packed
  48:Generated_Source\PSoC4/cyfitter_cfg.c ****     #define CYPACKED_ATTR 
  49:Generated_Source\PSoC4/cyfitter_cfg.c ****     #define CYALIGNED _Pragma("data_alignment=4")
  50:Generated_Source\PSoC4/cyfitter_cfg.c ****     #define CY_CFG_UNUSED _Pragma("diag_suppress=Pe177")
  51:Generated_Source\PSoC4/cyfitter_cfg.c ****     #define CY_CFG_SECTION _Pragma("location=\".psocinit\"")
  52:Generated_Source\PSoC4/cyfitter_cfg.c ****     
  53:Generated_Source\PSoC4/cyfitter_cfg.c ****     #define CY_CFG_MEMORY_BARRIER() __DMB()
  54:Generated_Source\PSoC4/cyfitter_cfg.c ****     
  55:Generated_Source\PSoC4/cyfitter_cfg.c **** #else
  56:Generated_Source\PSoC4/cyfitter_cfg.c ****     #error Unsupported toolchain
  57:Generated_Source\PSoC4/cyfitter_cfg.c **** #endif
  58:Generated_Source\PSoC4/cyfitter_cfg.c **** 
  59:Generated_Source\PSoC4/cyfitter_cfg.c **** #ifndef CYCODE
  60:Generated_Source\PSoC4/cyfitter_cfg.c ****     #define CYCODE
  61:Generated_Source\PSoC4/cyfitter_cfg.c **** #endif
  62:Generated_Source\PSoC4/cyfitter_cfg.c **** #ifndef CYDATA
  63:Generated_Source\PSoC4/cyfitter_cfg.c ****     #define CYDATA
  64:Generated_Source\PSoC4/cyfitter_cfg.c **** #endif
  65:Generated_Source\PSoC4/cyfitter_cfg.c **** #ifndef CYFAR
  66:Generated_Source\PSoC4/cyfitter_cfg.c ****     #define CYFAR
  67:Generated_Source\PSoC4/cyfitter_cfg.c **** #endif
  68:Generated_Source\PSoC4/cyfitter_cfg.c **** #ifndef CYXDATA
  69:Generated_Source\PSoC4/cyfitter_cfg.c ****     #define CYXDATA
  70:Generated_Source\PSoC4/cyfitter_cfg.c **** #endif
  71:Generated_Source\PSoC4/cyfitter_cfg.c **** 
  72:Generated_Source\PSoC4/cyfitter_cfg.c **** 
  73:Generated_Source\PSoC4/cyfitter_cfg.c **** CY_CFG_UNUSED
  74:Generated_Source\PSoC4/cyfitter_cfg.c **** static void CYMEMZERO(void *s, size_t n);
  75:Generated_Source\PSoC4/cyfitter_cfg.c **** CY_CFG_UNUSED
  76:Generated_Source\PSoC4/cyfitter_cfg.c **** static void CYMEMZERO(void *s, size_t n)
  77:Generated_Source\PSoC4/cyfitter_cfg.c **** {
  78:Generated_Source\PSoC4/cyfitter_cfg.c **** 	(void)memset(s, 0, n);
  79:Generated_Source\PSoC4/cyfitter_cfg.c **** }
  80:Generated_Source\PSoC4/cyfitter_cfg.c **** CY_CFG_UNUSED
  81:Generated_Source\PSoC4/cyfitter_cfg.c **** static void CYCONFIGCPY(void *dest, const void *src, size_t n);
  82:Generated_Source\PSoC4/cyfitter_cfg.c **** CY_CFG_UNUSED
  83:Generated_Source\PSoC4/cyfitter_cfg.c **** static void CYCONFIGCPY(void *dest, const void *src, size_t n)
  84:Generated_Source\PSoC4/cyfitter_cfg.c **** {
  85:Generated_Source\PSoC4/cyfitter_cfg.c **** 	(void)memcpy(dest, src, n);
  86:Generated_Source\PSoC4/cyfitter_cfg.c **** }
  87:Generated_Source\PSoC4/cyfitter_cfg.c **** CY_CFG_UNUSED
  88:Generated_Source\PSoC4/cyfitter_cfg.c **** static void CYCONFIGCPYCODE(void *dest, const void *src, size_t n);
ARM GAS  C:\Users\JAMESS~1\AppData\Local\Temp\ccJnwK6b.s 			page 3


  89:Generated_Source\PSoC4/cyfitter_cfg.c **** CY_CFG_UNUSED
  90:Generated_Source\PSoC4/cyfitter_cfg.c **** static void CYCONFIGCPYCODE(void *dest, const void *src, size_t n)
  91:Generated_Source\PSoC4/cyfitter_cfg.c **** {
  92:Generated_Source\PSoC4/cyfitter_cfg.c **** 	(void)memcpy(dest, src, n);
  93:Generated_Source\PSoC4/cyfitter_cfg.c **** }
  94:Generated_Source\PSoC4/cyfitter_cfg.c **** 
  95:Generated_Source\PSoC4/cyfitter_cfg.c **** 
  96:Generated_Source\PSoC4/cyfitter_cfg.c **** 
  97:Generated_Source\PSoC4/cyfitter_cfg.c **** 
  98:Generated_Source\PSoC4/cyfitter_cfg.c **** /* Clock startup error codes                                                   */
  99:Generated_Source\PSoC4/cyfitter_cfg.c **** #define CYCLOCKSTART_NO_ERROR    0u
 100:Generated_Source\PSoC4/cyfitter_cfg.c **** #define CYCLOCKSTART_XTAL_ERROR  1u
 101:Generated_Source\PSoC4/cyfitter_cfg.c **** #define CYCLOCKSTART_32KHZ_ERROR 2u
 102:Generated_Source\PSoC4/cyfitter_cfg.c **** #define CYCLOCKSTART_PLL_ERROR   3u
 103:Generated_Source\PSoC4/cyfitter_cfg.c **** #define CYCLOCKSTART_FLL_ERROR   4u
 104:Generated_Source\PSoC4/cyfitter_cfg.c **** 
 105:Generated_Source\PSoC4/cyfitter_cfg.c **** 
 106:Generated_Source\PSoC4/cyfitter_cfg.c **** #ifdef CY_NEED_CYCLOCKSTARTUPERROR
 107:Generated_Source\PSoC4/cyfitter_cfg.c **** /*******************************************************************************
 108:Generated_Source\PSoC4/cyfitter_cfg.c **** * Function Name: CyClockStartupError
 109:Generated_Source\PSoC4/cyfitter_cfg.c **** ********************************************************************************
 110:Generated_Source\PSoC4/cyfitter_cfg.c **** * Summary:
 111:Generated_Source\PSoC4/cyfitter_cfg.c **** *  If an error is encountered during clock configuration (crystal startup error,
 112:Generated_Source\PSoC4/cyfitter_cfg.c **** *  PLL lock error, etc.), the system will end up here.  Unless reimplemented by
 113:Generated_Source\PSoC4/cyfitter_cfg.c **** *  the customer, this function will stop in an infinite loop.
 114:Generated_Source\PSoC4/cyfitter_cfg.c **** *
 115:Generated_Source\PSoC4/cyfitter_cfg.c **** * Parameters:
 116:Generated_Source\PSoC4/cyfitter_cfg.c **** *   void
 117:Generated_Source\PSoC4/cyfitter_cfg.c **** *
 118:Generated_Source\PSoC4/cyfitter_cfg.c **** * Return:
 119:Generated_Source\PSoC4/cyfitter_cfg.c **** *   void
 120:Generated_Source\PSoC4/cyfitter_cfg.c **** *
 121:Generated_Source\PSoC4/cyfitter_cfg.c **** *******************************************************************************/
 122:Generated_Source\PSoC4/cyfitter_cfg.c **** CY_CFG_UNUSED
 123:Generated_Source\PSoC4/cyfitter_cfg.c **** static void CyClockStartupError(uint8 errorCode);
 124:Generated_Source\PSoC4/cyfitter_cfg.c **** CY_CFG_UNUSED
 125:Generated_Source\PSoC4/cyfitter_cfg.c **** static void CyClockStartupError(uint8 errorCode)
 126:Generated_Source\PSoC4/cyfitter_cfg.c **** {
 127:Generated_Source\PSoC4/cyfitter_cfg.c ****     /* To remove the compiler warning if errorCode not used. */
 128:Generated_Source\PSoC4/cyfitter_cfg.c **** #if defined(CY_PSOC3) && (CY_PSOC3)
 129:Generated_Source\PSoC4/cyfitter_cfg.c ****     errorCode = errorCode;
 130:Generated_Source\PSoC4/cyfitter_cfg.c **** #else
 131:Generated_Source\PSoC4/cyfitter_cfg.c ****     (void)errorCode;
 132:Generated_Source\PSoC4/cyfitter_cfg.c **** #endif /* CY_PSOC3 */
 133:Generated_Source\PSoC4/cyfitter_cfg.c **** 
 134:Generated_Source\PSoC4/cyfitter_cfg.c ****     /* If we have a clock startup error (bad MHz crystal, PLL lock, etc.),  */
 135:Generated_Source\PSoC4/cyfitter_cfg.c ****     /* we will end up here to allow the customer to implement something to  */
 136:Generated_Source\PSoC4/cyfitter_cfg.c ****     /* deal with the clock condition.                                       */
 137:Generated_Source\PSoC4/cyfitter_cfg.c **** 
 138:Generated_Source\PSoC4/cyfitter_cfg.c **** #ifdef CY_CFG_CLOCK_STARTUP_ERROR_CALLBACK
 139:Generated_Source\PSoC4/cyfitter_cfg.c ****     CY_CFG_Clock_Startup_ErrorCallback();
 140:Generated_Source\PSoC4/cyfitter_cfg.c **** #else
 141:Generated_Source\PSoC4/cyfitter_cfg.c ****     /*  If not using CY_CFG_CLOCK_STARTUP_ERROR_CALLBACK, place your clock startup code here. */
 142:Generated_Source\PSoC4/cyfitter_cfg.c ****     /* `#START CyClockStartupError` */
 143:Generated_Source\PSoC4/cyfitter_cfg.c **** 
 144:Generated_Source\PSoC4/cyfitter_cfg.c **** 
 145:Generated_Source\PSoC4/cyfitter_cfg.c **** 
ARM GAS  C:\Users\JAMESS~1\AppData\Local\Temp\ccJnwK6b.s 			page 4


 146:Generated_Source\PSoC4/cyfitter_cfg.c ****     /* `#END` */
 147:Generated_Source\PSoC4/cyfitter_cfg.c **** 
 148:Generated_Source\PSoC4/cyfitter_cfg.c ****     while(1) {}
 149:Generated_Source\PSoC4/cyfitter_cfg.c **** #endif /* CY_CFG_CLOCK_STARTUP_ERROR_CALLBACK */
 150:Generated_Source\PSoC4/cyfitter_cfg.c **** }
 151:Generated_Source\PSoC4/cyfitter_cfg.c **** #endif
 152:Generated_Source\PSoC4/cyfitter_cfg.c **** 
 153:Generated_Source\PSoC4/cyfitter_cfg.c **** #define CY_CFG_BASE_ADDR_COUNT 8u
 154:Generated_Source\PSoC4/cyfitter_cfg.c **** CYPACKED typedef struct
 155:Generated_Source\PSoC4/cyfitter_cfg.c **** {
 156:Generated_Source\PSoC4/cyfitter_cfg.c **** 	uint8 offset;
 157:Generated_Source\PSoC4/cyfitter_cfg.c **** 	uint8 value;
 158:Generated_Source\PSoC4/cyfitter_cfg.c **** } CYPACKED_ATTR cy_cfg_addrvalue_t;
 159:Generated_Source\PSoC4/cyfitter_cfg.c **** 
 160:Generated_Source\PSoC4/cyfitter_cfg.c **** 
 161:Generated_Source\PSoC4/cyfitter_cfg.c **** 
 162:Generated_Source\PSoC4/cyfitter_cfg.c **** /*******************************************************************************
 163:Generated_Source\PSoC4/cyfitter_cfg.c **** * Function Name: cfg_write_bytes32
 164:Generated_Source\PSoC4/cyfitter_cfg.c **** ********************************************************************************
 165:Generated_Source\PSoC4/cyfitter_cfg.c **** * Summary:
 166:Generated_Source\PSoC4/cyfitter_cfg.c **** *  This function is used for setting up the chip configuration areas that
 167:Generated_Source\PSoC4/cyfitter_cfg.c **** *  contain relatively sparse data.
 168:Generated_Source\PSoC4/cyfitter_cfg.c **** *
 169:Generated_Source\PSoC4/cyfitter_cfg.c **** * Parameters:
 170:Generated_Source\PSoC4/cyfitter_cfg.c **** *   void
 171:Generated_Source\PSoC4/cyfitter_cfg.c **** *
 172:Generated_Source\PSoC4/cyfitter_cfg.c **** * Return:
 173:Generated_Source\PSoC4/cyfitter_cfg.c **** *   void
 174:Generated_Source\PSoC4/cyfitter_cfg.c **** *
 175:Generated_Source\PSoC4/cyfitter_cfg.c **** *******************************************************************************/
 176:Generated_Source\PSoC4/cyfitter_cfg.c **** static void cfg_write_bytes32(const uint32 addr_table[], const cy_cfg_addrvalue_t data_table[]);
 177:Generated_Source\PSoC4/cyfitter_cfg.c **** static void cfg_write_bytes32(const uint32 addr_table[], const cy_cfg_addrvalue_t data_table[])
 178:Generated_Source\PSoC4/cyfitter_cfg.c **** {
  27              		.loc 1 178 0
  28              		.cfi_startproc
  29              		@ args = 0, pretend = 0, frame = 0
  30              		@ frame_needed = 0, uses_anonymous_args = 0
  31              	.LVL0:
  32 0000 F0B5     		push	{r4, r5, r6, r7, lr}
  33              		.cfi_def_cfa_offset 20
  34              		.cfi_offset 4, -20
  35              		.cfi_offset 5, -16
  36              		.cfi_offset 6, -12
  37              		.cfi_offset 7, -8
  38              		.cfi_offset 14, -4
  39              	.LVL1:
 179:Generated_Source\PSoC4/cyfitter_cfg.c **** 	/* For 32-bit little-endian architectures */
 180:Generated_Source\PSoC4/cyfitter_cfg.c **** 	uint32 i, j = 0u;
  40              		.loc 1 180 0
  41 0002 0025     		movs	r5, #0
 181:Generated_Source\PSoC4/cyfitter_cfg.c **** 	for (i = 0u; i < CY_CFG_BASE_ADDR_COUNT; i++)
  42              		.loc 1 181 0
  43 0004 0027     		movs	r7, #0
  44 0006 11E0     		b	.L2
  45              	.LVL2:
  46              	.L5:
  47              	.LBB2:
ARM GAS  C:\Users\JAMESS~1\AppData\Local\Temp\ccJnwK6b.s 			page 5


 182:Generated_Source\PSoC4/cyfitter_cfg.c **** 	{
 183:Generated_Source\PSoC4/cyfitter_cfg.c **** 		uint32 baseAddr = addr_table[i];
  48              		.loc 1 183 0
  49 0008 BB00     		lsls	r3, r7, #2
  50 000a C658     		ldr	r6, [r0, r3]
  51              	.LVL3:
 184:Generated_Source\PSoC4/cyfitter_cfg.c **** 		uint8 count = (uint8)baseAddr;
  52              		.loc 1 184 0
  53 000c F3B2     		uxtb	r3, r6
  54              	.LVL4:
 185:Generated_Source\PSoC4/cyfitter_cfg.c **** 		baseAddr &= 0xFFFFFF00u;
  55              		.loc 1 185 0
  56 000e FF22     		movs	r2, #255
  57 0010 9643     		bics	r6, r2
  58              	.LVL5:
 186:Generated_Source\PSoC4/cyfitter_cfg.c **** 		while (count != 0u)
  59              		.loc 1 186 0
  60 0012 08E0     		b	.L3
  61              	.L4:
 187:Generated_Source\PSoC4/cyfitter_cfg.c **** 		{
 188:Generated_Source\PSoC4/cyfitter_cfg.c **** 			CY_SET_REG8((void *)(baseAddr + data_table[j].offset), data_table[j].value);
  62              		.loc 1 188 0
  63 0014 6A00     		lsls	r2, r5, #1
  64 0016 8A18     		adds	r2, r1, r2
  65 0018 1478     		ldrb	r4, [r2]
  66 001a A419     		adds	r4, r4, r6
  67 001c 5278     		ldrb	r2, [r2, #1]
  68 001e 2270     		strb	r2, [r4]
 189:Generated_Source\PSoC4/cyfitter_cfg.c **** 			j++;
  69              		.loc 1 189 0
  70 0020 0135     		adds	r5, r5, #1
  71              	.LVL6:
 190:Generated_Source\PSoC4/cyfitter_cfg.c **** 			count--;
  72              		.loc 1 190 0
  73 0022 013B     		subs	r3, r3, #1
  74              	.LVL7:
  75 0024 DBB2     		uxtb	r3, r3
  76              	.LVL8:
  77              	.L3:
 186:Generated_Source\PSoC4/cyfitter_cfg.c **** 		{
  78              		.loc 1 186 0
  79 0026 002B     		cmp	r3, #0
  80 0028 F4D1     		bne	.L4
  81              	.LBE2:
 181:Generated_Source\PSoC4/cyfitter_cfg.c **** 	{
  82              		.loc 1 181 0 discriminator 2
  83 002a 0137     		adds	r7, r7, #1
  84              	.LVL9:
  85              	.L2:
 181:Generated_Source\PSoC4/cyfitter_cfg.c **** 	{
  86              		.loc 1 181 0 is_stmt 0 discriminator 1
  87 002c 072F     		cmp	r7, #7
  88 002e EBD9     		bls	.L5
 191:Generated_Source\PSoC4/cyfitter_cfg.c **** 		}
 192:Generated_Source\PSoC4/cyfitter_cfg.c **** 	}
 193:Generated_Source\PSoC4/cyfitter_cfg.c **** }
  89              		.loc 1 193 0 is_stmt 1
ARM GAS  C:\Users\JAMESS~1\AppData\Local\Temp\ccJnwK6b.s 			page 6


  90              		@ sp needed
  91              	.LVL10:
  92              	.LVL11:
  93 0030 F0BD     		pop	{r4, r5, r6, r7, pc}
  94              		.cfi_endproc
  95              	.LFE3:
  96              		.size	cfg_write_bytes32, .-cfg_write_bytes32
  97 0032 C046     		.section	.text.CYMEMZERO,"ax",%progbits
  98              		.align	2
  99              		.code	16
 100              		.thumb_func
 101              		.type	CYMEMZERO, %function
 102              	CYMEMZERO:
 103              	.LFB0:
  77:Generated_Source\PSoC4/cyfitter_cfg.c **** 	(void)memset(s, 0, n);
 104              		.loc 1 77 0
 105              		.cfi_startproc
 106              		@ args = 0, pretend = 0, frame = 0
 107              		@ frame_needed = 0, uses_anonymous_args = 0
 108              	.LVL12:
 109 0000 10B5     		push	{r4, lr}
 110              		.cfi_def_cfa_offset 8
 111              		.cfi_offset 4, -8
 112              		.cfi_offset 14, -4
 113 0002 0A00     		movs	r2, r1
  78:Generated_Source\PSoC4/cyfitter_cfg.c **** }
 114              		.loc 1 78 0
 115 0004 0021     		movs	r1, #0
 116              	.LVL13:
 117 0006 FFF7FEFF 		bl	memset
 118              	.LVL14:
  79:Generated_Source\PSoC4/cyfitter_cfg.c **** CY_CFG_UNUSED
 119              		.loc 1 79 0
 120              		@ sp needed
 121 000a 10BD     		pop	{r4, pc}
 122              		.cfi_endproc
 123              	.LFE0:
 124              		.size	CYMEMZERO, .-CYMEMZERO
 125              		.section	.psocinit,"ax",%progbits
 126              		.align	2
 127              		.code	16
 128              		.thumb_func
 129              		.type	ClockSetup, %function
 130              	ClockSetup:
 131              	.LFB4:
 194:Generated_Source\PSoC4/cyfitter_cfg.c **** 
 195:Generated_Source\PSoC4/cyfitter_cfg.c **** 
 196:Generated_Source\PSoC4/cyfitter_cfg.c **** /*******************************************************************************
 197:Generated_Source\PSoC4/cyfitter_cfg.c **** * Function Name: ClockSetup
 198:Generated_Source\PSoC4/cyfitter_cfg.c **** ********************************************************************************
 199:Generated_Source\PSoC4/cyfitter_cfg.c **** *
 200:Generated_Source\PSoC4/cyfitter_cfg.c **** * Summary:
 201:Generated_Source\PSoC4/cyfitter_cfg.c **** *   Performs the initialization of all of the clocks in the device based on the
 202:Generated_Source\PSoC4/cyfitter_cfg.c **** *   settings in the Clock tab of the DWR.  This includes enabling the requested
 203:Generated_Source\PSoC4/cyfitter_cfg.c **** *   clocks and setting the necessary dividers to produce the desired frequency. 
 204:Generated_Source\PSoC4/cyfitter_cfg.c **** *
 205:Generated_Source\PSoC4/cyfitter_cfg.c **** * Parameters:
ARM GAS  C:\Users\JAMESS~1\AppData\Local\Temp\ccJnwK6b.s 			page 7


 206:Generated_Source\PSoC4/cyfitter_cfg.c **** *   void
 207:Generated_Source\PSoC4/cyfitter_cfg.c **** *
 208:Generated_Source\PSoC4/cyfitter_cfg.c **** * Return:
 209:Generated_Source\PSoC4/cyfitter_cfg.c **** *   void
 210:Generated_Source\PSoC4/cyfitter_cfg.c **** *
 211:Generated_Source\PSoC4/cyfitter_cfg.c **** *******************************************************************************/
 212:Generated_Source\PSoC4/cyfitter_cfg.c **** static void ClockSetup(void);
 213:Generated_Source\PSoC4/cyfitter_cfg.c **** CY_CFG_SECTION
 214:Generated_Source\PSoC4/cyfitter_cfg.c **** static void ClockSetup(void)
 215:Generated_Source\PSoC4/cyfitter_cfg.c **** {
 132              		.loc 1 215 0
 133              		.cfi_startproc
 134              		@ args = 0, pretend = 0, frame = 0
 135              		@ frame_needed = 0, uses_anonymous_args = 0
 136 0000 70B5     		push	{r4, r5, r6, lr}
 137              		.cfi_def_cfa_offset 16
 138              		.cfi_offset 4, -16
 139              		.cfi_offset 5, -12
 140              		.cfi_offset 6, -8
 141              		.cfi_offset 14, -4
 216:Generated_Source\PSoC4/cyfitter_cfg.c **** 	/* Enable HALF_EN before trimming for the flash accelerator. */
 217:Generated_Source\PSoC4/cyfitter_cfg.c **** 	CY_SET_REG32((void CYXDATA *)(CYREG_CLK_SELECT), (CY_GET_REG32((void *)CYREG_CLK_SELECT) | 0x00040
 142              		.loc 1 217 0
 143 0002 134C     		ldr	r4, .L8
 144 0004 2368     		ldr	r3, [r4]
 145 0006 8022     		movs	r2, #128
 146 0008 D202     		lsls	r2, r2, #11
 147 000a 1343     		orrs	r3, r2
 148 000c 2360     		str	r3, [r4]
 218:Generated_Source\PSoC4/cyfitter_cfg.c **** 
 219:Generated_Source\PSoC4/cyfitter_cfg.c **** 	/* Setup and trim IMO based on desired frequency. */
 220:Generated_Source\PSoC4/cyfitter_cfg.c **** 	CySysClkWriteImoFreq(24u);
 149              		.loc 1 220 0
 150 000e 1820     		movs	r0, #24
 151 0010 FFF7FEFF 		bl	CySysClkWriteImoFreq
 152              	.LVL15:
 221:Generated_Source\PSoC4/cyfitter_cfg.c **** 
 222:Generated_Source\PSoC4/cyfitter_cfg.c **** 	/* Disable HALF_EN since it is not required at this IMO frequency. */
 223:Generated_Source\PSoC4/cyfitter_cfg.c **** 	CY_SET_REG32((void CYXDATA *)(CYREG_CLK_SELECT), (CY_GET_REG32((void *)CYREG_CLK_SELECT) & 0xFFFBF
 153              		.loc 1 223 0
 154 0014 2268     		ldr	r2, [r4]
 155 0016 0F4B     		ldr	r3, .L8+4
 156 0018 1340     		ands	r3, r2
 157 001a 2360     		str	r3, [r4]
 224:Generated_Source\PSoC4/cyfitter_cfg.c **** 	/* CYDEV_CLK_ILO_CONFIG Starting address: CYDEV_CLK_ILO_CONFIG */
 225:Generated_Source\PSoC4/cyfitter_cfg.c **** 	CY_SET_REG32((void *)(CYREG_CLK_ILO_CONFIG), 0x80000006u);
 158              		.loc 1 225 0
 159 001c 0E4A     		ldr	r2, .L8+8
 160 001e 0F4B     		ldr	r3, .L8+12
 161 0020 1A60     		str	r2, [r3]
 226:Generated_Source\PSoC4/cyfitter_cfg.c **** 
 227:Generated_Source\PSoC4/cyfitter_cfg.c **** 
 228:Generated_Source\PSoC4/cyfitter_cfg.c **** 	/* CYDEV_CLK_SELECT00 Starting address: CYDEV_CLK_SELECT00 */
 229:Generated_Source\PSoC4/cyfitter_cfg.c **** 	CY_SET_REG32((void *)(CYREG_CLK_SELECT12), 0x00000010u);
 162              		.loc 1 229 0
 163 0022 1022     		movs	r2, #16
 164 0024 0E4B     		ldr	r3, .L8+16
ARM GAS  C:\Users\JAMESS~1\AppData\Local\Temp\ccJnwK6b.s 			page 8


 165 0026 1A60     		str	r2, [r3]
 230:Generated_Source\PSoC4/cyfitter_cfg.c **** 
 231:Generated_Source\PSoC4/cyfitter_cfg.c **** 	/* CYDEV_CLK_IMO_CONFIG Starting address: CYDEV_CLK_IMO_CONFIG */
 232:Generated_Source\PSoC4/cyfitter_cfg.c **** 	CY_SET_REG32((void *)(CYREG_CLK_IMO_CONFIG), 0x80000000u);
 166              		.loc 1 232 0
 167 0028 8022     		movs	r2, #128
 168 002a 1206     		lsls	r2, r2, #24
 169 002c 0D4B     		ldr	r3, .L8+20
 170 002e 1A60     		str	r2, [r3]
 233:Generated_Source\PSoC4/cyfitter_cfg.c **** 
 234:Generated_Source\PSoC4/cyfitter_cfg.c **** 	/* CYDEV_CLK_SELECT Starting address: CYDEV_CLK_SELECT */
 235:Generated_Source\PSoC4/cyfitter_cfg.c **** 	CY_SET_REG32((void *)(CYREG_CLK_SELECT), 0x00000000u);
 171              		.loc 1 235 0
 172 0030 0025     		movs	r5, #0
 173 0032 2560     		str	r5, [r4]
 236:Generated_Source\PSoC4/cyfitter_cfg.c **** 
 237:Generated_Source\PSoC4/cyfitter_cfg.c **** 	/* CYDEV_CLK_DIVIDER_A00 Starting address: CYDEV_CLK_DIVIDER_A00 */
 238:Generated_Source\PSoC4/cyfitter_cfg.c **** 	CY_SET_REG32((void *)(CYREG_CLK_DIVIDER_A00), 0x80000001u);
 174              		.loc 1 238 0
 175 0034 0C4A     		ldr	r2, .L8+24
 176 0036 0D4B     		ldr	r3, .L8+28
 177 0038 1A60     		str	r2, [r3]
 239:Generated_Source\PSoC4/cyfitter_cfg.c **** 
 240:Generated_Source\PSoC4/cyfitter_cfg.c **** 	(void)CyIntSetVector(9u, &CySysWdtIsr);
 178              		.loc 1 240 0
 179 003a 0D49     		ldr	r1, .L8+32
 180 003c 0920     		movs	r0, #9
 181 003e FFF7FEFF 		bl	CyIntSetVector
 182              	.LVL16:
 241:Generated_Source\PSoC4/cyfitter_cfg.c **** 	CyIntEnable(9u);
 183              		.loc 1 241 0
 184 0042 0920     		movs	r0, #9
 185 0044 FFF7FEFF 		bl	CyIntEnable
 186              	.LVL17:
 242:Generated_Source\PSoC4/cyfitter_cfg.c **** 	CY_SET_REG32((void *)(CYREG_WDT_CONFIG), 0x00000000u);
 187              		.loc 1 242 0
 188 0048 0A4B     		ldr	r3, .L8+36
 189 004a 1D60     		str	r5, [r3]
 243:Generated_Source\PSoC4/cyfitter_cfg.c **** }
 190              		.loc 1 243 0
 191              		@ sp needed
 192 004c 70BD     		pop	{r4, r5, r6, pc}
 193              	.L9:
 194 004e C046     		.align	2
 195              	.L8:
 196 0050 00010B40 		.word	1074462976
 197 0054 FFFFFBFF 		.word	-262145
 198 0058 06000080 		.word	-2147483642
 199 005c 04010B40 		.word	1074462980
 200 0060 30020240 		.word	1073873456
 201 0064 08010B40 		.word	1074462984
 202 0068 01000080 		.word	-2147483647
 203 006c 00000240 		.word	1073872896
 204 0070 00000000 		.word	CySysWdtIsr
 205 0074 0C020B40 		.word	1074463244
 206              		.cfi_endproc
 207              	.LFE4:
ARM GAS  C:\Users\JAMESS~1\AppData\Local\Temp\ccJnwK6b.s 			page 9


 208              		.size	ClockSetup, .-ClockSetup
 209              		.align	2
 210              		.global	cyfitter_cfg
 211              		.code	16
 212              		.thumb_func
 213              		.type	cyfitter_cfg, %function
 214              	cyfitter_cfg:
 215              	.LFB6:
 244:Generated_Source\PSoC4/cyfitter_cfg.c **** 
 245:Generated_Source\PSoC4/cyfitter_cfg.c **** 
 246:Generated_Source\PSoC4/cyfitter_cfg.c **** /* Analog API Functions */
 247:Generated_Source\PSoC4/cyfitter_cfg.c **** 
 248:Generated_Source\PSoC4/cyfitter_cfg.c **** 
 249:Generated_Source\PSoC4/cyfitter_cfg.c **** /*******************************************************************************
 250:Generated_Source\PSoC4/cyfitter_cfg.c **** * Function Name: AnalogSetDefault
 251:Generated_Source\PSoC4/cyfitter_cfg.c **** ********************************************************************************
 252:Generated_Source\PSoC4/cyfitter_cfg.c **** *
 253:Generated_Source\PSoC4/cyfitter_cfg.c **** * Summary:
 254:Generated_Source\PSoC4/cyfitter_cfg.c **** *  Sets up the analog portions of the chip to default values based on chip
 255:Generated_Source\PSoC4/cyfitter_cfg.c **** *  configuration options from the project.
 256:Generated_Source\PSoC4/cyfitter_cfg.c **** *
 257:Generated_Source\PSoC4/cyfitter_cfg.c **** * Parameters:
 258:Generated_Source\PSoC4/cyfitter_cfg.c **** *  void
 259:Generated_Source\PSoC4/cyfitter_cfg.c **** *
 260:Generated_Source\PSoC4/cyfitter_cfg.c **** * Return:
 261:Generated_Source\PSoC4/cyfitter_cfg.c **** *  void
 262:Generated_Source\PSoC4/cyfitter_cfg.c **** *
 263:Generated_Source\PSoC4/cyfitter_cfg.c **** *******************************************************************************/
 264:Generated_Source\PSoC4/cyfitter_cfg.c **** static void AnalogSetDefault(void);
 265:Generated_Source\PSoC4/cyfitter_cfg.c **** static void AnalogSetDefault(void)
 266:Generated_Source\PSoC4/cyfitter_cfg.c **** {
 267:Generated_Source\PSoC4/cyfitter_cfg.c **** }
 268:Generated_Source\PSoC4/cyfitter_cfg.c **** 
 269:Generated_Source\PSoC4/cyfitter_cfg.c **** 
 270:Generated_Source\PSoC4/cyfitter_cfg.c **** 
 271:Generated_Source\PSoC4/cyfitter_cfg.c **** 
 272:Generated_Source\PSoC4/cyfitter_cfg.c **** /*******************************************************************************
 273:Generated_Source\PSoC4/cyfitter_cfg.c **** * Function Name: cyfitter_cfg
 274:Generated_Source\PSoC4/cyfitter_cfg.c **** ********************************************************************************
 275:Generated_Source\PSoC4/cyfitter_cfg.c **** * Summary:
 276:Generated_Source\PSoC4/cyfitter_cfg.c **** *  This function is called by the start-up code for the selected device. It
 277:Generated_Source\PSoC4/cyfitter_cfg.c **** *  performs all of the necessary device configuration based on the design
 278:Generated_Source\PSoC4/cyfitter_cfg.c **** *  settings.  This includes settings from the Design Wide Resources (DWR) such
 279:Generated_Source\PSoC4/cyfitter_cfg.c **** *  as Clocks and Pins as well as any component configuration that is necessary.
 280:Generated_Source\PSoC4/cyfitter_cfg.c **** *
 281:Generated_Source\PSoC4/cyfitter_cfg.c **** * Parameters:
 282:Generated_Source\PSoC4/cyfitter_cfg.c **** *   void
 283:Generated_Source\PSoC4/cyfitter_cfg.c **** *
 284:Generated_Source\PSoC4/cyfitter_cfg.c **** * Return:
 285:Generated_Source\PSoC4/cyfitter_cfg.c **** *   void
 286:Generated_Source\PSoC4/cyfitter_cfg.c **** *
 287:Generated_Source\PSoC4/cyfitter_cfg.c **** *******************************************************************************/
 288:Generated_Source\PSoC4/cyfitter_cfg.c **** CY_CFG_SECTION
 289:Generated_Source\PSoC4/cyfitter_cfg.c **** void cyfitter_cfg(void)
 290:Generated_Source\PSoC4/cyfitter_cfg.c **** {
 216              		.loc 1 290 0
 217              		.cfi_startproc
ARM GAS  C:\Users\JAMESS~1\AppData\Local\Temp\ccJnwK6b.s 			page 10


 218              		@ args = 0, pretend = 0, frame = 0
 219              		@ frame_needed = 0, uses_anonymous_args = 0
 220 0078 10B5     		push	{r4, lr}
 221              		.cfi_def_cfa_offset 8
 222              		.cfi_offset 4, -8
 223              		.cfi_offset 14, -4
 291:Generated_Source\PSoC4/cyfitter_cfg.c **** 	/* Disable interrupts by default. Let user enable if/when they want. */
 292:Generated_Source\PSoC4/cyfitter_cfg.c **** 	CyGlobalIntDisable;
 224              		.loc 1 292 0
 225              		.syntax divided
 226              	@ 292 "Generated_Source\PSoC4\cyfitter_cfg.c" 1
 227 007a 72B6     		CPSID   i
 228              	@ 0 "" 2
 293:Generated_Source\PSoC4/cyfitter_cfg.c **** 
 294:Generated_Source\PSoC4/cyfitter_cfg.c **** 	/* Enable the clock in the interrupt controller for the routed interrupts */
 295:Generated_Source\PSoC4/cyfitter_cfg.c **** 	CY_SET_REG8((void *)CYREG_UDB_UDBIF_INT_CLK_CTL, 0x01u);
 229              		.loc 1 295 0
 230              		.thumb
 231              		.syntax unified
 232 007c 0122     		movs	r2, #1
 233 007e 2A4B     		ldr	r3, .L13
 234 0080 1A70     		strb	r2, [r3]
 235              	.LVL18:
 236              	.LBB3:
 296:Generated_Source\PSoC4/cyfitter_cfg.c **** 	{
 297:Generated_Source\PSoC4/cyfitter_cfg.c **** 		static const uint32 CYCODE cy_cfg_addr_table[] = {
 298:Generated_Source\PSoC4/cyfitter_cfg.c **** 			0x400F0004u, /* Base address: 0x400F0000 Count: 4 */
 299:Generated_Source\PSoC4/cyfitter_cfg.c **** 			0x400F303Bu, /* Base address: 0x400F3000 Count: 59 */
 300:Generated_Source\PSoC4/cyfitter_cfg.c **** 			0x400F3124u, /* Base address: 0x400F3100 Count: 36 */
 301:Generated_Source\PSoC4/cyfitter_cfg.c **** 			0x400F3231u, /* Base address: 0x400F3200 Count: 49 */
 302:Generated_Source\PSoC4/cyfitter_cfg.c **** 			0x400F333Du, /* Base address: 0x400F3300 Count: 61 */
 303:Generated_Source\PSoC4/cyfitter_cfg.c **** 			0x400F4008u, /* Base address: 0x400F4000 Count: 8 */
 304:Generated_Source\PSoC4/cyfitter_cfg.c **** 			0x400F4104u, /* Base address: 0x400F4100 Count: 4 */
 305:Generated_Source\PSoC4/cyfitter_cfg.c **** 			0x400F6002u, /* Base address: 0x400F6000 Count: 2 */
 306:Generated_Source\PSoC4/cyfitter_cfg.c **** 		};
 307:Generated_Source\PSoC4/cyfitter_cfg.c **** 
 308:Generated_Source\PSoC4/cyfitter_cfg.c **** 		static const cy_cfg_addrvalue_t CYCODE cy_cfg_data_table[] = {
 309:Generated_Source\PSoC4/cyfitter_cfg.c **** 			{0x01u, 0x18u},
 310:Generated_Source\PSoC4/cyfitter_cfg.c **** 			{0x11u, 0x18u},
 311:Generated_Source\PSoC4/cyfitter_cfg.c **** 			{0x21u, 0x14u},
 312:Generated_Source\PSoC4/cyfitter_cfg.c **** 			{0x31u, 0x0Cu},
 313:Generated_Source\PSoC4/cyfitter_cfg.c **** 			{0x06u, 0x01u},
 314:Generated_Source\PSoC4/cyfitter_cfg.c **** 			{0x20u, 0x01u},
 315:Generated_Source\PSoC4/cyfitter_cfg.c **** 			{0x24u, 0x01u},
 316:Generated_Source\PSoC4/cyfitter_cfg.c **** 			{0x28u, 0x01u},
 317:Generated_Source\PSoC4/cyfitter_cfg.c **** 			{0x2Cu, 0x01u},
 318:Generated_Source\PSoC4/cyfitter_cfg.c **** 			{0x30u, 0x01u},
 319:Generated_Source\PSoC4/cyfitter_cfg.c **** 			{0x3Eu, 0x01u},
 320:Generated_Source\PSoC4/cyfitter_cfg.c **** 			{0x58u, 0x04u},
 321:Generated_Source\PSoC4/cyfitter_cfg.c **** 			{0x5Bu, 0x04u},
 322:Generated_Source\PSoC4/cyfitter_cfg.c **** 			{0x5Fu, 0x01u},
 323:Generated_Source\PSoC4/cyfitter_cfg.c **** 			{0x80u, 0x01u},
 324:Generated_Source\PSoC4/cyfitter_cfg.c **** 			{0x84u, 0x4Bu},
 325:Generated_Source\PSoC4/cyfitter_cfg.c **** 			{0x85u, 0x04u},
 326:Generated_Source\PSoC4/cyfitter_cfg.c **** 			{0x86u, 0x20u},
 327:Generated_Source\PSoC4/cyfitter_cfg.c **** 			{0x8Bu, 0x01u},
 328:Generated_Source\PSoC4/cyfitter_cfg.c **** 			{0x8Eu, 0x10u},
ARM GAS  C:\Users\JAMESS~1\AppData\Local\Temp\ccJnwK6b.s 			page 11


 329:Generated_Source\PSoC4/cyfitter_cfg.c **** 			{0x93u, 0x01u},
 330:Generated_Source\PSoC4/cyfitter_cfg.c **** 			{0x95u, 0x0Du},
 331:Generated_Source\PSoC4/cyfitter_cfg.c **** 			{0x96u, 0x08u},
 332:Generated_Source\PSoC4/cyfitter_cfg.c **** 			{0x97u, 0x10u},
 333:Generated_Source\PSoC4/cyfitter_cfg.c **** 			{0x98u, 0x04u},
 334:Generated_Source\PSoC4/cyfitter_cfg.c **** 			{0x9Bu, 0x02u},
 335:Generated_Source\PSoC4/cyfitter_cfg.c **** 			{0x9Eu, 0x88u},
 336:Generated_Source\PSoC4/cyfitter_cfg.c **** 			{0xA2u, 0x01u},
 337:Generated_Source\PSoC4/cyfitter_cfg.c **** 			{0xA5u, 0x08u},
 338:Generated_Source\PSoC4/cyfitter_cfg.c **** 			{0xA6u, 0x48u},
 339:Generated_Source\PSoC4/cyfitter_cfg.c **** 			{0xA9u, 0x04u},
 340:Generated_Source\PSoC4/cyfitter_cfg.c **** 			{0xABu, 0x08u},
 341:Generated_Source\PSoC4/cyfitter_cfg.c **** 			{0xACu, 0x90u},
 342:Generated_Source\PSoC4/cyfitter_cfg.c **** 			{0xADu, 0x12u},
 343:Generated_Source\PSoC4/cyfitter_cfg.c **** 			{0xAEu, 0x6Eu},
 344:Generated_Source\PSoC4/cyfitter_cfg.c **** 			{0xAFu, 0x0Du},
 345:Generated_Source\PSoC4/cyfitter_cfg.c **** 			{0xB0u, 0x18u},
 346:Generated_Source\PSoC4/cyfitter_cfg.c **** 			{0xB2u, 0x20u},
 347:Generated_Source\PSoC4/cyfitter_cfg.c **** 			{0xB3u, 0x1Cu},
 348:Generated_Source\PSoC4/cyfitter_cfg.c **** 			{0xB4u, 0x07u},
 349:Generated_Source\PSoC4/cyfitter_cfg.c **** 			{0xB5u, 0x03u},
 350:Generated_Source\PSoC4/cyfitter_cfg.c **** 			{0xB6u, 0xC0u},
 351:Generated_Source\PSoC4/cyfitter_cfg.c **** 			{0xB8u, 0x20u},
 352:Generated_Source\PSoC4/cyfitter_cfg.c **** 			{0xBAu, 0x82u},
 353:Generated_Source\PSoC4/cyfitter_cfg.c **** 			{0xBBu, 0x20u},
 354:Generated_Source\PSoC4/cyfitter_cfg.c **** 			{0xC0u, 0x26u},
 355:Generated_Source\PSoC4/cyfitter_cfg.c **** 			{0xC5u, 0x01u},
 356:Generated_Source\PSoC4/cyfitter_cfg.c **** 			{0xC6u, 0x20u},
 357:Generated_Source\PSoC4/cyfitter_cfg.c **** 			{0xC7u, 0x05u},
 358:Generated_Source\PSoC4/cyfitter_cfg.c **** 			{0xC8u, 0x19u},
 359:Generated_Source\PSoC4/cyfitter_cfg.c **** 			{0xC9u, 0xFFu},
 360:Generated_Source\PSoC4/cyfitter_cfg.c **** 			{0xCAu, 0xFFu},
 361:Generated_Source\PSoC4/cyfitter_cfg.c **** 			{0xCBu, 0xFFu},
 362:Generated_Source\PSoC4/cyfitter_cfg.c **** 			{0xCDu, 0xA0u},
 363:Generated_Source\PSoC4/cyfitter_cfg.c **** 			{0xD8u, 0x04u},
 364:Generated_Source\PSoC4/cyfitter_cfg.c **** 			{0xD9u, 0x04u},
 365:Generated_Source\PSoC4/cyfitter_cfg.c **** 			{0xDAu, 0x04u},
 366:Generated_Source\PSoC4/cyfitter_cfg.c **** 			{0xDFu, 0x01u},
 367:Generated_Source\PSoC4/cyfitter_cfg.c **** 			{0xE0u, 0x40u},
 368:Generated_Source\PSoC4/cyfitter_cfg.c **** 			{0xE1u, 0x40u},
 369:Generated_Source\PSoC4/cyfitter_cfg.c **** 			{0xE2u, 0xC0u},
 370:Generated_Source\PSoC4/cyfitter_cfg.c **** 			{0xE4u, 0xC0u},
 371:Generated_Source\PSoC4/cyfitter_cfg.c **** 			{0xE6u, 0xC0u},
 372:Generated_Source\PSoC4/cyfitter_cfg.c **** 			{0x03u, 0x10u},
 373:Generated_Source\PSoC4/cyfitter_cfg.c **** 			{0x04u, 0x40u},
 374:Generated_Source\PSoC4/cyfitter_cfg.c **** 			{0x05u, 0x04u},
 375:Generated_Source\PSoC4/cyfitter_cfg.c **** 			{0x06u, 0x80u},
 376:Generated_Source\PSoC4/cyfitter_cfg.c **** 			{0x0Du, 0x20u},
 377:Generated_Source\PSoC4/cyfitter_cfg.c **** 			{0x0Eu, 0x22u},
 378:Generated_Source\PSoC4/cyfitter_cfg.c **** 			{0x10u, 0xAAu},
 379:Generated_Source\PSoC4/cyfitter_cfg.c **** 			{0x15u, 0x40u},
 380:Generated_Source\PSoC4/cyfitter_cfg.c **** 			{0x16u, 0x20u},
 381:Generated_Source\PSoC4/cyfitter_cfg.c **** 			{0x17u, 0x01u},
 382:Generated_Source\PSoC4/cyfitter_cfg.c **** 			{0x1Bu, 0x02u},
 383:Generated_Source\PSoC4/cyfitter_cfg.c **** 			{0x1Cu, 0x60u},
 384:Generated_Source\PSoC4/cyfitter_cfg.c **** 			{0x1Du, 0x20u},
 385:Generated_Source\PSoC4/cyfitter_cfg.c **** 			{0x1Eu, 0x02u},
ARM GAS  C:\Users\JAMESS~1\AppData\Local\Temp\ccJnwK6b.s 			page 12


 386:Generated_Source\PSoC4/cyfitter_cfg.c **** 			{0x26u, 0x10u},
 387:Generated_Source\PSoC4/cyfitter_cfg.c **** 			{0x27u, 0x10u},
 388:Generated_Source\PSoC4/cyfitter_cfg.c **** 			{0x2Du, 0x40u},
 389:Generated_Source\PSoC4/cyfitter_cfg.c **** 			{0x2Eu, 0x08u},
 390:Generated_Source\PSoC4/cyfitter_cfg.c **** 			{0x2Fu, 0x09u},
 391:Generated_Source\PSoC4/cyfitter_cfg.c **** 			{0x35u, 0x04u},
 392:Generated_Source\PSoC4/cyfitter_cfg.c **** 			{0x36u, 0x11u},
 393:Generated_Source\PSoC4/cyfitter_cfg.c **** 			{0x3Fu, 0x28u},
 394:Generated_Source\PSoC4/cyfitter_cfg.c **** 			{0x45u, 0x20u},
 395:Generated_Source\PSoC4/cyfitter_cfg.c **** 			{0x4Fu, 0x28u},
 396:Generated_Source\PSoC4/cyfitter_cfg.c **** 			{0x56u, 0x28u},
 397:Generated_Source\PSoC4/cyfitter_cfg.c **** 			{0x57u, 0x10u},
 398:Generated_Source\PSoC4/cyfitter_cfg.c **** 			{0x68u, 0xAAu},
 399:Generated_Source\PSoC4/cyfitter_cfg.c **** 			{0x87u, 0x02u},
 400:Generated_Source\PSoC4/cyfitter_cfg.c **** 			{0xC0u, 0xB4u},
 401:Generated_Source\PSoC4/cyfitter_cfg.c **** 			{0xC2u, 0xE0u},
 402:Generated_Source\PSoC4/cyfitter_cfg.c **** 			{0xC4u, 0xBFu},
 403:Generated_Source\PSoC4/cyfitter_cfg.c **** 			{0xCAu, 0x70u},
 404:Generated_Source\PSoC4/cyfitter_cfg.c **** 			{0xCCu, 0xE0u},
 405:Generated_Source\PSoC4/cyfitter_cfg.c **** 			{0xCEu, 0x60u},
 406:Generated_Source\PSoC4/cyfitter_cfg.c **** 			{0xD0u, 0x20u},
 407:Generated_Source\PSoC4/cyfitter_cfg.c **** 			{0xD2u, 0x20u},
 408:Generated_Source\PSoC4/cyfitter_cfg.c **** 			{0x00u, 0x64u},
 409:Generated_Source\PSoC4/cyfitter_cfg.c **** 			{0x02u, 0x1Au},
 410:Generated_Source\PSoC4/cyfitter_cfg.c **** 			{0x03u, 0x20u},
 411:Generated_Source\PSoC4/cyfitter_cfg.c **** 			{0x06u, 0x09u},
 412:Generated_Source\PSoC4/cyfitter_cfg.c **** 			{0x07u, 0x08u},
 413:Generated_Source\PSoC4/cyfitter_cfg.c **** 			{0x08u, 0x2Du},
 414:Generated_Source\PSoC4/cyfitter_cfg.c **** 			{0x0Au, 0xD2u},
 415:Generated_Source\PSoC4/cyfitter_cfg.c **** 			{0x0Bu, 0x20u},
 416:Generated_Source\PSoC4/cyfitter_cfg.c **** 			{0x0Du, 0x01u},
 417:Generated_Source\PSoC4/cyfitter_cfg.c **** 			{0x0Eu, 0x09u},
 418:Generated_Source\PSoC4/cyfitter_cfg.c **** 			{0x13u, 0x30u},
 419:Generated_Source\PSoC4/cyfitter_cfg.c **** 			{0x15u, 0x07u},
 420:Generated_Source\PSoC4/cyfitter_cfg.c **** 			{0x16u, 0x09u},
 421:Generated_Source\PSoC4/cyfitter_cfg.c **** 			{0x17u, 0x08u},
 422:Generated_Source\PSoC4/cyfitter_cfg.c **** 			{0x19u, 0x02u},
 423:Generated_Source\PSoC4/cyfitter_cfg.c **** 			{0x1Au, 0x80u},
 424:Generated_Source\PSoC4/cyfitter_cfg.c **** 			{0x1Du, 0x04u},
 425:Generated_Source\PSoC4/cyfitter_cfg.c **** 			{0x1Eu, 0x09u},
 426:Generated_Source\PSoC4/cyfitter_cfg.c **** 			{0x20u, 0x21u},
 427:Generated_Source\PSoC4/cyfitter_cfg.c **** 			{0x23u, 0x10u},
 428:Generated_Source\PSoC4/cyfitter_cfg.c **** 			{0x27u, 0x10u},
 429:Generated_Source\PSoC4/cyfitter_cfg.c **** 			{0x28u, 0x10u},
 430:Generated_Source\PSoC4/cyfitter_cfg.c **** 			{0x2Au, 0x02u},
 431:Generated_Source\PSoC4/cyfitter_cfg.c **** 			{0x2Bu, 0x07u},
 432:Generated_Source\PSoC4/cyfitter_cfg.c **** 			{0x2Eu, 0x21u},
 433:Generated_Source\PSoC4/cyfitter_cfg.c **** 			{0x2Fu, 0x0Fu},
 434:Generated_Source\PSoC4/cyfitter_cfg.c **** 			{0x30u, 0x07u},
 435:Generated_Source\PSoC4/cyfitter_cfg.c **** 			{0x31u, 0x20u},
 436:Generated_Source\PSoC4/cyfitter_cfg.c **** 			{0x32u, 0x38u},
 437:Generated_Source\PSoC4/cyfitter_cfg.c **** 			{0x34u, 0xC0u},
 438:Generated_Source\PSoC4/cyfitter_cfg.c **** 			{0x35u, 0x0Fu},
 439:Generated_Source\PSoC4/cyfitter_cfg.c **** 			{0x37u, 0x10u},
 440:Generated_Source\PSoC4/cyfitter_cfg.c **** 			{0x38u, 0x02u},
 441:Generated_Source\PSoC4/cyfitter_cfg.c **** 			{0x3Fu, 0x41u},
 442:Generated_Source\PSoC4/cyfitter_cfg.c **** 			{0x40u, 0x32u},
ARM GAS  C:\Users\JAMESS~1\AppData\Local\Temp\ccJnwK6b.s 			page 13


 443:Generated_Source\PSoC4/cyfitter_cfg.c **** 			{0x46u, 0x0Cu},
 444:Generated_Source\PSoC4/cyfitter_cfg.c **** 			{0x47u, 0xEBu},
 445:Generated_Source\PSoC4/cyfitter_cfg.c **** 			{0x48u, 0x34u},
 446:Generated_Source\PSoC4/cyfitter_cfg.c **** 			{0x49u, 0xFFu},
 447:Generated_Source\PSoC4/cyfitter_cfg.c **** 			{0x4Au, 0xFFu},
 448:Generated_Source\PSoC4/cyfitter_cfg.c **** 			{0x4Bu, 0xFFu},
 449:Generated_Source\PSoC4/cyfitter_cfg.c **** 			{0x58u, 0x04u},
 450:Generated_Source\PSoC4/cyfitter_cfg.c **** 			{0x59u, 0x04u},
 451:Generated_Source\PSoC4/cyfitter_cfg.c **** 			{0x5Au, 0x04u},
 452:Generated_Source\PSoC4/cyfitter_cfg.c **** 			{0x5Bu, 0x04u},
 453:Generated_Source\PSoC4/cyfitter_cfg.c **** 			{0x5Fu, 0x01u},
 454:Generated_Source\PSoC4/cyfitter_cfg.c **** 			{0x62u, 0xC0u},
 455:Generated_Source\PSoC4/cyfitter_cfg.c **** 			{0x64u, 0x40u},
 456:Generated_Source\PSoC4/cyfitter_cfg.c **** 			{0x65u, 0x01u},
 457:Generated_Source\PSoC4/cyfitter_cfg.c **** 			{0x04u, 0x50u},
 458:Generated_Source\PSoC4/cyfitter_cfg.c **** 			{0x05u, 0x01u},
 459:Generated_Source\PSoC4/cyfitter_cfg.c **** 			{0x06u, 0x20u},
 460:Generated_Source\PSoC4/cyfitter_cfg.c **** 			{0x0Cu, 0x40u},
 461:Generated_Source\PSoC4/cyfitter_cfg.c **** 			{0x0Du, 0x20u},
 462:Generated_Source\PSoC4/cyfitter_cfg.c **** 			{0x0Eu, 0x22u},
 463:Generated_Source\PSoC4/cyfitter_cfg.c **** 			{0x14u, 0x80u},
 464:Generated_Source\PSoC4/cyfitter_cfg.c **** 			{0x15u, 0x40u},
 465:Generated_Source\PSoC4/cyfitter_cfg.c **** 			{0x16u, 0x88u},
 466:Generated_Source\PSoC4/cyfitter_cfg.c **** 			{0x1Cu, 0x10u},
 467:Generated_Source\PSoC4/cyfitter_cfg.c **** 			{0x1Du, 0x25u},
 468:Generated_Source\PSoC4/cyfitter_cfg.c **** 			{0x1Fu, 0x01u},
 469:Generated_Source\PSoC4/cyfitter_cfg.c **** 			{0x24u, 0x06u},
 470:Generated_Source\PSoC4/cyfitter_cfg.c **** 			{0x25u, 0x02u},
 471:Generated_Source\PSoC4/cyfitter_cfg.c **** 			{0x27u, 0x08u},
 472:Generated_Source\PSoC4/cyfitter_cfg.c **** 			{0x2Cu, 0x80u},
 473:Generated_Source\PSoC4/cyfitter_cfg.c **** 			{0x2Eu, 0x24u},
 474:Generated_Source\PSoC4/cyfitter_cfg.c **** 			{0x2Fu, 0x01u},
 475:Generated_Source\PSoC4/cyfitter_cfg.c **** 			{0x34u, 0x40u},
 476:Generated_Source\PSoC4/cyfitter_cfg.c **** 			{0x35u, 0x06u},
 477:Generated_Source\PSoC4/cyfitter_cfg.c **** 			{0x36u, 0x10u},
 478:Generated_Source\PSoC4/cyfitter_cfg.c **** 			{0x37u, 0x01u},
 479:Generated_Source\PSoC4/cyfitter_cfg.c **** 			{0x3Cu, 0x64u},
 480:Generated_Source\PSoC4/cyfitter_cfg.c **** 			{0x3Eu, 0x02u},
 481:Generated_Source\PSoC4/cyfitter_cfg.c **** 			{0x3Fu, 0x10u},
 482:Generated_Source\PSoC4/cyfitter_cfg.c **** 			{0x45u, 0x20u},
 483:Generated_Source\PSoC4/cyfitter_cfg.c **** 			{0x47u, 0x08u},
 484:Generated_Source\PSoC4/cyfitter_cfg.c **** 			{0x54u, 0x01u},
 485:Generated_Source\PSoC4/cyfitter_cfg.c **** 			{0x56u, 0x80u},
 486:Generated_Source\PSoC4/cyfitter_cfg.c **** 			{0x57u, 0x08u},
 487:Generated_Source\PSoC4/cyfitter_cfg.c **** 			{0x5Cu, 0xA0u},
 488:Generated_Source\PSoC4/cyfitter_cfg.c **** 			{0x65u, 0x02u},
 489:Generated_Source\PSoC4/cyfitter_cfg.c **** 			{0x67u, 0x10u},
 490:Generated_Source\PSoC4/cyfitter_cfg.c **** 			{0x6Cu, 0x80u},
 491:Generated_Source\PSoC4/cyfitter_cfg.c **** 			{0x6Du, 0x40u},
 492:Generated_Source\PSoC4/cyfitter_cfg.c **** 			{0x6Fu, 0x01u},
 493:Generated_Source\PSoC4/cyfitter_cfg.c **** 			{0x76u, 0x0Au},
 494:Generated_Source\PSoC4/cyfitter_cfg.c **** 			{0x84u, 0x21u},
 495:Generated_Source\PSoC4/cyfitter_cfg.c **** 			{0x86u, 0x84u},
 496:Generated_Source\PSoC4/cyfitter_cfg.c **** 			{0x90u, 0x40u},
 497:Generated_Source\PSoC4/cyfitter_cfg.c **** 			{0x94u, 0x02u},
 498:Generated_Source\PSoC4/cyfitter_cfg.c **** 			{0x97u, 0x02u},
 499:Generated_Source\PSoC4/cyfitter_cfg.c **** 			{0x9Au, 0x20u},
ARM GAS  C:\Users\JAMESS~1\AppData\Local\Temp\ccJnwK6b.s 			page 14


 500:Generated_Source\PSoC4/cyfitter_cfg.c **** 			{0x9Du, 0x04u},
 501:Generated_Source\PSoC4/cyfitter_cfg.c **** 			{0x9Eu, 0x80u},
 502:Generated_Source\PSoC4/cyfitter_cfg.c **** 			{0x9Fu, 0x01u},
 503:Generated_Source\PSoC4/cyfitter_cfg.c **** 			{0xA0u, 0x10u},
 504:Generated_Source\PSoC4/cyfitter_cfg.c **** 			{0xA2u, 0x11u},
 505:Generated_Source\PSoC4/cyfitter_cfg.c **** 			{0xA5u, 0x02u},
 506:Generated_Source\PSoC4/cyfitter_cfg.c **** 			{0xA7u, 0x08u},
 507:Generated_Source\PSoC4/cyfitter_cfg.c **** 			{0xA8u, 0x01u},
 508:Generated_Source\PSoC4/cyfitter_cfg.c **** 			{0xA9u, 0x02u},
 509:Generated_Source\PSoC4/cyfitter_cfg.c **** 			{0xC0u, 0xF0u},
 510:Generated_Source\PSoC4/cyfitter_cfg.c **** 			{0xC2u, 0xE0u},
 511:Generated_Source\PSoC4/cyfitter_cfg.c **** 			{0xC4u, 0xD0u},
 512:Generated_Source\PSoC4/cyfitter_cfg.c **** 			{0xCAu, 0xF0u},
 513:Generated_Source\PSoC4/cyfitter_cfg.c **** 			{0xCCu, 0xF0u},
 514:Generated_Source\PSoC4/cyfitter_cfg.c **** 			{0xCEu, 0xF0u},
 515:Generated_Source\PSoC4/cyfitter_cfg.c **** 			{0xD0u, 0x60u},
 516:Generated_Source\PSoC4/cyfitter_cfg.c **** 			{0xD6u, 0x30u},
 517:Generated_Source\PSoC4/cyfitter_cfg.c **** 			{0xD8u, 0xC0u},
 518:Generated_Source\PSoC4/cyfitter_cfg.c **** 			{0x67u, 0x80u},
 519:Generated_Source\PSoC4/cyfitter_cfg.c **** 			{0x6Cu, 0x20u},
 520:Generated_Source\PSoC4/cyfitter_cfg.c **** 			{0x71u, 0x10u},
 521:Generated_Source\PSoC4/cyfitter_cfg.c **** 			{0x87u, 0x40u},
 522:Generated_Source\PSoC4/cyfitter_cfg.c **** 			{0xD8u, 0x80u},
 523:Generated_Source\PSoC4/cyfitter_cfg.c **** 			{0xDAu, 0x80u},
 524:Generated_Source\PSoC4/cyfitter_cfg.c **** 			{0xDCu, 0x20u},
 525:Generated_Source\PSoC4/cyfitter_cfg.c **** 			{0xE2u, 0x10u},
 526:Generated_Source\PSoC4/cyfitter_cfg.c **** 			{0xA8u, 0x20u},
 527:Generated_Source\PSoC4/cyfitter_cfg.c **** 			{0xA9u, 0x10u},
 528:Generated_Source\PSoC4/cyfitter_cfg.c **** 			{0xEAu, 0x80u},
 529:Generated_Source\PSoC4/cyfitter_cfg.c **** 			{0xEEu, 0x20u},
 530:Generated_Source\PSoC4/cyfitter_cfg.c **** 			{0x01u, 0x01u},
 531:Generated_Source\PSoC4/cyfitter_cfg.c **** 			{0x10u, 0x01u},
 532:Generated_Source\PSoC4/cyfitter_cfg.c **** 		};
 533:Generated_Source\PSoC4/cyfitter_cfg.c **** 
 534:Generated_Source\PSoC4/cyfitter_cfg.c **** 
 535:Generated_Source\PSoC4/cyfitter_cfg.c **** 
 536:Generated_Source\PSoC4/cyfitter_cfg.c **** 		CYPACKED typedef struct {
 537:Generated_Source\PSoC4/cyfitter_cfg.c **** 			void CYFAR *address;
 538:Generated_Source\PSoC4/cyfitter_cfg.c **** 			uint16 size;
 539:Generated_Source\PSoC4/cyfitter_cfg.c **** 		} CYPACKED_ATTR cfg_memset_t;
 540:Generated_Source\PSoC4/cyfitter_cfg.c **** 
 541:Generated_Source\PSoC4/cyfitter_cfg.c **** 		static const cfg_memset_t CYCODE cfg_memset_list[] = {
 542:Generated_Source\PSoC4/cyfitter_cfg.c **** 			/* address, size */
 543:Generated_Source\PSoC4/cyfitter_cfg.c **** 			{(void CYFAR *)(CYDEV_UDB_P0_U0_BASE), 1024u},
 544:Generated_Source\PSoC4/cyfitter_cfg.c **** 			{(void CYFAR *)(CYDEV_UDB_DSI0_BASE), 1024u},
 545:Generated_Source\PSoC4/cyfitter_cfg.c **** 		};
 546:Generated_Source\PSoC4/cyfitter_cfg.c **** 
 547:Generated_Source\PSoC4/cyfitter_cfg.c **** 		uint8 CYDATA i;
 548:Generated_Source\PSoC4/cyfitter_cfg.c **** 
 549:Generated_Source\PSoC4/cyfitter_cfg.c **** 		/* Zero out critical memory blocks before beginning configuration */
 550:Generated_Source\PSoC4/cyfitter_cfg.c **** 		for (i = 0u; i < (sizeof(cfg_memset_list)/sizeof(cfg_memset_list[0])); i++)
 237              		.loc 1 550 0
 238 0082 0024     		movs	r4, #0
 239 0084 0FE0     		b	.L11
 240              	.LVL19:
 241              	.L12:
 242              	.LBB4:
ARM GAS  C:\Users\JAMESS~1\AppData\Local\Temp\ccJnwK6b.s 			page 15


 551:Generated_Source\PSoC4/cyfitter_cfg.c **** 		{
 552:Generated_Source\PSoC4/cyfitter_cfg.c **** 			const cfg_memset_t CYCODE * CYDATA ms = &cfg_memset_list[i];
 553:Generated_Source\PSoC4/cyfitter_cfg.c **** 			CYMEMZERO(ms->address, (size_t)(uint32)(ms->size));
 243              		.loc 1 553 0 discriminator 3
 244 0086 2948     		ldr	r0, .L13+4
 245 0088 6200     		lsls	r2, r4, #1
 246 008a 1319     		adds	r3, r2, r4
 247 008c 5900     		lsls	r1, r3, #1
 248 008e 0B00     		movs	r3, r1
 249 0090 4118     		adds	r1, r0, r1
 250 0092 8988     		ldrh	r1, [r1, #4]
 251 0094 1A5A     		ldrh	r2, [r3, r0]
 252 0096 C318     		adds	r3, r0, r3
 253 0098 5888     		ldrh	r0, [r3, #2]
 254 009a 0004     		lsls	r0, r0, #16
 255 009c 1043     		orrs	r0, r2
 256 009e FFF7FEFF 		bl	CYMEMZERO
 257              	.LVL20:
 258              	.LBE4:
 550:Generated_Source\PSoC4/cyfitter_cfg.c **** 		{
 259              		.loc 1 550 0 discriminator 3
 260 00a2 0134     		adds	r4, r4, #1
 261              	.LVL21:
 262 00a4 E4B2     		uxtb	r4, r4
 263              	.LVL22:
 264              	.L11:
 550:Generated_Source\PSoC4/cyfitter_cfg.c **** 		{
 265              		.loc 1 550 0 is_stmt 0 discriminator 1
 266 00a6 012C     		cmp	r4, #1
 267 00a8 EDD9     		bls	.L12
 554:Generated_Source\PSoC4/cyfitter_cfg.c **** 		}
 555:Generated_Source\PSoC4/cyfitter_cfg.c **** 
 556:Generated_Source\PSoC4/cyfitter_cfg.c **** 		cfg_write_bytes32(cy_cfg_addr_table, cy_cfg_data_table);
 268              		.loc 1 556 0 is_stmt 1
 269 00aa 2049     		ldr	r1, .L13+4
 270 00ac 0C31     		adds	r1, r1, #12
 271 00ae 2048     		ldr	r0, .L13+8
 272 00b0 4C30     		adds	r0, r0, #76
 273 00b2 FFF7FEFF 		bl	cfg_write_bytes32
 274              	.LVL23:
 557:Generated_Source\PSoC4/cyfitter_cfg.c **** 
 558:Generated_Source\PSoC4/cyfitter_cfg.c **** 		/* HSIOM Starting address: CYDEV_HSIOM_BASE */
 559:Generated_Source\PSoC4/cyfitter_cfg.c **** 		CY_SET_REG32((void *)(CYDEV_HSIOM_BASE), 0x00030000u);
 275              		.loc 1 559 0
 276 00b6 C022     		movs	r2, #192
 277 00b8 9202     		lsls	r2, r2, #10
 278 00ba 1E4B     		ldr	r3, .L13+12
 279 00bc 1A60     		str	r2, [r3]
 560:Generated_Source\PSoC4/cyfitter_cfg.c **** 		CY_SET_REG32((void *)(CYREG_HSIOM_PORT_SEL3), 0x0000EE00u);
 280              		.loc 1 560 0
 281 00be EE22     		movs	r2, #238
 282 00c0 1202     		lsls	r2, r2, #8
 283 00c2 1D4B     		ldr	r3, .L13+16
 284 00c4 1A60     		str	r2, [r3]
 561:Generated_Source\PSoC4/cyfitter_cfg.c **** 
 562:Generated_Source\PSoC4/cyfitter_cfg.c **** 		/* UDB_PA_0 Starting address: CYDEV_UDB_PA0_BASE */
 563:Generated_Source\PSoC4/cyfitter_cfg.c **** 		CY_SET_REG32((void *)(CYDEV_UDB_PA0_BASE), 0x00990000u);
ARM GAS  C:\Users\JAMESS~1\AppData\Local\Temp\ccJnwK6b.s 			page 16


 285              		.loc 1 563 0
 286 00c6 9923     		movs	r3, #153
 287 00c8 1B04     		lsls	r3, r3, #16
 288 00ca 1C4A     		ldr	r2, .L13+20
 289 00cc 1360     		str	r3, [r2]
 564:Generated_Source\PSoC4/cyfitter_cfg.c **** 		CY_SET_REG32((void *)(CYREG_UDB_PA0_CFG8), 0x03000000u);
 290              		.loc 1 564 0
 291 00ce C021     		movs	r1, #192
 292 00d0 8904     		lsls	r1, r1, #18
 293 00d2 1B4A     		ldr	r2, .L13+24
 294 00d4 1160     		str	r1, [r2]
 565:Generated_Source\PSoC4/cyfitter_cfg.c **** 
 566:Generated_Source\PSoC4/cyfitter_cfg.c **** 		/* UDB_PA_2 Starting address: CYDEV_UDB_PA2_BASE */
 567:Generated_Source\PSoC4/cyfitter_cfg.c **** 		CY_SET_REG32((void *)(CYDEV_UDB_PA2_BASE), 0x00990000u);
 295              		.loc 1 567 0
 296 00d6 1B4A     		ldr	r2, .L13+28
 297 00d8 1360     		str	r3, [r2]
 568:Generated_Source\PSoC4/cyfitter_cfg.c **** 
 569:Generated_Source\PSoC4/cyfitter_cfg.c **** 		/* UDB_PA_3 Starting address: CYDEV_UDB_PA3_BASE */
 570:Generated_Source\PSoC4/cyfitter_cfg.c **** 		CY_SET_REG32((void *)(CYDEV_UDB_PA3_BASE), 0x00990000u);
 298              		.loc 1 570 0
 299 00da 1B4A     		ldr	r2, .L13+32
 300 00dc 1360     		str	r3, [r2]
 571:Generated_Source\PSoC4/cyfitter_cfg.c **** 
 572:Generated_Source\PSoC4/cyfitter_cfg.c **** 		/* INT_SELECT Starting address: CYDEV_CPUSS_INTR_SELECT */
 573:Generated_Source\PSoC4/cyfitter_cfg.c **** 		CY_SET_REG32((void *)(CYREG_CPUSS_INTR_SELECT), 0x00000005u);
 301              		.loc 1 573 0
 302 00de 0522     		movs	r2, #5
 303 00e0 1A4B     		ldr	r3, .L13+36
 304 00e2 1A60     		str	r2, [r3]
 574:Generated_Source\PSoC4/cyfitter_cfg.c **** 
 575:Generated_Source\PSoC4/cyfitter_cfg.c **** 		/* INT_CONFIG Starting address: CYDEV_UDB_INT_CFG */
 576:Generated_Source\PSoC4/cyfitter_cfg.c **** 		CY_SET_REG32((void *)(CYREG_UDB_INT_CFG), 0x00000006u);
 305              		.loc 1 576 0
 306 00e4 0132     		adds	r2, r2, #1
 307 00e6 1A4B     		ldr	r3, .L13+40
 308 00e8 1A60     		str	r2, [r3]
 577:Generated_Source\PSoC4/cyfitter_cfg.c **** 
 578:Generated_Source\PSoC4/cyfitter_cfg.c **** 		/* Enable UDB array and digital routing */
 579:Generated_Source\PSoC4/cyfitter_cfg.c **** 		CY_SET_XTND_REG8((void *)CYREG_UDB_UDBIF_WAIT_CFG, (uint8)((CY_GET_XTND_REG8((void *)CYREG_UDB_UD
 309              		.loc 1 579 0
 310 00ea 1A49     		ldr	r1, .L13+44
 311 00ec 0B78     		ldrb	r3, [r1]
 312 00ee 3632     		adds	r2, r2, #54
 313 00f0 9343     		bics	r3, r2
 314 00f2 1422     		movs	r2, #20
 315 00f4 1343     		orrs	r3, r2
 316 00f6 DBB2     		uxtb	r3, r3
 317 00f8 0B70     		strb	r3, [r1]
 580:Generated_Source\PSoC4/cyfitter_cfg.c **** 		CY_SET_XTND_REG8((void *)CYREG_UDB_UDBIF_BANK_CTL, (uint8)(CY_GET_XTND_REG8((void *)CYREG_UDB_UDB
 318              		.loc 1 580 0
 319 00fa 174A     		ldr	r2, .L13+48
 320 00fc 1178     		ldrb	r1, [r2]
 321 00fe 1623     		movs	r3, #22
 322 0100 0B43     		orrs	r3, r1
 323 0102 DBB2     		uxtb	r3, r3
 324 0104 1370     		strb	r3, [r2]
ARM GAS  C:\Users\JAMESS~1\AppData\Local\Temp\ccJnwK6b.s 			page 17


 325              	.LBE3:
 581:Generated_Source\PSoC4/cyfitter_cfg.c **** 	}
 582:Generated_Source\PSoC4/cyfitter_cfg.c **** 
 583:Generated_Source\PSoC4/cyfitter_cfg.c **** 	/* Perform second pass device configuration. These items must be configured in specific order afte
 584:Generated_Source\PSoC4/cyfitter_cfg.c **** 	/* IOPINS0_0 Starting address: CYDEV_PRT0_BASE */
 585:Generated_Source\PSoC4/cyfitter_cfg.c **** 	CY_SET_REG32((void *)(CYDEV_PRT0_BASE), 0x00000090u);
 326              		.loc 1 585 0
 327 0106 9022     		movs	r2, #144
 328 0108 144B     		ldr	r3, .L13+52
 329 010a 1A60     		str	r2, [r3]
 586:Generated_Source\PSoC4/cyfitter_cfg.c **** 	CY_SET_REG32((void *)(CYREG_PRT0_PC), 0x00406180u);
 330              		.loc 1 586 0
 331 010c 144A     		ldr	r2, .L13+56
 332 010e 154B     		ldr	r3, .L13+60
 333 0110 1A60     		str	r2, [r3]
 587:Generated_Source\PSoC4/cyfitter_cfg.c **** 
 588:Generated_Source\PSoC4/cyfitter_cfg.c **** 	/* IOPINS0_2 Starting address: CYDEV_PRT2_BASE */
 589:Generated_Source\PSoC4/cyfitter_cfg.c **** 	CY_SET_REG32((void *)(CYREG_PRT2_PC), 0x00200000u);
 334              		.loc 1 589 0
 335 0112 8022     		movs	r2, #128
 336 0114 9203     		lsls	r2, r2, #14
 337 0116 144B     		ldr	r3, .L13+64
 338 0118 1A60     		str	r2, [r3]
 590:Generated_Source\PSoC4/cyfitter_cfg.c **** 
 591:Generated_Source\PSoC4/cyfitter_cfg.c **** 	/* IOPINS0_3 Starting address: CYDEV_PRT3_BASE */
 592:Generated_Source\PSoC4/cyfitter_cfg.c **** 	CY_SET_REG32((void *)(CYREG_PRT3_PC), 0x00000D80u);
 339              		.loc 1 592 0
 340 011a D822     		movs	r2, #216
 341 011c 1201     		lsls	r2, r2, #4
 342 011e 134B     		ldr	r3, .L13+68
 343 0120 1A60     		str	r2, [r3]
 593:Generated_Source\PSoC4/cyfitter_cfg.c **** 
 594:Generated_Source\PSoC4/cyfitter_cfg.c **** 
 595:Generated_Source\PSoC4/cyfitter_cfg.c **** 	/* Setup clocks based on selections from Clock DWR */
 596:Generated_Source\PSoC4/cyfitter_cfg.c **** 	ClockSetup();
 344              		.loc 1 596 0
 345 0122 FFF76DFF 		bl	ClockSetup
 346              	.LVL24:
 597:Generated_Source\PSoC4/cyfitter_cfg.c **** 
 598:Generated_Source\PSoC4/cyfitter_cfg.c **** 	/* Perform basic analog initialization to defaults */
 599:Generated_Source\PSoC4/cyfitter_cfg.c **** 	AnalogSetDefault();
 600:Generated_Source\PSoC4/cyfitter_cfg.c **** 
 601:Generated_Source\PSoC4/cyfitter_cfg.c **** }
 347              		.loc 1 601 0
 348              		@ sp needed
 349              	.LVL25:
 350 0126 10BD     		pop	{r4, pc}
 351              	.L14:
 352              		.align	2
 353              	.L13:
 354 0128 1C700F40 		.word	1074753564
 355 012c 00000000 		.word	.LANCHOR0
 356 0130 80010000 		.word	.LANCHOR1
 357 0134 00000140 		.word	1073807360
 358 0138 0C000140 		.word	1073807372
 359 013c 00500F40 		.word	1074745344
 360 0140 08500F40 		.word	1074745352
ARM GAS  C:\Users\JAMESS~1\AppData\Local\Temp\ccJnwK6b.s 			page 18


 361 0144 20500F40 		.word	1074745376
 362 0148 30500F40 		.word	1074745392
 363 014c 20000040 		.word	1073741856
 364 0150 00800F40 		.word	1074757632
 365 0154 01700F40 		.word	1074753537
 366 0158 00700F40 		.word	1074753536
 367 015c 00000440 		.word	1074003968
 368 0160 80614000 		.word	4219264
 369 0164 08000440 		.word	1074003976
 370 0168 08020440 		.word	1074004488
 371 016c 08030440 		.word	1074004744
 372              		.cfi_endproc
 373              	.LFE6:
 374              		.size	cyfitter_cfg, .-cyfitter_cfg
 375              		.section	.rodata
 376              		.align	2
 377              		.set	.LANCHOR0,. + 0
 378              		.set	.LANCHOR1,. + 384
 379              		.type	cfg_memset_list.4870, %object
 380              		.size	cfg_memset_list.4870, 12
 381              	cfg_memset_list.4870:
 382 0000 00300F40 		.word	1074737152
 383 0004 0004     		.short	1024
 384 0006 00400F40 		.4byte	1074741248
 385 000a 0004     		.short	1024
 386              		.type	cy_cfg_data_table.4865, %object
 387              		.size	cy_cfg_data_table.4865, 446
 388              	cy_cfg_data_table.4865:
 389 000c 01       		.byte	1
 390 000d 18       		.byte	24
 391 000e 11       		.byte	17
 392 000f 18       		.byte	24
 393 0010 21       		.byte	33
 394 0011 14       		.byte	20
 395 0012 31       		.byte	49
 396 0013 0C       		.byte	12
 397 0014 06       		.byte	6
 398 0015 01       		.byte	1
 399 0016 20       		.byte	32
 400 0017 01       		.byte	1
 401 0018 24       		.byte	36
 402 0019 01       		.byte	1
 403 001a 28       		.byte	40
 404 001b 01       		.byte	1
 405 001c 2C       		.byte	44
 406 001d 01       		.byte	1
 407 001e 30       		.byte	48
 408 001f 01       		.byte	1
 409 0020 3E       		.byte	62
 410 0021 01       		.byte	1
 411 0022 58       		.byte	88
 412 0023 04       		.byte	4
 413 0024 5B       		.byte	91
 414 0025 04       		.byte	4
 415 0026 5F       		.byte	95
 416 0027 01       		.byte	1
 417 0028 80       		.byte	-128
ARM GAS  C:\Users\JAMESS~1\AppData\Local\Temp\ccJnwK6b.s 			page 19


 418 0029 01       		.byte	1
 419 002a 84       		.byte	-124
 420 002b 4B       		.byte	75
 421 002c 85       		.byte	-123
 422 002d 04       		.byte	4
 423 002e 86       		.byte	-122
 424 002f 20       		.byte	32
 425 0030 8B       		.byte	-117
 426 0031 01       		.byte	1
 427 0032 8E       		.byte	-114
 428 0033 10       		.byte	16
 429 0034 93       		.byte	-109
 430 0035 01       		.byte	1
 431 0036 95       		.byte	-107
 432 0037 0D       		.byte	13
 433 0038 96       		.byte	-106
 434 0039 08       		.byte	8
 435 003a 97       		.byte	-105
 436 003b 10       		.byte	16
 437 003c 98       		.byte	-104
 438 003d 04       		.byte	4
 439 003e 9B       		.byte	-101
 440 003f 02       		.byte	2
 441 0040 9E       		.byte	-98
 442 0041 88       		.byte	-120
 443 0042 A2       		.byte	-94
 444 0043 01       		.byte	1
 445 0044 A5       		.byte	-91
 446 0045 08       		.byte	8
 447 0046 A6       		.byte	-90
 448 0047 48       		.byte	72
 449 0048 A9       		.byte	-87
 450 0049 04       		.byte	4
 451 004a AB       		.byte	-85
 452 004b 08       		.byte	8
 453 004c AC       		.byte	-84
 454 004d 90       		.byte	-112
 455 004e AD       		.byte	-83
 456 004f 12       		.byte	18
 457 0050 AE       		.byte	-82
 458 0051 6E       		.byte	110
 459 0052 AF       		.byte	-81
 460 0053 0D       		.byte	13
 461 0054 B0       		.byte	-80
 462 0055 18       		.byte	24
 463 0056 B2       		.byte	-78
 464 0057 20       		.byte	32
 465 0058 B3       		.byte	-77
 466 0059 1C       		.byte	28
 467 005a B4       		.byte	-76
 468 005b 07       		.byte	7
 469 005c B5       		.byte	-75
 470 005d 03       		.byte	3
 471 005e B6       		.byte	-74
 472 005f C0       		.byte	-64
 473 0060 B8       		.byte	-72
 474 0061 20       		.byte	32
ARM GAS  C:\Users\JAMESS~1\AppData\Local\Temp\ccJnwK6b.s 			page 20


 475 0062 BA       		.byte	-70
 476 0063 82       		.byte	-126
 477 0064 BB       		.byte	-69
 478 0065 20       		.byte	32
 479 0066 C0       		.byte	-64
 480 0067 26       		.byte	38
 481 0068 C5       		.byte	-59
 482 0069 01       		.byte	1
 483 006a C6       		.byte	-58
 484 006b 20       		.byte	32
 485 006c C7       		.byte	-57
 486 006d 05       		.byte	5
 487 006e C8       		.byte	-56
 488 006f 19       		.byte	25
 489 0070 C9       		.byte	-55
 490 0071 FF       		.byte	-1
 491 0072 CA       		.byte	-54
 492 0073 FF       		.byte	-1
 493 0074 CB       		.byte	-53
 494 0075 FF       		.byte	-1
 495 0076 CD       		.byte	-51
 496 0077 A0       		.byte	-96
 497 0078 D8       		.byte	-40
 498 0079 04       		.byte	4
 499 007a D9       		.byte	-39
 500 007b 04       		.byte	4
 501 007c DA       		.byte	-38
 502 007d 04       		.byte	4
 503 007e DF       		.byte	-33
 504 007f 01       		.byte	1
 505 0080 E0       		.byte	-32
 506 0081 40       		.byte	64
 507 0082 E1       		.byte	-31
 508 0083 40       		.byte	64
 509 0084 E2       		.byte	-30
 510 0085 C0       		.byte	-64
 511 0086 E4       		.byte	-28
 512 0087 C0       		.byte	-64
 513 0088 E6       		.byte	-26
 514 0089 C0       		.byte	-64
 515 008a 03       		.byte	3
 516 008b 10       		.byte	16
 517 008c 04       		.byte	4
 518 008d 40       		.byte	64
 519 008e 05       		.byte	5
 520 008f 04       		.byte	4
 521 0090 06       		.byte	6
 522 0091 80       		.byte	-128
 523 0092 0D       		.byte	13
 524 0093 20       		.byte	32
 525 0094 0E       		.byte	14
 526 0095 22       		.byte	34
 527 0096 10       		.byte	16
 528 0097 AA       		.byte	-86
 529 0098 15       		.byte	21
 530 0099 40       		.byte	64
 531 009a 16       		.byte	22
ARM GAS  C:\Users\JAMESS~1\AppData\Local\Temp\ccJnwK6b.s 			page 21


 532 009b 20       		.byte	32
 533 009c 17       		.byte	23
 534 009d 01       		.byte	1
 535 009e 1B       		.byte	27
 536 009f 02       		.byte	2
 537 00a0 1C       		.byte	28
 538 00a1 60       		.byte	96
 539 00a2 1D       		.byte	29
 540 00a3 20       		.byte	32
 541 00a4 1E       		.byte	30
 542 00a5 02       		.byte	2
 543 00a6 26       		.byte	38
 544 00a7 10       		.byte	16
 545 00a8 27       		.byte	39
 546 00a9 10       		.byte	16
 547 00aa 2D       		.byte	45
 548 00ab 40       		.byte	64
 549 00ac 2E       		.byte	46
 550 00ad 08       		.byte	8
 551 00ae 2F       		.byte	47
 552 00af 09       		.byte	9
 553 00b0 35       		.byte	53
 554 00b1 04       		.byte	4
 555 00b2 36       		.byte	54
 556 00b3 11       		.byte	17
 557 00b4 3F       		.byte	63
 558 00b5 28       		.byte	40
 559 00b6 45       		.byte	69
 560 00b7 20       		.byte	32
 561 00b8 4F       		.byte	79
 562 00b9 28       		.byte	40
 563 00ba 56       		.byte	86
 564 00bb 28       		.byte	40
 565 00bc 57       		.byte	87
 566 00bd 10       		.byte	16
 567 00be 68       		.byte	104
 568 00bf AA       		.byte	-86
 569 00c0 87       		.byte	-121
 570 00c1 02       		.byte	2
 571 00c2 C0       		.byte	-64
 572 00c3 B4       		.byte	-76
 573 00c4 C2       		.byte	-62
 574 00c5 E0       		.byte	-32
 575 00c6 C4       		.byte	-60
 576 00c7 BF       		.byte	-65
 577 00c8 CA       		.byte	-54
 578 00c9 70       		.byte	112
 579 00ca CC       		.byte	-52
 580 00cb E0       		.byte	-32
 581 00cc CE       		.byte	-50
 582 00cd 60       		.byte	96
 583 00ce D0       		.byte	-48
 584 00cf 20       		.byte	32
 585 00d0 D2       		.byte	-46
 586 00d1 20       		.byte	32
 587 00d2 00       		.byte	0
 588 00d3 64       		.byte	100
ARM GAS  C:\Users\JAMESS~1\AppData\Local\Temp\ccJnwK6b.s 			page 22


 589 00d4 02       		.byte	2
 590 00d5 1A       		.byte	26
 591 00d6 03       		.byte	3
 592 00d7 20       		.byte	32
 593 00d8 06       		.byte	6
 594 00d9 09       		.byte	9
 595 00da 07       		.byte	7
 596 00db 08       		.byte	8
 597 00dc 08       		.byte	8
 598 00dd 2D       		.byte	45
 599 00de 0A       		.byte	10
 600 00df D2       		.byte	-46
 601 00e0 0B       		.byte	11
 602 00e1 20       		.byte	32
 603 00e2 0D       		.byte	13
 604 00e3 01       		.byte	1
 605 00e4 0E       		.byte	14
 606 00e5 09       		.byte	9
 607 00e6 13       		.byte	19
 608 00e7 30       		.byte	48
 609 00e8 15       		.byte	21
 610 00e9 07       		.byte	7
 611 00ea 16       		.byte	22
 612 00eb 09       		.byte	9
 613 00ec 17       		.byte	23
 614 00ed 08       		.byte	8
 615 00ee 19       		.byte	25
 616 00ef 02       		.byte	2
 617 00f0 1A       		.byte	26
 618 00f1 80       		.byte	-128
 619 00f2 1D       		.byte	29
 620 00f3 04       		.byte	4
 621 00f4 1E       		.byte	30
 622 00f5 09       		.byte	9
 623 00f6 20       		.byte	32
 624 00f7 21       		.byte	33
 625 00f8 23       		.byte	35
 626 00f9 10       		.byte	16
 627 00fa 27       		.byte	39
 628 00fb 10       		.byte	16
 629 00fc 28       		.byte	40
 630 00fd 10       		.byte	16
 631 00fe 2A       		.byte	42
 632 00ff 02       		.byte	2
 633 0100 2B       		.byte	43
 634 0101 07       		.byte	7
 635 0102 2E       		.byte	46
 636 0103 21       		.byte	33
 637 0104 2F       		.byte	47
 638 0105 0F       		.byte	15
 639 0106 30       		.byte	48
 640 0107 07       		.byte	7
 641 0108 31       		.byte	49
 642 0109 20       		.byte	32
 643 010a 32       		.byte	50
 644 010b 38       		.byte	56
 645 010c 34       		.byte	52
ARM GAS  C:\Users\JAMESS~1\AppData\Local\Temp\ccJnwK6b.s 			page 23


 646 010d C0       		.byte	-64
 647 010e 35       		.byte	53
 648 010f 0F       		.byte	15
 649 0110 37       		.byte	55
 650 0111 10       		.byte	16
 651 0112 38       		.byte	56
 652 0113 02       		.byte	2
 653 0114 3F       		.byte	63
 654 0115 41       		.byte	65
 655 0116 40       		.byte	64
 656 0117 32       		.byte	50
 657 0118 46       		.byte	70
 658 0119 0C       		.byte	12
 659 011a 47       		.byte	71
 660 011b EB       		.byte	-21
 661 011c 48       		.byte	72
 662 011d 34       		.byte	52
 663 011e 49       		.byte	73
 664 011f FF       		.byte	-1
 665 0120 4A       		.byte	74
 666 0121 FF       		.byte	-1
 667 0122 4B       		.byte	75
 668 0123 FF       		.byte	-1
 669 0124 58       		.byte	88
 670 0125 04       		.byte	4
 671 0126 59       		.byte	89
 672 0127 04       		.byte	4
 673 0128 5A       		.byte	90
 674 0129 04       		.byte	4
 675 012a 5B       		.byte	91
 676 012b 04       		.byte	4
 677 012c 5F       		.byte	95
 678 012d 01       		.byte	1
 679 012e 62       		.byte	98
 680 012f C0       		.byte	-64
 681 0130 64       		.byte	100
 682 0131 40       		.byte	64
 683 0132 65       		.byte	101
 684 0133 01       		.byte	1
 685 0134 04       		.byte	4
 686 0135 50       		.byte	80
 687 0136 05       		.byte	5
 688 0137 01       		.byte	1
 689 0138 06       		.byte	6
 690 0139 20       		.byte	32
 691 013a 0C       		.byte	12
 692 013b 40       		.byte	64
 693 013c 0D       		.byte	13
 694 013d 20       		.byte	32
 695 013e 0E       		.byte	14
 696 013f 22       		.byte	34
 697 0140 14       		.byte	20
 698 0141 80       		.byte	-128
 699 0142 15       		.byte	21
 700 0143 40       		.byte	64
 701 0144 16       		.byte	22
 702 0145 88       		.byte	-120
ARM GAS  C:\Users\JAMESS~1\AppData\Local\Temp\ccJnwK6b.s 			page 24


 703 0146 1C       		.byte	28
 704 0147 10       		.byte	16
 705 0148 1D       		.byte	29
 706 0149 25       		.byte	37
 707 014a 1F       		.byte	31
 708 014b 01       		.byte	1
 709 014c 24       		.byte	36
 710 014d 06       		.byte	6
 711 014e 25       		.byte	37
 712 014f 02       		.byte	2
 713 0150 27       		.byte	39
 714 0151 08       		.byte	8
 715 0152 2C       		.byte	44
 716 0153 80       		.byte	-128
 717 0154 2E       		.byte	46
 718 0155 24       		.byte	36
 719 0156 2F       		.byte	47
 720 0157 01       		.byte	1
 721 0158 34       		.byte	52
 722 0159 40       		.byte	64
 723 015a 35       		.byte	53
 724 015b 06       		.byte	6
 725 015c 36       		.byte	54
 726 015d 10       		.byte	16
 727 015e 37       		.byte	55
 728 015f 01       		.byte	1
 729 0160 3C       		.byte	60
 730 0161 64       		.byte	100
 731 0162 3E       		.byte	62
 732 0163 02       		.byte	2
 733 0164 3F       		.byte	63
 734 0165 10       		.byte	16
 735 0166 45       		.byte	69
 736 0167 20       		.byte	32
 737 0168 47       		.byte	71
 738 0169 08       		.byte	8
 739 016a 54       		.byte	84
 740 016b 01       		.byte	1
 741 016c 56       		.byte	86
 742 016d 80       		.byte	-128
 743 016e 57       		.byte	87
 744 016f 08       		.byte	8
 745 0170 5C       		.byte	92
 746 0171 A0       		.byte	-96
 747 0172 65       		.byte	101
 748 0173 02       		.byte	2
 749 0174 67       		.byte	103
 750 0175 10       		.byte	16
 751 0176 6C       		.byte	108
 752 0177 80       		.byte	-128
 753 0178 6D       		.byte	109
 754 0179 40       		.byte	64
 755 017a 6F       		.byte	111
 756 017b 01       		.byte	1
 757 017c 76       		.byte	118
 758 017d 0A       		.byte	10
 759 017e 84       		.byte	-124
ARM GAS  C:\Users\JAMESS~1\AppData\Local\Temp\ccJnwK6b.s 			page 25


 760 017f 21       		.byte	33
 761 0180 86       		.byte	-122
 762 0181 84       		.byte	-124
 763 0182 90       		.byte	-112
 764 0183 40       		.byte	64
 765 0184 94       		.byte	-108
 766 0185 02       		.byte	2
 767 0186 97       		.byte	-105
 768 0187 02       		.byte	2
 769 0188 9A       		.byte	-102
 770 0189 20       		.byte	32
 771 018a 9D       		.byte	-99
 772 018b 04       		.byte	4
 773 018c 9E       		.byte	-98
 774 018d 80       		.byte	-128
 775 018e 9F       		.byte	-97
 776 018f 01       		.byte	1
 777 0190 A0       		.byte	-96
 778 0191 10       		.byte	16
 779 0192 A2       		.byte	-94
 780 0193 11       		.byte	17
 781 0194 A5       		.byte	-91
 782 0195 02       		.byte	2
 783 0196 A7       		.byte	-89
 784 0197 08       		.byte	8
 785 0198 A8       		.byte	-88
 786 0199 01       		.byte	1
 787 019a A9       		.byte	-87
 788 019b 02       		.byte	2
 789 019c C0       		.byte	-64
 790 019d F0       		.byte	-16
 791 019e C2       		.byte	-62
 792 019f E0       		.byte	-32
 793 01a0 C4       		.byte	-60
 794 01a1 D0       		.byte	-48
 795 01a2 CA       		.byte	-54
 796 01a3 F0       		.byte	-16
 797 01a4 CC       		.byte	-52
 798 01a5 F0       		.byte	-16
 799 01a6 CE       		.byte	-50
 800 01a7 F0       		.byte	-16
 801 01a8 D0       		.byte	-48
 802 01a9 60       		.byte	96
 803 01aa D6       		.byte	-42
 804 01ab 30       		.byte	48
 805 01ac D8       		.byte	-40
 806 01ad C0       		.byte	-64
 807 01ae 67       		.byte	103
 808 01af 80       		.byte	-128
 809 01b0 6C       		.byte	108
 810 01b1 20       		.byte	32
 811 01b2 71       		.byte	113
 812 01b3 10       		.byte	16
 813 01b4 87       		.byte	-121
 814 01b5 40       		.byte	64
 815 01b6 D8       		.byte	-40
 816 01b7 80       		.byte	-128
ARM GAS  C:\Users\JAMESS~1\AppData\Local\Temp\ccJnwK6b.s 			page 26


 817 01b8 DA       		.byte	-38
 818 01b9 80       		.byte	-128
 819 01ba DC       		.byte	-36
 820 01bb 20       		.byte	32
 821 01bc E2       		.byte	-30
 822 01bd 10       		.byte	16
 823 01be A8       		.byte	-88
 824 01bf 20       		.byte	32
 825 01c0 A9       		.byte	-87
 826 01c1 10       		.byte	16
 827 01c2 EA       		.byte	-22
 828 01c3 80       		.byte	-128
 829 01c4 EE       		.byte	-18
 830 01c5 20       		.byte	32
 831 01c6 01       		.byte	1
 832 01c7 01       		.byte	1
 833 01c8 10       		.byte	16
 834 01c9 01       		.byte	1
 835 01ca 0000     		.space	2
 836              		.type	cy_cfg_addr_table.4864, %object
 837              		.size	cy_cfg_addr_table.4864, 32
 838              	cy_cfg_addr_table.4864:
 839 01cc 04000F40 		.word	1074724868
 840 01d0 3B300F40 		.word	1074737211
 841 01d4 24310F40 		.word	1074737444
 842 01d8 31320F40 		.word	1074737713
 843 01dc 3D330F40 		.word	1074737981
 844 01e0 08400F40 		.word	1074741256
 845 01e4 04410F40 		.word	1074741508
 846 01e8 02600F40 		.word	1074749442
 847              		.text
 848              	.Letext0:
 849              		.file 2 "c:\\program files (x86)\\cypress\\psoc creator\\4.1\\psoc creator\\import\\gnu\\arm\\5.4.
 850              		.file 3 "Generated_Source\\PSoC4\\cytypes.h"
 851              		.file 4 "Generated_Source\\PSoC4\\CyLib.h"