ARM GAS  C:\Users\JAMESS~1\AppData\Local\Temp\cci23mF1.s 			page 1


   1              		.syntax unified
   2              		.cpu cortex-m0
   3              		.fpu softvfp
   4              		.eabi_attribute 20, 1
   5              		.eabi_attribute 21, 1
   6              		.eabi_attribute 23, 3
   7              		.eabi_attribute 24, 1
   8              		.eabi_attribute 25, 1
   9              		.eabi_attribute 26, 1
  10              		.eabi_attribute 30, 1
  11              		.eabi_attribute 34, 0
  12              		.eabi_attribute 18, 4
  13              		.thumb
  14              		.syntax unified
  15              		.file	"main.c"
  16              		.text
  17              	.Ltext0:
  18              		.cfi_sections	.debug_frame
  19              		.section	.text.main,"ax",%progbits
  20              		.align	2
  21              		.global	main
  22              		.code	16
  23              		.thumb_func
  24              		.type	main, %function
  25              	main:
  26              	.LFB32:
  27              		.file 1 "main.c"
   1:main.c        **** /* ========================================
   2:main.c        ****  *
   3:main.c        ****  * EX2_String
   4:main.c        ****  *
   5:main.c        ****  * A simple function to cycle the color table
   6:main.c        ****  * through the string.
   7:main.c        ****  *
   8:main.c        ****  * ========================================
   9:main.c        **** */
  10:main.c        **** #include "project.h"
  11:main.c        **** 
  12:main.c        **** void SlowColorBlend(uint32 delay, uint32 time);
  13:main.c        **** 
  14:main.c        **** int main(void)
  15:main.c        **** {
  28              		.loc 1 15 0
  29              		.cfi_startproc
  30              		@ args = 0, pretend = 0, frame = 0
  31              		@ frame_needed = 0, uses_anonymous_args = 0
  32 0000 70B5     		push	{r4, r5, r6, lr}
  33              		.cfi_def_cfa_offset 16
  34              		.cfi_offset 4, -16
  35              		.cfi_offset 5, -12
  36              		.cfi_offset 6, -8
  37              		.cfi_offset 14, -4
  16:main.c        ****     CyGlobalIntEnable; /* Enable global interrupts. */
  38              		.loc 1 16 0
  39              		.syntax divided
  40              	@ 16 "main.c" 1
  41 0002 62B6     		CPSIE   i
ARM GAS  C:\Users\JAMESS~1\AppData\Local\Temp\cci23mF1.s 			page 2


  42              	@ 0 "" 2
  17:main.c        ****     StripLights_Start();
  43              		.loc 1 17 0
  44              		.thumb
  45              		.syntax unified
  46 0004 FFF7FEFF 		bl	StripLights_Start
  47              	.LVL0:
  18:main.c        ****     
  19:main.c        ****     StripLights_Dim(0);
  48              		.loc 1 19 0
  49 0008 0020     		movs	r0, #0
  50 000a FFF7FEFF 		bl	StripLights_Dim
  51              	.LVL1:
  20:main.c        **** 
  21:main.c        ****     /* Place your initialization/startup code here (e.g. MyInst_Start()) */
  22:main.c        ****     
  23:main.c        ****     uint32 led = 0;
  24:main.c        ****     uint32 color = StripLights_RED;
  52              		.loc 1 24 0
  53 000e 4820     		movs	r0, #72
  54 0010 FFF7FEFF 		bl	StripLights_getColor
  55              	.LVL2:
  56 0014 0500     		movs	r5, r0
  57              	.LVL3:
  58              	.L2:
  59              	.LBB2:
  25:main.c        ****     for(;;)
  26:main.c        ****     {
  27:main.c        **** 
  28:main.c        ****         uint8 button = Pin_Flex_Read();
  60              		.loc 1 28 0
  61 0016 FFF7FEFF 		bl	Pin_Flex_Read
  62              	.LVL4:
  29:main.c        ****         Pin_LED_Write(button);
  63              		.loc 1 29 0
  64 001a FFF7FEFF 		bl	Pin_LED_Write
  65              	.LVL5:
  30:main.c        ****         for(led = 0; led <= 30; led++){
  66              		.loc 1 30 0
  67 001e 0024     		movs	r4, #0
  68 0020 0CE0     		b	.L3
  69              	.LVL6:
  70              	.L5:
  31:main.c        ****             
  32:main.c        ****             StripLights_Pixel(led, 0, color);
  71              		.loc 1 32 0
  72 0022 2A00     		movs	r2, r5
  73 0024 0021     		movs	r1, #0
  74 0026 2000     		movs	r0, r4
  75 0028 FFF7FEFF 		bl	StripLights_Pixel
  76              	.LVL7:
  77              	.L4:
  33:main.c        ****             while( StripLights_Ready() == 0);
  78              		.loc 1 33 0 discriminator 1
  79 002c FFF7FEFF 		bl	StripLights_Ready
  80              	.LVL8:
  81 0030 0028     		cmp	r0, #0
ARM GAS  C:\Users\JAMESS~1\AppData\Local\Temp\cci23mF1.s 			page 3


  82 0032 FBD0     		beq	.L4
  34:main.c        **** 	
  35:main.c        ****             StripLights_Trigger(1);
  83              		.loc 1 35 0 discriminator 2
  84 0034 0120     		movs	r0, #1
  85 0036 FFF7FEFF 		bl	StripLights_Trigger
  86              	.LVL9:
  30:main.c        ****             
  87              		.loc 1 30 0 discriminator 2
  88 003a 0134     		adds	r4, r4, #1
  89              	.LVL10:
  90              	.L3:
  30:main.c        ****             
  91              		.loc 1 30 0 is_stmt 0 discriminator 1
  92 003c 1E2C     		cmp	r4, #30
  93 003e F0D9     		bls	.L5
  36:main.c        ****             
  37:main.c        ****         }
  38:main.c        ****         CyDelay(10);
  94              		.loc 1 38 0 is_stmt 1
  95 0040 0A20     		movs	r0, #10
  96 0042 FFF7FEFF 		bl	CyDelay
  97              	.LVL11:
  39:main.c        ****         button = Pin_Flex_Read();
  98              		.loc 1 39 0
  99 0046 FFF7FEFF 		bl	Pin_Flex_Read
 100              	.LVL12:
  40:main.c        ****         if(button){
 101              		.loc 1 40 0
 102 004a 0028     		cmp	r0, #0
 103 004c 04D0     		beq	.L6
  41:main.c        ****             color = StripLights_GREEN;
 104              		.loc 1 41 0
 105 004e 5E20     		movs	r0, #94
 106              	.LVL13:
 107 0050 FFF7FEFF 		bl	StripLights_getColor
 108              	.LVL14:
 109 0054 0500     		movs	r5, r0
 110              	.LVL15:
 111 0056 DEE7     		b	.L2
 112              	.LVL16:
 113              	.L6:
  42:main.c        ****         }
  43:main.c        ****         else{
  44:main.c        ****             color = StripLights_RED;
 114              		.loc 1 44 0
 115 0058 4820     		movs	r0, #72
 116              	.LVL17:
 117 005a FFF7FEFF 		bl	StripLights_getColor
 118              	.LVL18:
 119 005e 0500     		movs	r5, r0
 120              	.LVL19:
 121 0060 D9E7     		b	.L2
 122              	.LBE2:
 123              		.cfi_endproc
 124              	.LFE32:
 125              		.size	main, .-main
ARM GAS  C:\Users\JAMESS~1\AppData\Local\Temp\cci23mF1.s 			page 4


 126              		.global	__aeabi_uidiv
 127              		.global	__aeabi_uidivmod
 128 0062 C046     		.section	.text.SlowColorBlend,"ax",%progbits
 129              		.align	2
 130              		.global	SlowColorBlend
 131              		.code	16
 132              		.thumb_func
 133              		.type	SlowColorBlend, %function
 134              	SlowColorBlend:
 135              	.LFB33:
  45:main.c        ****         }
  46:main.c        ****     }
  47:main.c        **** }
  48:main.c        **** 
  49:main.c        **** /************************************************
  50:main.c        ****  *                    SlowColorBlend()
  51:main.c        ****  *
  52:main.c        ****  *  Slowly migate all the LEDs through the color
  53:main.c        ****  *  table.
  54:main.c        ****  *
  55:main.c        ****  ************************************************/
  56:main.c        **** void SlowColorBlend(uint32 delay, uint32 time)
  57:main.c        **** {
 136              		.loc 1 57 0
 137              		.cfi_startproc
 138              		@ args = 0, pretend = 0, frame = 8
 139              		@ frame_needed = 0, uses_anonymous_args = 0
 140              	.LVL20:
 141 0000 F0B5     		push	{r4, r5, r6, r7, lr}
 142              		.cfi_def_cfa_offset 20
 143              		.cfi_offset 4, -20
 144              		.cfi_offset 5, -16
 145              		.cfi_offset 6, -12
 146              		.cfi_offset 7, -8
 147              		.cfi_offset 14, -4
 148 0002 4746     		mov	r7, r8
 149 0004 80B4     		push	{r7}
 150              		.cfi_def_cfa_offset 24
 151              		.cfi_offset 8, -24
 152 0006 82B0     		sub	sp, sp, #8
 153              		.cfi_def_cfa_offset 32
 154 0008 0190     		str	r0, [sp, #4]
 155              	.LVL21:
  58:main.c        ****     uint32 timeCnt = 0; 
  59:main.c        ****     uint32 led = 0;
  60:main.c        ****     uint32 x = 0;
 156              		.loc 1 60 0
 157 000a 0023     		movs	r3, #0
 158 000c 9846     		mov	r8, r3
 159              	.LVL22:
 160              	.L13:
  61:main.c        ****     uint32 pct = 0;
  62:main.c        ****     uint32 fromColor, toColor, color;
  63:main.c        ****     extern const uint32 StripLights_CLUT[ ];
  64:main.c        **** 
  65:main.c        ****     
  66:main.c        **** 
ARM GAS  C:\Users\JAMESS~1\AppData\Local\Temp\cci23mF1.s 			page 5


  67:main.c        ****     for(;;)
  68:main.c        ****     {   
  69:main.c        ****         while(1)
  70:main.c        ****         {
  71:main.c        ****            
  72:main.c        ****             for(pct = 0; pct < 100; pct += 4)
 161              		.loc 1 72 0
 162 000e 0023     		movs	r3, #0
 163 0010 0093     		str	r3, [sp]
 164 0012 2EE0     		b	.L9
 165              	.LVL23:
 166              	.L10:
  73:main.c        ****             {
  74:main.c        ****                 for(led = 0; led <= StripLights_MAX_X; led++)
  75:main.c        ****                 {
  76:main.c        ****  
  77:main.c        ****                     fromColor =  StripLights_CLUT[(x + 0 + ((led * StripLights_COLOR_WHEEL_SIZE)/St
 167              		.loc 1 77 0 discriminator 3
 168 0014 7B00     		lsls	r3, r7, #1
 169 0016 DB19     		adds	r3, r3, r7
 170 0018 D800     		lsls	r0, r3, #3
 171 001a 0E21     		movs	r1, #14
 172 001c FFF7FEFF 		bl	__aeabi_uidiv
 173              	.LVL24:
 174 0020 4044     		add	r0, r0, r8
 175 0022 0400     		movs	r4, r0
 176 0024 1821     		movs	r1, #24
 177 0026 FFF7FEFF 		bl	__aeabi_uidivmod
 178              	.LVL25:
 179 002a 154E     		ldr	r6, .L15
 180 002c 8900     		lsls	r1, r1, #2
 181 002e 8D59     		ldr	r5, [r1, r6]
 182              	.LVL26:
  78:main.c        ****                     toColor =  StripLights_CLUT[(x + 1 + ((led * StripLights_COLOR_WHEEL_SIZE)/Stri
 183              		.loc 1 78 0 discriminator 3
 184 0030 601C     		adds	r0, r4, #1
 185 0032 1821     		movs	r1, #24
 186 0034 FFF7FEFF 		bl	__aeabi_uidivmod
 187              	.LVL27:
 188 0038 8900     		lsls	r1, r1, #2
 189 003a 8959     		ldr	r1, [r1, r6]
 190              	.LVL28:
  79:main.c        ****                     
  80:main.c        ****                     color = StripLights_RgbBlend(fromColor, toColor, pct);                  
 191              		.loc 1 80 0 discriminator 3
 192 003c 009A     		ldr	r2, [sp]
 193 003e 2800     		movs	r0, r5
 194 0040 FFF7FEFF 		bl	StripLights_RgbBlend
 195              	.LVL29:
 196 0044 0200     		movs	r2, r0
 197              	.LVL30:
  81:main.c        ****                     StripLights_Pixel(led, 0, color );
 198              		.loc 1 81 0 discriminator 3
 199 0046 0021     		movs	r1, #0
 200 0048 3800     		movs	r0, r7
 201              	.LVL31:
 202 004a FFF7FEFF 		bl	StripLights_Pixel
ARM GAS  C:\Users\JAMESS~1\AppData\Local\Temp\cci23mF1.s 			page 6


 203              	.LVL32:
  74:main.c        ****                 {
 204              		.loc 1 74 0 discriminator 3
 205 004e 0137     		adds	r7, r7, #1
 206              	.LVL33:
 207 0050 00E0     		b	.L12
 208              	.LVL34:
 209              	.L14:
 210 0052 0027     		movs	r7, #0
 211              	.LVL35:
 212              	.L12:
  74:main.c        ****                 {
 213              		.loc 1 74 0 is_stmt 0 discriminator 1
 214 0054 0D2F     		cmp	r7, #13
 215 0056 DDD9     		bls	.L10
 216              	.L11:
  82:main.c        ****                 }
  83:main.c        ****                 
  84:main.c        ****                 while( StripLights_Ready() == 0);
 217              		.loc 1 84 0 is_stmt 1 discriminator 1
 218 0058 FFF7FEFF 		bl	StripLights_Ready
 219              	.LVL36:
 220 005c 0028     		cmp	r0, #0
 221 005e FBD0     		beq	.L11
  85:main.c        **** 	
  86:main.c        ****                 StripLights_Trigger(1);
 222              		.loc 1 86 0 discriminator 2
 223 0060 0120     		movs	r0, #1
 224 0062 FFF7FEFF 		bl	StripLights_Trigger
 225              	.LVL37:
  87:main.c        ****                 
  88:main.c        ****                 CyDelay(delay);
 226              		.loc 1 88 0 discriminator 2
 227 0066 0198     		ldr	r0, [sp, #4]
 228 0068 FFF7FEFF 		bl	CyDelay
 229              	.LVL38:
  72:main.c        ****             {
 230              		.loc 1 72 0 discriminator 2
 231 006c 009B     		ldr	r3, [sp]
 232 006e 0433     		adds	r3, r3, #4
 233 0070 0093     		str	r3, [sp]
 234              	.LVL39:
 235              	.L9:
  72:main.c        ****             {
 236              		.loc 1 72 0 is_stmt 0 discriminator 1
 237 0072 009B     		ldr	r3, [sp]
 238 0074 632B     		cmp	r3, #99
 239 0076 ECD9     		bls	.L14
  89:main.c        **** 
  90:main.c        ****             }
  91:main.c        ****             x++;  // Advance through color wheel
 240              		.loc 1 91 0 is_stmt 1
 241 0078 0123     		movs	r3, #1
 242 007a 9C46     		mov	ip, r3
 243 007c E044     		add	r8, r8, ip
 244              	.LVL40:
  92:main.c        ****         }
ARM GAS  C:\Users\JAMESS~1\AppData\Local\Temp\cci23mF1.s 			page 7


 245              		.loc 1 92 0
 246 007e C6E7     		b	.L13
 247              	.L16:
 248              		.align	2
 249              	.L15:
 250 0080 00000000 		.word	StripLights_CLUT
 251              		.cfi_endproc
 252              	.LFE33:
 253              		.size	SlowColorBlend, .-SlowColorBlend
 254              		.text
 255              	.Letext0:
 256              		.file 2 "Generated_Source\\PSoC4/cytypes.h"
 257              		.file 3 "Generated_Source\\PSoC4/Pin_Flex.h"
 258              		.file 4 "Generated_Source\\PSoC4/Pin_LED.h"
 259              		.file 5 "Generated_Source\\PSoC4/StripLights.h"
 260              		.file 6 "Generated_Source\\PSoC4/CyLib.h"