ARM GAS  C:\Users\JAMESS~1\AppData\Local\Temp\ccit3uJM.s 			page 1


   1              		.syntax unified
   2              		.cpu cortex-m0
   3              		.fpu softvfp
   4              		.eabi_attribute 20, 1
   5              		.eabi_attribute 21, 1
   6              		.eabi_attribute 23, 3
   7              		.eabi_attribute 24, 1
   8              		.eabi_attribute 25, 1
   9              		.eabi_attribute 26, 1
  10              		.eabi_attribute 30, 6
  11              		.eabi_attribute 34, 0
  12              		.eabi_attribute 18, 4
  13              		.thumb
  14              		.syntax unified
  15              		.file	"cyfitter_cfg.c"
  16              		.text
  17              	.Ltext0:
  18              		.cfi_sections	.debug_frame
  19              		.section	.text.CYMEMZERO,"ax",%progbits
  20              		.align	2
  21              		.code	16
  22              		.thumb_func
  23              		.type	CYMEMZERO, %function
  24              	CYMEMZERO:
  25              	.LFB0:
  26              		.file 1 "Generated_Source\\PSoC4\\cyfitter_cfg.c"
   1:Generated_Source\PSoC4/cyfitter_cfg.c **** 
   2:Generated_Source\PSoC4/cyfitter_cfg.c **** /*******************************************************************************
   3:Generated_Source\PSoC4/cyfitter_cfg.c **** * File Name: cyfitter_cfg.c
   4:Generated_Source\PSoC4/cyfitter_cfg.c **** * 
   5:Generated_Source\PSoC4/cyfitter_cfg.c **** * PSoC Creator  4.1 Update 1
   6:Generated_Source\PSoC4/cyfitter_cfg.c **** *
   7:Generated_Source\PSoC4/cyfitter_cfg.c **** * Description:
   8:Generated_Source\PSoC4/cyfitter_cfg.c **** * This file contains device initialization code.
   9:Generated_Source\PSoC4/cyfitter_cfg.c **** * Except for the user defined sections in CyClockStartupError(), this file should not be modified.
  10:Generated_Source\PSoC4/cyfitter_cfg.c **** * This file is automatically generated by PSoC Creator.
  11:Generated_Source\PSoC4/cyfitter_cfg.c **** *
  12:Generated_Source\PSoC4/cyfitter_cfg.c **** ********************************************************************************
  13:Generated_Source\PSoC4/cyfitter_cfg.c **** * Copyright (c) 2007-2017 Cypress Semiconductor.  All rights reserved.
  14:Generated_Source\PSoC4/cyfitter_cfg.c **** * You may use this file only in accordance with the license, terms, conditions, 
  15:Generated_Source\PSoC4/cyfitter_cfg.c **** * disclaimers, and limitations in the end user license agreement accompanying 
  16:Generated_Source\PSoC4/cyfitter_cfg.c **** * the software package with which this file was provided.
  17:Generated_Source\PSoC4/cyfitter_cfg.c **** ********************************************************************************/
  18:Generated_Source\PSoC4/cyfitter_cfg.c **** 
  19:Generated_Source\PSoC4/cyfitter_cfg.c **** #include <string.h>
  20:Generated_Source\PSoC4/cyfitter_cfg.c **** #include "cytypes.h"
  21:Generated_Source\PSoC4/cyfitter_cfg.c **** #include "cydevice_trm.h"
  22:Generated_Source\PSoC4/cyfitter_cfg.c **** #include "cyfitter.h"
  23:Generated_Source\PSoC4/cyfitter_cfg.c **** #include "CyLib.h"
  24:Generated_Source\PSoC4/cyfitter_cfg.c **** #include "cyfitter_cfg.h"
  25:Generated_Source\PSoC4/cyfitter_cfg.c **** #include "cyapicallbacks.h"
  26:Generated_Source\PSoC4/cyfitter_cfg.c **** 
  27:Generated_Source\PSoC4/cyfitter_cfg.c **** 
  28:Generated_Source\PSoC4/cyfitter_cfg.c **** #if defined(__GNUC__) || defined(__ARMCC_VERSION)
  29:Generated_Source\PSoC4/cyfitter_cfg.c ****     #define CYPACKED 
  30:Generated_Source\PSoC4/cyfitter_cfg.c ****     #define CYPACKED_ATTR __attribute__ ((packed))
  31:Generated_Source\PSoC4/cyfitter_cfg.c ****     #define CYALIGNED __attribute__ ((aligned))
ARM GAS  C:\Users\JAMESS~1\AppData\Local\Temp\ccit3uJM.s 			page 2


  32:Generated_Source\PSoC4/cyfitter_cfg.c ****     #define CY_CFG_UNUSED __attribute__ ((unused))
  33:Generated_Source\PSoC4/cyfitter_cfg.c ****     #ifndef CY_CFG_SECTION
  34:Generated_Source\PSoC4/cyfitter_cfg.c ****         #define CY_CFG_SECTION __attribute__ ((section(".psocinit")))
  35:Generated_Source\PSoC4/cyfitter_cfg.c ****     #endif
  36:Generated_Source\PSoC4/cyfitter_cfg.c ****     
  37:Generated_Source\PSoC4/cyfitter_cfg.c ****     #if defined(__ARMCC_VERSION)
  38:Generated_Source\PSoC4/cyfitter_cfg.c ****         #define CY_CFG_MEMORY_BARRIER() __memory_changed()
  39:Generated_Source\PSoC4/cyfitter_cfg.c ****     #else
  40:Generated_Source\PSoC4/cyfitter_cfg.c ****         #define CY_CFG_MEMORY_BARRIER() __sync_synchronize()
  41:Generated_Source\PSoC4/cyfitter_cfg.c ****     #endif
  42:Generated_Source\PSoC4/cyfitter_cfg.c ****     
  43:Generated_Source\PSoC4/cyfitter_cfg.c **** #elif defined(__ICCARM__)
  44:Generated_Source\PSoC4/cyfitter_cfg.c ****     #include <intrinsics.h>
  45:Generated_Source\PSoC4/cyfitter_cfg.c **** 
  46:Generated_Source\PSoC4/cyfitter_cfg.c ****     #define CYPACKED __packed
  47:Generated_Source\PSoC4/cyfitter_cfg.c ****     #define CYPACKED_ATTR 
  48:Generated_Source\PSoC4/cyfitter_cfg.c ****     #define CYALIGNED _Pragma("data_alignment=4")
  49:Generated_Source\PSoC4/cyfitter_cfg.c ****     #define CY_CFG_UNUSED _Pragma("diag_suppress=Pe177")
  50:Generated_Source\PSoC4/cyfitter_cfg.c ****     #define CY_CFG_SECTION _Pragma("location=\".psocinit\"")
  51:Generated_Source\PSoC4/cyfitter_cfg.c ****     
  52:Generated_Source\PSoC4/cyfitter_cfg.c ****     #define CY_CFG_MEMORY_BARRIER() __DMB()
  53:Generated_Source\PSoC4/cyfitter_cfg.c ****     
  54:Generated_Source\PSoC4/cyfitter_cfg.c **** #else
  55:Generated_Source\PSoC4/cyfitter_cfg.c ****     #error Unsupported toolchain
  56:Generated_Source\PSoC4/cyfitter_cfg.c **** #endif
  57:Generated_Source\PSoC4/cyfitter_cfg.c **** 
  58:Generated_Source\PSoC4/cyfitter_cfg.c **** #ifndef CYCODE
  59:Generated_Source\PSoC4/cyfitter_cfg.c ****     #define CYCODE
  60:Generated_Source\PSoC4/cyfitter_cfg.c **** #endif
  61:Generated_Source\PSoC4/cyfitter_cfg.c **** #ifndef CYDATA
  62:Generated_Source\PSoC4/cyfitter_cfg.c ****     #define CYDATA
  63:Generated_Source\PSoC4/cyfitter_cfg.c **** #endif
  64:Generated_Source\PSoC4/cyfitter_cfg.c **** #ifndef CYFAR
  65:Generated_Source\PSoC4/cyfitter_cfg.c ****     #define CYFAR
  66:Generated_Source\PSoC4/cyfitter_cfg.c **** #endif
  67:Generated_Source\PSoC4/cyfitter_cfg.c **** #ifndef CYXDATA
  68:Generated_Source\PSoC4/cyfitter_cfg.c ****     #define CYXDATA
  69:Generated_Source\PSoC4/cyfitter_cfg.c **** #endif
  70:Generated_Source\PSoC4/cyfitter_cfg.c **** 
  71:Generated_Source\PSoC4/cyfitter_cfg.c **** 
  72:Generated_Source\PSoC4/cyfitter_cfg.c **** CY_CFG_UNUSED
  73:Generated_Source\PSoC4/cyfitter_cfg.c **** static void CYMEMZERO(void *s, size_t n);
  74:Generated_Source\PSoC4/cyfitter_cfg.c **** CY_CFG_UNUSED
  75:Generated_Source\PSoC4/cyfitter_cfg.c **** static void CYMEMZERO(void *s, size_t n)
  76:Generated_Source\PSoC4/cyfitter_cfg.c **** {
  27              		.loc 1 76 0
  28              		.cfi_startproc
  29              		@ args = 0, pretend = 0, frame = 8
  30              		@ frame_needed = 1, uses_anonymous_args = 0
  31 0000 80B5     		push	{r7, lr}
  32              		.cfi_def_cfa_offset 8
  33              		.cfi_offset 7, -8
  34              		.cfi_offset 14, -4
  35 0002 82B0     		sub	sp, sp, #8
  36              		.cfi_def_cfa_offset 16
  37 0004 00AF     		add	r7, sp, #0
  38              		.cfi_def_cfa_register 7
ARM GAS  C:\Users\JAMESS~1\AppData\Local\Temp\ccit3uJM.s 			page 3


  39 0006 7860     		str	r0, [r7, #4]
  40 0008 3960     		str	r1, [r7]
  77:Generated_Source\PSoC4/cyfitter_cfg.c **** 	(void)memset(s, 0, n);
  41              		.loc 1 77 0
  42 000a 3A68     		ldr	r2, [r7]
  43 000c 7B68     		ldr	r3, [r7, #4]
  44 000e 0021     		movs	r1, #0
  45 0010 1800     		movs	r0, r3
  46 0012 FFF7FEFF 		bl	memset
  78:Generated_Source\PSoC4/cyfitter_cfg.c **** }
  47              		.loc 1 78 0
  48 0016 C046     		nop
  49 0018 BD46     		mov	sp, r7
  50 001a 02B0     		add	sp, sp, #8
  51              		@ sp needed
  52 001c 80BD     		pop	{r7, pc}
  53              		.cfi_endproc
  54              	.LFE0:
  55              		.size	CYMEMZERO, .-CYMEMZERO
  56 001e C046     		.section	.text.CYCONFIGCPY,"ax",%progbits
  57              		.align	2
  58              		.code	16
  59              		.thumb_func
  60              		.type	CYCONFIGCPY, %function
  61              	CYCONFIGCPY:
  62              	.LFB1:
  79:Generated_Source\PSoC4/cyfitter_cfg.c **** CY_CFG_UNUSED
  80:Generated_Source\PSoC4/cyfitter_cfg.c **** static void CYCONFIGCPY(void *dest, const void *src, size_t n);
  81:Generated_Source\PSoC4/cyfitter_cfg.c **** CY_CFG_UNUSED
  82:Generated_Source\PSoC4/cyfitter_cfg.c **** static void CYCONFIGCPY(void *dest, const void *src, size_t n)
  83:Generated_Source\PSoC4/cyfitter_cfg.c **** {
  63              		.loc 1 83 0
  64              		.cfi_startproc
  65              		@ args = 0, pretend = 0, frame = 16
  66              		@ frame_needed = 1, uses_anonymous_args = 0
  67 0000 80B5     		push	{r7, lr}
  68              		.cfi_def_cfa_offset 8
  69              		.cfi_offset 7, -8
  70              		.cfi_offset 14, -4
  71 0002 84B0     		sub	sp, sp, #16
  72              		.cfi_def_cfa_offset 24
  73 0004 00AF     		add	r7, sp, #0
  74              		.cfi_def_cfa_register 7
  75 0006 F860     		str	r0, [r7, #12]
  76 0008 B960     		str	r1, [r7, #8]
  77 000a 7A60     		str	r2, [r7, #4]
  84:Generated_Source\PSoC4/cyfitter_cfg.c **** 	(void)memcpy(dest, src, n);
  78              		.loc 1 84 0
  79 000c 7A68     		ldr	r2, [r7, #4]
  80 000e B968     		ldr	r1, [r7, #8]
  81 0010 FB68     		ldr	r3, [r7, #12]
  82 0012 1800     		movs	r0, r3
  83 0014 FFF7FEFF 		bl	memcpy
  85:Generated_Source\PSoC4/cyfitter_cfg.c **** }
  84              		.loc 1 85 0
  85 0018 C046     		nop
  86 001a BD46     		mov	sp, r7
ARM GAS  C:\Users\JAMESS~1\AppData\Local\Temp\ccit3uJM.s 			page 4


  87 001c 04B0     		add	sp, sp, #16
  88              		@ sp needed
  89 001e 80BD     		pop	{r7, pc}
  90              		.cfi_endproc
  91              	.LFE1:
  92              		.size	CYCONFIGCPY, .-CYCONFIGCPY
  93              		.section	.text.CYCONFIGCPYCODE,"ax",%progbits
  94              		.align	2
  95              		.code	16
  96              		.thumb_func
  97              		.type	CYCONFIGCPYCODE, %function
  98              	CYCONFIGCPYCODE:
  99              	.LFB2:
  86:Generated_Source\PSoC4/cyfitter_cfg.c **** CY_CFG_UNUSED
  87:Generated_Source\PSoC4/cyfitter_cfg.c **** static void CYCONFIGCPYCODE(void *dest, const void *src, size_t n);
  88:Generated_Source\PSoC4/cyfitter_cfg.c **** CY_CFG_UNUSED
  89:Generated_Source\PSoC4/cyfitter_cfg.c **** static void CYCONFIGCPYCODE(void *dest, const void *src, size_t n)
  90:Generated_Source\PSoC4/cyfitter_cfg.c **** {
 100              		.loc 1 90 0
 101              		.cfi_startproc
 102              		@ args = 0, pretend = 0, frame = 16
 103              		@ frame_needed = 1, uses_anonymous_args = 0
 104 0000 80B5     		push	{r7, lr}
 105              		.cfi_def_cfa_offset 8
 106              		.cfi_offset 7, -8
 107              		.cfi_offset 14, -4
 108 0002 84B0     		sub	sp, sp, #16
 109              		.cfi_def_cfa_offset 24
 110 0004 00AF     		add	r7, sp, #0
 111              		.cfi_def_cfa_register 7
 112 0006 F860     		str	r0, [r7, #12]
 113 0008 B960     		str	r1, [r7, #8]
 114 000a 7A60     		str	r2, [r7, #4]
  91:Generated_Source\PSoC4/cyfitter_cfg.c **** 	(void)memcpy(dest, src, n);
 115              		.loc 1 91 0
 116 000c 7A68     		ldr	r2, [r7, #4]
 117 000e B968     		ldr	r1, [r7, #8]
 118 0010 FB68     		ldr	r3, [r7, #12]
 119 0012 1800     		movs	r0, r3
 120 0014 FFF7FEFF 		bl	memcpy
  92:Generated_Source\PSoC4/cyfitter_cfg.c **** }
 121              		.loc 1 92 0
 122 0018 C046     		nop
 123 001a BD46     		mov	sp, r7
 124 001c 04B0     		add	sp, sp, #16
 125              		@ sp needed
 126 001e 80BD     		pop	{r7, pc}
 127              		.cfi_endproc
 128              	.LFE2:
 129              		.size	CYCONFIGCPYCODE, .-CYCONFIGCPYCODE
 130              		.section	.text.cfg_write_bytes32,"ax",%progbits
 131              		.align	2
 132              		.code	16
 133              		.thumb_func
 134              		.type	cfg_write_bytes32, %function
 135              	cfg_write_bytes32:
 136              	.LFB3:
ARM GAS  C:\Users\JAMESS~1\AppData\Local\Temp\ccit3uJM.s 			page 5


  93:Generated_Source\PSoC4/cyfitter_cfg.c **** 
  94:Generated_Source\PSoC4/cyfitter_cfg.c **** 
  95:Generated_Source\PSoC4/cyfitter_cfg.c **** 
  96:Generated_Source\PSoC4/cyfitter_cfg.c **** 
  97:Generated_Source\PSoC4/cyfitter_cfg.c **** /* Clock startup error codes                                                   */
  98:Generated_Source\PSoC4/cyfitter_cfg.c **** #define CYCLOCKSTART_NO_ERROR    0u
  99:Generated_Source\PSoC4/cyfitter_cfg.c **** #define CYCLOCKSTART_XTAL_ERROR  1u
 100:Generated_Source\PSoC4/cyfitter_cfg.c **** #define CYCLOCKSTART_32KHZ_ERROR 2u
 101:Generated_Source\PSoC4/cyfitter_cfg.c **** #define CYCLOCKSTART_PLL_ERROR   3u
 102:Generated_Source\PSoC4/cyfitter_cfg.c **** #define CYCLOCKSTART_FLL_ERROR   4u
 103:Generated_Source\PSoC4/cyfitter_cfg.c **** 
 104:Generated_Source\PSoC4/cyfitter_cfg.c **** 
 105:Generated_Source\PSoC4/cyfitter_cfg.c **** #ifdef CY_NEED_CYCLOCKSTARTUPERROR
 106:Generated_Source\PSoC4/cyfitter_cfg.c **** /*******************************************************************************
 107:Generated_Source\PSoC4/cyfitter_cfg.c **** * Function Name: CyClockStartupError
 108:Generated_Source\PSoC4/cyfitter_cfg.c **** ********************************************************************************
 109:Generated_Source\PSoC4/cyfitter_cfg.c **** * Summary:
 110:Generated_Source\PSoC4/cyfitter_cfg.c **** *  If an error is encountered during clock configuration (crystal startup error,
 111:Generated_Source\PSoC4/cyfitter_cfg.c **** *  PLL lock error, etc.), the system will end up here.  Unless reimplemented by
 112:Generated_Source\PSoC4/cyfitter_cfg.c **** *  the customer, this function will stop in an infinite loop.
 113:Generated_Source\PSoC4/cyfitter_cfg.c **** *
 114:Generated_Source\PSoC4/cyfitter_cfg.c **** * Parameters:
 115:Generated_Source\PSoC4/cyfitter_cfg.c **** *   void
 116:Generated_Source\PSoC4/cyfitter_cfg.c **** *
 117:Generated_Source\PSoC4/cyfitter_cfg.c **** * Return:
 118:Generated_Source\PSoC4/cyfitter_cfg.c **** *   void
 119:Generated_Source\PSoC4/cyfitter_cfg.c **** *
 120:Generated_Source\PSoC4/cyfitter_cfg.c **** *******************************************************************************/
 121:Generated_Source\PSoC4/cyfitter_cfg.c **** CY_CFG_UNUSED
 122:Generated_Source\PSoC4/cyfitter_cfg.c **** static void CyClockStartupError(uint8 errorCode);
 123:Generated_Source\PSoC4/cyfitter_cfg.c **** CY_CFG_UNUSED
 124:Generated_Source\PSoC4/cyfitter_cfg.c **** static void CyClockStartupError(uint8 errorCode)
 125:Generated_Source\PSoC4/cyfitter_cfg.c **** {
 126:Generated_Source\PSoC4/cyfitter_cfg.c ****     /* To remove the compiler warning if errorCode not used. */
 127:Generated_Source\PSoC4/cyfitter_cfg.c **** #if defined(CY_PSOC3) && (CY_PSOC3)
 128:Generated_Source\PSoC4/cyfitter_cfg.c ****     errorCode = errorCode;
 129:Generated_Source\PSoC4/cyfitter_cfg.c **** #else
 130:Generated_Source\PSoC4/cyfitter_cfg.c ****     (void)errorCode;
 131:Generated_Source\PSoC4/cyfitter_cfg.c **** #endif /* CY_PSOC3 */
 132:Generated_Source\PSoC4/cyfitter_cfg.c **** 
 133:Generated_Source\PSoC4/cyfitter_cfg.c ****     /* If we have a clock startup error (bad MHz crystal, PLL lock, etc.),  */
 134:Generated_Source\PSoC4/cyfitter_cfg.c ****     /* we will end up here to allow the customer to implement something to  */
 135:Generated_Source\PSoC4/cyfitter_cfg.c ****     /* deal with the clock condition.                                       */
 136:Generated_Source\PSoC4/cyfitter_cfg.c **** 
 137:Generated_Source\PSoC4/cyfitter_cfg.c **** #ifdef CY_CFG_CLOCK_STARTUP_ERROR_CALLBACK
 138:Generated_Source\PSoC4/cyfitter_cfg.c ****     CY_CFG_Clock_Startup_ErrorCallback();
 139:Generated_Source\PSoC4/cyfitter_cfg.c **** #else
 140:Generated_Source\PSoC4/cyfitter_cfg.c ****     /*  If not using CY_CFG_CLOCK_STARTUP_ERROR_CALLBACK, place your clock startup code here. */
 141:Generated_Source\PSoC4/cyfitter_cfg.c ****     /* `#START CyClockStartupError` */
 142:Generated_Source\PSoC4/cyfitter_cfg.c **** 
 143:Generated_Source\PSoC4/cyfitter_cfg.c **** 
 144:Generated_Source\PSoC4/cyfitter_cfg.c **** 
 145:Generated_Source\PSoC4/cyfitter_cfg.c ****     /* `#END` */
 146:Generated_Source\PSoC4/cyfitter_cfg.c **** 
 147:Generated_Source\PSoC4/cyfitter_cfg.c ****     while(1) {}
 148:Generated_Source\PSoC4/cyfitter_cfg.c **** #endif /* CY_CFG_CLOCK_STARTUP_ERROR_CALLBACK */
 149:Generated_Source\PSoC4/cyfitter_cfg.c **** }
ARM GAS  C:\Users\JAMESS~1\AppData\Local\Temp\ccit3uJM.s 			page 6


 150:Generated_Source\PSoC4/cyfitter_cfg.c **** #endif
 151:Generated_Source\PSoC4/cyfitter_cfg.c **** 
 152:Generated_Source\PSoC4/cyfitter_cfg.c **** #define CY_CFG_BASE_ADDR_COUNT 7u
 153:Generated_Source\PSoC4/cyfitter_cfg.c **** CYPACKED typedef struct
 154:Generated_Source\PSoC4/cyfitter_cfg.c **** {
 155:Generated_Source\PSoC4/cyfitter_cfg.c **** 	uint8 offset;
 156:Generated_Source\PSoC4/cyfitter_cfg.c **** 	uint8 value;
 157:Generated_Source\PSoC4/cyfitter_cfg.c **** } CYPACKED_ATTR cy_cfg_addrvalue_t;
 158:Generated_Source\PSoC4/cyfitter_cfg.c **** 
 159:Generated_Source\PSoC4/cyfitter_cfg.c **** 
 160:Generated_Source\PSoC4/cyfitter_cfg.c **** 
 161:Generated_Source\PSoC4/cyfitter_cfg.c **** /*******************************************************************************
 162:Generated_Source\PSoC4/cyfitter_cfg.c **** * Function Name: cfg_write_bytes32
 163:Generated_Source\PSoC4/cyfitter_cfg.c **** ********************************************************************************
 164:Generated_Source\PSoC4/cyfitter_cfg.c **** * Summary:
 165:Generated_Source\PSoC4/cyfitter_cfg.c **** *  This function is used for setting up the chip configuration areas that
 166:Generated_Source\PSoC4/cyfitter_cfg.c **** *  contain relatively sparse data.
 167:Generated_Source\PSoC4/cyfitter_cfg.c **** *
 168:Generated_Source\PSoC4/cyfitter_cfg.c **** * Parameters:
 169:Generated_Source\PSoC4/cyfitter_cfg.c **** *   void
 170:Generated_Source\PSoC4/cyfitter_cfg.c **** *
 171:Generated_Source\PSoC4/cyfitter_cfg.c **** * Return:
 172:Generated_Source\PSoC4/cyfitter_cfg.c **** *   void
 173:Generated_Source\PSoC4/cyfitter_cfg.c **** *
 174:Generated_Source\PSoC4/cyfitter_cfg.c **** *******************************************************************************/
 175:Generated_Source\PSoC4/cyfitter_cfg.c **** static void cfg_write_bytes32(const uint32 addr_table[], const cy_cfg_addrvalue_t data_table[]);
 176:Generated_Source\PSoC4/cyfitter_cfg.c **** static void cfg_write_bytes32(const uint32 addr_table[], const cy_cfg_addrvalue_t data_table[])
 177:Generated_Source\PSoC4/cyfitter_cfg.c **** {
 137              		.loc 1 177 0
 138              		.cfi_startproc
 139              		@ args = 0, pretend = 0, frame = 24
 140              		@ frame_needed = 1, uses_anonymous_args = 0
 141 0000 80B5     		push	{r7, lr}
 142              		.cfi_def_cfa_offset 8
 143              		.cfi_offset 7, -8
 144              		.cfi_offset 14, -4
 145 0002 86B0     		sub	sp, sp, #24
 146              		.cfi_def_cfa_offset 32
 147 0004 00AF     		add	r7, sp, #0
 148              		.cfi_def_cfa_register 7
 149 0006 7860     		str	r0, [r7, #4]
 150 0008 3960     		str	r1, [r7]
 178:Generated_Source\PSoC4/cyfitter_cfg.c **** 	/* For 32-bit little-endian architectures */
 179:Generated_Source\PSoC4/cyfitter_cfg.c **** 	uint32 i, j = 0u;
 151              		.loc 1 179 0
 152 000a 0023     		movs	r3, #0
 153 000c 3B61     		str	r3, [r7, #16]
 180:Generated_Source\PSoC4/cyfitter_cfg.c **** 	for (i = 0u; i < CY_CFG_BASE_ADDR_COUNT; i++)
 154              		.loc 1 180 0
 155 000e 0023     		movs	r3, #0
 156 0010 7B61     		str	r3, [r7, #20]
 157 0012 2FE0     		b	.L5
 158              	.L8:
 159              	.LBB2:
 181:Generated_Source\PSoC4/cyfitter_cfg.c **** 	{
 182:Generated_Source\PSoC4/cyfitter_cfg.c **** 		uint32 baseAddr = addr_table[i];
 160              		.loc 1 182 0
ARM GAS  C:\Users\JAMESS~1\AppData\Local\Temp\ccit3uJM.s 			page 7


 161 0014 7B69     		ldr	r3, [r7, #20]
 162 0016 9B00     		lsls	r3, r3, #2
 163 0018 7A68     		ldr	r2, [r7, #4]
 164 001a D318     		adds	r3, r2, r3
 165 001c 1B68     		ldr	r3, [r3]
 166 001e BB60     		str	r3, [r7, #8]
 183:Generated_Source\PSoC4/cyfitter_cfg.c **** 		uint8 count = (uint8)baseAddr;
 167              		.loc 1 183 0
 168 0020 0F23     		movs	r3, #15
 169 0022 FB18     		adds	r3, r7, r3
 170 0024 BA68     		ldr	r2, [r7, #8]
 171 0026 1A70     		strb	r2, [r3]
 184:Generated_Source\PSoC4/cyfitter_cfg.c **** 		baseAddr &= 0xFFFFFF00u;
 172              		.loc 1 184 0
 173 0028 BB68     		ldr	r3, [r7, #8]
 174 002a FF22     		movs	r2, #255
 175 002c 9343     		bics	r3, r2
 176 002e BB60     		str	r3, [r7, #8]
 185:Generated_Source\PSoC4/cyfitter_cfg.c **** 		while (count != 0u)
 177              		.loc 1 185 0
 178 0030 18E0     		b	.L6
 179              	.L7:
 186:Generated_Source\PSoC4/cyfitter_cfg.c **** 		{
 187:Generated_Source\PSoC4/cyfitter_cfg.c **** 			CY_SET_REG8((void *)(baseAddr + data_table[j].offset), data_table[j].value);
 180              		.loc 1 187 0
 181 0032 3B69     		ldr	r3, [r7, #16]
 182 0034 5B00     		lsls	r3, r3, #1
 183 0036 3A68     		ldr	r2, [r7]
 184 0038 D318     		adds	r3, r2, r3
 185 003a 1B78     		ldrb	r3, [r3]
 186 003c 1A00     		movs	r2, r3
 187 003e BB68     		ldr	r3, [r7, #8]
 188 0040 D318     		adds	r3, r2, r3
 189 0042 1900     		movs	r1, r3
 190 0044 3B69     		ldr	r3, [r7, #16]
 191 0046 5B00     		lsls	r3, r3, #1
 192 0048 3A68     		ldr	r2, [r7]
 193 004a D318     		adds	r3, r2, r3
 194 004c 5B78     		ldrb	r3, [r3, #1]
 195 004e 0B70     		strb	r3, [r1]
 188:Generated_Source\PSoC4/cyfitter_cfg.c **** 			j++;
 196              		.loc 1 188 0
 197 0050 3B69     		ldr	r3, [r7, #16]
 198 0052 0133     		adds	r3, r3, #1
 199 0054 3B61     		str	r3, [r7, #16]
 189:Generated_Source\PSoC4/cyfitter_cfg.c **** 			count--;
 200              		.loc 1 189 0
 201 0056 0F23     		movs	r3, #15
 202 0058 FB18     		adds	r3, r7, r3
 203 005a 1A78     		ldrb	r2, [r3]
 204 005c 0F23     		movs	r3, #15
 205 005e FB18     		adds	r3, r7, r3
 206 0060 013A     		subs	r2, r2, #1
 207 0062 1A70     		strb	r2, [r3]
 208              	.L6:
 185:Generated_Source\PSoC4/cyfitter_cfg.c **** 		{
 209              		.loc 1 185 0
ARM GAS  C:\Users\JAMESS~1\AppData\Local\Temp\ccit3uJM.s 			page 8


 210 0064 0F23     		movs	r3, #15
 211 0066 FB18     		adds	r3, r7, r3
 212 0068 1B78     		ldrb	r3, [r3]
 213 006a 002B     		cmp	r3, #0
 214 006c E1D1     		bne	.L7
 215              	.LBE2:
 180:Generated_Source\PSoC4/cyfitter_cfg.c **** 	{
 216              		.loc 1 180 0 discriminator 2
 217 006e 7B69     		ldr	r3, [r7, #20]
 218 0070 0133     		adds	r3, r3, #1
 219 0072 7B61     		str	r3, [r7, #20]
 220              	.L5:
 180:Generated_Source\PSoC4/cyfitter_cfg.c **** 	{
 221              		.loc 1 180 0 is_stmt 0 discriminator 1
 222 0074 7B69     		ldr	r3, [r7, #20]
 223 0076 062B     		cmp	r3, #6
 224 0078 CCD9     		bls	.L8
 190:Generated_Source\PSoC4/cyfitter_cfg.c **** 		}
 191:Generated_Source\PSoC4/cyfitter_cfg.c **** 	}
 192:Generated_Source\PSoC4/cyfitter_cfg.c **** }
 225              		.loc 1 192 0 is_stmt 1
 226 007a C046     		nop
 227 007c BD46     		mov	sp, r7
 228 007e 06B0     		add	sp, sp, #24
 229              		@ sp needed
 230 0080 80BD     		pop	{r7, pc}
 231              		.cfi_endproc
 232              	.LFE3:
 233              		.size	cfg_write_bytes32, .-cfg_write_bytes32
 234 0082 C046     		.section	.psocinit,"ax",%progbits
 235              		.align	2
 236              		.code	16
 237              		.thumb_func
 238              		.type	ClockSetup, %function
 239              	ClockSetup:
 240              	.LFB4:
 193:Generated_Source\PSoC4/cyfitter_cfg.c **** 
 194:Generated_Source\PSoC4/cyfitter_cfg.c **** 
 195:Generated_Source\PSoC4/cyfitter_cfg.c **** /*******************************************************************************
 196:Generated_Source\PSoC4/cyfitter_cfg.c **** * Function Name: ClockSetup
 197:Generated_Source\PSoC4/cyfitter_cfg.c **** ********************************************************************************
 198:Generated_Source\PSoC4/cyfitter_cfg.c **** *
 199:Generated_Source\PSoC4/cyfitter_cfg.c **** * Summary:
 200:Generated_Source\PSoC4/cyfitter_cfg.c **** *   Performs the initialization of all of the clocks in the device based on the
 201:Generated_Source\PSoC4/cyfitter_cfg.c **** *   settings in the Clock tab of the DWR.  This includes enabling the requested
 202:Generated_Source\PSoC4/cyfitter_cfg.c **** *   clocks and setting the necessary dividers to produce the desired frequency. 
 203:Generated_Source\PSoC4/cyfitter_cfg.c **** *
 204:Generated_Source\PSoC4/cyfitter_cfg.c **** * Parameters:
 205:Generated_Source\PSoC4/cyfitter_cfg.c **** *   void
 206:Generated_Source\PSoC4/cyfitter_cfg.c **** *
 207:Generated_Source\PSoC4/cyfitter_cfg.c **** * Return:
 208:Generated_Source\PSoC4/cyfitter_cfg.c **** *   void
 209:Generated_Source\PSoC4/cyfitter_cfg.c **** *
 210:Generated_Source\PSoC4/cyfitter_cfg.c **** *******************************************************************************/
 211:Generated_Source\PSoC4/cyfitter_cfg.c **** static void ClockSetup(void);
 212:Generated_Source\PSoC4/cyfitter_cfg.c **** CY_CFG_SECTION
 213:Generated_Source\PSoC4/cyfitter_cfg.c **** static void ClockSetup(void)
ARM GAS  C:\Users\JAMESS~1\AppData\Local\Temp\ccit3uJM.s 			page 9


 214:Generated_Source\PSoC4/cyfitter_cfg.c **** {
 241              		.loc 1 214 0
 242              		.cfi_startproc
 243              		@ args = 0, pretend = 0, frame = 0
 244              		@ frame_needed = 1, uses_anonymous_args = 0
 245 0000 80B5     		push	{r7, lr}
 246              		.cfi_def_cfa_offset 8
 247              		.cfi_offset 7, -8
 248              		.cfi_offset 14, -4
 249 0002 00AF     		add	r7, sp, #0
 250              		.cfi_def_cfa_register 7
 215:Generated_Source\PSoC4/cyfitter_cfg.c **** 	/* Enable HALF_EN before trimming for the flash accelerator. */
 216:Generated_Source\PSoC4/cyfitter_cfg.c **** 	CY_SET_REG32((void CYXDATA *)(CYREG_CLK_SELECT), (CY_GET_REG32((void *)CYREG_CLK_SELECT) | 0x00040
 251              		.loc 1 216 0
 252 0004 154B     		ldr	r3, .L10
 253 0006 154A     		ldr	r2, .L10
 254 0008 1268     		ldr	r2, [r2]
 255 000a 8021     		movs	r1, #128
 256 000c C902     		lsls	r1, r1, #11
 257 000e 0A43     		orrs	r2, r1
 258 0010 1A60     		str	r2, [r3]
 217:Generated_Source\PSoC4/cyfitter_cfg.c **** 
 218:Generated_Source\PSoC4/cyfitter_cfg.c **** 	/* Setup and trim IMO based on desired frequency. */
 219:Generated_Source\PSoC4/cyfitter_cfg.c **** 	CySysClkWriteImoFreq(24u);
 259              		.loc 1 219 0
 260 0012 1820     		movs	r0, #24
 261 0014 FFF7FEFF 		bl	CySysClkWriteImoFreq
 220:Generated_Source\PSoC4/cyfitter_cfg.c **** 
 221:Generated_Source\PSoC4/cyfitter_cfg.c **** 	/* Disable HALF_EN since it is not required at this IMO frequency. */
 222:Generated_Source\PSoC4/cyfitter_cfg.c **** 	CY_SET_REG32((void CYXDATA *)(CYREG_CLK_SELECT), (CY_GET_REG32((void *)CYREG_CLK_SELECT) & 0xFFFBF
 262              		.loc 1 222 0
 263 0018 104B     		ldr	r3, .L10
 264 001a 104A     		ldr	r2, .L10
 265 001c 1268     		ldr	r2, [r2]
 266 001e 1049     		ldr	r1, .L10+4
 267 0020 0A40     		ands	r2, r1
 268 0022 1A60     		str	r2, [r3]
 223:Generated_Source\PSoC4/cyfitter_cfg.c **** 	/* CYDEV_CLK_ILO_CONFIG Starting address: CYDEV_CLK_ILO_CONFIG */
 224:Generated_Source\PSoC4/cyfitter_cfg.c **** 	CY_SET_REG32((void *)(CYREG_CLK_ILO_CONFIG), 0x80000006u);
 269              		.loc 1 224 0
 270 0024 0F4B     		ldr	r3, .L10+8
 271 0026 104A     		ldr	r2, .L10+12
 272 0028 1A60     		str	r2, [r3]
 225:Generated_Source\PSoC4/cyfitter_cfg.c **** 
 226:Generated_Source\PSoC4/cyfitter_cfg.c **** 
 227:Generated_Source\PSoC4/cyfitter_cfg.c **** 	/* CYDEV_CLK_SELECT00 Starting address: CYDEV_CLK_SELECT00 */
 228:Generated_Source\PSoC4/cyfitter_cfg.c **** 	CY_SET_REG32((void *)(CYREG_CLK_SELECT02), 0x00000020u);
 273              		.loc 1 228 0
 274 002a 104B     		ldr	r3, .L10+16
 275 002c 2022     		movs	r2, #32
 276 002e 1A60     		str	r2, [r3]
 229:Generated_Source\PSoC4/cyfitter_cfg.c **** 	CY_SET_REG32((void *)(CYREG_CLK_SELECT12), 0x00000010u);
 277              		.loc 1 229 0
 278 0030 0F4B     		ldr	r3, .L10+20
 279 0032 1022     		movs	r2, #16
 280 0034 1A60     		str	r2, [r3]
 230:Generated_Source\PSoC4/cyfitter_cfg.c **** 
ARM GAS  C:\Users\JAMESS~1\AppData\Local\Temp\ccit3uJM.s 			page 10


 231:Generated_Source\PSoC4/cyfitter_cfg.c **** 	/* CYDEV_CLK_IMO_CONFIG Starting address: CYDEV_CLK_IMO_CONFIG */
 232:Generated_Source\PSoC4/cyfitter_cfg.c **** 	CY_SET_REG32((void *)(CYREG_CLK_IMO_CONFIG), 0x80000000u);
 281              		.loc 1 232 0
 282 0036 0F4B     		ldr	r3, .L10+24
 283 0038 8022     		movs	r2, #128
 284 003a 1206     		lsls	r2, r2, #24
 285 003c 1A60     		str	r2, [r3]
 233:Generated_Source\PSoC4/cyfitter_cfg.c **** 
 234:Generated_Source\PSoC4/cyfitter_cfg.c **** 	/* CYDEV_CLK_SELECT Starting address: CYDEV_CLK_SELECT */
 235:Generated_Source\PSoC4/cyfitter_cfg.c **** 	CY_SET_REG32((void *)(CYREG_CLK_SELECT), 0x00000000u);
 286              		.loc 1 235 0
 287 003e 074B     		ldr	r3, .L10
 288 0040 0022     		movs	r2, #0
 289 0042 1A60     		str	r2, [r3]
 236:Generated_Source\PSoC4/cyfitter_cfg.c **** 
 237:Generated_Source\PSoC4/cyfitter_cfg.c **** 	/* CYDEV_CLK_DIVIDER_A00 Starting address: CYDEV_CLK_DIVIDER_A00 */
 238:Generated_Source\PSoC4/cyfitter_cfg.c **** 	CY_SET_REG32((void *)(CYREG_CLK_DIVIDER_A00), 0x80000001u);
 290              		.loc 1 238 0
 291 0044 0C4B     		ldr	r3, .L10+28
 292 0046 0D4A     		ldr	r2, .L10+32
 293 0048 1A60     		str	r2, [r3]
 239:Generated_Source\PSoC4/cyfitter_cfg.c **** 
 240:Generated_Source\PSoC4/cyfitter_cfg.c **** 	/* CYDEV_CLK_DIVIDER_B00 Starting address: CYDEV_CLK_DIVIDER_B00 */
 241:Generated_Source\PSoC4/cyfitter_cfg.c **** 	CY_SET_REG32((void *)(CYREG_CLK_DIVIDER_B00), 0x8000000Eu);
 294              		.loc 1 241 0
 295 004a 0D4B     		ldr	r3, .L10+36
 296 004c 0D4A     		ldr	r2, .L10+40
 297 004e 1A60     		str	r2, [r3]
 242:Generated_Source\PSoC4/cyfitter_cfg.c **** 
 243:Generated_Source\PSoC4/cyfitter_cfg.c **** 	CY_SET_REG32((void *)(CYREG_WDT_CONFIG), 0x00000000u);
 298              		.loc 1 243 0
 299 0050 0D4B     		ldr	r3, .L10+44
 300 0052 0022     		movs	r2, #0
 301 0054 1A60     		str	r2, [r3]
 244:Generated_Source\PSoC4/cyfitter_cfg.c **** }
 302              		.loc 1 244 0
 303 0056 C046     		nop
 304 0058 BD46     		mov	sp, r7
 305              		@ sp needed
 306 005a 80BD     		pop	{r7, pc}
 307              	.L11:
 308              		.align	2
 309              	.L10:
 310 005c 00010B40 		.word	1074462976
 311 0060 FFFFFBFF 		.word	-262145
 312 0064 04010B40 		.word	1074462980
 313 0068 06000080 		.word	-2147483642
 314 006c 08020240 		.word	1073873416
 315 0070 30020240 		.word	1073873456
 316 0074 08010B40 		.word	1074462984
 317 0078 00000240 		.word	1073872896
 318 007c 01000080 		.word	-2147483647
 319 0080 40000240 		.word	1073872960
 320 0084 0E000080 		.word	-2147483634
 321 0088 0C020B40 		.word	1074463244
 322              		.cfi_endproc
 323              	.LFE4:
ARM GAS  C:\Users\JAMESS~1\AppData\Local\Temp\ccit3uJM.s 			page 11


 324              		.size	ClockSetup, .-ClockSetup
 325              		.section	.text.AnalogSetDefault,"ax",%progbits
 326              		.align	2
 327              		.code	16
 328              		.thumb_func
 329              		.type	AnalogSetDefault, %function
 330              	AnalogSetDefault:
 331              	.LFB5:
 245:Generated_Source\PSoC4/cyfitter_cfg.c **** 
 246:Generated_Source\PSoC4/cyfitter_cfg.c **** 
 247:Generated_Source\PSoC4/cyfitter_cfg.c **** /* Analog API Functions */
 248:Generated_Source\PSoC4/cyfitter_cfg.c **** 
 249:Generated_Source\PSoC4/cyfitter_cfg.c **** 
 250:Generated_Source\PSoC4/cyfitter_cfg.c **** /*******************************************************************************
 251:Generated_Source\PSoC4/cyfitter_cfg.c **** * Function Name: AnalogSetDefault
 252:Generated_Source\PSoC4/cyfitter_cfg.c **** ********************************************************************************
 253:Generated_Source\PSoC4/cyfitter_cfg.c **** *
 254:Generated_Source\PSoC4/cyfitter_cfg.c **** * Summary:
 255:Generated_Source\PSoC4/cyfitter_cfg.c **** *  Sets up the analog portions of the chip to default values based on chip
 256:Generated_Source\PSoC4/cyfitter_cfg.c **** *  configuration options from the project.
 257:Generated_Source\PSoC4/cyfitter_cfg.c **** *
 258:Generated_Source\PSoC4/cyfitter_cfg.c **** * Parameters:
 259:Generated_Source\PSoC4/cyfitter_cfg.c **** *  void
 260:Generated_Source\PSoC4/cyfitter_cfg.c **** *
 261:Generated_Source\PSoC4/cyfitter_cfg.c **** * Return:
 262:Generated_Source\PSoC4/cyfitter_cfg.c **** *  void
 263:Generated_Source\PSoC4/cyfitter_cfg.c **** *
 264:Generated_Source\PSoC4/cyfitter_cfg.c **** *******************************************************************************/
 265:Generated_Source\PSoC4/cyfitter_cfg.c **** static void AnalogSetDefault(void);
 266:Generated_Source\PSoC4/cyfitter_cfg.c **** static void AnalogSetDefault(void)
 267:Generated_Source\PSoC4/cyfitter_cfg.c **** {
 332              		.loc 1 267 0
 333              		.cfi_startproc
 334              		@ args = 0, pretend = 0, frame = 0
 335              		@ frame_needed = 1, uses_anonymous_args = 0
 336 0000 80B5     		push	{r7, lr}
 337              		.cfi_def_cfa_offset 8
 338              		.cfi_offset 7, -8
 339              		.cfi_offset 14, -4
 340 0002 00AF     		add	r7, sp, #0
 341              		.cfi_def_cfa_register 7
 268:Generated_Source\PSoC4/cyfitter_cfg.c **** }
 342              		.loc 1 268 0
 343 0004 C046     		nop
 344 0006 BD46     		mov	sp, r7
 345              		@ sp needed
 346 0008 80BD     		pop	{r7, pc}
 347              		.cfi_endproc
 348              	.LFE5:
 349              		.size	AnalogSetDefault, .-AnalogSetDefault
 350 000a C046     		.section	.psocinit
 351              		.align	2
 352              		.global	cyfitter_cfg
 353              		.code	16
 354              		.thumb_func
 355              		.type	cyfitter_cfg, %function
 356              	cyfitter_cfg:
ARM GAS  C:\Users\JAMESS~1\AppData\Local\Temp\ccit3uJM.s 			page 12


 357              	.LFB6:
 269:Generated_Source\PSoC4/cyfitter_cfg.c **** 
 270:Generated_Source\PSoC4/cyfitter_cfg.c **** 
 271:Generated_Source\PSoC4/cyfitter_cfg.c **** 
 272:Generated_Source\PSoC4/cyfitter_cfg.c **** 
 273:Generated_Source\PSoC4/cyfitter_cfg.c **** /*******************************************************************************
 274:Generated_Source\PSoC4/cyfitter_cfg.c **** * Function Name: cyfitter_cfg
 275:Generated_Source\PSoC4/cyfitter_cfg.c **** ********************************************************************************
 276:Generated_Source\PSoC4/cyfitter_cfg.c **** * Summary:
 277:Generated_Source\PSoC4/cyfitter_cfg.c **** *  This function is called by the start-up code for the selected device. It
 278:Generated_Source\PSoC4/cyfitter_cfg.c **** *  performs all of the necessary device configuration based on the design
 279:Generated_Source\PSoC4/cyfitter_cfg.c **** *  settings.  This includes settings from the Design Wide Resources (DWR) such
 280:Generated_Source\PSoC4/cyfitter_cfg.c **** *  as Clocks and Pins as well as any component configuration that is necessary.
 281:Generated_Source\PSoC4/cyfitter_cfg.c **** *
 282:Generated_Source\PSoC4/cyfitter_cfg.c **** * Parameters:
 283:Generated_Source\PSoC4/cyfitter_cfg.c **** *   void
 284:Generated_Source\PSoC4/cyfitter_cfg.c **** *
 285:Generated_Source\PSoC4/cyfitter_cfg.c **** * Return:
 286:Generated_Source\PSoC4/cyfitter_cfg.c **** *   void
 287:Generated_Source\PSoC4/cyfitter_cfg.c **** *
 288:Generated_Source\PSoC4/cyfitter_cfg.c **** *******************************************************************************/
 289:Generated_Source\PSoC4/cyfitter_cfg.c **** CY_CFG_SECTION
 290:Generated_Source\PSoC4/cyfitter_cfg.c **** void cyfitter_cfg(void)
 291:Generated_Source\PSoC4/cyfitter_cfg.c **** {
 358              		.loc 1 291 0
 359              		.cfi_startproc
 360              		@ args = 0, pretend = 0, frame = 8
 361              		@ frame_needed = 1, uses_anonymous_args = 0
 362 008c 80B5     		push	{r7, lr}
 363              		.cfi_def_cfa_offset 8
 364              		.cfi_offset 7, -8
 365              		.cfi_offset 14, -4
 366 008e 82B0     		sub	sp, sp, #8
 367              		.cfi_def_cfa_offset 16
 368 0090 00AF     		add	r7, sp, #0
 369              		.cfi_def_cfa_register 7
 292:Generated_Source\PSoC4/cyfitter_cfg.c **** 	/* Disable interrupts by default. Let user enable if/when they want. */
 293:Generated_Source\PSoC4/cyfitter_cfg.c **** 	CyGlobalIntDisable;
 370              		.loc 1 293 0
 371              		.syntax divided
 372              	@ 293 "Generated_Source\PSoC4\cyfitter_cfg.c" 1
 373 0092 72B6     		CPSID   i
 374              	@ 0 "" 2
 294:Generated_Source\PSoC4/cyfitter_cfg.c **** 
 295:Generated_Source\PSoC4/cyfitter_cfg.c **** 	/* Enable the clock in the interrupt controller for the routed interrupts */
 296:Generated_Source\PSoC4/cyfitter_cfg.c **** 	CY_SET_REG8((void *)CYREG_UDB_UDBIF_INT_CLK_CTL, 0x01u);
 375              		.loc 1 296 0
 376              		.thumb
 377              		.syntax unified
 378 0094 494B     		ldr	r3, .L16
 379 0096 0122     		movs	r2, #1
 380 0098 1A70     		strb	r2, [r3]
 381              	.LBB3:
 297:Generated_Source\PSoC4/cyfitter_cfg.c **** 	{
 298:Generated_Source\PSoC4/cyfitter_cfg.c **** 		static const uint32 CYCODE cy_cfg_addr_table[] = {
 299:Generated_Source\PSoC4/cyfitter_cfg.c **** 			0x400F0004u, /* Base address: 0x400F0000 Count: 4 */
 300:Generated_Source\PSoC4/cyfitter_cfg.c **** 			0x400F3064u, /* Base address: 0x400F3000 Count: 100 */
ARM GAS  C:\Users\JAMESS~1\AppData\Local\Temp\ccit3uJM.s 			page 13


 301:Generated_Source\PSoC4/cyfitter_cfg.c **** 			0x400F3143u, /* Base address: 0x400F3100 Count: 67 */
 302:Generated_Source\PSoC4/cyfitter_cfg.c **** 			0x400F3303u, /* Base address: 0x400F3300 Count: 3 */
 303:Generated_Source\PSoC4/cyfitter_cfg.c **** 			0x400F4008u, /* Base address: 0x400F4000 Count: 8 */
 304:Generated_Source\PSoC4/cyfitter_cfg.c **** 			0x400F4103u, /* Base address: 0x400F4100 Count: 3 */
 305:Generated_Source\PSoC4/cyfitter_cfg.c **** 			0x400F6002u, /* Base address: 0x400F6000 Count: 2 */
 306:Generated_Source\PSoC4/cyfitter_cfg.c **** 		};
 307:Generated_Source\PSoC4/cyfitter_cfg.c **** 
 308:Generated_Source\PSoC4/cyfitter_cfg.c **** 		static const cy_cfg_addrvalue_t CYCODE cy_cfg_data_table[] = {
 309:Generated_Source\PSoC4/cyfitter_cfg.c **** 			{0x01u, 0x18u},
 310:Generated_Source\PSoC4/cyfitter_cfg.c **** 			{0x11u, 0x18u},
 311:Generated_Source\PSoC4/cyfitter_cfg.c **** 			{0x21u, 0x14u},
 312:Generated_Source\PSoC4/cyfitter_cfg.c **** 			{0x31u, 0x0Cu},
 313:Generated_Source\PSoC4/cyfitter_cfg.c **** 			{0x00u, 0x6Du},
 314:Generated_Source\PSoC4/cyfitter_cfg.c **** 			{0x02u, 0x12u},
 315:Generated_Source\PSoC4/cyfitter_cfg.c **** 			{0x03u, 0x08u},
 316:Generated_Source\PSoC4/cyfitter_cfg.c **** 			{0x04u, 0xA4u},
 317:Generated_Source\PSoC4/cyfitter_cfg.c **** 			{0x05u, 0x04u},
 318:Generated_Source\PSoC4/cyfitter_cfg.c **** 			{0x06u, 0x53u},
 319:Generated_Source\PSoC4/cyfitter_cfg.c **** 			{0x07u, 0x90u},
 320:Generated_Source\PSoC4/cyfitter_cfg.c **** 			{0x0Bu, 0x57u},
 321:Generated_Source\PSoC4/cyfitter_cfg.c **** 			{0x0Eu, 0x89u},
 322:Generated_Source\PSoC4/cyfitter_cfg.c **** 			{0x12u, 0x0Cu},
 323:Generated_Source\PSoC4/cyfitter_cfg.c **** 			{0x15u, 0x02u},
 324:Generated_Source\PSoC4/cyfitter_cfg.c **** 			{0x16u, 0x49u},
 325:Generated_Source\PSoC4/cyfitter_cfg.c **** 			{0x17u, 0x20u},
 326:Generated_Source\PSoC4/cyfitter_cfg.c **** 			{0x19u, 0xA0u},
 327:Generated_Source\PSoC4/cyfitter_cfg.c **** 			{0x1Au, 0x49u},
 328:Generated_Source\PSoC4/cyfitter_cfg.c **** 			{0x1Bu, 0x5Fu},
 329:Generated_Source\PSoC4/cyfitter_cfg.c **** 			{0x1Cu, 0x0Cu},
 330:Generated_Source\PSoC4/cyfitter_cfg.c **** 			{0x21u, 0x57u},
 331:Generated_Source\PSoC4/cyfitter_cfg.c **** 			{0x22u, 0x49u},
 332:Generated_Source\PSoC4/cyfitter_cfg.c **** 			{0x23u, 0x08u},
 333:Generated_Source\PSoC4/cyfitter_cfg.c **** 			{0x24u, 0x02u},
 334:Generated_Source\PSoC4/cyfitter_cfg.c **** 			{0x26u, 0x10u},
 335:Generated_Source\PSoC4/cyfitter_cfg.c **** 			{0x2Du, 0x01u},
 336:Generated_Source\PSoC4/cyfitter_cfg.c **** 			{0x30u, 0x07u},
 337:Generated_Source\PSoC4/cyfitter_cfg.c **** 			{0x33u, 0x30u},
 338:Generated_Source\PSoC4/cyfitter_cfg.c **** 			{0x34u, 0x38u},
 339:Generated_Source\PSoC4/cyfitter_cfg.c **** 			{0x35u, 0xC0u},
 340:Generated_Source\PSoC4/cyfitter_cfg.c **** 			{0x36u, 0xC0u},
 341:Generated_Source\PSoC4/cyfitter_cfg.c **** 			{0x37u, 0x0Fu},
 342:Generated_Source\PSoC4/cyfitter_cfg.c **** 			{0x38u, 0x20u},
 343:Generated_Source\PSoC4/cyfitter_cfg.c **** 			{0x3Au, 0x80u},
 344:Generated_Source\PSoC4/cyfitter_cfg.c **** 			{0x3Bu, 0x28u},
 345:Generated_Source\PSoC4/cyfitter_cfg.c **** 			{0x40u, 0x12u},
 346:Generated_Source\PSoC4/cyfitter_cfg.c **** 			{0x45u, 0xC0u},
 347:Generated_Source\PSoC4/cyfitter_cfg.c **** 			{0x46u, 0xE0u},
 348:Generated_Source\PSoC4/cyfitter_cfg.c **** 			{0x47u, 0xB0u},
 349:Generated_Source\PSoC4/cyfitter_cfg.c **** 			{0x48u, 0x2Au},
 350:Generated_Source\PSoC4/cyfitter_cfg.c **** 			{0x49u, 0xFFu},
 351:Generated_Source\PSoC4/cyfitter_cfg.c **** 			{0x4Au, 0xFFu},
 352:Generated_Source\PSoC4/cyfitter_cfg.c **** 			{0x4Bu, 0xFFu},
 353:Generated_Source\PSoC4/cyfitter_cfg.c **** 			{0x58u, 0x04u},
 354:Generated_Source\PSoC4/cyfitter_cfg.c **** 			{0x59u, 0x04u},
 355:Generated_Source\PSoC4/cyfitter_cfg.c **** 			{0x5Au, 0x04u},
 356:Generated_Source\PSoC4/cyfitter_cfg.c **** 			{0x5Bu, 0x04u},
 357:Generated_Source\PSoC4/cyfitter_cfg.c **** 			{0x5Fu, 0x01u},
ARM GAS  C:\Users\JAMESS~1\AppData\Local\Temp\ccit3uJM.s 			page 14


 358:Generated_Source\PSoC4/cyfitter_cfg.c **** 			{0x62u, 0xC0u},
 359:Generated_Source\PSoC4/cyfitter_cfg.c **** 			{0x64u, 0x40u},
 360:Generated_Source\PSoC4/cyfitter_cfg.c **** 			{0x65u, 0x01u},
 361:Generated_Source\PSoC4/cyfitter_cfg.c **** 			{0x80u, 0x06u},
 362:Generated_Source\PSoC4/cyfitter_cfg.c **** 			{0x81u, 0x01u},
 363:Generated_Source\PSoC4/cyfitter_cfg.c **** 			{0x82u, 0x38u},
 364:Generated_Source\PSoC4/cyfitter_cfg.c **** 			{0x83u, 0x08u},
 365:Generated_Source\PSoC4/cyfitter_cfg.c **** 			{0x86u, 0x10u},
 366:Generated_Source\PSoC4/cyfitter_cfg.c **** 			{0x88u, 0x02u},
 367:Generated_Source\PSoC4/cyfitter_cfg.c **** 			{0x8Bu, 0x10u},
 368:Generated_Source\PSoC4/cyfitter_cfg.c **** 			{0x8Cu, 0x01u},
 369:Generated_Source\PSoC4/cyfitter_cfg.c **** 			{0x8Fu, 0x19u},
 370:Generated_Source\PSoC4/cyfitter_cfg.c **** 			{0x91u, 0x03u},
 371:Generated_Source\PSoC4/cyfitter_cfg.c **** 			{0x92u, 0x01u},
 372:Generated_Source\PSoC4/cyfitter_cfg.c **** 			{0x94u, 0x08u},
 373:Generated_Source\PSoC4/cyfitter_cfg.c **** 			{0x96u, 0x26u},
 374:Generated_Source\PSoC4/cyfitter_cfg.c **** 			{0x99u, 0x04u},
 375:Generated_Source\PSoC4/cyfitter_cfg.c **** 			{0x9Cu, 0x01u},
 376:Generated_Source\PSoC4/cyfitter_cfg.c **** 			{0x9Fu, 0x10u},
 377:Generated_Source\PSoC4/cyfitter_cfg.c **** 			{0xA0u, 0x02u},
 378:Generated_Source\PSoC4/cyfitter_cfg.c **** 			{0xA2u, 0x04u},
 379:Generated_Source\PSoC4/cyfitter_cfg.c **** 			{0xA3u, 0x08u},
 380:Generated_Source\PSoC4/cyfitter_cfg.c **** 			{0xA4u, 0x01u},
 381:Generated_Source\PSoC4/cyfitter_cfg.c **** 			{0xA7u, 0x06u},
 382:Generated_Source\PSoC4/cyfitter_cfg.c **** 			{0xA8u, 0x01u},
 383:Generated_Source\PSoC4/cyfitter_cfg.c **** 			{0xACu, 0x04u},
 384:Generated_Source\PSoC4/cyfitter_cfg.c **** 			{0xB0u, 0x0Eu},
 385:Generated_Source\PSoC4/cyfitter_cfg.c **** 			{0xB2u, 0x20u},
 386:Generated_Source\PSoC4/cyfitter_cfg.c **** 			{0xB3u, 0x07u},
 387:Generated_Source\PSoC4/cyfitter_cfg.c **** 			{0xB4u, 0x18u},
 388:Generated_Source\PSoC4/cyfitter_cfg.c **** 			{0xB5u, 0x08u},
 389:Generated_Source\PSoC4/cyfitter_cfg.c **** 			{0xB6u, 0x01u},
 390:Generated_Source\PSoC4/cyfitter_cfg.c **** 			{0xB7u, 0x10u},
 391:Generated_Source\PSoC4/cyfitter_cfg.c **** 			{0xB9u, 0x08u},
 392:Generated_Source\PSoC4/cyfitter_cfg.c **** 			{0xBEu, 0x40u},
 393:Generated_Source\PSoC4/cyfitter_cfg.c **** 			{0xBFu, 0x50u},
 394:Generated_Source\PSoC4/cyfitter_cfg.c **** 			{0xC0u, 0x25u},
 395:Generated_Source\PSoC4/cyfitter_cfg.c **** 			{0xC5u, 0x20u},
 396:Generated_Source\PSoC4/cyfitter_cfg.c **** 			{0xC6u, 0x22u},
 397:Generated_Source\PSoC4/cyfitter_cfg.c **** 			{0xC7u, 0x51u},
 398:Generated_Source\PSoC4/cyfitter_cfg.c **** 			{0xC8u, 0x3Eu},
 399:Generated_Source\PSoC4/cyfitter_cfg.c **** 			{0xC9u, 0xFFu},
 400:Generated_Source\PSoC4/cyfitter_cfg.c **** 			{0xCAu, 0xFFu},
 401:Generated_Source\PSoC4/cyfitter_cfg.c **** 			{0xCBu, 0xFFu},
 402:Generated_Source\PSoC4/cyfitter_cfg.c **** 			{0xCDu, 0xA0u},
 403:Generated_Source\PSoC4/cyfitter_cfg.c **** 			{0xD8u, 0x04u},
 404:Generated_Source\PSoC4/cyfitter_cfg.c **** 			{0xD9u, 0x04u},
 405:Generated_Source\PSoC4/cyfitter_cfg.c **** 			{0xDAu, 0x04u},
 406:Generated_Source\PSoC4/cyfitter_cfg.c **** 			{0xDBu, 0x04u},
 407:Generated_Source\PSoC4/cyfitter_cfg.c **** 			{0xDFu, 0x01u},
 408:Generated_Source\PSoC4/cyfitter_cfg.c **** 			{0xE0u, 0x40u},
 409:Generated_Source\PSoC4/cyfitter_cfg.c **** 			{0xE1u, 0x40u},
 410:Generated_Source\PSoC4/cyfitter_cfg.c **** 			{0xE2u, 0xC0u},
 411:Generated_Source\PSoC4/cyfitter_cfg.c **** 			{0xE4u, 0xC0u},
 412:Generated_Source\PSoC4/cyfitter_cfg.c **** 			{0xE6u, 0xC0u},
 413:Generated_Source\PSoC4/cyfitter_cfg.c **** 			{0x01u, 0x82u},
 414:Generated_Source\PSoC4/cyfitter_cfg.c **** 			{0x03u, 0x20u},
ARM GAS  C:\Users\JAMESS~1\AppData\Local\Temp\ccit3uJM.s 			page 15


 415:Generated_Source\PSoC4/cyfitter_cfg.c **** 			{0x04u, 0x04u},
 416:Generated_Source\PSoC4/cyfitter_cfg.c **** 			{0x05u, 0x02u},
 417:Generated_Source\PSoC4/cyfitter_cfg.c **** 			{0x06u, 0x08u},
 418:Generated_Source\PSoC4/cyfitter_cfg.c **** 			{0x07u, 0x01u},
 419:Generated_Source\PSoC4/cyfitter_cfg.c **** 			{0x08u, 0x40u},
 420:Generated_Source\PSoC4/cyfitter_cfg.c **** 			{0x0Au, 0x40u},
 421:Generated_Source\PSoC4/cyfitter_cfg.c **** 			{0x0Bu, 0x55u},
 422:Generated_Source\PSoC4/cyfitter_cfg.c **** 			{0x0Eu, 0x82u},
 423:Generated_Source\PSoC4/cyfitter_cfg.c **** 			{0x0Fu, 0x20u},
 424:Generated_Source\PSoC4/cyfitter_cfg.c **** 			{0x10u, 0xA0u},
 425:Generated_Source\PSoC4/cyfitter_cfg.c **** 			{0x15u, 0x02u},
 426:Generated_Source\PSoC4/cyfitter_cfg.c **** 			{0x16u, 0x01u},
 427:Generated_Source\PSoC4/cyfitter_cfg.c **** 			{0x17u, 0x14u},
 428:Generated_Source\PSoC4/cyfitter_cfg.c **** 			{0x19u, 0x82u},
 429:Generated_Source\PSoC4/cyfitter_cfg.c **** 			{0x1Bu, 0x30u},
 430:Generated_Source\PSoC4/cyfitter_cfg.c **** 			{0x1Cu, 0x24u},
 431:Generated_Source\PSoC4/cyfitter_cfg.c **** 			{0x1Du, 0x84u},
 432:Generated_Source\PSoC4/cyfitter_cfg.c **** 			{0x1Eu, 0x80u},
 433:Generated_Source\PSoC4/cyfitter_cfg.c **** 			{0x20u, 0x01u},
 434:Generated_Source\PSoC4/cyfitter_cfg.c **** 			{0x22u, 0x04u},
 435:Generated_Source\PSoC4/cyfitter_cfg.c **** 			{0x23u, 0x14u},
 436:Generated_Source\PSoC4/cyfitter_cfg.c **** 			{0x26u, 0x20u},
 437:Generated_Source\PSoC4/cyfitter_cfg.c **** 			{0x27u, 0x22u},
 438:Generated_Source\PSoC4/cyfitter_cfg.c **** 			{0x29u, 0x82u},
 439:Generated_Source\PSoC4/cyfitter_cfg.c **** 			{0x2Du, 0x01u},
 440:Generated_Source\PSoC4/cyfitter_cfg.c **** 			{0x2Fu, 0x20u},
 441:Generated_Source\PSoC4/cyfitter_cfg.c **** 			{0x32u, 0x04u},
 442:Generated_Source\PSoC4/cyfitter_cfg.c **** 			{0x33u, 0x20u},
 443:Generated_Source\PSoC4/cyfitter_cfg.c **** 			{0x35u, 0x42u},
 444:Generated_Source\PSoC4/cyfitter_cfg.c **** 			{0x37u, 0x20u},
 445:Generated_Source\PSoC4/cyfitter_cfg.c **** 			{0x38u, 0x01u},
 446:Generated_Source\PSoC4/cyfitter_cfg.c **** 			{0x3Au, 0x10u},
 447:Generated_Source\PSoC4/cyfitter_cfg.c **** 			{0x3Bu, 0x04u},
 448:Generated_Source\PSoC4/cyfitter_cfg.c **** 			{0x3Cu, 0x20u},
 449:Generated_Source\PSoC4/cyfitter_cfg.c **** 			{0x3Eu, 0x40u},
 450:Generated_Source\PSoC4/cyfitter_cfg.c **** 			{0x3Fu, 0x01u},
 451:Generated_Source\PSoC4/cyfitter_cfg.c **** 			{0x40u, 0x05u},
 452:Generated_Source\PSoC4/cyfitter_cfg.c **** 			{0x47u, 0x20u},
 453:Generated_Source\PSoC4/cyfitter_cfg.c **** 			{0x4Bu, 0x01u},
 454:Generated_Source\PSoC4/cyfitter_cfg.c **** 			{0x4Cu, 0x80u},
 455:Generated_Source\PSoC4/cyfitter_cfg.c **** 			{0x4Fu, 0x80u},
 456:Generated_Source\PSoC4/cyfitter_cfg.c **** 			{0x51u, 0x21u},
 457:Generated_Source\PSoC4/cyfitter_cfg.c **** 			{0x56u, 0x19u},
 458:Generated_Source\PSoC4/cyfitter_cfg.c **** 			{0x57u, 0x40u},
 459:Generated_Source\PSoC4/cyfitter_cfg.c **** 			{0x58u, 0x40u},
 460:Generated_Source\PSoC4/cyfitter_cfg.c **** 			{0x59u, 0x10u},
 461:Generated_Source\PSoC4/cyfitter_cfg.c **** 			{0x61u, 0x34u},
 462:Generated_Source\PSoC4/cyfitter_cfg.c **** 			{0x63u, 0x40u},
 463:Generated_Source\PSoC4/cyfitter_cfg.c **** 			{0x69u, 0x01u},
 464:Generated_Source\PSoC4/cyfitter_cfg.c **** 			{0x6Au, 0x40u},
 465:Generated_Source\PSoC4/cyfitter_cfg.c **** 			{0x6Eu, 0x02u},
 466:Generated_Source\PSoC4/cyfitter_cfg.c **** 			{0x6Fu, 0x15u},
 467:Generated_Source\PSoC4/cyfitter_cfg.c **** 			{0x70u, 0x20u},
 468:Generated_Source\PSoC4/cyfitter_cfg.c **** 			{0x71u, 0x40u},
 469:Generated_Source\PSoC4/cyfitter_cfg.c **** 			{0x86u, 0x20u},
 470:Generated_Source\PSoC4/cyfitter_cfg.c **** 			{0xC0u, 0xFDu},
 471:Generated_Source\PSoC4/cyfitter_cfg.c **** 			{0xC2u, 0xBFu},
ARM GAS  C:\Users\JAMESS~1\AppData\Local\Temp\ccit3uJM.s 			page 16


 472:Generated_Source\PSoC4/cyfitter_cfg.c **** 			{0xC4u, 0xFCu},
 473:Generated_Source\PSoC4/cyfitter_cfg.c **** 			{0xCAu, 0xC9u},
 474:Generated_Source\PSoC4/cyfitter_cfg.c **** 			{0xCCu, 0xB6u},
 475:Generated_Source\PSoC4/cyfitter_cfg.c **** 			{0xCEu, 0xB7u},
 476:Generated_Source\PSoC4/cyfitter_cfg.c **** 			{0xD0u, 0x2Cu},
 477:Generated_Source\PSoC4/cyfitter_cfg.c **** 			{0xD2u, 0x10u},
 478:Generated_Source\PSoC4/cyfitter_cfg.c **** 			{0xD6u, 0x0Cu},
 479:Generated_Source\PSoC4/cyfitter_cfg.c **** 			{0xD8u, 0x03u},
 480:Generated_Source\PSoC4/cyfitter_cfg.c **** 			{0xABu, 0x02u},
 481:Generated_Source\PSoC4/cyfitter_cfg.c **** 			{0xB5u, 0x80u},
 482:Generated_Source\PSoC4/cyfitter_cfg.c **** 			{0xEAu, 0x10u},
 483:Generated_Source\PSoC4/cyfitter_cfg.c **** 			{0x66u, 0x08u},
 484:Generated_Source\PSoC4/cyfitter_cfg.c **** 			{0x69u, 0x02u},
 485:Generated_Source\PSoC4/cyfitter_cfg.c **** 			{0x6Fu, 0x08u},
 486:Generated_Source\PSoC4/cyfitter_cfg.c **** 			{0x85u, 0x01u},
 487:Generated_Source\PSoC4/cyfitter_cfg.c **** 			{0xD8u, 0x80u},
 488:Generated_Source\PSoC4/cyfitter_cfg.c **** 			{0xDAu, 0x80u},
 489:Generated_Source\PSoC4/cyfitter_cfg.c **** 			{0xDCu, 0x20u},
 490:Generated_Source\PSoC4/cyfitter_cfg.c **** 			{0xE6u, 0x40u},
 491:Generated_Source\PSoC4/cyfitter_cfg.c **** 			{0xABu, 0x08u},
 492:Generated_Source\PSoC4/cyfitter_cfg.c **** 			{0xB6u, 0x08u},
 493:Generated_Source\PSoC4/cyfitter_cfg.c **** 			{0xEEu, 0x80u},
 494:Generated_Source\PSoC4/cyfitter_cfg.c **** 			{0x01u, 0x01u},
 495:Generated_Source\PSoC4/cyfitter_cfg.c **** 			{0x10u, 0x01u},
 496:Generated_Source\PSoC4/cyfitter_cfg.c **** 		};
 497:Generated_Source\PSoC4/cyfitter_cfg.c **** 
 498:Generated_Source\PSoC4/cyfitter_cfg.c **** 
 499:Generated_Source\PSoC4/cyfitter_cfg.c **** 
 500:Generated_Source\PSoC4/cyfitter_cfg.c **** 		CYPACKED typedef struct {
 501:Generated_Source\PSoC4/cyfitter_cfg.c **** 			void CYFAR *address;
 502:Generated_Source\PSoC4/cyfitter_cfg.c **** 			uint16 size;
 503:Generated_Source\PSoC4/cyfitter_cfg.c **** 		} CYPACKED_ATTR cfg_memset_t;
 504:Generated_Source\PSoC4/cyfitter_cfg.c **** 
 505:Generated_Source\PSoC4/cyfitter_cfg.c **** 		static const cfg_memset_t CYCODE cfg_memset_list[] = {
 506:Generated_Source\PSoC4/cyfitter_cfg.c **** 			/* address, size */
 507:Generated_Source\PSoC4/cyfitter_cfg.c **** 			{(void CYFAR *)(CYDEV_UDB_P0_U0_BASE), 1024u},
 508:Generated_Source\PSoC4/cyfitter_cfg.c **** 			{(void CYFAR *)(CYDEV_UDB_DSI0_BASE), 1024u},
 509:Generated_Source\PSoC4/cyfitter_cfg.c **** 		};
 510:Generated_Source\PSoC4/cyfitter_cfg.c **** 
 511:Generated_Source\PSoC4/cyfitter_cfg.c **** 		uint8 CYDATA i;
 512:Generated_Source\PSoC4/cyfitter_cfg.c **** 
 513:Generated_Source\PSoC4/cyfitter_cfg.c **** 		/* Zero out critical memory blocks before beginning configuration */
 514:Generated_Source\PSoC4/cyfitter_cfg.c **** 		for (i = 0u; i < (sizeof(cfg_memset_list)/sizeof(cfg_memset_list[0])); i++)
 382              		.loc 1 514 0
 383 009a FB1D     		adds	r3, r7, #7
 384 009c 0022     		movs	r2, #0
 385 009e 1A70     		strb	r2, [r3]
 386 00a0 22E0     		b	.L14
 387              	.L15:
 388              	.LBB4:
 515:Generated_Source\PSoC4/cyfitter_cfg.c **** 		{
 516:Generated_Source\PSoC4/cyfitter_cfg.c **** 			const cfg_memset_t CYCODE * CYDATA ms = &cfg_memset_list[i];
 389              		.loc 1 516 0 discriminator 3
 390 00a2 FB1D     		adds	r3, r7, #7
 391 00a4 1A78     		ldrb	r2, [r3]
 392 00a6 1300     		movs	r3, r2
 393 00a8 5B00     		lsls	r3, r3, #1
ARM GAS  C:\Users\JAMESS~1\AppData\Local\Temp\ccit3uJM.s 			page 17


 394 00aa 9B18     		adds	r3, r3, r2
 395 00ac 5B00     		lsls	r3, r3, #1
 396 00ae 444A     		ldr	r2, .L16+4
 397 00b0 9B18     		adds	r3, r3, r2
 398 00b2 3B60     		str	r3, [r7]
 517:Generated_Source\PSoC4/cyfitter_cfg.c **** 			CYMEMZERO(ms->address, (size_t)(uint32)(ms->size));
 399              		.loc 1 517 0 discriminator 3
 400 00b4 3B68     		ldr	r3, [r7]
 401 00b6 1A78     		ldrb	r2, [r3]
 402 00b8 5978     		ldrb	r1, [r3, #1]
 403 00ba 0902     		lsls	r1, r1, #8
 404 00bc 0A43     		orrs	r2, r1
 405 00be 9978     		ldrb	r1, [r3, #2]
 406 00c0 0904     		lsls	r1, r1, #16
 407 00c2 0A43     		orrs	r2, r1
 408 00c4 DB78     		ldrb	r3, [r3, #3]
 409 00c6 1B06     		lsls	r3, r3, #24
 410 00c8 1343     		orrs	r3, r2
 411 00ca 1800     		movs	r0, r3
 412 00cc 3B68     		ldr	r3, [r7]
 413 00ce 1A79     		ldrb	r2, [r3, #4]
 414 00d0 5B79     		ldrb	r3, [r3, #5]
 415 00d2 1B02     		lsls	r3, r3, #8
 416 00d4 1343     		orrs	r3, r2
 417 00d6 9BB2     		uxth	r3, r3
 418 00d8 1900     		movs	r1, r3
 419 00da FFF7FEFF 		bl	CYMEMZERO
 420              	.LBE4:
 514:Generated_Source\PSoC4/cyfitter_cfg.c **** 		{
 421              		.loc 1 514 0 discriminator 3
 422 00de FB1D     		adds	r3, r7, #7
 423 00e0 1A78     		ldrb	r2, [r3]
 424 00e2 FB1D     		adds	r3, r7, #7
 425 00e4 0132     		adds	r2, r2, #1
 426 00e6 1A70     		strb	r2, [r3]
 427              	.L14:
 514:Generated_Source\PSoC4/cyfitter_cfg.c **** 		{
 428              		.loc 1 514 0 is_stmt 0 discriminator 1
 429 00e8 FB1D     		adds	r3, r7, #7
 430 00ea 1B78     		ldrb	r3, [r3]
 431 00ec 012B     		cmp	r3, #1
 432 00ee D8D9     		bls	.L15
 518:Generated_Source\PSoC4/cyfitter_cfg.c **** 		}
 519:Generated_Source\PSoC4/cyfitter_cfg.c **** 
 520:Generated_Source\PSoC4/cyfitter_cfg.c **** 		cfg_write_bytes32(cy_cfg_addr_table, cy_cfg_data_table);
 433              		.loc 1 520 0 is_stmt 1
 434 00f0 344A     		ldr	r2, .L16+8
 435 00f2 354B     		ldr	r3, .L16+12
 436 00f4 1100     		movs	r1, r2
 437 00f6 1800     		movs	r0, r3
 438 00f8 FFF7FEFF 		bl	cfg_write_bytes32
 521:Generated_Source\PSoC4/cyfitter_cfg.c **** 
 522:Generated_Source\PSoC4/cyfitter_cfg.c **** 		/* HSIOM Starting address: CYDEV_HSIOM_BASE */
 523:Generated_Source\PSoC4/cyfitter_cfg.c **** 		CY_SET_REG32((void *)(CYDEV_HSIOM_BASE), 0x00030000u);
 439              		.loc 1 523 0
 440 00fc 334B     		ldr	r3, .L16+16
 441 00fe C022     		movs	r2, #192
ARM GAS  C:\Users\JAMESS~1\AppData\Local\Temp\ccit3uJM.s 			page 18


 442 0100 9202     		lsls	r2, r2, #10
 443 0102 1A60     		str	r2, [r3]
 524:Generated_Source\PSoC4/cyfitter_cfg.c **** 		CY_SET_REG32((void *)(CYREG_HSIOM_PORT_SEL3), 0x0000EE00u);
 444              		.loc 1 524 0
 445 0104 324B     		ldr	r3, .L16+20
 446 0106 EE22     		movs	r2, #238
 447 0108 1202     		lsls	r2, r2, #8
 448 010a 1A60     		str	r2, [r3]
 525:Generated_Source\PSoC4/cyfitter_cfg.c **** 		CY_SET_REG32((void *)(CYREG_HSIOM_PORT_SEL4), 0x000000EEu);
 449              		.loc 1 525 0
 450 010c 314B     		ldr	r3, .L16+24
 451 010e EE22     		movs	r2, #238
 452 0110 1A60     		str	r2, [r3]
 526:Generated_Source\PSoC4/cyfitter_cfg.c **** 
 527:Generated_Source\PSoC4/cyfitter_cfg.c **** 		/* UDB_PA_0 Starting address: CYDEV_UDB_PA0_BASE */
 528:Generated_Source\PSoC4/cyfitter_cfg.c **** 		CY_SET_REG32((void *)(CYDEV_UDB_PA0_BASE), 0x00990000u);
 453              		.loc 1 528 0
 454 0112 314B     		ldr	r3, .L16+28
 455 0114 9922     		movs	r2, #153
 456 0116 1204     		lsls	r2, r2, #16
 457 0118 1A60     		str	r2, [r3]
 529:Generated_Source\PSoC4/cyfitter_cfg.c **** 		CY_SET_REG32((void *)(CYREG_UDB_PA0_CFG8), 0x03000000u);
 458              		.loc 1 529 0
 459 011a 304B     		ldr	r3, .L16+32
 460 011c C022     		movs	r2, #192
 461 011e 9204     		lsls	r2, r2, #18
 462 0120 1A60     		str	r2, [r3]
 530:Generated_Source\PSoC4/cyfitter_cfg.c **** 
 531:Generated_Source\PSoC4/cyfitter_cfg.c **** 		/* UDB_PA_1 Starting address: CYDEV_UDB_PA1_BASE */
 532:Generated_Source\PSoC4/cyfitter_cfg.c **** 		CY_SET_REG32((void *)(CYDEV_UDB_PA1_BASE), 0x00990000u);
 463              		.loc 1 532 0
 464 0122 2F4B     		ldr	r3, .L16+36
 465 0124 9922     		movs	r2, #153
 466 0126 1204     		lsls	r2, r2, #16
 467 0128 1A60     		str	r2, [r3]
 533:Generated_Source\PSoC4/cyfitter_cfg.c **** 
 534:Generated_Source\PSoC4/cyfitter_cfg.c **** 		/* UDB_PA_2 Starting address: CYDEV_UDB_PA2_BASE */
 535:Generated_Source\PSoC4/cyfitter_cfg.c **** 		CY_SET_REG32((void *)(CYDEV_UDB_PA2_BASE), 0x00990000u);
 468              		.loc 1 535 0
 469 012a 2E4B     		ldr	r3, .L16+40
 470 012c 9922     		movs	r2, #153
 471 012e 1204     		lsls	r2, r2, #16
 472 0130 1A60     		str	r2, [r3]
 536:Generated_Source\PSoC4/cyfitter_cfg.c **** 
 537:Generated_Source\PSoC4/cyfitter_cfg.c **** 		/* UDB_PA_3 Starting address: CYDEV_UDB_PA3_BASE */
 538:Generated_Source\PSoC4/cyfitter_cfg.c **** 		CY_SET_REG32((void *)(CYDEV_UDB_PA3_BASE), 0x00990000u);
 473              		.loc 1 538 0
 474 0132 2D4B     		ldr	r3, .L16+44
 475 0134 9922     		movs	r2, #153
 476 0136 1204     		lsls	r2, r2, #16
 477 0138 1A60     		str	r2, [r3]
 539:Generated_Source\PSoC4/cyfitter_cfg.c **** 
 540:Generated_Source\PSoC4/cyfitter_cfg.c **** 		/* INT_SELECT Starting address: CYDEV_CPUSS_INTR_SELECT */
 541:Generated_Source\PSoC4/cyfitter_cfg.c **** 		CY_SET_REG32((void *)(CYREG_CPUSS_INTR_SELECT), 0x00000005u);
 478              		.loc 1 541 0
 479 013a 2C4B     		ldr	r3, .L16+48
 480 013c 0522     		movs	r2, #5
ARM GAS  C:\Users\JAMESS~1\AppData\Local\Temp\ccit3uJM.s 			page 19


 481 013e 1A60     		str	r2, [r3]
 542:Generated_Source\PSoC4/cyfitter_cfg.c **** 
 543:Generated_Source\PSoC4/cyfitter_cfg.c **** 		/* INT_CONFIG Starting address: CYDEV_UDB_INT_CFG */
 544:Generated_Source\PSoC4/cyfitter_cfg.c **** 		CY_SET_REG32((void *)(CYREG_UDB_INT_CFG), 0x00000006u);
 482              		.loc 1 544 0
 483 0140 2B4B     		ldr	r3, .L16+52
 484 0142 0622     		movs	r2, #6
 485 0144 1A60     		str	r2, [r3]
 545:Generated_Source\PSoC4/cyfitter_cfg.c **** 
 546:Generated_Source\PSoC4/cyfitter_cfg.c **** 		/* Enable UDB array and digital routing */
 547:Generated_Source\PSoC4/cyfitter_cfg.c **** 		CY_SET_XTND_REG8((void *)CYREG_UDB_UDBIF_WAIT_CFG, (uint8)((CY_GET_XTND_REG8((void *)CYREG_UDB_UD
 486              		.loc 1 547 0
 487 0146 2B4A     		ldr	r2, .L16+56
 488 0148 2A4B     		ldr	r3, .L16+56
 489 014a 1B78     		ldrb	r3, [r3]
 490 014c DBB2     		uxtb	r3, r3
 491 014e 3C21     		movs	r1, #60
 492 0150 8B43     		bics	r3, r1
 493 0152 DBB2     		uxtb	r3, r3
 494 0154 1421     		movs	r1, #20
 495 0156 0B43     		orrs	r3, r1
 496 0158 DBB2     		uxtb	r3, r3
 497 015a 1370     		strb	r3, [r2]
 548:Generated_Source\PSoC4/cyfitter_cfg.c **** 		CY_SET_XTND_REG8((void *)CYREG_UDB_UDBIF_BANK_CTL, (uint8)(CY_GET_XTND_REG8((void *)CYREG_UDB_UDB
 498              		.loc 1 548 0
 499 015c 264A     		ldr	r2, .L16+60
 500 015e 264B     		ldr	r3, .L16+60
 501 0160 1B78     		ldrb	r3, [r3]
 502 0162 DBB2     		uxtb	r3, r3
 503 0164 1621     		movs	r1, #22
 504 0166 0B43     		orrs	r3, r1
 505 0168 DBB2     		uxtb	r3, r3
 506 016a 1370     		strb	r3, [r2]
 507              	.LBE3:
 549:Generated_Source\PSoC4/cyfitter_cfg.c **** 	}
 550:Generated_Source\PSoC4/cyfitter_cfg.c **** 
 551:Generated_Source\PSoC4/cyfitter_cfg.c **** 	/* Perform second pass device configuration. These items must be configured in specific order afte
 552:Generated_Source\PSoC4/cyfitter_cfg.c **** 	/* IOPINS0_0 Starting address: CYDEV_PRT0_BASE */
 553:Generated_Source\PSoC4/cyfitter_cfg.c **** 	CY_SET_REG32((void *)(CYDEV_PRT0_BASE), 0x0000009Cu);
 508              		.loc 1 553 0
 509 016c 234B     		ldr	r3, .L16+64
 510 016e 9C22     		movs	r2, #156
 511 0170 1A60     		str	r2, [r3]
 554:Generated_Source\PSoC4/cyfitter_cfg.c **** 	CY_SET_REG32((void *)(CYREG_PRT0_PC), 0x00406D80u);
 512              		.loc 1 554 0
 513 0172 234B     		ldr	r3, .L16+68
 514 0174 234A     		ldr	r2, .L16+72
 515 0176 1A60     		str	r2, [r3]
 555:Generated_Source\PSoC4/cyfitter_cfg.c **** 
 556:Generated_Source\PSoC4/cyfitter_cfg.c **** 	/* IOPINS0_1 Starting address: CYDEV_PRT1_BASE */
 557:Generated_Source\PSoC4/cyfitter_cfg.c **** 	CY_SET_REG32((void *)(CYDEV_PRT1_BASE), 0x00000040u);
 516              		.loc 1 557 0
 517 0178 234B     		ldr	r3, .L16+76
 518 017a 4022     		movs	r2, #64
 519 017c 1A60     		str	r2, [r3]
 558:Generated_Source\PSoC4/cyfitter_cfg.c **** 	CY_SET_REG32((void *)(CYREG_PRT1_PC), 0x00180000u);
 520              		.loc 1 558 0
ARM GAS  C:\Users\JAMESS~1\AppData\Local\Temp\ccit3uJM.s 			page 20


 521 017e 234B     		ldr	r3, .L16+80
 522 0180 C022     		movs	r2, #192
 523 0182 5203     		lsls	r2, r2, #13
 524 0184 1A60     		str	r2, [r3]
 559:Generated_Source\PSoC4/cyfitter_cfg.c **** 
 560:Generated_Source\PSoC4/cyfitter_cfg.c **** 	/* IOPINS0_2 Starting address: CYDEV_PRT2_BASE */
 561:Generated_Source\PSoC4/cyfitter_cfg.c **** 	CY_SET_REG32((void *)(CYDEV_PRT2_BASE), 0x00000040u);
 525              		.loc 1 561 0
 526 0186 224B     		ldr	r3, .L16+84
 527 0188 4022     		movs	r2, #64
 528 018a 1A60     		str	r2, [r3]
 562:Generated_Source\PSoC4/cyfitter_cfg.c **** 	CY_SET_REG32((void *)(CYREG_PRT2_PC), 0x00080000u);
 529              		.loc 1 562 0
 530 018c 214B     		ldr	r3, .L16+88
 531 018e 8022     		movs	r2, #128
 532 0190 1203     		lsls	r2, r2, #12
 533 0192 1A60     		str	r2, [r3]
 563:Generated_Source\PSoC4/cyfitter_cfg.c **** 
 564:Generated_Source\PSoC4/cyfitter_cfg.c **** 	/* IOPINS0_3 Starting address: CYDEV_PRT3_BASE */
 565:Generated_Source\PSoC4/cyfitter_cfg.c **** 	CY_SET_REG32((void *)(CYDEV_PRT3_BASE), 0x00000051u);
 534              		.loc 1 565 0
 535 0194 204B     		ldr	r3, .L16+92
 536 0196 5122     		movs	r2, #81
 537 0198 1A60     		str	r2, [r3]
 566:Generated_Source\PSoC4/cyfitter_cfg.c **** 	CY_SET_REG32((void *)(CYREG_PRT3_PC), 0x00082D82u);
 538              		.loc 1 566 0
 539 019a 204B     		ldr	r3, .L16+96
 540 019c 204A     		ldr	r2, .L16+100
 541 019e 1A60     		str	r2, [r3]
 567:Generated_Source\PSoC4/cyfitter_cfg.c **** 
 568:Generated_Source\PSoC4/cyfitter_cfg.c **** 	/* IOPINS0_4 Starting address: CYDEV_PRT4_BASE */
 569:Generated_Source\PSoC4/cyfitter_cfg.c **** 	CY_SET_REG32((void *)(CYDEV_PRT4_BASE), 0x00000003u);
 542              		.loc 1 569 0
 543 01a0 204B     		ldr	r3, .L16+104
 544 01a2 0322     		movs	r2, #3
 545 01a4 1A60     		str	r2, [r3]
 570:Generated_Source\PSoC4/cyfitter_cfg.c **** 	CY_SET_REG32((void *)(CYREG_PRT4_PC), 0x00000024u);
 546              		.loc 1 570 0
 547 01a6 204B     		ldr	r3, .L16+108
 548 01a8 2422     		movs	r2, #36
 549 01aa 1A60     		str	r2, [r3]
 571:Generated_Source\PSoC4/cyfitter_cfg.c **** 
 572:Generated_Source\PSoC4/cyfitter_cfg.c **** 
 573:Generated_Source\PSoC4/cyfitter_cfg.c **** 	/* Setup clocks based on selections from Clock DWR */
 574:Generated_Source\PSoC4/cyfitter_cfg.c **** 	ClockSetup();
 550              		.loc 1 574 0
 551 01ac FFF728FF 		bl	ClockSetup
 575:Generated_Source\PSoC4/cyfitter_cfg.c **** 
 576:Generated_Source\PSoC4/cyfitter_cfg.c **** 	/* Perform basic analog initialization to defaults */
 577:Generated_Source\PSoC4/cyfitter_cfg.c **** 	AnalogSetDefault();
 552              		.loc 1 577 0
 553 01b0 FFF7FEFF 		bl	AnalogSetDefault
 578:Generated_Source\PSoC4/cyfitter_cfg.c **** 
 579:Generated_Source\PSoC4/cyfitter_cfg.c **** }
 554              		.loc 1 579 0
 555 01b4 C046     		nop
 556 01b6 BD46     		mov	sp, r7
ARM GAS  C:\Users\JAMESS~1\AppData\Local\Temp\ccit3uJM.s 			page 21


 557 01b8 02B0     		add	sp, sp, #8
 558              		@ sp needed
 559 01ba 80BD     		pop	{r7, pc}
 560              	.L17:
 561              		.align	2
 562              	.L16:
 563 01bc 1C700F40 		.word	1074753564
 564 01c0 00000000 		.word	cfg_memset_list.4870
 565 01c4 28000000 		.word	cy_cfg_data_table.4865
 566 01c8 0C000000 		.word	cy_cfg_addr_table.4864
 567 01cc 00000140 		.word	1073807360
 568 01d0 0C000140 		.word	1073807372
 569 01d4 10000140 		.word	1073807376
 570 01d8 00500F40 		.word	1074745344
 571 01dc 08500F40 		.word	1074745352
 572 01e0 10500F40 		.word	1074745360
 573 01e4 20500F40 		.word	1074745376
 574 01e8 30500F40 		.word	1074745392
 575 01ec 20000040 		.word	1073741856
 576 01f0 00800F40 		.word	1074757632
 577 01f4 01700F40 		.word	1074753537
 578 01f8 00700F40 		.word	1074753536
 579 01fc 00000440 		.word	1074003968
 580 0200 08000440 		.word	1074003976
 581 0204 806D4000 		.word	4222336
 582 0208 00010440 		.word	1074004224
 583 020c 08010440 		.word	1074004232
 584 0210 00020440 		.word	1074004480
 585 0214 08020440 		.word	1074004488
 586 0218 00030440 		.word	1074004736
 587 021c 08030440 		.word	1074004744
 588 0220 822D0800 		.word	535938
 589 0224 00040440 		.word	1074004992
 590 0228 08040440 		.word	1074005000
 591              		.cfi_endproc
 592              	.LFE6:
 593              		.size	cyfitter_cfg, .-cyfitter_cfg
 594              		.section	.rodata
 595              		.align	2
 596              		.type	cfg_memset_list.4870, %object
 597              		.size	cfg_memset_list.4870, 12
 598              	cfg_memset_list.4870:
 599 0000 00300F40 		.word	1074737152
 600 0004 0004     		.short	1024
 601 0006 00400F40 		.4byte	1074741248
 602 000a 0004     		.short	1024
 603              		.align	2
 604              		.type	cy_cfg_addr_table.4864, %object
 605              		.size	cy_cfg_addr_table.4864, 28
 606              	cy_cfg_addr_table.4864:
 607 000c 04000F40 		.word	1074724868
 608 0010 64300F40 		.word	1074737252
 609 0014 43310F40 		.word	1074737475
 610 0018 03330F40 		.word	1074737923
 611 001c 08400F40 		.word	1074741256
 612 0020 03410F40 		.word	1074741507
 613 0024 02600F40 		.word	1074749442
ARM GAS  C:\Users\JAMESS~1\AppData\Local\Temp\ccit3uJM.s 			page 22


 614              		.align	2
 615              		.type	cy_cfg_data_table.4865, %object
 616              		.size	cy_cfg_data_table.4865, 374
 617              	cy_cfg_data_table.4865:
 618 0028 01       		.byte	1
 619 0029 18       		.byte	24
 620 002a 11       		.byte	17
 621 002b 18       		.byte	24
 622 002c 21       		.byte	33
 623 002d 14       		.byte	20
 624 002e 31       		.byte	49
 625 002f 0C       		.byte	12
 626 0030 00       		.byte	0
 627 0031 6D       		.byte	109
 628 0032 02       		.byte	2
 629 0033 12       		.byte	18
 630 0034 03       		.byte	3
 631 0035 08       		.byte	8
 632 0036 04       		.byte	4
 633 0037 A4       		.byte	-92
 634 0038 05       		.byte	5
 635 0039 04       		.byte	4
 636 003a 06       		.byte	6
 637 003b 53       		.byte	83
 638 003c 07       		.byte	7
 639 003d 90       		.byte	-112
 640 003e 0B       		.byte	11
 641 003f 57       		.byte	87
 642 0040 0E       		.byte	14
 643 0041 89       		.byte	-119
 644 0042 12       		.byte	18
 645 0043 0C       		.byte	12
 646 0044 15       		.byte	21
 647 0045 02       		.byte	2
 648 0046 16       		.byte	22
 649 0047 49       		.byte	73
 650 0048 17       		.byte	23
 651 0049 20       		.byte	32
 652 004a 19       		.byte	25
 653 004b A0       		.byte	-96
 654 004c 1A       		.byte	26
 655 004d 49       		.byte	73
 656 004e 1B       		.byte	27
 657 004f 5F       		.byte	95
 658 0050 1C       		.byte	28
 659 0051 0C       		.byte	12
 660 0052 21       		.byte	33
 661 0053 57       		.byte	87
 662 0054 22       		.byte	34
 663 0055 49       		.byte	73
 664 0056 23       		.byte	35
 665 0057 08       		.byte	8
 666 0058 24       		.byte	36
 667 0059 02       		.byte	2
 668 005a 26       		.byte	38
 669 005b 10       		.byte	16
 670 005c 2D       		.byte	45
ARM GAS  C:\Users\JAMESS~1\AppData\Local\Temp\ccit3uJM.s 			page 23


 671 005d 01       		.byte	1
 672 005e 30       		.byte	48
 673 005f 07       		.byte	7
 674 0060 33       		.byte	51
 675 0061 30       		.byte	48
 676 0062 34       		.byte	52
 677 0063 38       		.byte	56
 678 0064 35       		.byte	53
 679 0065 C0       		.byte	-64
 680 0066 36       		.byte	54
 681 0067 C0       		.byte	-64
 682 0068 37       		.byte	55
 683 0069 0F       		.byte	15
 684 006a 38       		.byte	56
 685 006b 20       		.byte	32
 686 006c 3A       		.byte	58
 687 006d 80       		.byte	-128
 688 006e 3B       		.byte	59
 689 006f 28       		.byte	40
 690 0070 40       		.byte	64
 691 0071 12       		.byte	18
 692 0072 45       		.byte	69
 693 0073 C0       		.byte	-64
 694 0074 46       		.byte	70
 695 0075 E0       		.byte	-32
 696 0076 47       		.byte	71
 697 0077 B0       		.byte	-80
 698 0078 48       		.byte	72
 699 0079 2A       		.byte	42
 700 007a 49       		.byte	73
 701 007b FF       		.byte	-1
 702 007c 4A       		.byte	74
 703 007d FF       		.byte	-1
 704 007e 4B       		.byte	75
 705 007f FF       		.byte	-1
 706 0080 58       		.byte	88
 707 0081 04       		.byte	4
 708 0082 59       		.byte	89
 709 0083 04       		.byte	4
 710 0084 5A       		.byte	90
 711 0085 04       		.byte	4
 712 0086 5B       		.byte	91
 713 0087 04       		.byte	4
 714 0088 5F       		.byte	95
 715 0089 01       		.byte	1
 716 008a 62       		.byte	98
 717 008b C0       		.byte	-64
 718 008c 64       		.byte	100
 719 008d 40       		.byte	64
 720 008e 65       		.byte	101
 721 008f 01       		.byte	1
 722 0090 80       		.byte	-128
 723 0091 06       		.byte	6
 724 0092 81       		.byte	-127
 725 0093 01       		.byte	1
 726 0094 82       		.byte	-126
 727 0095 38       		.byte	56
ARM GAS  C:\Users\JAMESS~1\AppData\Local\Temp\ccit3uJM.s 			page 24


 728 0096 83       		.byte	-125
 729 0097 08       		.byte	8
 730 0098 86       		.byte	-122
 731 0099 10       		.byte	16
 732 009a 88       		.byte	-120
 733 009b 02       		.byte	2
 734 009c 8B       		.byte	-117
 735 009d 10       		.byte	16
 736 009e 8C       		.byte	-116
 737 009f 01       		.byte	1
 738 00a0 8F       		.byte	-113
 739 00a1 19       		.byte	25
 740 00a2 91       		.byte	-111
 741 00a3 03       		.byte	3
 742 00a4 92       		.byte	-110
 743 00a5 01       		.byte	1
 744 00a6 94       		.byte	-108
 745 00a7 08       		.byte	8
 746 00a8 96       		.byte	-106
 747 00a9 26       		.byte	38
 748 00aa 99       		.byte	-103
 749 00ab 04       		.byte	4
 750 00ac 9C       		.byte	-100
 751 00ad 01       		.byte	1
 752 00ae 9F       		.byte	-97
 753 00af 10       		.byte	16
 754 00b0 A0       		.byte	-96
 755 00b1 02       		.byte	2
 756 00b2 A2       		.byte	-94
 757 00b3 04       		.byte	4
 758 00b4 A3       		.byte	-93
 759 00b5 08       		.byte	8
 760 00b6 A4       		.byte	-92
 761 00b7 01       		.byte	1
 762 00b8 A7       		.byte	-89
 763 00b9 06       		.byte	6
 764 00ba A8       		.byte	-88
 765 00bb 01       		.byte	1
 766 00bc AC       		.byte	-84
 767 00bd 04       		.byte	4
 768 00be B0       		.byte	-80
 769 00bf 0E       		.byte	14
 770 00c0 B2       		.byte	-78
 771 00c1 20       		.byte	32
 772 00c2 B3       		.byte	-77
 773 00c3 07       		.byte	7
 774 00c4 B4       		.byte	-76
 775 00c5 18       		.byte	24
 776 00c6 B5       		.byte	-75
 777 00c7 08       		.byte	8
 778 00c8 B6       		.byte	-74
 779 00c9 01       		.byte	1
 780 00ca B7       		.byte	-73
 781 00cb 10       		.byte	16
 782 00cc B9       		.byte	-71
 783 00cd 08       		.byte	8
 784 00ce BE       		.byte	-66
ARM GAS  C:\Users\JAMESS~1\AppData\Local\Temp\ccit3uJM.s 			page 25


 785 00cf 40       		.byte	64
 786 00d0 BF       		.byte	-65
 787 00d1 50       		.byte	80
 788 00d2 C0       		.byte	-64
 789 00d3 25       		.byte	37
 790 00d4 C5       		.byte	-59
 791 00d5 20       		.byte	32
 792 00d6 C6       		.byte	-58
 793 00d7 22       		.byte	34
 794 00d8 C7       		.byte	-57
 795 00d9 51       		.byte	81
 796 00da C8       		.byte	-56
 797 00db 3E       		.byte	62
 798 00dc C9       		.byte	-55
 799 00dd FF       		.byte	-1
 800 00de CA       		.byte	-54
 801 00df FF       		.byte	-1
 802 00e0 CB       		.byte	-53
 803 00e1 FF       		.byte	-1
 804 00e2 CD       		.byte	-51
 805 00e3 A0       		.byte	-96
 806 00e4 D8       		.byte	-40
 807 00e5 04       		.byte	4
 808 00e6 D9       		.byte	-39
 809 00e7 04       		.byte	4
 810 00e8 DA       		.byte	-38
 811 00e9 04       		.byte	4
 812 00ea DB       		.byte	-37
 813 00eb 04       		.byte	4
 814 00ec DF       		.byte	-33
 815 00ed 01       		.byte	1
 816 00ee E0       		.byte	-32
 817 00ef 40       		.byte	64
 818 00f0 E1       		.byte	-31
 819 00f1 40       		.byte	64
 820 00f2 E2       		.byte	-30
 821 00f3 C0       		.byte	-64
 822 00f4 E4       		.byte	-28
 823 00f5 C0       		.byte	-64
 824 00f6 E6       		.byte	-26
 825 00f7 C0       		.byte	-64
 826 00f8 01       		.byte	1
 827 00f9 82       		.byte	-126
 828 00fa 03       		.byte	3
 829 00fb 20       		.byte	32
 830 00fc 04       		.byte	4
 831 00fd 04       		.byte	4
 832 00fe 05       		.byte	5
 833 00ff 02       		.byte	2
 834 0100 06       		.byte	6
 835 0101 08       		.byte	8
 836 0102 07       		.byte	7
 837 0103 01       		.byte	1
 838 0104 08       		.byte	8
 839 0105 40       		.byte	64
 840 0106 0A       		.byte	10
 841 0107 40       		.byte	64
ARM GAS  C:\Users\JAMESS~1\AppData\Local\Temp\ccit3uJM.s 			page 26


 842 0108 0B       		.byte	11
 843 0109 55       		.byte	85
 844 010a 0E       		.byte	14
 845 010b 82       		.byte	-126
 846 010c 0F       		.byte	15
 847 010d 20       		.byte	32
 848 010e 10       		.byte	16
 849 010f A0       		.byte	-96
 850 0110 15       		.byte	21
 851 0111 02       		.byte	2
 852 0112 16       		.byte	22
 853 0113 01       		.byte	1
 854 0114 17       		.byte	23
 855 0115 14       		.byte	20
 856 0116 19       		.byte	25
 857 0117 82       		.byte	-126
 858 0118 1B       		.byte	27
 859 0119 30       		.byte	48
 860 011a 1C       		.byte	28
 861 011b 24       		.byte	36
 862 011c 1D       		.byte	29
 863 011d 84       		.byte	-124
 864 011e 1E       		.byte	30
 865 011f 80       		.byte	-128
 866 0120 20       		.byte	32
 867 0121 01       		.byte	1
 868 0122 22       		.byte	34
 869 0123 04       		.byte	4
 870 0124 23       		.byte	35
 871 0125 14       		.byte	20
 872 0126 26       		.byte	38
 873 0127 20       		.byte	32
 874 0128 27       		.byte	39
 875 0129 22       		.byte	34
 876 012a 29       		.byte	41
 877 012b 82       		.byte	-126
 878 012c 2D       		.byte	45
 879 012d 01       		.byte	1
 880 012e 2F       		.byte	47
 881 012f 20       		.byte	32
 882 0130 32       		.byte	50
 883 0131 04       		.byte	4
 884 0132 33       		.byte	51
 885 0133 20       		.byte	32
 886 0134 35       		.byte	53
 887 0135 42       		.byte	66
 888 0136 37       		.byte	55
 889 0137 20       		.byte	32
 890 0138 38       		.byte	56
 891 0139 01       		.byte	1
 892 013a 3A       		.byte	58
 893 013b 10       		.byte	16
 894 013c 3B       		.byte	59
 895 013d 04       		.byte	4
 896 013e 3C       		.byte	60
 897 013f 20       		.byte	32
 898 0140 3E       		.byte	62
ARM GAS  C:\Users\JAMESS~1\AppData\Local\Temp\ccit3uJM.s 			page 27


 899 0141 40       		.byte	64
 900 0142 3F       		.byte	63
 901 0143 01       		.byte	1
 902 0144 40       		.byte	64
 903 0145 05       		.byte	5
 904 0146 47       		.byte	71
 905 0147 20       		.byte	32
 906 0148 4B       		.byte	75
 907 0149 01       		.byte	1
 908 014a 4C       		.byte	76
 909 014b 80       		.byte	-128
 910 014c 4F       		.byte	79
 911 014d 80       		.byte	-128
 912 014e 51       		.byte	81
 913 014f 21       		.byte	33
 914 0150 56       		.byte	86
 915 0151 19       		.byte	25
 916 0152 57       		.byte	87
 917 0153 40       		.byte	64
 918 0154 58       		.byte	88
 919 0155 40       		.byte	64
 920 0156 59       		.byte	89
 921 0157 10       		.byte	16
 922 0158 61       		.byte	97
 923 0159 34       		.byte	52
 924 015a 63       		.byte	99
 925 015b 40       		.byte	64
 926 015c 69       		.byte	105
 927 015d 01       		.byte	1
 928 015e 6A       		.byte	106
 929 015f 40       		.byte	64
 930 0160 6E       		.byte	110
 931 0161 02       		.byte	2
 932 0162 6F       		.byte	111
 933 0163 15       		.byte	21
 934 0164 70       		.byte	112
 935 0165 20       		.byte	32
 936 0166 71       		.byte	113
 937 0167 40       		.byte	64
 938 0168 86       		.byte	-122
 939 0169 20       		.byte	32
 940 016a C0       		.byte	-64
 941 016b FD       		.byte	-3
 942 016c C2       		.byte	-62
 943 016d BF       		.byte	-65
 944 016e C4       		.byte	-60
 945 016f FC       		.byte	-4
 946 0170 CA       		.byte	-54
 947 0171 C9       		.byte	-55
 948 0172 CC       		.byte	-52
 949 0173 B6       		.byte	-74
 950 0174 CE       		.byte	-50
 951 0175 B7       		.byte	-73
 952 0176 D0       		.byte	-48
 953 0177 2C       		.byte	44
 954 0178 D2       		.byte	-46
 955 0179 10       		.byte	16
ARM GAS  C:\Users\JAMESS~1\AppData\Local\Temp\ccit3uJM.s 			page 28


 956 017a D6       		.byte	-42
 957 017b 0C       		.byte	12
 958 017c D8       		.byte	-40
 959 017d 03       		.byte	3
 960 017e AB       		.byte	-85
 961 017f 02       		.byte	2
 962 0180 B5       		.byte	-75
 963 0181 80       		.byte	-128
 964 0182 EA       		.byte	-22
 965 0183 10       		.byte	16
 966 0184 66       		.byte	102
 967 0185 08       		.byte	8
 968 0186 69       		.byte	105
 969 0187 02       		.byte	2
 970 0188 6F       		.byte	111
 971 0189 08       		.byte	8
 972 018a 85       		.byte	-123
 973 018b 01       		.byte	1
 974 018c D8       		.byte	-40
 975 018d 80       		.byte	-128
 976 018e DA       		.byte	-38
 977 018f 80       		.byte	-128
 978 0190 DC       		.byte	-36
 979 0191 20       		.byte	32
 980 0192 E6       		.byte	-26
 981 0193 40       		.byte	64
 982 0194 AB       		.byte	-85
 983 0195 08       		.byte	8
 984 0196 B6       		.byte	-74
 985 0197 08       		.byte	8
 986 0198 EE       		.byte	-18
 987 0199 80       		.byte	-128
 988 019a 01       		.byte	1
 989 019b 01       		.byte	1
 990 019c 10       		.byte	16
 991 019d 01       		.byte	1
 992              		.text
 993              	.Letext0:
 994              		.file 2 "c:\\program files (x86)\\cypress\\psoc creator\\4.1\\psoc creator\\import\\gnu\\arm\\5.4.
 995              		.file 3 "Generated_Source\\PSoC4\\cytypes.h"