ARM GAS  C:\Users\JAMESS~1\AppData\Local\Temp\cci2rLHv.s 			page 1


   1              		.syntax unified
   2              		.cpu cortex-m0
   3              		.fpu softvfp
   4              		.eabi_attribute 20, 1
   5              		.eabi_attribute 21, 1
   6              		.eabi_attribute 23, 3
   7              		.eabi_attribute 24, 1
   8              		.eabi_attribute 25, 1
   9              		.eabi_attribute 26, 1
  10              		.eabi_attribute 30, 6
  11              		.eabi_attribute 34, 0
  12              		.eabi_attribute 18, 4
  13              		.thumb
  14              		.syntax unified
  15              		.file	"main.c"
  16              		.text
  17              	.Ltext0:
  18              		.cfi_sections	.debug_frame
  19              		.global	i2cReadBuffer
  20              		.data
  21              		.align	2
  22              		.type	i2cReadBuffer, %object
  23              		.size	i2cReadBuffer, 3
  24              	i2cReadBuffer:
  25 0000 01       		.byte	1
  26 0001 FF       		.byte	-1
  27 0002 17       		.byte	23
  28              		.comm	i2cWriteBuffer,3,4
  29              		.section	.text.main,"ax",%progbits
  30              		.align	2
  31              		.global	main
  32              		.code	16
  33              		.thumb_func
  34              		.type	main, %function
  35              	main:
  36              	.LFB32:
  37              		.file 1 "main.c"
   1:main.c        **** /*******************************************************************************
   2:main.c        **** SLAVE
   3:main.c        **** *******************************************************************************/
   4:main.c        **** 
   5:main.c        **** #include <main.h>
   6:main.c        **** 
   7:main.c        **** /* I2C slave read and write buffers */
   8:main.c        **** uint8 i2cReadBuffer [BUFFER_SIZE] = {PACKET_SOP, STS_CMD_FAIL, PACKET_EOP};
   9:main.c        **** uint8 i2cWriteBuffer[BUFFER_SIZE];
  10:main.c        **** void SetBlockColor(int block_number, uint32 color);
  11:main.c        **** 
  12:main.c        **** 
  13:main.c        **** /*******************************************************************************
  14:main.c        **** * Function Name: main
  15:main.c        **** ********************************************************************************
  16:main.c        **** * Summary:
  17:main.c        **** *  Main function performs following actions:
  18:main.c        **** *   1. Turns off status RGB LED
  19:main.c        **** *   2. Sets up I2C slave write and read buffers.
  20:main.c        **** *   3. Starts I2C slave (SCB mode) component.
ARM GAS  C:\Users\JAMESS~1\AppData\Local\Temp\cci2rLHv.s 			page 2


  21:main.c        **** *   4. Enables global interrupts.
  22:main.c        **** *   5. Waits for command from the I2C master to control the RGB LED.
  23:main.c        **** *
  24:main.c        **** * Parameters:
  25:main.c        **** *  None
  26:main.c        **** *
  27:main.c        **** * Return:
  28:main.c        **** *  None
  29:main.c        **** *
  30:main.c        **** *******************************************************************************/
  31:main.c        **** int main()
  32:main.c        **** {
  38              		.loc 1 32 0
  39              		.cfi_startproc
  40              		@ args = 0, pretend = 0, frame = 8
  41              		@ frame_needed = 1, uses_anonymous_args = 0
  42 0000 90B5     		push	{r4, r7, lr}
  43              		.cfi_def_cfa_offset 12
  44              		.cfi_offset 4, -12
  45              		.cfi_offset 7, -8
  46              		.cfi_offset 14, -4
  47 0002 83B0     		sub	sp, sp, #12
  48              		.cfi_def_cfa_offset 24
  49 0004 00AF     		add	r7, sp, #0
  50              		.cfi_def_cfa_register 7
  33:main.c        ****     //Start lights and initialize the variables for flex sensors
  34:main.c        ****     StripLights_Start();
  51              		.loc 1 34 0
  52 0006 FFF7FEFF 		bl	StripLights_Start
  35:main.c        ****     StripLights_Dim(0);
  53              		.loc 1 35 0
  54 000a 0020     		movs	r0, #0
  55 000c FFF7FEFF 		bl	StripLights_Dim
  36:main.c        ****     uint8 buttonStatus = 0;
  56              		.loc 1 36 0
  57 0010 FB1D     		adds	r3, r7, #7
  58 0012 0022     		movs	r2, #0
  59 0014 1A70     		strb	r2, [r3]
  37:main.c        ****     
  38:main.c        ****     uint8 status = STS_CMD_FAIL;
  60              		.loc 1 38 0
  61 0016 BB1D     		adds	r3, r7, #6
  62 0018 FF22     		movs	r2, #255
  63 001a 1A70     		strb	r2, [r3]
  39:main.c        ****                     LED_RED_Write  (LED_OFF);
  64              		.loc 1 39 0
  65 001c 0120     		movs	r0, #1
  66 001e FFF7FEFF 		bl	LED_RED_Write
  40:main.c        ****                     LED_GREEN_Write(LED_OFF);
  67              		.loc 1 40 0
  68 0022 0120     		movs	r0, #1
  69 0024 FFF7FEFF 		bl	LED_GREEN_Write
  41:main.c        ****                     LED_BLUE_Write (LED_OFF);
  70              		.loc 1 41 0
  71 0028 0120     		movs	r0, #1
  72 002a FFF7FEFF 		bl	LED_BLUE_Write
  42:main.c        **** 
ARM GAS  C:\Users\JAMESS~1\AppData\Local\Temp\cci2rLHv.s 			page 3


  43:main.c        **** 
  44:main.c        ****     /* Start I2C slave (SCB mode) */
  45:main.c        ****     I2CS_I2CSlaveInitReadBuf (i2cReadBuffer,  BUFFER_SIZE);
  73              		.loc 1 45 0
  74 002e 214B     		ldr	r3, .L6
  75 0030 0321     		movs	r1, #3
  76 0032 1800     		movs	r0, r3
  77 0034 FFF7FEFF 		bl	I2CS_I2CSlaveInitReadBuf
  46:main.c        ****     I2CS_I2CSlaveInitWriteBuf(i2cWriteBuffer, BUFFER_SIZE);
  78              		.loc 1 46 0
  79 0038 1F4B     		ldr	r3, .L6+4
  80 003a 0321     		movs	r1, #3
  81 003c 1800     		movs	r0, r3
  82 003e FFF7FEFF 		bl	I2CS_I2CSlaveInitWriteBuf
  47:main.c        ****     I2CS_Start();
  83              		.loc 1 47 0
  84 0042 FFF7FEFF 		bl	I2CS_Start
  48:main.c        **** 
  49:main.c        ****     CyGlobalIntEnable;
  85              		.loc 1 49 0
  86              		.syntax divided
  87              	@ 49 "main.c" 1
  88 0046 62B6     		CPSIE   i
  89              	@ 0 "" 2
  90              		.thumb
  91              		.syntax unified
  92              	.L5:
  50:main.c        **** 
  51:main.c        ****     /***************************************************************************
  52:main.c        ****     * Main polling loop
  53:main.c        ****     ***************************************************************************/
  54:main.c        ****     for (;;)
  55:main.c        ****     {
  56:main.c        ****         buttonStatus = Button_Read();
  93              		.loc 1 56 0
  94 0048 FC1D     		adds	r4, r7, #7
  95 004a FFF7FEFF 		bl	Button_Read
  96 004e 0300     		movs	r3, r0
  97 0050 2370     		strb	r3, [r4]
  57:main.c        ****         
  58:main.c        ****         /* Write complete: parse command packet */
  59:main.c        ****         if (0u != (I2CS_I2CSlaveStatus() & I2CS_I2C_SSTAT_WR_CMPLT))
  98              		.loc 1 59 0
  99 0052 FFF7FEFF 		bl	I2CS_I2CSlaveStatus
 100 0056 0200     		movs	r2, r0
 101 0058 1023     		movs	r3, #16
 102 005a 1340     		ands	r3, r2
 103 005c 1FD0     		beq	.L2
  60:main.c        ****         {
  61:main.c        ****             /* Check packet length */
  62:main.c        ****             if (PACKET_SIZE == I2CS_I2CSlaveGetWriteBufSize())
 104              		.loc 1 62 0
 105 005e FFF7FEFF 		bl	I2CS_I2CSlaveGetWriteBufSize
 106 0062 0300     		movs	r3, r0
 107 0064 032B     		cmp	r3, #3
 108 0066 0FD1     		bne	.L3
  63:main.c        ****             {
ARM GAS  C:\Users\JAMESS~1\AppData\Local\Temp\cci2rLHv.s 			page 4


  64:main.c        ****                 /* Check start and end of packet markers */
  65:main.c        ****                 if ((i2cWriteBuffer[PACKET_SOP_POS] == PACKET_SOP) &&
 109              		.loc 1 65 0
 110 0068 134B     		ldr	r3, .L6+4
 111 006a 1B78     		ldrb	r3, [r3]
 112 006c 012B     		cmp	r3, #1
 113 006e 0BD1     		bne	.L3
  66:main.c        ****                     (i2cWriteBuffer[PACKET_EOP_POS] == PACKET_EOP))
 114              		.loc 1 66 0 discriminator 1
 115 0070 114B     		ldr	r3, .L6+4
 116 0072 9B78     		ldrb	r3, [r3, #2]
  65:main.c        ****                     (i2cWriteBuffer[PACKET_EOP_POS] == PACKET_EOP))
 117              		.loc 1 65 0 discriminator 1
 118 0074 172B     		cmp	r3, #23
 119 0076 07D1     		bne	.L3
  67:main.c        ****                 {
  68:main.c        ****                     status = ExecuteCommand(i2cWriteBuffer[PACKET_CMD_POS]);
 120              		.loc 1 68 0
 121 0078 0F4B     		ldr	r3, .L6+4
 122 007a 5B78     		ldrb	r3, [r3, #1]
 123 007c BC1D     		adds	r4, r7, #6
 124 007e 1800     		movs	r0, r3
 125 0080 FFF7FEFF 		bl	ExecuteCommand
 126 0084 0300     		movs	r3, r0
 127 0086 2370     		strb	r3, [r4]
 128              	.L3:
  69:main.c        ****                 }
  70:main.c        ****             }
  71:main.c        **** 
  72:main.c        ****             /* Clear slave write buffer and status */
  73:main.c        ****             I2CS_I2CSlaveClearWriteBuf();
 129              		.loc 1 73 0
 130 0088 FFF7FEFF 		bl	I2CS_I2CSlaveClearWriteBuf
  74:main.c        ****             (void) I2CS_I2CSlaveClearWriteStatus();
 131              		.loc 1 74 0
 132 008c FFF7FEFF 		bl	I2CS_I2CSlaveClearWriteStatus
  75:main.c        **** 
  76:main.c        ****             /* Update read buffer */
  77:main.c        ****             i2cReadBuffer[PACKET_STS_POS] = buttonStatus;  //used to be status
 133              		.loc 1 77 0
 134 0090 084B     		ldr	r3, .L6
 135 0092 FA1D     		adds	r2, r7, #7
 136 0094 1278     		ldrb	r2, [r2]
 137 0096 5A70     		strb	r2, [r3, #1]
  78:main.c        ****             status = STS_CMD_FAIL;
 138              		.loc 1 78 0
 139 0098 BB1D     		adds	r3, r7, #6
 140 009a FF22     		movs	r2, #255
 141 009c 1A70     		strb	r2, [r3]
 142              	.L2:
  79:main.c        ****         }
  80:main.c        **** 
  81:main.c        ****         /* Read complete: expose buffer to master */
  82:main.c        ****         if (0u != (I2CS_I2CSlaveStatus() & I2CS_I2C_SSTAT_RD_CMPLT))
 143              		.loc 1 82 0
 144 009e FFF7FEFF 		bl	I2CS_I2CSlaveStatus
 145 00a2 0200     		movs	r2, r0
ARM GAS  C:\Users\JAMESS~1\AppData\Local\Temp\cci2rLHv.s 			page 5


 146 00a4 0123     		movs	r3, #1
 147 00a6 1340     		ands	r3, r2
 148 00a8 CED0     		beq	.L5
  83:main.c        ****         {
  84:main.c        ****             /* Clear slave read buffer and status */
  85:main.c        ****             I2CS_I2CSlaveClearReadBuf();
 149              		.loc 1 85 0
 150 00aa FFF7FEFF 		bl	I2CS_I2CSlaveClearReadBuf
  86:main.c        ****             (void) I2CS_I2CSlaveClearReadStatus();
 151              		.loc 1 86 0
 152 00ae FFF7FEFF 		bl	I2CS_I2CSlaveClearReadStatus
  87:main.c        ****         }
  88:main.c        ****     }
 153              		.loc 1 88 0
 154 00b2 C9E7     		b	.L5
 155              	.L7:
 156              		.align	2
 157              	.L6:
 158 00b4 00000000 		.word	i2cReadBuffer
 159 00b8 00000000 		.word	i2cWriteBuffer
 160              		.cfi_endproc
 161              	.LFE32:
 162              		.size	main, .-main
 163              		.section	.text.ExecuteCommand,"ax",%progbits
 164              		.align	2
 165              		.global	ExecuteCommand
 166              		.code	16
 167              		.thumb_func
 168              		.type	ExecuteCommand, %function
 169              	ExecuteCommand:
 170              	.LFB33:
  89:main.c        **** }
  90:main.c        **** 
  91:main.c        **** 
  92:main.c        **** /*******************************************************************************
  93:main.c        **** * Function Name: ExecuteCommand
  94:main.c        **** ********************************************************************************
  95:main.c        **** * Summary:
  96:main.c        **** *  Executes received command to control the LED color and returns status.
  97:main.c        **** *  If the command is unknown, the LED color is not changed.
  98:main.c        **** *
  99:main.c        **** * Parameters:
 100:main.c        **** *  cmd: command to execute. Available commands:
 101:main.c        **** *   - CMD_SET_RED:   set red color of the LED.
 102:main.c        **** *   - CMD_SET_GREEN: set green color of the LED.
 103:main.c        **** *   - CMD_SET_BLUE:  set blue color of the LED.
 104:main.c        **** *   - CMD_SET_OFF:   turn off the LED.
 105:main.c        **** *
 106:main.c        **** * Return:
 107:main.c        **** *  Returns status of command execution. There are two statuses
 108:main.c        **** *  - STS_CMD_DONE: command is executed successfully.
 109:main.c        **** *  - STS_CMD_FAIL: unknown command
 110:main.c        **** *
 111:main.c        **** *******************************************************************************/
 112:main.c        **** uint8 ExecuteCommand(uint32 cmd)
 113:main.c        **** {
 171              		.loc 1 113 0
ARM GAS  C:\Users\JAMESS~1\AppData\Local\Temp\cci2rLHv.s 			page 6


 172              		.cfi_startproc
 173              		@ args = 0, pretend = 0, frame = 16
 174              		@ frame_needed = 1, uses_anonymous_args = 0
 175 0000 80B5     		push	{r7, lr}
 176              		.cfi_def_cfa_offset 8
 177              		.cfi_offset 7, -8
 178              		.cfi_offset 14, -4
 179 0002 84B0     		sub	sp, sp, #16
 180              		.cfi_def_cfa_offset 24
 181 0004 00AF     		add	r7, sp, #0
 182              		.cfi_def_cfa_register 7
 183 0006 7860     		str	r0, [r7, #4]
 114:main.c        ****     uint8 status;
 115:main.c        **** 
 116:main.c        ****     status = STS_CMD_DONE;
 184              		.loc 1 116 0
 185 0008 0F23     		movs	r3, #15
 186 000a FB18     		adds	r3, r7, r3
 187 000c 0022     		movs	r2, #0
 188 000e 1A70     		strb	r2, [r3]
 117:main.c        **** 
 118:main.c        ****     /* Execute received command */
 119:main.c        ****     switch (cmd)
 189              		.loc 1 119 0
 190 0010 7B68     		ldr	r3, [r7, #4]
 191 0012 072B     		cmp	r3, #7
 192 0014 00D9     		bls	.LCB119
 193 0016 91E0     		b	.L9	@long jump
 194              	.LCB119:
 195 0018 7B68     		ldr	r3, [r7, #4]
 196 001a 9A00     		lsls	r2, r3, #2
 197 001c 4D4B     		ldr	r3, .L21
 198 001e D318     		adds	r3, r2, r3
 199 0020 1B68     		ldr	r3, [r3]
 200 0022 9F46     		mov	pc, r3
 201              		.section	.rodata
 202              		.align	2
 203              	.L11:
 204 0000 20010000 		.word	.L10
 205 0004 24000000 		.word	.L12
 206 0008 48000000 		.word	.L13
 207 000c 6C000000 		.word	.L14
 208 0010 90000000 		.word	.L15
 209 0014 B4000000 		.word	.L16
 210 0018 D8000000 		.word	.L17
 211 001c FC000000 		.word	.L18
 212              		.section	.text.ExecuteCommand
 213              	.L12:
 120:main.c        ****     {
 121:main.c        ****         case CMD_SET_RED:
 122:main.c        ****             LED_RED_Write  (LED_ON);
 214              		.loc 1 122 0
 215 0024 0020     		movs	r0, #0
 216 0026 FFF7FEFF 		bl	LED_RED_Write
 123:main.c        ****             LED_GREEN_Write(LED_OFF);
 217              		.loc 1 123 0
 218 002a 0120     		movs	r0, #1
ARM GAS  C:\Users\JAMESS~1\AppData\Local\Temp\cci2rLHv.s 			page 7


 219 002c FFF7FEFF 		bl	LED_GREEN_Write
 124:main.c        ****             LED_BLUE_Write (LED_OFF);
 220              		.loc 1 124 0
 221 0030 0120     		movs	r0, #1
 222 0032 FFF7FEFF 		bl	LED_BLUE_Write
 125:main.c        ****             SetBlockColor(0, StripLights_RED);
 223              		.loc 1 125 0
 224 0036 4820     		movs	r0, #72
 225 0038 FFF7FEFF 		bl	StripLights_getColor
 226 003c 0300     		movs	r3, r0
 227 003e 1900     		movs	r1, r3
 228 0040 0020     		movs	r0, #0
 229 0042 FFF7FEFF 		bl	SetBlockColor
 126:main.c        ****             break;
 230              		.loc 1 126 0
 231 0046 7EE0     		b	.L19
 232              	.L13:
 127:main.c        **** 
 128:main.c        ****         case CMD_SET_GREEN:
 129:main.c        ****             LED_RED_Write  (LED_OFF);
 233              		.loc 1 129 0
 234 0048 0120     		movs	r0, #1
 235 004a FFF7FEFF 		bl	LED_RED_Write
 130:main.c        ****             LED_GREEN_Write(LED_ON);
 236              		.loc 1 130 0
 237 004e 0020     		movs	r0, #0
 238 0050 FFF7FEFF 		bl	LED_GREEN_Write
 131:main.c        ****             LED_BLUE_Write (LED_OFF);
 239              		.loc 1 131 0
 240 0054 0120     		movs	r0, #1
 241 0056 FFF7FEFF 		bl	LED_BLUE_Write
 132:main.c        ****             SetBlockColor(0, StripLights_GREEN);
 242              		.loc 1 132 0
 243 005a 5E20     		movs	r0, #94
 244 005c FFF7FEFF 		bl	StripLights_getColor
 245 0060 0300     		movs	r3, r0
 246 0062 1900     		movs	r1, r3
 247 0064 0020     		movs	r0, #0
 248 0066 FFF7FEFF 		bl	SetBlockColor
 133:main.c        ****             break;
 249              		.loc 1 133 0
 250 006a 6CE0     		b	.L19
 251              	.L14:
 134:main.c        **** 
 135:main.c        ****         case CMD_SET_BLUE:
 136:main.c        ****             LED_RED_Write  (LED_OFF);
 252              		.loc 1 136 0
 253 006c 0120     		movs	r0, #1
 254 006e FFF7FEFF 		bl	LED_RED_Write
 137:main.c        ****             LED_GREEN_Write(LED_OFF);
 255              		.loc 1 137 0
 256 0072 0120     		movs	r0, #1
 257 0074 FFF7FEFF 		bl	LED_GREEN_Write
 138:main.c        ****             LED_BLUE_Write (LED_ON);
 258              		.loc 1 138 0
 259 0078 0020     		movs	r0, #0
 260 007a FFF7FEFF 		bl	LED_BLUE_Write
ARM GAS  C:\Users\JAMESS~1\AppData\Local\Temp\cci2rLHv.s 			page 8


 139:main.c        ****             SetBlockColor(0, StripLights_BLUE);
 261              		.loc 1 139 0
 262 007e 1B20     		movs	r0, #27
 263 0080 FFF7FEFF 		bl	StripLights_getColor
 264 0084 0300     		movs	r3, r0
 265 0086 1900     		movs	r1, r3
 266 0088 0020     		movs	r0, #0
 267 008a FFF7FEFF 		bl	SetBlockColor
 140:main.c        ****             break;
 268              		.loc 1 140 0
 269 008e 5AE0     		b	.L19
 270              	.L15:
 141:main.c        ****         case CMD_SET_RED_GREEN:
 142:main.c        ****             LED_RED_Write  (LED_ON);
 271              		.loc 1 142 0
 272 0090 0020     		movs	r0, #0
 273 0092 FFF7FEFF 		bl	LED_RED_Write
 143:main.c        ****             LED_GREEN_Write(LED_ON);
 274              		.loc 1 143 0
 275 0096 0020     		movs	r0, #0
 276 0098 FFF7FEFF 		bl	LED_GREEN_Write
 144:main.c        ****             LED_BLUE_Write (LED_OFF);
 277              		.loc 1 144 0
 278 009c 0120     		movs	r0, #1
 279 009e FFF7FEFF 		bl	LED_BLUE_Write
 145:main.c        ****             SetBlockColor(0, StripLights_YELLOW);
 280              		.loc 1 145 0
 281 00a2 0120     		movs	r0, #1
 282 00a4 FFF7FEFF 		bl	StripLights_getColor
 283 00a8 0300     		movs	r3, r0
 284 00aa 1900     		movs	r1, r3
 285 00ac 0020     		movs	r0, #0
 286 00ae FFF7FEFF 		bl	SetBlockColor
 146:main.c        ****             break;
 287              		.loc 1 146 0
 288 00b2 48E0     		b	.L19
 289              	.L16:
 147:main.c        ****         case CMD_SET_RED_BLUE:
 148:main.c        ****             LED_RED_Write  (LED_ON);
 290              		.loc 1 148 0
 291 00b4 0020     		movs	r0, #0
 292 00b6 FFF7FEFF 		bl	LED_RED_Write
 149:main.c        ****             LED_GREEN_Write(LED_OFF);
 293              		.loc 1 149 0
 294 00ba 0120     		movs	r0, #1
 295 00bc FFF7FEFF 		bl	LED_GREEN_Write
 150:main.c        ****             LED_BLUE_Write (LED_ON);
 296              		.loc 1 150 0
 297 00c0 0020     		movs	r0, #0
 298 00c2 FFF7FEFF 		bl	LED_BLUE_Write
 151:main.c        ****             SetBlockColor(0, StripLights_VIOLET);
 299              		.loc 1 151 0
 300 00c6 5C20     		movs	r0, #92
 301 00c8 FFF7FEFF 		bl	StripLights_getColor
 302 00cc 0300     		movs	r3, r0
 303 00ce 1900     		movs	r1, r3
 304 00d0 0020     		movs	r0, #0
ARM GAS  C:\Users\JAMESS~1\AppData\Local\Temp\cci2rLHv.s 			page 9


 305 00d2 FFF7FEFF 		bl	SetBlockColor
 152:main.c        ****             break;
 306              		.loc 1 152 0
 307 00d6 36E0     		b	.L19
 308              	.L17:
 153:main.c        ****         case CMD_SET_GREEN_BLUE:
 154:main.c        ****             LED_RED_Write  (LED_OFF);
 309              		.loc 1 154 0
 310 00d8 0120     		movs	r0, #1
 311 00da FFF7FEFF 		bl	LED_RED_Write
 155:main.c        ****             LED_GREEN_Write(LED_ON);
 312              		.loc 1 155 0
 313 00de 0020     		movs	r0, #0
 314 00e0 FFF7FEFF 		bl	LED_GREEN_Write
 156:main.c        ****             LED_BLUE_Write (LED_ON);
 315              		.loc 1 156 0
 316 00e4 0020     		movs	r0, #0
 317 00e6 FFF7FEFF 		bl	LED_BLUE_Write
 157:main.c        ****             SetBlockColor(0, StripLights_TURQUOSE);
 318              		.loc 1 157 0
 319 00ea 5920     		movs	r0, #89
 320 00ec FFF7FEFF 		bl	StripLights_getColor
 321 00f0 0300     		movs	r3, r0
 322 00f2 1900     		movs	r1, r3
 323 00f4 0020     		movs	r0, #0
 324 00f6 FFF7FEFF 		bl	SetBlockColor
 158:main.c        ****             break;
 325              		.loc 1 158 0
 326 00fa 24E0     		b	.L19
 327              	.L18:
 159:main.c        ****         case CMD_SET_RED_GREEN_BLUE:
 160:main.c        ****             LED_RED_Write  (LED_ON);
 328              		.loc 1 160 0
 329 00fc 0020     		movs	r0, #0
 330 00fe FFF7FEFF 		bl	LED_RED_Write
 161:main.c        ****             LED_GREEN_Write(LED_ON);
 331              		.loc 1 161 0
 332 0102 0020     		movs	r0, #0
 333 0104 FFF7FEFF 		bl	LED_GREEN_Write
 162:main.c        ****             LED_BLUE_Write (LED_ON);
 334              		.loc 1 162 0
 335 0108 0020     		movs	r0, #0
 336 010a FFF7FEFF 		bl	LED_BLUE_Write
 163:main.c        ****             SetBlockColor(0, StripLights_DIM_WHITE);
 337              		.loc 1 163 0
 338 010e 5F20     		movs	r0, #95
 339 0110 FFF7FEFF 		bl	StripLights_getColor
 340 0114 0300     		movs	r3, r0
 341 0116 1900     		movs	r1, r3
 342 0118 0020     		movs	r0, #0
 343 011a FFF7FEFF 		bl	SetBlockColor
 164:main.c        ****             break;
 344              		.loc 1 164 0
 345 011e 12E0     		b	.L19
 346              	.L10:
 165:main.c        **** 
 166:main.c        ****         case CMD_SET_OFF:
ARM GAS  C:\Users\JAMESS~1\AppData\Local\Temp\cci2rLHv.s 			page 10


 167:main.c        ****                     LED_RED_Write  (LED_OFF);
 347              		.loc 1 167 0
 348 0120 0120     		movs	r0, #1
 349 0122 FFF7FEFF 		bl	LED_RED_Write
 168:main.c        ****                     LED_GREEN_Write(LED_OFF);
 350              		.loc 1 168 0
 351 0126 0120     		movs	r0, #1
 352 0128 FFF7FEFF 		bl	LED_GREEN_Write
 169:main.c        ****                     LED_BLUE_Write (LED_OFF);
 353              		.loc 1 169 0
 354 012c 0120     		movs	r0, #1
 355 012e FFF7FEFF 		bl	LED_BLUE_Write
 170:main.c        ****                     SetBlockColor(0, 0);
 356              		.loc 1 170 0
 357 0132 0021     		movs	r1, #0
 358 0134 0020     		movs	r0, #0
 359 0136 FFF7FEFF 		bl	SetBlockColor
 171:main.c        ****             break;
 360              		.loc 1 171 0
 361 013a 04E0     		b	.L19
 362              	.L9:
 172:main.c        **** 
 173:main.c        ****         default:
 174:main.c        ****             status = STS_CMD_FAIL;
 363              		.loc 1 174 0
 364 013c 0F23     		movs	r3, #15
 365 013e FB18     		adds	r3, r7, r3
 366 0140 FF22     		movs	r2, #255
 367 0142 1A70     		strb	r2, [r3]
 175:main.c        ****             break;
 368              		.loc 1 175 0
 369 0144 C046     		nop
 370              	.L19:
 176:main.c        ****     }
 177:main.c        ****   
 178:main.c        ****     return (status);
 371              		.loc 1 178 0
 372 0146 0F23     		movs	r3, #15
 373 0148 FB18     		adds	r3, r7, r3
 374 014a 1B78     		ldrb	r3, [r3]
 179:main.c        **** }
 375              		.loc 1 179 0
 376 014c 1800     		movs	r0, r3
 377 014e BD46     		mov	sp, r7
 378 0150 04B0     		add	sp, sp, #16
 379              		@ sp needed
 380 0152 80BD     		pop	{r7, pc}
 381              	.L22:
 382              		.align	2
 383              	.L21:
 384 0154 00000000 		.word	.L11
 385              		.cfi_endproc
 386              	.LFE33:
 387              		.size	ExecuteCommand, .-ExecuteCommand
 388              		.section	.text.SetBlockColor,"ax",%progbits
 389              		.align	2
 390              		.global	SetBlockColor
ARM GAS  C:\Users\JAMESS~1\AppData\Local\Temp\cci2rLHv.s 			page 11


 391              		.code	16
 392              		.thumb_func
 393              		.type	SetBlockColor, %function
 394              	SetBlockColor:
 395              	.LFB34:
 180:main.c        **** 
 181:main.c        **** 
 182:main.c        **** 
 183:main.c        **** void SetBlockColor(int block_number, uint32 color) {
 396              		.loc 1 183 0
 397              		.cfi_startproc
 398              		@ args = 0, pretend = 0, frame = 16
 399              		@ frame_needed = 1, uses_anonymous_args = 0
 400 0000 80B5     		push	{r7, lr}
 401              		.cfi_def_cfa_offset 8
 402              		.cfi_offset 7, -8
 403              		.cfi_offset 14, -4
 404 0002 84B0     		sub	sp, sp, #16
 405              		.cfi_def_cfa_offset 24
 406 0004 00AF     		add	r7, sp, #0
 407              		.cfi_def_cfa_register 7
 408 0006 7860     		str	r0, [r7, #4]
 409 0008 3960     		str	r1, [r7]
 410              	.LBB2:
 184:main.c        **** 	for (uint32 led = 0; led < 15; led++) {
 411              		.loc 1 184 0
 412 000a 0023     		movs	r3, #0
 413 000c FB60     		str	r3, [r7, #12]
 414 000e 08E0     		b	.L24
 415              	.L25:
 185:main.c        **** 		StripLights_Pixel(led, block_number, color);
 416              		.loc 1 185 0 discriminator 3
 417 0010 FB68     		ldr	r3, [r7, #12]
 418 0012 3A68     		ldr	r2, [r7]
 419 0014 7968     		ldr	r1, [r7, #4]
 420 0016 1800     		movs	r0, r3
 421 0018 FFF7FEFF 		bl	StripLights_Pixel
 184:main.c        **** 	for (uint32 led = 0; led < 15; led++) {
 422              		.loc 1 184 0 discriminator 3
 423 001c FB68     		ldr	r3, [r7, #12]
 424 001e 0133     		adds	r3, r3, #1
 425 0020 FB60     		str	r3, [r7, #12]
 426              	.L24:
 184:main.c        **** 	for (uint32 led = 0; led < 15; led++) {
 427              		.loc 1 184 0 is_stmt 0 discriminator 1
 428 0022 FB68     		ldr	r3, [r7, #12]
 429 0024 0E2B     		cmp	r3, #14
 430 0026 F3D9     		bls	.L25
 431              	.LBE2:
 186:main.c        **** 	}
 187:main.c        ****     while (StripLights_Ready() == 0);
 432              		.loc 1 187 0 is_stmt 1
 433 0028 C046     		nop
 434              	.L26:
 435              		.loc 1 187 0 is_stmt 0 discriminator 1
 436 002a FFF7FEFF 		bl	StripLights_Ready
 437 002e 031E     		subs	r3, r0, #0
ARM GAS  C:\Users\JAMESS~1\AppData\Local\Temp\cci2rLHv.s 			page 12


 438 0030 FBD0     		beq	.L26
 188:main.c        **** 	StripLights_Trigger(1);
 439              		.loc 1 188 0 is_stmt 1
 440 0032 0120     		movs	r0, #1
 441 0034 FFF7FEFF 		bl	StripLights_Trigger
 189:main.c        **** 	CyDelay(10);
 442              		.loc 1 189 0
 443 0038 0A20     		movs	r0, #10
 444 003a FFF7FEFF 		bl	CyDelay
 190:main.c        **** }
 445              		.loc 1 190 0
 446 003e C046     		nop
 447 0040 BD46     		mov	sp, r7
 448 0042 04B0     		add	sp, sp, #16
 449              		@ sp needed
 450 0044 80BD     		pop	{r7, pc}
 451              		.cfi_endproc
 452              	.LFE34:
 453              		.size	SetBlockColor, .-SetBlockColor
 454 0046 C046     		.text
 455              	.Letext0:
 456              		.file 2 "Generated_Source\\PSoC4/cytypes.h"
 457              		.file 3 "./main.h"