ARM GAS  C:\Users\JAMESS~1\AppData\Local\Temp\ccbYd7EI.s 			page 1


   1              		.syntax unified
   2              		.cpu cortex-m0
   3              		.fpu softvfp
   4              		.eabi_attribute 20, 1
   5              		.eabi_attribute 21, 1
   6              		.eabi_attribute 23, 3
   7              		.eabi_attribute 24, 1
   8              		.eabi_attribute 25, 1
   9              		.eabi_attribute 26, 1
  10              		.eabi_attribute 30, 6
  11              		.eabi_attribute 34, 0
  12              		.eabi_attribute 18, 4
  13              		.thumb
  14              		.syntax unified
  15              		.file	"StripLights_StringSel.c"
  16              		.text
  17              	.Ltext0:
  18              		.cfi_sections	.debug_frame
  19              		.section	.text.StripLights_StringSel_Write,"ax",%progbits
  20              		.align	2
  21              		.global	StripLights_StringSel_Write
  22              		.code	16
  23              		.thumb_func
  24              		.type	StripLights_StringSel_Write, %function
  25              	StripLights_StringSel_Write:
  26              	.LFB0:
  27              		.file 1 "Generated_Source\\PSoC4\\StripLights_StringSel.c"
   1:Generated_Source\PSoC4/StripLights_StringSel.c **** /*******************************************************************************
   2:Generated_Source\PSoC4/StripLights_StringSel.c **** * File Name: StripLights_StringSel.c  
   3:Generated_Source\PSoC4/StripLights_StringSel.c **** * Version 1.80
   4:Generated_Source\PSoC4/StripLights_StringSel.c **** *
   5:Generated_Source\PSoC4/StripLights_StringSel.c **** * Description:
   6:Generated_Source\PSoC4/StripLights_StringSel.c **** *  This file contains API to enable firmware control of a Control Register.
   7:Generated_Source\PSoC4/StripLights_StringSel.c **** *
   8:Generated_Source\PSoC4/StripLights_StringSel.c **** * Note:
   9:Generated_Source\PSoC4/StripLights_StringSel.c **** *
  10:Generated_Source\PSoC4/StripLights_StringSel.c **** ********************************************************************************
  11:Generated_Source\PSoC4/StripLights_StringSel.c **** * Copyright 2008-2015, Cypress Semiconductor Corporation.  All rights reserved.
  12:Generated_Source\PSoC4/StripLights_StringSel.c **** * You may use this file only in accordance with the license, terms, conditions, 
  13:Generated_Source\PSoC4/StripLights_StringSel.c **** * disclaimers, and limitations in the end user license agreement accompanying 
  14:Generated_Source\PSoC4/StripLights_StringSel.c **** * the software package with which this file was provided.
  15:Generated_Source\PSoC4/StripLights_StringSel.c **** *******************************************************************************/
  16:Generated_Source\PSoC4/StripLights_StringSel.c **** 
  17:Generated_Source\PSoC4/StripLights_StringSel.c **** #include "StripLights_StringSel.h"
  18:Generated_Source\PSoC4/StripLights_StringSel.c **** 
  19:Generated_Source\PSoC4/StripLights_StringSel.c **** /* Check for removal by optimization */
  20:Generated_Source\PSoC4/StripLights_StringSel.c **** #if !defined(StripLights_StringSel_Sync_ctrl_reg__REMOVED)
  21:Generated_Source\PSoC4/StripLights_StringSel.c **** 
  22:Generated_Source\PSoC4/StripLights_StringSel.c ****     
  23:Generated_Source\PSoC4/StripLights_StringSel.c **** /*******************************************************************************
  24:Generated_Source\PSoC4/StripLights_StringSel.c **** * Function Name: StripLights_StringSel_Write
  25:Generated_Source\PSoC4/StripLights_StringSel.c **** ********************************************************************************
  26:Generated_Source\PSoC4/StripLights_StringSel.c **** *
  27:Generated_Source\PSoC4/StripLights_StringSel.c **** * Summary:
  28:Generated_Source\PSoC4/StripLights_StringSel.c **** *  Write a byte to the Control Register.
  29:Generated_Source\PSoC4/StripLights_StringSel.c **** *
  30:Generated_Source\PSoC4/StripLights_StringSel.c **** * Parameters:
ARM GAS  C:\Users\JAMESS~1\AppData\Local\Temp\ccbYd7EI.s 			page 2


  31:Generated_Source\PSoC4/StripLights_StringSel.c **** *  control:  The value to be assigned to the Control Register.
  32:Generated_Source\PSoC4/StripLights_StringSel.c **** *
  33:Generated_Source\PSoC4/StripLights_StringSel.c **** * Return:
  34:Generated_Source\PSoC4/StripLights_StringSel.c **** *  None.
  35:Generated_Source\PSoC4/StripLights_StringSel.c **** *
  36:Generated_Source\PSoC4/StripLights_StringSel.c **** *******************************************************************************/
  37:Generated_Source\PSoC4/StripLights_StringSel.c **** void StripLights_StringSel_Write(uint8 control) 
  38:Generated_Source\PSoC4/StripLights_StringSel.c **** {
  28              		.loc 1 38 0
  29              		.cfi_startproc
  30              		@ args = 0, pretend = 0, frame = 8
  31              		@ frame_needed = 1, uses_anonymous_args = 0
  32 0000 80B5     		push	{r7, lr}
  33              		.cfi_def_cfa_offset 8
  34              		.cfi_offset 7, -8
  35              		.cfi_offset 14, -4
  36 0002 82B0     		sub	sp, sp, #8
  37              		.cfi_def_cfa_offset 16
  38 0004 00AF     		add	r7, sp, #0
  39              		.cfi_def_cfa_register 7
  40 0006 0200     		movs	r2, r0
  41 0008 FB1D     		adds	r3, r7, #7
  42 000a 1A70     		strb	r2, [r3]
  39:Generated_Source\PSoC4/StripLights_StringSel.c ****     StripLights_StringSel_Control = control;
  43              		.loc 1 39 0
  44 000c 034A     		ldr	r2, .L2
  45 000e FB1D     		adds	r3, r7, #7
  46 0010 1B78     		ldrb	r3, [r3]
  47 0012 1370     		strb	r3, [r2]
  40:Generated_Source\PSoC4/StripLights_StringSel.c **** }
  48              		.loc 1 40 0
  49 0014 C046     		nop
  50 0016 BD46     		mov	sp, r7
  51 0018 02B0     		add	sp, sp, #8
  52              		@ sp needed
  53 001a 80BD     		pop	{r7, pc}
  54              	.L3:
  55              		.align	2
  56              	.L2:
  57 001c 71000F40 		.word	1074724977
  58              		.cfi_endproc
  59              	.LFE0:
  60              		.size	StripLights_StringSel_Write, .-StripLights_StringSel_Write
  61              		.section	.text.StripLights_StringSel_Read,"ax",%progbits
  62              		.align	2
  63              		.global	StripLights_StringSel_Read
  64              		.code	16
  65              		.thumb_func
  66              		.type	StripLights_StringSel_Read, %function
  67              	StripLights_StringSel_Read:
  68              	.LFB1:
  41:Generated_Source\PSoC4/StripLights_StringSel.c **** 
  42:Generated_Source\PSoC4/StripLights_StringSel.c **** 
  43:Generated_Source\PSoC4/StripLights_StringSel.c **** /*******************************************************************************
  44:Generated_Source\PSoC4/StripLights_StringSel.c **** * Function Name: StripLights_StringSel_Read
  45:Generated_Source\PSoC4/StripLights_StringSel.c **** ********************************************************************************
  46:Generated_Source\PSoC4/StripLights_StringSel.c **** *
ARM GAS  C:\Users\JAMESS~1\AppData\Local\Temp\ccbYd7EI.s 			page 3


  47:Generated_Source\PSoC4/StripLights_StringSel.c **** * Summary:
  48:Generated_Source\PSoC4/StripLights_StringSel.c **** *  Reads the current value assigned to the Control Register.
  49:Generated_Source\PSoC4/StripLights_StringSel.c **** *
  50:Generated_Source\PSoC4/StripLights_StringSel.c **** * Parameters:
  51:Generated_Source\PSoC4/StripLights_StringSel.c **** *  None.
  52:Generated_Source\PSoC4/StripLights_StringSel.c **** *
  53:Generated_Source\PSoC4/StripLights_StringSel.c **** * Return:
  54:Generated_Source\PSoC4/StripLights_StringSel.c **** *  Returns the current value in the Control Register.
  55:Generated_Source\PSoC4/StripLights_StringSel.c **** *
  56:Generated_Source\PSoC4/StripLights_StringSel.c **** *******************************************************************************/
  57:Generated_Source\PSoC4/StripLights_StringSel.c **** uint8 StripLights_StringSel_Read(void) 
  58:Generated_Source\PSoC4/StripLights_StringSel.c **** {
  69              		.loc 1 58 0
  70              		.cfi_startproc
  71              		@ args = 0, pretend = 0, frame = 0
  72              		@ frame_needed = 1, uses_anonymous_args = 0
  73 0000 80B5     		push	{r7, lr}
  74              		.cfi_def_cfa_offset 8
  75              		.cfi_offset 7, -8
  76              		.cfi_offset 14, -4
  77 0002 00AF     		add	r7, sp, #0
  78              		.cfi_def_cfa_register 7
  59:Generated_Source\PSoC4/StripLights_StringSel.c ****     return StripLights_StringSel_Control;
  79              		.loc 1 59 0
  80 0004 024B     		ldr	r3, .L6
  81 0006 1B78     		ldrb	r3, [r3]
  82 0008 DBB2     		uxtb	r3, r3
  60:Generated_Source\PSoC4/StripLights_StringSel.c **** }
  83              		.loc 1 60 0
  84 000a 1800     		movs	r0, r3
  85 000c BD46     		mov	sp, r7
  86              		@ sp needed
  87 000e 80BD     		pop	{r7, pc}
  88              	.L7:
  89              		.align	2
  90              	.L6:
  91 0010 71000F40 		.word	1074724977
  92              		.cfi_endproc
  93              	.LFE1:
  94              		.size	StripLights_StringSel_Read, .-StripLights_StringSel_Read
  95              		.text
  96              	.Letext0:
  97              		.file 2 "Generated_Source\\PSoC4\\cytypes.h"